ARM GAS  C:\Users\ryanc.HS\AppData\Local\Temp\ccZ9UySd.s 			page 1


   1              		.cpu cortex-m3
   2              		.eabi_attribute 20, 1
   3              		.eabi_attribute 21, 1
   4              		.eabi_attribute 23, 3
   5              		.eabi_attribute 24, 1
   6              		.eabi_attribute 25, 1
   7              		.eabi_attribute 26, 1
   8              		.eabi_attribute 30, 1
   9              		.eabi_attribute 34, 1
  10              		.eabi_attribute 18, 4
  11              		.file	"keyremo.c"
  12              		.text
  13              	.Ltext0:
  14              		.cfi_sections	.debug_frame
  15              		.section	.text.RemoMenu_MenuKey,"ax",%progbits
  16              		.align	1
  17              		.global	RemoMenu_MenuKey
  18              		.arch armv7-m
  19              		.syntax unified
  20              		.thumb
  21              		.thumb_func
  22              		.fpu softvfp
  24              	RemoMenu_MenuKey:
  25              	.LFB68:
  26              		.file 1 "VS4210/keyremo.c"
   1:VS4210/keyremo.c **** //
   2:VS4210/keyremo.c **** // KeyRemo.h
   3:VS4210/keyremo.c **** // Default function for Key Input and Remocon Input
   4:VS4210/keyremo.c **** //
   5:VS4210/keyremo.c **** //=============================================================================
   6:VS4210/keyremo.c **** //		                    Operation Key Mapping
   7:VS4210/keyremo.c **** //=============================================================================
   8:VS4210/keyremo.c **** 
   9:VS4210/keyremo.c **** // eeprom.c
  10:VS4210/keyremo.c **** #include "VXIS_Extern_Define.h"
  11:VS4210/keyremo.c **** 
  12:VS4210/keyremo.c **** #include "tpinc/Device_Rx.h"
  13:VS4210/keyremo.c **** #include "tpinc/TP2802.h"
  14:VS4210/keyremo.c **** #include "stdlib.h"
  15:VS4210/keyremo.c **** #include "VX_swi2c.h"
  16:VS4210/keyremo.c **** #include "VS4210.h"
  17:VS4210/keyremo.c **** 
  18:VS4210/keyremo.c **** //#include "Config.h"
  19:VS4210/keyremo.c **** //#include "typedefs.h"
  20:VS4210/keyremo.c **** #include "main.h"
  21:VS4210/keyremo.c **** //#include "i2c.h"
  22:VS4210/keyremo.c **** #include "printf.h"
  23:VS4210/keyremo.c **** #include "etc_eep.h"
  24:VS4210/keyremo.c **** #include "keyremo.h"
  25:VS4210/keyremo.c **** #include "VX_OSD_Simple.h"
  26:VS4210/keyremo.c **** #include "VX_OSD.h"
  27:VS4210/keyremo.c **** 
  28:VS4210/keyremo.c **** #include "GT911.h"
  29:VS4210/keyremo.c **** 
  30:VS4210/keyremo.c **** /*
  31:VS4210/keyremo.c **** #include "config.h"
  32:VS4210/keyremo.c **** #include "typedefs.h"
ARM GAS  C:\Users\ryanc.HS\AppData\Local\Temp\ccZ9UySd.s 			page 2


  33:VS4210/keyremo.c **** #include "keyremo.h"
  34:VS4210/keyremo.c **** #include "measure.h"
  35:VS4210/keyremo.c **** #include "audio.h"
  36:VS4210/keyremo.c **** #include "dispinfo.h"
  37:VS4210/keyremo.c **** #include "main.h"
  38:VS4210/keyremo.c **** #include "i2c.h"
  39:VS4210/keyremo.c **** #include "osdmenu.h"
  40:VS4210/keyremo.c **** #include "debug.h"
  41:VS4210/keyremo.c **** #include "cpu.h"
  42:VS4210/keyremo.c **** #include "printf.h"
  43:VS4210/keyremo.c **** #include "regmap.h"
  44:VS4210/keyremo.c **** #include "reg.h"
  45:VS4210/keyremo.c **** #include "etc_eep.h"
  46:VS4210/keyremo.c **** #include "osdbasic.h"
  47:VS4210/keyremo.c **** #include "HS_keyremo.h"
  48:VS4210/keyremo.c **** #include "HS_DisplayOSD.h"
  49:VS4210/keyremo.c **** #include "HS_DVRProtocol.h"
  50:VS4210/keyremo.c **** #include "HS_IOdef.h"
  51:VS4210/keyremo.c **** #include "audio.h"
  52:VS4210/keyremo.c **** */
  53:VS4210/keyremo.c **** 
  54:VS4210/keyremo.c **** bit CAM_PTZ_RUN_flag;
  55:VS4210/keyremo.c **** BYTE lock_keycnt;
  56:VS4210/keyremo.c **** BYTE KeyBuffer = 0;
  57:VS4210/keyremo.c **** BYTE LockKeyState = 0;
  58:VS4210/keyremo.c **** BYTE BookMarkState = 0;
  59:VS4210/keyremo.c **** extern tByte DayNightLevel;
  60:VS4210/keyremo.c **** BYTE Disp_Input = 0; // ryan@21071019
  61:VS4210/keyremo.c **** 
  62:VS4210/keyremo.c **** BYTE TR_JUMP_Flag = 0;		   // ryan@20170912
  63:VS4210/keyremo.c **** BYTE TR_JUMP_HOLD = 0;		   // ryan@20170912
  64:VS4210/keyremo.c **** BYTE RELEASE_TR_JUMP_Flag = 0; // ryan@20170912
  65:VS4210/keyremo.c **** 
  66:VS4210/keyremo.c **** BYTE OSD_LOCKF = 0; // ryan@21071018
  67:VS4210/keyremo.c **** BYTE updn_reg[4] = {0, 0, 0, 0};
  68:VS4210/keyremo.c **** BYTE Time5ms = 40;
  69:VS4210/keyremo.c **** bit ChangeKey;
  70:VS4210/keyremo.c **** BYTE TriggerMode;
  71:VS4210/keyremo.c **** BYTE TriggerStatus = 0;
  72:VS4210/keyremo.c **** BYTE SEQFlag = 0;
  73:VS4210/keyremo.c **** BYTE coc_cursor;
  74:VS4210/keyremo.c **** BYTE BOX_Set_flag = 0;
  75:VS4210/keyremo.c **** BYTE TouchResetSelectModeFlag = 0;
  76:VS4210/keyremo.c **** BYTE TouchPreSelectModeType = 0;
  77:VS4210/keyremo.c **** 
  78:VS4210/keyremo.c **** extern BYTE RUN_DIMMER;
  79:VS4210/keyremo.c **** 
  80:VS4210/keyremo.c **** extern BYTE SEQIndex;
  81:VS4210/keyremo.c **** extern BYTE TimeStep;
  82:VS4210/keyremo.c **** extern BYTE PreSelectModeType;
  83:VS4210/keyremo.c **** extern BYTE COCSelectModeType[4];
  84:VS4210/keyremo.c **** extern BYTE PreCOCSelectModeType[4];
  85:VS4210/keyremo.c **** extern BYTE Flisheye_CAM[4];
  86:VS4210/keyremo.c **** extern BYTE BOOT_ISSUE;
  87:VS4210/keyremo.c **** extern BYTE QuadBoxId;
  88:VS4210/keyremo.c **** extern BYTE CAMA_M;
  89:VS4210/keyremo.c **** extern BYTE CAMB_M;
ARM GAS  C:\Users\ryanc.HS\AppData\Local\Temp\ccZ9UySd.s 			page 3


  90:VS4210/keyremo.c **** extern BYTE CAMC_M;
  91:VS4210/keyremo.c **** extern BYTE CAMR_M;
  92:VS4210/keyremo.c **** extern BYTE QuadBoxMode;
  93:VS4210/keyremo.c **** extern BYTE bytAutoSleeping;
  94:VS4210/keyremo.c **** extern BYTE bytStandByMode;
  95:VS4210/keyremo.c **** extern BYTE bytPowerDownMode;
  96:VS4210/keyremo.c **** extern BYTE bytStandByModeToTriggerMode;
  97:VS4210/keyremo.c **** extern BYTE bytTripleScreenType;
  98:VS4210/keyremo.c **** extern BYTE bytGaugeAdjust;
  99:VS4210/keyremo.c **** extern WORD standby_count;
 100:VS4210/keyremo.c **** extern tByte VideoSave[4];
 101:VS4210/keyremo.c **** extern BYTE bytSelectCAMRD;
 102:VS4210/keyremo.c **** extern tByte count[4];
 103:VS4210/keyremo.c **** extern BYTE bytGarbberLiner;
 104:VS4210/keyremo.c **** extern BYTE bytGrabberAdjust;
 105:VS4210/keyremo.c **** extern BYTE bytCOCAdjust;
 106:VS4210/keyremo.c **** extern BYTE AudioVol;
 107:VS4210/keyremo.c **** 
 108:VS4210/keyremo.c **** extern volatile bit g_bNotifyTimer0Int;
 109:VS4210/keyremo.c **** 
 110:VS4210/keyremo.c **** extern BYTE CURRENT_CH;
 111:VS4210/keyremo.c **** extern BYTE bytResetOSDValue;
 112:VS4210/keyremo.c **** extern BYTE PWR_OFF_TO_ON;
 113:VS4210/keyremo.c **** 
 114:VS4210/keyremo.c **** volatile BYTE MainSetSelectMode[13 + 1] = {
 115:VS4210/keyremo.c **** 	VS4210_LOOP_MODE0_w0,	// 0
 116:VS4210/keyremo.c **** 	VS4210_LOOP_MODE0_w1,	/// 1
 117:VS4210/keyremo.c **** 	VS4210_LOOP_MODE0_w2,	/// 2
 118:VS4210/keyremo.c **** 	VS4210_LOOP_MODE0_w3,	/// 3
 119:VS4210/keyremo.c **** 	VS4210_LOOP_MODE0_w4,	/// 4
 120:VS4210/keyremo.c **** 	VS4210_LOOP_MODE12_12,	/// 5
 121:VS4210/keyremo.c **** 	VS4210_LOOP_MODE12_34,	/// 6
 122:VS4210/keyremo.c **** 	VS4210_LOOP_MODE12_14,	/// 7
 123:VS4210/keyremo.c **** 	VS4210_LOOP_MODE12_42,	/// 8
 124:VS4210/keyremo.c **** 	VS4210_LOOP_MODE12_13,	/// 9
 125:VS4210/keyremo.c **** 	VS4210_LOOP_MODE12_32,	/// 10
 126:VS4210/keyremo.c **** 	VS4210_LOOP_MODE10_412, /// 11
 127:VS4210/keyremo.c **** 	VS4210_LOOP_MODE8_412,	/// 12
 128:VS4210/keyremo.c **** 	// VS4210_LOOP_MODE9_412,
 129:VS4210/keyremo.c **** 	VS4210_LOOP_MODE1 /// 13
 130:VS4210/keyremo.c **** 
 131:VS4210/keyremo.c **** 	/*
 132:VS4210/keyremo.c **** 		VS4210_LOOP_MODE2 ,///5
 133:VS4210/keyremo.c **** 		VS4210_LOOP_MODE10_123 ,///6
 134:VS4210/keyremo.c **** 		VS4210_LOOP_MODE8 ,///7
 135:VS4210/keyremo.c **** 		 VS4210_LOOP_MODE9 ,///8
 136:VS4210/keyremo.c **** 		  VS4210_LOOP_MODE14,///17
 137:VS4210/keyremo.c **** 		VS4210_LOOP_MODE_NUMBER  //18
 138:VS4210/keyremo.c **** 		*/
 139:VS4210/keyremo.c **** };
 140:VS4210/keyremo.c **** /*
 141:VS4210/keyremo.c **** volatile BYTE	MainTouchSetSelectMode[13][4]={
 142:VS4210/keyremo.c **** 	   {12,12,12,12},//VS4210_LOOP_MODE0_w0},
 143:VS4210/keyremo.c **** 	   {12,12,12,12},//VS4210_LOOP_MODE0_w1} ,
 144:VS4210/keyremo.c **** 	   {12,12,12,12},//VS4210_LOOP_MODE0_w2} ,
 145:VS4210/keyremo.c **** 	   {12,12,12,12},//VS4210_LOOP_MODE0_w3} ,
 146:VS4210/keyremo.c **** 	   {0,1,0,1},//VS4210_LOOP_MODE12_12},
ARM GAS  C:\Users\ryanc.HS\AppData\Local\Temp\ccZ9UySd.s 			page 4


 147:VS4210/keyremo.c ****    {2,3,2,3},//VS4210_LOOP_MODE12_34},
 148:VS4210/keyremo.c ****    {0,3,0,3},//VS4210_LOOP_MODE12_14},
 149:VS4210/keyremo.c **** 	   {3,1,3,1},//VS4210_LOOP_MODE12_42},
 150:VS4210/keyremo.c ****    {0,2,0,2},//VS4210_LOOP_MODE12_13},
 151:VS4210/keyremo.c **** 	   {2,1,2,1},//VS4210_LOOP_MODE12_32},
 152:VS4210/keyremo.c ****    {3,3,0,1},//VS4210_LOOP_MODE10_412} ,
 153:VS4210/keyremo.c ****    {3,0,3,1},//VS4210_LOOP_MODE8_412}
 154:VS4210/keyremo.c ****    {0,1,2,3}//VS4210_LOOP_MODE1_1234}
 155:VS4210/keyremo.c **** 	   };
 156:VS4210/keyremo.c **** */
 157:VS4210/keyremo.c **** volatile BYTE MainTouchSetSelectMode[13][16] = {
 158:VS4210/keyremo.c **** 	// 0,    1,      2,    3,     4,     5,     6,     7,     8,     9,    10,   11,   12,   13,   14,
 159:VS4210/keyremo.c **** 	{0x1C, 0x2C, 0x1C, 0x2C, 0x3C, 0x4C, 0x3C, 0x4C, 0x1C, 0x2C, 0x1C, 0x2C, 0x3C, 0x4C, 0x3C, 0x4C}, 
 160:VS4210/keyremo.c **** 	{0x1C, 0x2C, 0x1C, 0x2C, 0x3C, 0x4C, 0x3C, 0x4C, 0x1C, 0x2C, 0x1C, 0x2C, 0x3C, 0x4C, 0x3C, 0x4C}, 
 161:VS4210/keyremo.c **** 	{0x1C, 0x2C, 0x1C, 0x2C, 0x3C, 0x4C, 0x3C, 0x4C, 0x1C, 0x2C, 0x1C, 0x2C, 0x3C, 0x4C, 0x3C, 0x4C}, 
 162:VS4210/keyremo.c **** 	{0x1C, 0x2C, 0x1C, 0x2C, 0x3C, 0x4C, 0x3C, 0x4C, 0x1C, 0x2C, 0x1C, 0x2C, 0x3C, 0x4C, 0x3C, 0x4C}, 
 163:VS4210/keyremo.c **** 	{0x10, 0x20, 0x11, 0x21, 0x10, 0x20, 0x11, 0x21, 0x30, 0x40, 0x31, 0x41, 0x30, 0x40, 0x31, 0x41}, 
 164:VS4210/keyremo.c **** 	{0x12, 0x22, 0x13, 0x23, 0x12, 0x22, 0x13, 0x23, 0x32, 0x42, 0x33, 0x43, 0x32, 0x42, 0x33, 0x43}, 
 165:VS4210/keyremo.c **** 	{0x10, 0x20, 0x13, 0x23, 0x10, 0x20, 0x13, 0x23, 0x30, 0x40, 0x33, 0x43, 0x30, 0x40, 0x33, 0x43}, 
 166:VS4210/keyremo.c **** 	{0x13, 0x23, 0x11, 0x21, 0x13, 0x23, 0x11, 0x21, 0x33, 0x43, 0x31, 0x41, 0x33, 0x43, 0x31, 0x41}, 
 167:VS4210/keyremo.c **** 	{0x10, 0x20, 0x12, 0x22, 0x10, 0x20, 0x12, 0x22, 0x30, 0x40, 0x32, 0x42, 0x30, 0x40, 0x32, 0x42}, 
 168:VS4210/keyremo.c **** 	{0x12, 0x22, 0x11, 0x21, 0x12, 0x22, 0x11, 0x21, 0x32, 0x42, 0x31, 0x41, 0x32, 0x42, 0x31, 0x41}, 
 169:VS4210/keyremo.c **** 	{0x13, 0x13, 0x23, 0x23, 0x33, 0x33, 0x43, 0x43, 0x10, 0x20, 0x11, 0x21, 0x30, 0x40, 0x31, 0x41}, 
 170:VS4210/keyremo.c **** 	{0x13, 0x23, 0x10, 0x20, 0x33, 0x43, 0x30, 0x40, 0x33, 0x43, 0x11, 0x21, 0x33, 0x43, 0x31, 0x41}, 
 171:VS4210/keyremo.c **** 	{0x10, 0x20, 0x11, 0x21, 0x30, 0x40, 0x31, 0x41, 0x12, 0x22, 0x13, 0x23, 0x32, 0x42, 0x33, 0x43}  
 172:VS4210/keyremo.c **** };
 173:VS4210/keyremo.c **** /*
 174:VS4210/keyremo.c **** volatile BYTE  MainTouchSetSelectMode[13][16]={
 175:VS4210/keyremo.c **** 	//0, 1, 2, 3, 4, 5, 6, 7, 8, 9, 10, 11, 12, 13, 14, 15,
 176:VS4210/keyremo.c **** 	   {12,12,12,12,12,12,12,12,12,12,12,12,12,12,12,12},//VS4210_LOOP_MODE0_w0},
 177:VS4210/keyremo.c **** 	   {12,12,12,12,12,12,12,12,12,12,12,12,12,12,12,12},//VS4210_LOOP_MODE0_w1} ,
 178:VS4210/keyremo.c **** 	   {12,12,12,12,12,12,12,12,12,12,12,12,12,12,12,12},//VS4210_LOOP_MODE0_w2} ,
 179:VS4210/keyremo.c **** 	   {12,12,12,12,12,12,12,12,12,12,12,12,12,12,12,12},//VS4210_LOOP_MODE0_w3} ,
 180:VS4210/keyremo.c **** 	   {0,0,1,1,0,0,1,1,0,0,1,1,0,0,1,1},//VS4210_LOOP_MODE12_12},
 181:VS4210/keyremo.c ****    {2,2,3,3,2,2,3,3,2,2,3,3,2,2,3,3},//VS4210_LOOP_MODE12_34},
 182:VS4210/keyremo.c ****    {0,0,3,3,0,0,3,3,0,0,3,3,0,0,3,3},//VS4210_LOOP_MODE12_14},
 183:VS4210/keyremo.c **** 	   {3,3,1,1,3,3,1,1,3,3,1,1,3,3,1,1},//VS4210_LOOP_MODE12_42},
 184:VS4210/keyremo.c ****    {0,0,2,2,0,0,2,2,0,0,2,2,0,0,2,2},//VS4210_LOOP_MODE12_13},
 185:VS4210/keyremo.c **** 	   {2,2,1,1,2,2,1,1,2,2,1,1,2,2,1,1},//VS4210_LOOP_MODE12_32},
 186:VS4210/keyremo.c ****    {3,3,3,3,3,3,3,3,0,0,1,1,0,0,1,1},//VS4210_LOOP_MODE10_412} ,
 187:VS4210/keyremo.c ****    {3,3,0,0,3,3,0,0,3,3,1,1,3,3,1,1},//VS4210_LOOP_MODE8_412}
 188:VS4210/keyremo.c ****    {0,0,1,1,0,0,1,1,2,2,3,3,2,2,3,3,}//VS4210_LOOP_MODE1_1234}
 189:VS4210/keyremo.c **** 	   };
 190:VS4210/keyremo.c **** */
 191:VS4210/keyremo.c **** BYTE JumpTable[] = {
 192:VS4210/keyremo.c **** 	VS4210_LOOP_MODE1,		// CAM_QUAD,
 193:VS4210/keyremo.c **** 	VS4210_LOOP_MODE0_w0,	// SEQ,
 194:VS4210/keyremo.c **** 	VS4210_LOOP_MODE12_12,	// CAM_AB,
 195:VS4210/keyremo.c **** 	VS4210_LOOP_MODE12_34,	// CAM_CR,
 196:VS4210/keyremo.c **** 	VS4210_LOOP_MODE12_14,	// CAM_AR,
 197:VS4210/keyremo.c **** 	VS4210_LOOP_MODE12_42,	// CAM_RB,
 198:VS4210/keyremo.c **** 	VS4210_LOOP_MODE12_13,	// CAM_AC,
 199:VS4210/keyremo.c **** 	VS4210_LOOP_MODE12_32,	// CAM_CB,
 200:VS4210/keyremo.c **** 	VS4210_LOOP_MODE10_412, // CAM_RAB_T,
 201:VS4210/keyremo.c **** 	VS4210_LOOP_MODE8_412,	// CAM_RAB_H,
 202:VS4210/keyremo.c **** 	VS4210_LOOP_MODE0_w0,	// CAM_A,
 203:VS4210/keyremo.c **** 	VS4210_LOOP_MODE0_w1,	// CAM_B,
ARM GAS  C:\Users\ryanc.HS\AppData\Local\Temp\ccZ9UySd.s 			page 5


 204:VS4210/keyremo.c **** 	VS4210_LOOP_MODE0_w2,	// CAM_C,
 205:VS4210/keyremo.c **** 	VS4210_LOOP_MODE0_w4,	// CAM_D,
 206:VS4210/keyremo.c **** 	VS4210_LOOP_MODE0_w3	// CAM_R
 207:VS4210/keyremo.c **** };
 208:VS4210/keyremo.c **** 
 209:VS4210/keyremo.c **** BYTE LeftTable[] = {
 210:VS4210/keyremo.c **** 	VS4210_LOOP_MODE0_w0,  // CAM_A,
 211:VS4210/keyremo.c **** 	VS4210_LOOP_MODE12_12, // CAM_AB,
 212:VS4210/keyremo.c **** 	VS4210_LOOP_MODE12_13, // CAM_AC,
 213:VS4210/keyremo.c **** 	VS4210_LOOP_MODE12_14, /// CAM_AR,
 214:VS4210/keyremo.c **** 	VS4210_LOOP_MODE8_123, /// CAM_ABC,
 215:VS4210/keyremo.c **** 	VS4210_LOOP_MODE8_124, // CAM_ABR,
 216:VS4210/keyremo.c **** 	VS4210_LOOP_MODE8_134  /// ,CAM_ACR
 217:VS4210/keyremo.c **** };
 218:VS4210/keyremo.c **** 
 219:VS4210/keyremo.c **** BYTE LeftTable9[] = {
 220:VS4210/keyremo.c **** 	VS4210_LOOP_MODE0_w0,  // CAM_A,
 221:VS4210/keyremo.c **** 	VS4210_LOOP_MODE12_12, // CAM_AB,
 222:VS4210/keyremo.c **** 	VS4210_LOOP_MODE12_13, // CAM_AC,
 223:VS4210/keyremo.c **** 	VS4210_LOOP_MODE12_14, /// CAM_AR,
 224:VS4210/keyremo.c **** 	VS4210_LOOP_MODE9_123, /// CAM_ABC,
 225:VS4210/keyremo.c **** 	VS4210_LOOP_MODE9_124, // CAM_ABR,
 226:VS4210/keyremo.c **** 	VS4210_LOOP_MODE9_134  /// ,CAM_ACR
 227:VS4210/keyremo.c **** };
 228:VS4210/keyremo.c **** 
 229:VS4210/keyremo.c **** BYTE LeftTable10[] = {
 230:VS4210/keyremo.c **** 	VS4210_LOOP_MODE0_w0,	// CAM_A,
 231:VS4210/keyremo.c **** 	VS4210_LOOP_MODE12_12,	// CAM_AB,
 232:VS4210/keyremo.c **** 	VS4210_LOOP_MODE12_13,	// CAM_AC,
 233:VS4210/keyremo.c **** 	VS4210_LOOP_MODE12_14,	/// CAM_AR,
 234:VS4210/keyremo.c **** 	VS4210_LOOP_MODE10_123, /// CAM_ABC,
 235:VS4210/keyremo.c **** 	VS4210_LOOP_MODE10_124, // CAM_ABR,
 236:VS4210/keyremo.c **** 	VS4210_LOOP_MODE10_134	/// ,CAM_ACR
 237:VS4210/keyremo.c **** };
 238:VS4210/keyremo.c **** 
 239:VS4210/keyremo.c **** BYTE RightTable[] = {
 240:VS4210/keyremo.c **** 	VS4210_LOOP_MODE0_w1,  // CAM_B,
 241:VS4210/keyremo.c **** 	VS4210_LOOP_MODE12_21, // CAM_BA,
 242:VS4210/keyremo.c **** 	VS4210_LOOP_MODE12_23, // CAM_BC,
 243:VS4210/keyremo.c **** 	VS4210_LOOP_MODE12_24, // CAM_BR,
 244:VS4210/keyremo.c **** 	VS4210_LOOP_MODE8_213, /// CAM_BAC,
 245:VS4210/keyremo.c **** 	VS4210_LOOP_MODE8_214, /// CAM_BAR,
 246:VS4210/keyremo.c **** 	VS4210_LOOP_MODE8_234  /// CAM_BCR
 247:VS4210/keyremo.c **** };
 248:VS4210/keyremo.c **** 
 249:VS4210/keyremo.c **** BYTE RightTable9[] = {
 250:VS4210/keyremo.c **** 	VS4210_LOOP_MODE0_w1,  // CAM_B,
 251:VS4210/keyremo.c **** 	VS4210_LOOP_MODE12_21, // CAM_BA,
 252:VS4210/keyremo.c **** 	VS4210_LOOP_MODE12_23, // CAM_BC,
 253:VS4210/keyremo.c **** 	VS4210_LOOP_MODE12_24, // CAM_BR,
 254:VS4210/keyremo.c **** 	VS4210_LOOP_MODE9_213, /// CAM_BAC,
 255:VS4210/keyremo.c **** 	VS4210_LOOP_MODE9_214, /// CAM_BAR,
 256:VS4210/keyremo.c **** 	VS4210_LOOP_MODE9_234  /// CAM_BCR
 257:VS4210/keyremo.c **** };
 258:VS4210/keyremo.c **** BYTE RightTable10[] = {
 259:VS4210/keyremo.c **** 	VS4210_LOOP_MODE0_w1,	// CAM_B,
 260:VS4210/keyremo.c **** 	VS4210_LOOP_MODE12_21,	// CAM_BA,
ARM GAS  C:\Users\ryanc.HS\AppData\Local\Temp\ccZ9UySd.s 			page 6


 261:VS4210/keyremo.c **** 	VS4210_LOOP_MODE12_23,	// CAM_BC,
 262:VS4210/keyremo.c **** 	VS4210_LOOP_MODE12_24,	// CAM_BR,
 263:VS4210/keyremo.c **** 	VS4210_LOOP_MODE10_213, /// CAM_BAC,
 264:VS4210/keyremo.c **** 	VS4210_LOOP_MODE10_214, /// CAM_BAR,
 265:VS4210/keyremo.c **** 	VS4210_LOOP_MODE10_234	/// CAM_BCR
 266:VS4210/keyremo.c **** };
 267:VS4210/keyremo.c **** 
 268:VS4210/keyremo.c **** BYTE TriggerC_Table[] = {
 269:VS4210/keyremo.c **** 	VS4210_LOOP_MODE0_w2,  // CAM_C,
 270:VS4210/keyremo.c **** 	VS4210_LOOP_MODE12_31, // CAM_CA,
 271:VS4210/keyremo.c **** 	VS4210_LOOP_MODE12_32, // CAM_CB,
 272:VS4210/keyremo.c **** 	VS4210_LOOP_MODE12_34, /// CAM_CR,
 273:VS4210/keyremo.c **** 	VS4210_LOOP_MODE8_312, // CAM_CAB,
 274:VS4210/keyremo.c **** 	VS4210_LOOP_MODE8_314, /// CAM_CAR,
 275:VS4210/keyremo.c **** 	VS4210_LOOP_MODE8_324  /// CAM_CBR
 276:VS4210/keyremo.c **** };
 277:VS4210/keyremo.c **** 
 278:VS4210/keyremo.c **** BYTE TriggerC_Table9[] = {
 279:VS4210/keyremo.c **** 	VS4210_LOOP_MODE0_w2,  // CAM_C,
 280:VS4210/keyremo.c **** 	VS4210_LOOP_MODE12_31, // CAM_CA,
 281:VS4210/keyremo.c **** 	VS4210_LOOP_MODE12_32, // CAM_CB,
 282:VS4210/keyremo.c **** 	VS4210_LOOP_MODE12_34, /// CAM_CR,
 283:VS4210/keyremo.c **** 	VS4210_LOOP_MODE9_312, // CAM_CAB,
 284:VS4210/keyremo.c **** 	VS4210_LOOP_MODE9_314, /// CAM_CAR,
 285:VS4210/keyremo.c **** 	VS4210_LOOP_MODE9_324  /// CAM_CBR
 286:VS4210/keyremo.c **** };
 287:VS4210/keyremo.c **** 
 288:VS4210/keyremo.c **** BYTE TriggerC_Table10[] = {
 289:VS4210/keyremo.c **** 	VS4210_LOOP_MODE0_w2,	// CAM_C,
 290:VS4210/keyremo.c **** 	VS4210_LOOP_MODE12_31,	// CAM_CA,
 291:VS4210/keyremo.c **** 	VS4210_LOOP_MODE12_32,	// CAM_CB,
 292:VS4210/keyremo.c **** 	VS4210_LOOP_MODE12_34,	/// CAM_CR,
 293:VS4210/keyremo.c **** 	VS4210_LOOP_MODE10_312, // CAM_CAB,
 294:VS4210/keyremo.c **** 	VS4210_LOOP_MODE10_314, /// CAM_CAR,
 295:VS4210/keyremo.c **** 	VS4210_LOOP_MODE10_324	/// CAM_CBR
 296:VS4210/keyremo.c **** };
 297:VS4210/keyremo.c **** 
 298:VS4210/keyremo.c **** BYTE SEQTable[] = {
 299:VS4210/keyremo.c **** 	VS4210_LOOP_MODE0_w0,
 300:VS4210/keyremo.c **** 	VS4210_LOOP_MODE0_w1,
 301:VS4210/keyremo.c **** 	VS4210_LOOP_MODE0_w2,
 302:VS4210/keyremo.c **** 	VS4210_LOOP_MODE0_w3,
 303:VS4210/keyremo.c **** 	VS4210_LOOP_MODE0_w4}; // SEQ
 304:VS4210/keyremo.c **** 
 305:VS4210/keyremo.c **** BYTE RearTable[] = {
 306:VS4210/keyremo.c **** 	VS4210_LOOP_MODE0_w3,  // CAM_R,
 307:VS4210/keyremo.c **** 	VS4210_LOOP_MODE12_41, /// CAM_AR,
 308:VS4210/keyremo.c **** 	VS4210_LOOP_MODE12_42, // CAM_RB,
 309:VS4210/keyremo.c **** 	VS4210_LOOP_MODE12_43, // CAM_CR,
 310:VS4210/keyremo.c **** 	//	VS4210_LOOP_MODE10_412,//CAM_RAB_T,
 311:VS4210/keyremo.c **** 	//	VS4210_LOOP_MODE10_413,//CAM_RAC_T,
 312:VS4210/keyremo.c **** 	//	VS4210_LOOP_MODE10_423,//CAM_RBC_T,
 313:VS4210/keyremo.c **** 	VS4210_LOOP_MODE8_412, // CAM_RAB_H,
 314:VS4210/keyremo.c **** 						   //	VS4210_LOOP_MODE8_413 ,//CAM_RAC_T2,
 315:VS4210/keyremo.c **** 						   //	VS4210_LOOP_MODE8_423 //CAM_RBC_T2
 316:VS4210/keyremo.c **** };
 317:VS4210/keyremo.c **** 
ARM GAS  C:\Users\ryanc.HS\AppData\Local\Temp\ccZ9UySd.s 			page 7


 318:VS4210/keyremo.c **** BYTE RearTable9[] = {
 319:VS4210/keyremo.c **** 	VS4210_LOOP_MODE0_w3,  // CAM_R,
 320:VS4210/keyremo.c **** 	VS4210_LOOP_MODE12_41, /// CAM_AR,
 321:VS4210/keyremo.c **** 	VS4210_LOOP_MODE12_42, // CAM_RB,
 322:VS4210/keyremo.c **** 	VS4210_LOOP_MODE12_43, // CAM_CR,
 323:VS4210/keyremo.c **** 	VS4210_LOOP_MODE9_412, // CAM_RAB_H,
 324:VS4210/keyremo.c **** };
 325:VS4210/keyremo.c **** 
 326:VS4210/keyremo.c **** BYTE RearTable10[] = {
 327:VS4210/keyremo.c **** 	VS4210_LOOP_MODE0_w3,	// CAM_R,
 328:VS4210/keyremo.c **** 	VS4210_LOOP_MODE12_41,	/// CAM_AR,
 329:VS4210/keyremo.c **** 	VS4210_LOOP_MODE12_42,	// CAM_RB,
 330:VS4210/keyremo.c **** 	VS4210_LOOP_MODE12_43,	// CAM_CR,
 331:VS4210/keyremo.c **** 	VS4210_LOOP_MODE10_412, // CAM_RAB_H,
 332:VS4210/keyremo.c **** };
 333:VS4210/keyremo.c **** 
 334:VS4210/keyremo.c **** extern bit SpeedDomeMode;
 335:VS4210/keyremo.c **** bit OnChangingValue = 0;
 336:VS4210/keyremo.c **** WORD OneTouchPosition = 0;
 337:VS4210/keyremo.c **** WORD OneTouchCursorPosition = 0;
 338:VS4210/keyremo.c **** BYTE MenuTouchMode = 0;
 339:VS4210/keyremo.c **** BYTE MenuTouchFlag = 0;
 340:VS4210/keyremo.c **** 
 341:VS4210/keyremo.c **** extern BYTE Priority;
 342:VS4210/keyremo.c **** extern tByte OSDStateFlg;
 343:VS4210/keyremo.c **** extern BYTE PowerFlag;
 344:VS4210/keyremo.c **** extern BYTE Monitor_flag;
 345:VS4210/keyremo.c **** volatile BYTE Encoder_flag = ON;
 346:VS4210/keyremo.c **** 
 347:VS4210/keyremo.c **** bit RepeatKey;
 348:VS4210/keyremo.c **** extern bit Init_DisplayInput;
 349:VS4210/keyremo.c **** #if 0 /// def SUPPORT_DEBUG
 350:VS4210/keyremo.c **** extern  bit Debug_On;
 351:VS4210/keyremo.c **** #endif
 352:VS4210/keyremo.c **** extern BYTE PcMode;
 353:VS4210/keyremo.c **** extern WORD OSDLastKeyInTime; // in ms
 354:VS4210/keyremo.c **** // extern   		bit   DisplayInputHold;		//william-981029
 355:VS4210/keyremo.c **** extern DATA WORD tic_pc;
 356:VS4210/keyremo.c **** bit KeyReady;
 357:VS4210/keyremo.c **** DATA BYTE Key, TouchP;
 358:VS4210/keyremo.c **** extern BYTE keyticSec;
 359:VS4210/keyremo.c **** #if 0 // def REMO_RC5
 360:VS4210/keyremo.c **** extern   BYTE	RemoDataReady;
 361:VS4210/keyremo.c **** #endif
 362:VS4210/keyremo.c **** extern BYTE RemoSystemCode, RemoDataCode;
 363:VS4210/keyremo.c **** //#ifdef Format_SDCard
 364:VS4210/keyremo.c **** extern BYTE FormatSDCard;
 365:VS4210/keyremo.c **** //#endif
 366:VS4210/keyremo.c **** extern bit ChannelEdit_Flag;
 367:VS4210/keyremo.c **** extern bit ChannelEdit_on;
 368:VS4210/keyremo.c **** extern bit GetDVRStatusflag;
 369:VS4210/keyremo.c **** BYTE OSDMenuLevel;
 370:VS4210/keyremo.c **** BYTE title_item, cursor_item, cursor_change, /*cursor_y,*/ cur_osdwin, /*cur_osdaddr,*/ val_osdwin 
 371:VS4210/keyremo.c **** 																						val_index = 0;
 372:VS4210/keyremo.c **** 
 373:VS4210/keyremo.c **** #if 0 // def E_Wintek
 374:VS4210/keyremo.c **** extern	bit	FactoryMenu;
ARM GAS  C:\Users\ryanc.HS\AppData\Local\Temp\ccZ9UySd.s 			page 8


 375:VS4210/keyremo.c **** #endif
 376:VS4210/keyremo.c **** 
 377:VS4210/keyremo.c **** extern BYTE SelectModeType;
 378:VS4210/keyremo.c **** 
 379:VS4210/keyremo.c **** extern bit IsDrawNoVideoSignal; // ryan@20170922
 380:VS4210/keyremo.c **** 
 381:VS4210/keyremo.c **** #if 0 // def HTRV  //Pinchi 20150825 add model #define
 382:VS4210/keyremo.c **** extern BYTE GaugeVStart;
 383:VS4210/keyremo.c **** 
 384:VS4210/keyremo.c **** BYTE GaugeSetup =0;
 385:VS4210/keyremo.c **** BYTE GaugeInfoOSD =0;
 386:VS4210/keyremo.c **** 
 387:VS4210/keyremo.c **** #endif
 388:VS4210/keyremo.c **** 
 389:VS4210/keyremo.c **** BYTE TriggerFlag = 0;
 390:VS4210/keyremo.c **** BYTE bytTriggerTest = 0;
 391:VS4210/keyremo.c **** 
 392:VS4210/keyremo.c **** BYTE NowModeState;
 393:VS4210/keyremo.c **** 
 394:VS4210/keyremo.c **** #if 0 /// def SUPPORT_2835_CLK_TUNE_BACK_DOOR  //Pinchi 20160929 add
 395:VS4210/keyremo.c **** DATA bit IsRun2835ClkTune=0;
 396:VS4210/keyremo.c **** DATA BYTE b2835ClkTuneVal=0;
 397:VS4210/keyremo.c **** 
 398:VS4210/keyremo.c **** DATA bit IsEnter2835ClkTune=0;
 399:VS4210/keyremo.c **** DATA DWORD Enter2835TuneClock;
 400:VS4210/keyremo.c **** extern DATA DWORD SystemClock;
 401:VS4210/keyremo.c **** 
 402:VS4210/keyremo.c **** void HS_Display2835ClkTuneVal(WORD val);
 403:VS4210/keyremo.c **** extern CODE BYTE Init_Osd_DisplayInput_B[];
 404:VS4210/keyremo.c **** #endif
 405:VS4210/keyremo.c **** 
 406:VS4210/keyremo.c **** #if 0 /// def HS_NEWOSDMENU
 407:VS4210/keyremo.c **** void RemoMenu_MenuKey(BYTE isREMOTE)
 408:VS4210/keyremo.c **** {
 409:VS4210/keyremo.c **** 	if(GetDisplayedOSD() & MENU) 	
 410:VS4210/keyremo.c **** 		OSDHighMenu();       
 411:VS4210/keyremo.c **** 	else
 412:VS4210/keyremo.c **** 		{
 413:VS4210/keyremo.c **** 		/*	//Weylis -@121008 
 414:VS4210/keyremo.c **** 		//FMONFLG = 3;
 415:VS4210/keyremo.c **** 		if(GetInputSelection()== soDVDAV || GetInputSelection()== soCOMPONENT)
 416:VS4210/keyremo.c **** 			{
 417:VS4210/keyremo.c **** 				if(isREMOTE)
 418:VS4210/keyremo.c **** 					OpenOSDMenu(1);
 419:VS4210/keyremo.c **** 				else
 420:VS4210/keyremo.c **** 					OpenOSDMenu(0);
 421:VS4210/keyremo.c **** 			}
 422:VS4210/keyremo.c **** 		else
 423:VS4210/keyremo.c **** 		*/
 424:VS4210/keyremo.c **** 			OpenOSDMenu(1);
 425:VS4210/keyremo.c **** 		}
 426:VS4210/keyremo.c **** 	
 427:VS4210/keyremo.c **** }
 428:VS4210/keyremo.c **** #else
 429:VS4210/keyremo.c **** void RemoMenu_MenuKey(void)
 430:VS4210/keyremo.c **** {
  27              		.loc 1 430 1 view -0
ARM GAS  C:\Users\ryanc.HS\AppData\Local\Temp\ccZ9UySd.s 			page 9


  28              		.cfi_startproc
  29              		@ args = 0, pretend = 0, frame = 0
  30              		@ frame_needed = 0, uses_anonymous_args = 0
  31              		@ link register save eliminated.
 431:VS4210/keyremo.c **** 	/*
 432:VS4210/keyremo.c **** 		if(  GetDisplayedOSD() & MENU  ) 		OSDHighMenu();
 433:VS4210/keyremo.c **** 		else
 434:VS4210/keyremo.c **** 			OpenOSDMenu();
 435:VS4210/keyremo.c **** 		*/
 436:VS4210/keyremo.c **** }
  32              		.loc 1 436 1 view .LVU1
  33 0000 7047     		bx	lr
  34              		.cfi_endproc
  35              	.LFE68:
  37              		.section	.text.RemoChnUp_UpKey,"ax",%progbits
  38              		.align	1
  39              		.global	RemoChnUp_UpKey
  40              		.syntax unified
  41              		.thumb
  42              		.thumb_func
  43              		.fpu softvfp
  45              	RemoChnUp_UpKey:
  46              	.LFB69:
 437:VS4210/keyremo.c **** #endif
 438:VS4210/keyremo.c **** 
 439:VS4210/keyremo.c **** void RemoChnUp_UpKey(void)
 440:VS4210/keyremo.c **** {
  47              		.loc 1 440 1 view -0
  48              		.cfi_startproc
  49              		@ args = 0, pretend = 0, frame = 0
  50              		@ frame_needed = 0, uses_anonymous_args = 0
  51              		@ link register save eliminated.
 441:VS4210/keyremo.c **** #if 0 /// def SUPPORT_DEBUG
 442:VS4210/keyremo.c **** 	if( Debug_On ) {
 443:VS4210/keyremo.c **** 		DebugWindowData(UP);
 444:VS4210/keyremo.c **** 		return;
 445:VS4210/keyremo.c **** 	}
 446:VS4210/keyremo.c **** 	else
 447:VS4210/keyremo.c **** #endif
 448:VS4210/keyremo.c **** 	/*
 449:VS4210/keyremo.c **** 	if( GetDisplayedOSD() & MENU  )
 450:VS4210/keyremo.c **** 		#ifdef PAL_TV
 451:VS4210/keyremo.c **** 		if( ChannelEdit_Flag) {
 452:VS4210/keyremo.c **** 			if( ChannelEdit_on )					ChannelEdit_Char(UP);
 453:VS4210/keyremo.c **** 			else {
 454:VS4210/keyremo.c **** 				UpDownTVChannel(DN);
 455:VS4210/keyremo.c **** 				ChannelEdit_display();
 456:VS4210/keyremo.c **** 			}
 457:VS4210/keyremo.c **** 		}
 458:VS4210/keyremo.c **** 		else
 459:VS4210/keyremo.c **** 		#endif
 460:VS4210/keyremo.c **** 		OSDCursorMove(UP);
 461:VS4210/keyremo.c **** 	#ifdef SUPPORT_PC
 462:VS4210/keyremo.c **** 	else if( GetInputSelection()==PC )		AutoAdjust();
 463:VS4210/keyremo.c **** 	#endif
 464:VS4210/keyremo.c **** 	else
 465:VS4210/keyremo.c **** 		return;
ARM GAS  C:\Users\ryanc.HS\AppData\Local\Temp\ccZ9UySd.s 			page 10


 466:VS4210/keyremo.c **** 	*/
 467:VS4210/keyremo.c **** }
  52              		.loc 1 467 1 view .LVU3
  53 0000 7047     		bx	lr
  54              		.cfi_endproc
  55              	.LFE69:
  57              		.section	.text.RemoChnDn_DnKey,"ax",%progbits
  58              		.align	1
  59              		.global	RemoChnDn_DnKey
  60              		.syntax unified
  61              		.thumb
  62              		.thumb_func
  63              		.fpu softvfp
  65              	RemoChnDn_DnKey:
  66              	.LFB70:
 468:VS4210/keyremo.c **** 
 469:VS4210/keyremo.c **** void RemoChnDn_DnKey(void)
 470:VS4210/keyremo.c **** {
  67              		.loc 1 470 1 view -0
  68              		.cfi_startproc
  69              		@ args = 0, pretend = 0, frame = 0
  70              		@ frame_needed = 0, uses_anonymous_args = 0
  71              		@ link register save eliminated.
 471:VS4210/keyremo.c **** 	/*
 472:VS4210/keyremo.c **** 		#ifdef SUPPORT_DEBUG
 473:VS4210/keyremo.c **** 		if( Debug_On ) {
 474:VS4210/keyremo.c **** 			DebugWindowData(DN);
 475:VS4210/keyremo.c **** 			return;
 476:VS4210/keyremo.c **** 		}
 477:VS4210/keyremo.c **** 		else
 478:VS4210/keyremo.c **** 		#endif
 479:VS4210/keyremo.c **** 		if( GetDisplayedOSD() & MENU  ) {
 480:VS4210/keyremo.c **** 			OSDCursorMove(DN);
 481:VS4210/keyremo.c **** 		}
 482:VS4210/keyremo.c **** 		else
 483:VS4210/keyremo.c **** 			#ifdef SUPPORT_LINE_OSDDEMO
 484:VS4210/keyremo.c **** 			DisplayLineOSD();
 485:VS4210/keyremo.c **** 			#endif
 486:VS4210/keyremo.c **** 			return;
 487:VS4210/keyremo.c **** 			*/
 488:VS4210/keyremo.c **** }
  72              		.loc 1 488 1 view .LVU5
  73 0000 7047     		bx	lr
  74              		.cfi_endproc
  75              	.LFE70:
  77              		.section	.text.RemoVolUp_RightKey,"ax",%progbits
  78              		.align	1
  79              		.global	RemoVolUp_RightKey
  80              		.syntax unified
  81              		.thumb
  82              		.thumb_func
  83              		.fpu softvfp
  85              	RemoVolUp_RightKey:
  86              	.LFB71:
 489:VS4210/keyremo.c **** 
 490:VS4210/keyremo.c **** void RemoVolUp_RightKey(void)
 491:VS4210/keyremo.c **** {
ARM GAS  C:\Users\ryanc.HS\AppData\Local\Temp\ccZ9UySd.s 			page 11


  87              		.loc 1 491 1 view -0
  88              		.cfi_startproc
  89              		@ args = 0, pretend = 0, frame = 0
  90              		@ frame_needed = 0, uses_anonymous_args = 0
  91              		@ link register save eliminated.
 492:VS4210/keyremo.c **** 	/*
 493:VS4210/keyremo.c **** 		#ifdef SUPPORT_DEBUG
 494:VS4210/keyremo.c **** 		if( Debug_On ) {
 495:VS4210/keyremo.c **** 			DebugWindowCursor(UP);
 496:VS4210/keyremo.c **** 			return;
 497:VS4210/keyremo.c **** 		}
 498:VS4210/keyremo.c **** 		else
 499:VS4210/keyremo.c **** 		#endif
 500:VS4210/keyremo.c **** 		if(  GetDisplayedOSD() & MENU  ) {
 501:VS4210/keyremo.c **** 			if( OnChangingValue ) 					OSDValueUpDn(UP );
 502:VS4210/keyremo.c **** 			else										OSDSelect();
 503:VS4210/keyremo.c **** 		}
 504:VS4210/keyremo.c **** 		else //if(GetDisplayedOSD() & TVVOL)
 505:VS4210/keyremo.c **** 		{
 506:VS4210/keyremo.c **** 		#ifdef HTRV  //Pinchi 20150827 add
 507:VS4210/keyremo.c **** 			if(GaugeSetup)//william-v1.43-970319
 508:VS4210/keyremo.c **** 				OSDValueUpDn(UP );
 509:VS4210/keyremo.c **** 			else
 510:VS4210/keyremo.c **** 		#endif
 511:VS4210/keyremo.c **** 			{
 512:VS4210/keyremo.c **** 				ChangeVol(1);
 513:VS4210/keyremo.c **** 				DisplayVol();
 514:VS4210/keyremo.c **** 			}
 515:VS4210/keyremo.c **** 		}
 516:VS4210/keyremo.c **** 		*/
 517:VS4210/keyremo.c **** }
  92              		.loc 1 517 1 view .LVU7
  93 0000 7047     		bx	lr
  94              		.cfi_endproc
  95              	.LFE71:
  97              		.section	.text.RemoVolDn_LeftKey,"ax",%progbits
  98              		.align	1
  99              		.global	RemoVolDn_LeftKey
 100              		.syntax unified
 101              		.thumb
 102              		.thumb_func
 103              		.fpu softvfp
 105              	RemoVolDn_LeftKey:
 106              	.LFB72:
 518:VS4210/keyremo.c **** 
 519:VS4210/keyremo.c **** void RemoVolDn_LeftKey(void)
 520:VS4210/keyremo.c **** {
 107              		.loc 1 520 1 view -0
 108              		.cfi_startproc
 109              		@ args = 0, pretend = 0, frame = 0
 110              		@ frame_needed = 0, uses_anonymous_args = 0
 111              		@ link register save eliminated.
 521:VS4210/keyremo.c **** 	/*
 522:VS4210/keyremo.c **** 		#ifdef SUPPORT_DEBUG
 523:VS4210/keyremo.c **** 		if( Debug_On ) {
 524:VS4210/keyremo.c **** 			DebugWindowCursor(DN);
 525:VS4210/keyremo.c **** 			return;
ARM GAS  C:\Users\ryanc.HS\AppData\Local\Temp\ccZ9UySd.s 			page 12


 526:VS4210/keyremo.c **** 		}
 527:VS4210/keyremo.c **** 		else
 528:VS4210/keyremo.c **** 		#endif
 529:VS4210/keyremo.c **** 		if(  GetDisplayedOSD() & MENU  )
 530:VS4210/keyremo.c **** 			{
 531:VS4210/keyremo.c **** 			if( OnChangingValue )
 532:VS4210/keyremo.c **** 				OSDValueUpDn(DN );
 533:VS4210/keyremo.c **** 			else
 534:VS4210/keyremo.c **** 				OSDHighMenu();
 535:VS4210/keyremo.c **** 			}
 536:VS4210/keyremo.c **** 		else //if(GetDisplayedOSD() & TVVOL)
 537:VS4210/keyremo.c **** 		{
 538:VS4210/keyremo.c **** 		#ifdef HTRV  //Pinchi 20150827 add
 539:VS4210/keyremo.c **** 			if(GaugeSetup)//william-v1.43-970319
 540:VS4210/keyremo.c **** 				OSDValueUpDn(DN);
 541:VS4210/keyremo.c **** 			else
 542:VS4210/keyremo.c **** 		#endif
 543:VS4210/keyremo.c **** 			{
 544:VS4210/keyremo.c **** 				ChangeVol(-1);
 545:VS4210/keyremo.c **** 				DisplayVol();
 546:VS4210/keyremo.c **** 			}
 547:VS4210/keyremo.c **** 		}
 548:VS4210/keyremo.c **** 		*/
 549:VS4210/keyremo.c **** }
 112              		.loc 1 549 1 view .LVU9
 113 0000 7047     		bx	lr
 114              		.cfi_endproc
 115              	.LFE72:
 117              		.section	.text.ActionRemo,"ax",%progbits
 118              		.align	1
 119              		.global	ActionRemo
 120              		.syntax unified
 121              		.thumb
 122              		.thumb_func
 123              		.fpu softvfp
 125              	ActionRemo:
 126              	.LVL0:
 127              	.LFB73:
 550:VS4210/keyremo.c **** 
 551:VS4210/keyremo.c **** //=============================================================================
 552:VS4210/keyremo.c **** //
 553:VS4210/keyremo.c **** //=============================================================================
 554:VS4210/keyremo.c **** BYTE ActionRemo(BYTE _RemoDataCode, BYTE AutoKey)
 555:VS4210/keyremo.c **** {
 128              		.loc 1 555 1 view -0
 129              		.cfi_startproc
 130              		@ args = 0, pretend = 0, frame = 0
 131              		@ frame_needed = 0, uses_anonymous_args = 0
 132              		@ link register save eliminated.
 556:VS4210/keyremo.c **** 	/*
 557:VS4210/keyremo.c **** 		SetOSDLastKeyInTime();
 558:VS4210/keyremo.c **** 
 559:VS4210/keyremo.c **** 		 #if (defined SUPPORT_PC) || (defined SUPPORT_DTV)
 560:VS4210/keyremo.c **** 		 #if 0//andy ML084 980930
 561:VS4210/keyremo.c **** 		  if( (PcMode==EE_PC_NO_SIGNAL) && (GetInputSelection()==PC || GetInputSelection()==DTV) ) {
 562:VS4210/keyremo.c **** 			 if( PcMode==EE_PC_NO_SIGNAL ) {
 563:VS4210/keyremo.c **** 				 switch (_RemoDataCode) {
ARM GAS  C:\Users\ryanc.HS\AppData\Local\Temp\ccZ9UySd.s 			page 13


 564:VS4210/keyremo.c **** 				   case REMO_INPUT:
 565:VS4210/keyremo.c **** 				 //case REMO_STANDBY:
 566:VS4210/keyremo.c **** 				 break;
 567:VS4210/keyremo.c **** 
 568:VS4210/keyremo.c **** 				default:
 569:VS4210/keyremo.c **** 					tic_pc = 0;
 570:VS4210/keyremo.c **** 					return 1;
 571:VS4210/keyremo.c **** 				}
 572:VS4210/keyremo.c **** 			}
 573:VS4210/keyremo.c **** 		}
 574:VS4210/keyremo.c **** 		 #endif
 575:VS4210/keyremo.c **** 		#endif // SUPPORT_PC
 576:VS4210/keyremo.c **** 
 577:VS4210/keyremo.c **** 		switch(_RemoDataCode) {
 578:VS4210/keyremo.c **** 
 579:VS4210/keyremo.c **** 		case REMO_STANDBY:				// power
 580:VS4210/keyremo.c **** 			#ifdef DEBUG_KEYREMO
 581:VS4210/keyremo.c **** 			dPrintf("\r\nSTANDBY Mode, Autokey:%02x", A utoKey);
 582:VS4210/keyremo.c **** 			#endif
 583:VS4210/keyremo.c **** 			OSDLastKeyInTime = 0xffff;
 584:VS4210/keyremo.c **** 			if( AutoKey ) return 1;
 585:VS4210/keyremo.c **** 			return 0;					// power off
 586:VS4210/keyremo.c **** 
 587:VS4210/keyremo.c **** 		case REMO_MUTE:
 588:VS4210/keyremo.c **** 			#if 0
 589:VS4210/keyremo.c **** 			#ifdef DEBUG_KEYREMO
 590:VS4210/keyremo.c **** 			dPrintf("\r\nMUTE Mode, Autokey:%02x", AutoKey);
 591:VS4210/keyremo.c **** 			#endif
 592:VS4210/keyremo.c **** 			if( AutoKey ) return 1;
 593:VS4210/keyremo.c **** 			ToggleAudioMute();
 594:VS4210/keyremo.c **** 			if( IsAudioMuteOn() )		DisplayMuteInfo();
 595:VS4210/keyremo.c **** 			else{
 596:VS4210/keyremo.c **** 				ClearMuteInfo();
 597:VS4210/keyremo.c **** 				//if( DisplayInputHold ) DisplayInput();		//william-981029
 598:VS4210/keyremo.c **** 			}
 599:VS4210/keyremo.c **** 			#endif
 600:VS4210/keyremo.c **** 			break;
 601:VS4210/keyremo.c **** 
 602:VS4210/keyremo.c **** 		case REMO_INPUT:
 603:VS4210/keyremo.c **** 			#ifdef DEBUG_KEYREMO
 604:VS4210/keyremo.c **** 			dPrintf("\r\nChange INPUT, Autokey:%02x", AutoKey);
 605:VS4210/keyremo.c **** 			#endif
 606:VS4210/keyremo.c **** 			ChangeInput(GetNextInputSelection());
 607:VS4210/keyremo.c **** 			return 1;
 608:VS4210/keyremo.c **** 
 609:VS4210/keyremo.c **** 		case REMO_INFO:
 610:VS4210/keyremo.c **** 			#ifdef DEBUG_KEYREMO
 611:VS4210/keyremo.c **** 			dPrintf("\r\nINFO display, Autokey:%02x", AutoKey);
 612:VS4210/keyremo.c **** 			#endif
 613:VS4210/keyremo.c **** 			if( GetDisplayedOSD() & INPUTINFO )	ClearInput();
 614:VS4210/keyremo.c **** 			else		DisplayInput();
 615:VS4210/keyremo.c **** 			return 1;
 616:VS4210/keyremo.c **** 
 617:VS4210/keyremo.c **** 		case REMO_NUM0:
 618:VS4210/keyremo.c **** 		case REMO_NUM1:
 619:VS4210/keyremo.c **** 		case REMO_NUM2:
 620:VS4210/keyremo.c **** 		case REMO_NUM3:
ARM GAS  C:\Users\ryanc.HS\AppData\Local\Temp\ccZ9UySd.s 			page 14


 621:VS4210/keyremo.c **** 		case REMO_NUM4:
 622:VS4210/keyremo.c **** 		case REMO_NUM5:
 623:VS4210/keyremo.c **** 		case REMO_NUM6:
 624:VS4210/keyremo.c **** 		case REMO_NUM7:
 625:VS4210/keyremo.c **** 		case REMO_NUM8:
 626:VS4210/keyremo.c **** 		case REMO_NUM9:
 627:VS4210/keyremo.c **** 			#ifdef DEBUG_KEYREMO
 628:VS4210/keyremo.c **** 			dPrintf("\r\nNumber %02x Key Pressed, Autokey:%02x", (_RemoDataCode-0x30), AutoKey);
 629:VS4210/keyremo.c **** 			#endif
 630:VS4210/keyremo.c **** 			if( AutoKey )								return 1;
 631:VS4210/keyremo.c **** 
 632:VS4210/keyremo.c **** 			else										return 1;
 633:VS4210/keyremo.c **** 			break;
 634:VS4210/keyremo.c **** 
 635:VS4210/keyremo.c **** 		case REMO_CHNUP:
 636:VS4210/keyremo.c **** 			#ifdef DEBUG_KEYREMO
 637:VS4210/keyremo.c **** 			dPuts("\r\nChannel UP");
 638:VS4210/keyremo.c **** 			#endif
 639:VS4210/keyremo.c **** 			RemoChnUp_UpKey();
 640:VS4210/keyremo.c **** 			break;
 641:VS4210/keyremo.c **** 
 642:VS4210/keyremo.c **** 		case REMO_CHNDN:
 643:VS4210/keyremo.c **** 			#ifdef DEBUG_KEYREMO
 644:VS4210/keyremo.c **** 			dPuts("\r\nChannel DOWN");
 645:VS4210/keyremo.c **** 			#endif
 646:VS4210/keyremo.c **** 			RemoChnDn_DnKey();
 647:VS4210/keyremo.c **** 			break;
 648:VS4210/keyremo.c **** 
 649:VS4210/keyremo.c **** 		case REMO_SELECT:
 650:VS4210/keyremo.c **** 			#ifdef DEBUG_KEYREMO
 651:VS4210/keyremo.c **** 			dPrintf("\r\nSELECT key pressed, Autokey:%02x", AutoKey);
 652:VS4210/keyremo.c **** 			#endif
 653:VS4210/keyremo.c **** 			if( AutoKey ) return 1;
 654:VS4210/keyremo.c **** 			if(  GetDisplayedOSD() & MENU  )		{
 655:VS4210/keyremo.c **** 					OSDSelect();
 656:VS4210/keyremo.c **** 			}
 657:VS4210/keyremo.c **** 			break;
 658:VS4210/keyremo.c **** 
 659:VS4210/keyremo.c **** 		case REMO_VOLUP:
 660:VS4210/keyremo.c **** 			#ifdef DEBUG_KEYREMO
 661:VS4210/keyremo.c **** 			dPuts("\r\nVolumn UP");
 662:VS4210/keyremo.c **** 			#endif
 663:VS4210/keyremo.c **** 			RemoVolUp_RightKey();
 664:VS4210/keyremo.c **** 			break;
 665:VS4210/keyremo.c **** 		case REMO_VOLDN:
 666:VS4210/keyremo.c **** 			#ifdef DEBUG_KEYREMO
 667:VS4210/keyremo.c **** 			dPuts("\r\nVolumn DOWN");
 668:VS4210/keyremo.c **** 			#endif
 669:VS4210/keyremo.c **** 			RemoVolDn_LeftKey();
 670:VS4210/keyremo.c **** 			break;
 671:VS4210/keyremo.c **** 
 672:VS4210/keyremo.c **** 
 673:VS4210/keyremo.c **** 		case REMO_MENU:
 674:VS4210/keyremo.c **** 			#ifdef DEBUG_KEYREMO
 675:VS4210/keyremo.c **** 			dPrintf("\r\nMENU display, Autokey:%02x", AutoKey);
 676:VS4210/keyremo.c **** 			#endif
 677:VS4210/keyremo.c **** 			if( AutoKey ) return 1;
ARM GAS  C:\Users\ryanc.HS\AppData\Local\Temp\ccZ9UySd.s 			page 15


 678:VS4210/keyremo.c **** 		#ifdef HS_NEWOSDMENU
 679:VS4210/keyremo.c **** 			RemoMenu_MenuKey(1);
 680:VS4210/keyremo.c **** 		#else
 681:VS4210/keyremo.c **** 			RemoMenu_MenuKey();
 682:VS4210/keyremo.c **** 		#endif
 683:VS4210/keyremo.c **** 			break;
 684:VS4210/keyremo.c **** 
 685:VS4210/keyremo.c **** 		case REMO_EXIT:
 686:VS4210/keyremo.c **** 			#ifdef DEBUG_KEYREMO
 687:VS4210/keyremo.c **** 			dPuts("\r\n EXIT");
 688:VS4210/keyremo.c **** 			#endif
 689:VS4210/keyremo.c **** 			if(  GetDisplayedOSD() & MENU  )
 690:VS4210/keyremo.c **** 				DoAction(EXITMENU);
 691:VS4210/keyremo.c **** 			break;
 692:VS4210/keyremo.c **** 
 693:VS4210/keyremo.c **** 		#ifdef SUPPORT_PC
 694:VS4210/keyremo.c **** 		case REMO_AUTO:
 695:VS4210/keyremo.c **** 			#ifdef DEBUG_KEYREMO
 696:VS4210/keyremo.c **** 			dPuts("\r\n AUTO mode adjust for PC input");
 697:VS4210/keyremo.c **** 			#endif
 698:VS4210/keyremo.c **** 			if( GetInputSelection()==PC )
 699:VS4210/keyremo.c **** 				AutoAdjust();
 700:VS4210/keyremo.c **** 			break;
 701:VS4210/keyremo.c **** 		#endif
 702:VS4210/keyremo.c **** 
 703:VS4210/keyremo.c **** 		#ifdef WIDE_SCREEN
 704:VS4210/keyremo.c **** 		case REMO_ASPECT:
 705:VS4210/keyremo.c **** 			#ifdef DEBUG_KEYREMO
 706:VS4210/keyremo.c **** 			dPuts("\r\n Screen Aspect Ratio change to WIDE");
 707:VS4210/keyremo.c **** 			#endif
 708:VS4210/keyremo.c **** 			SetItemValue(WIDESCREEN,UP);
 709:VS4210/keyremo.c **** 			break;
 710:VS4210/keyremo.c **** 		#endif
 711:VS4210/keyremo.c **** 		}
 712:VS4210/keyremo.c **** 
 713:VS4210/keyremo.c **** 		#ifdef SUPPORT_DEBUG
 714:VS4210/keyremo.c **** 		switch(_RemoDataCode) {
 715:VS4210/keyremo.c **** 		case REMO_DEBUG:		DebugWindowControl();		break;
 716:VS4210/keyremo.c **** 		case REMO_READ:			Debug_Read();		break;
 717:VS4210/keyremo.c **** 		case REMO_WRITE:		Debug_Write();
 718:VS4210/keyremo.c **** 								Debug_Read();	// Read back
 719:VS4210/keyremo.c **** 													break;
 720:VS4210/keyremo.c **** 		}
 721:VS4210/keyremo.c **** 		#endif
 722:VS4210/keyremo.c **** 	*/
 723:VS4210/keyremo.c **** 	return 1;
 133              		.loc 1 723 2 view .LVU11
 724:VS4210/keyremo.c **** }
 134              		.loc 1 724 1 is_stmt 0 view .LVU12
 135 0000 0120     		movs	r0, #1
 136              	.LVL1:
 137              		.loc 1 724 1 view .LVU13
 138 0002 7047     		bx	lr
 139              		.cfi_endproc
 140              	.LFE73:
 142              		.section	.rodata.BOX_SELECT_CHANNEL.str1.4,"aMS",%progbits,1
 143              		.align	2
ARM GAS  C:\Users\ryanc.HS\AppData\Local\Temp\ccZ9UySd.s 			page 16


 144              	.LC0:
 145 0000 28205F43 		.ascii	"( _COCOSD_BOX_Channel_Sel=%02x SelectModeType=%02x)"
 145      4F434F53 
 145      445F424F 
 145      585F4368 
 145      616E6E65 
 146 0033 00       		.ascii	"\000"
 147              		.section	.text.BOX_SELECT_CHANNEL,"ax",%progbits
 148              		.align	1
 149              		.global	BOX_SELECT_CHANNEL
 150              		.syntax unified
 151              		.thumb
 152              		.thumb_func
 153              		.fpu softvfp
 155              	BOX_SELECT_CHANNEL:
 156              	.LVL2:
 157              	.LFB75:
 725:VS4210/keyremo.c **** 
 726:VS4210/keyremo.c **** BYTE CheckKeyIn(void)
 727:VS4210/keyremo.c **** {
 728:VS4210/keyremo.c **** 	BYTE ret = 1, ikey /*,OSD_LOCK*/, loop;
 729:VS4210/keyremo.c **** 	/*
 730:VS4210/keyremo.c **** 	#ifdef SUPPORT_2835_CLK_TUNE_BACK_DOOR	//Pinchi 20160929 add
 731:VS4210/keyremo.c **** 		if ((IsEnter2835ClkTune == 1) && (IsRun2835ClkTune == 0))
 732:VS4210/keyremo.c **** 		{
 733:VS4210/keyremo.c **** 			if ((SystemClock - Enter2835TuneClock) >= 10)
 734:VS4210/keyremo.c **** 				IsEnter2835ClkTune = 0;
 735:VS4210/keyremo.c **** 		}
 736:VS4210/keyremo.c **** 	#endif
 737:VS4210/keyremo.c **** 		*/
 738:VS4210/keyremo.c **** 
 739:VS4210/keyremo.c **** 	ikey = GetKey(1);
 740:VS4210/keyremo.c **** 
 741:VS4210/keyremo.c **** 	if (ikey)
 742:VS4210/keyremo.c **** 	{
 743:VS4210/keyremo.c **** 
 744:VS4210/keyremo.c **** #if (_DEBUG_CheckKeyIn == ON)
 745:VS4210/keyremo.c **** 		switch (ikey)
 746:VS4210/keyremo.c **** 		{
 747:VS4210/keyremo.c **** 		case POWERKEY:
 748:VS4210/keyremo.c **** 			Printf("\r\nPWR key");
 749:VS4210/keyremo.c **** 			break;
 750:VS4210/keyremo.c **** 		case MENUKEY:
 751:VS4210/keyremo.c **** 			Printf("\r\nMENU key");
 752:VS4210/keyremo.c **** 			/*
 753:VS4210/keyremo.c **** 			if(VS8812Read(0xf0)==0x85)
 754:VS4210/keyremo.c **** 			VS8812Write(0xf0,0x00);
 755:VS4210/keyremo.c **** 			else
 756:VS4210/keyremo.c **** 			VS8812Write(0xf0,0x85);
 757:VS4210/keyremo.c **** 			*/
 758:VS4210/keyremo.c **** 			break;
 759:VS4210/keyremo.c **** 		case INPUTSOURCEKEY:
 760:VS4210/keyremo.c **** 			Printf("\r\nJUMP key");
 761:VS4210/keyremo.c **** 			break;
 762:VS4210/keyremo.c **** 		case UPKEY:
 763:VS4210/keyremo.c **** 			Printf("\r\nUP key");
 764:VS4210/keyremo.c **** 			break;
ARM GAS  C:\Users\ryanc.HS\AppData\Local\Temp\ccZ9UySd.s 			page 17


 765:VS4210/keyremo.c **** 		case DOWNKEY:
 766:VS4210/keyremo.c **** 			Printf("\r\nDOWN key");
 767:VS4210/keyremo.c **** 			break;
 768:VS4210/keyremo.c **** 		case SELECTKEY:
 769:VS4210/keyremo.c **** 			Printf("\r\nSELECT key");
 770:VS4210/keyremo.c **** 			break; // Printf("\r\nSELECTKEY key pressed"); break;
 771:VS4210/keyremo.c **** 		case UNLOCKKEY:
 772:VS4210/keyremo.c **** 			Printf("\r\nUNLOCK key");
 773:VS4210/keyremo.c **** 			break;
 774:VS4210/keyremo.c **** 		default:
 775:VS4210/keyremo.c **** 			Printf("\r\nNOT ASSIGNED key pressed");
 776:VS4210/keyremo.c **** 			break;
 777:VS4210/keyremo.c **** 		}
 778:VS4210/keyremo.c **** 
 779:VS4210/keyremo.c **** #endif
 780:VS4210/keyremo.c **** 
 781:VS4210/keyremo.c **** #if 0 ///(_DEBUG_MESSAGE_Monitor==ON)
 782:VS4210/keyremo.c **** 	Monitor_flag=_TRUE;
 783:VS4210/keyremo.c **** 	MCUTimerReactiveTimerEvent(SEC(30), _USER_TIMER_EVENT_Monitor_ON);
 784:VS4210/keyremo.c **** #endif
 785:VS4210/keyremo.c **** 		if (ikey != POWERKEY)
 786:VS4210/keyremo.c **** 		{
 787:VS4210/keyremo.c **** 			if (RUN_DIMMER == _DIMMER_READY)
 788:VS4210/keyremo.c **** 			{
 789:VS4210/keyremo.c **** 				RUN_DIMMER = _DIMMER_STOP;
 790:VS4210/keyremo.c **** #if (_DEBUG_CheckKeyIn == ON)
 791:VS4210/keyremo.c **** 				Printf("(DIMMER_change_disable_1)");
 792:VS4210/keyremo.c **** #endif
 793:VS4210/keyremo.c **** 			}
 794:VS4210/keyremo.c **** 			else if (RUN_DIMMER == _DIMMER_RUN2)
 795:VS4210/keyremo.c **** 			{
 796:VS4210/keyremo.c **** 				RUN_DIMMER = _DIMMER_RUN1;
 797:VS4210/keyremo.c **** #if (_DEBUG_CheckKeyIn == ON)
 798:VS4210/keyremo.c **** 				Printf("(DIMMER_change_disable_2)");
 799:VS4210/keyremo.c **** #endif
 800:VS4210/keyremo.c **** 			}
 801:VS4210/keyremo.c **** 		}
 802:VS4210/keyremo.c **** 
 803:VS4210/keyremo.c **** 		if ((BOOT_ISSUE) || (bytResetOSDValue) || (TriggerStatus) || (TriggerFlag) || ((PowerFlag == OFF)
 804:VS4210/keyremo.c **** 		{
 805:VS4210/keyremo.c **** 
 806:VS4210/keyremo.c **** 			ikey = 0;
 807:VS4210/keyremo.c **** 			return 1;
 808:VS4210/keyremo.c **** 		}
 809:VS4210/keyremo.c **** 		else if ((PowerFlag == OFF) && (ikey == POWERKEY))
 810:VS4210/keyremo.c **** 		{
 811:VS4210/keyremo.c **** 			;
 812:VS4210/keyremo.c **** 		}
 813:VS4210/keyremo.c **** 		else if ((ikey == UNLOCKKEY) && ((GetDisplayedOSD() & _COC_OSD) == _COC_OSD))
 814:VS4210/keyremo.c **** 		{
 815:VS4210/keyremo.c **** 			MCUTimerDelayXms(1000);
 816:VS4210/keyremo.c **** 			ikey = GetKey(1);
 817:VS4210/keyremo.c **** 			if (ikey == UNLOCKKEY)
 818:VS4210/keyremo.c **** 			{
 819:VS4210/keyremo.c **** 				MCUTimerCancelTimerEvent(_USER_TIMER_EVENT_OSD_DISABLE);
 820:VS4210/keyremo.c **** 				CloseOSDMenu();
 821:VS4210/keyremo.c **** 			}
ARM GAS  C:\Users\ryanc.HS\AppData\Local\Temp\ccZ9UySd.s 			page 18


 822:VS4210/keyremo.c **** 		}
 823:VS4210/keyremo.c **** 		else if ((ikey == POWERKEY) && (PowerFlag == ON))
 824:VS4210/keyremo.c **** 		{
 825:VS4210/keyremo.c **** 			//  MCUTimerDelayXms(2000);
 826:VS4210/keyremo.c **** 			// ikey = GetKey(0);
 827:VS4210/keyremo.c **** 			if (standby_count > (300 - 40) /*ikey==POWERKEY*/)
 828:VS4210/keyremo.c **** 			{
 829:VS4210/keyremo.c **** 				bytPowerDownMode = ON;
 830:VS4210/keyremo.c **** 
 831:VS4210/keyremo.c **** 				PowerLED(_SYSTEM_TIMER_EVENT_RED_ON);
 832:VS4210/keyremo.c **** 				LCDPowerOFF();
 833:VS4210/keyremo.c **** 				CloseOSDMenu();
 834:VS4210/keyremo.c **** 				MCUTimerCancelTimerEvent(_USER_TIMER_EVENT_PANEL_BACKLIGHT_ON);
 835:VS4210/keyremo.c **** 
 836:VS4210/keyremo.c **** 				while ((_ReadKey() & POWERKEY) == POWERKEY)
 837:VS4210/keyremo.c **** 				{
 838:VS4210/keyremo.c **** 					MCUTimerDelayXms(1000);
 839:VS4210/keyremo.c **** 					Printf("(Waiting PWR SW release)");
 840:VS4210/keyremo.c **** 				}
 841:VS4210/keyremo.c **** 			}
 842:VS4210/keyremo.c **** 			else if ((RUN_DIMMER == _DIMMER_STOP) && (PWR_OFF_TO_ON == FALSE))
 843:VS4210/keyremo.c **** 			{
 844:VS4210/keyremo.c **** 				RUN_DIMMER = _DIMMER_READY;
 845:VS4210/keyremo.c **** #if (_DEBUG_CheckKeyIn == ON)
 846:VS4210/keyremo.c **** 				Printf("(DIMMER_Key1)");
 847:VS4210/keyremo.c **** #endif
 848:VS4210/keyremo.c **** 			}
 849:VS4210/keyremo.c **** 			else if (RUN_DIMMER == _DIMMER_RUN1)
 850:VS4210/keyremo.c **** 			{
 851:VS4210/keyremo.c **** #if (_DEBUG_CheckKeyIn == ON)
 852:VS4210/keyremo.c **** 				Printf("(DIMMER_Key2)");
 853:VS4210/keyremo.c **** #endif
 854:VS4210/keyremo.c **** 				RUN_DIMMER = _DIMMER_RUN2;
 855:VS4210/keyremo.c **** 			}
 856:VS4210/keyremo.c **** 			ret = 0;
 857:VS4210/keyremo.c **** 			ikey = 0;
 858:VS4210/keyremo.c **** 			Key = 0;
 859:VS4210/keyremo.c **** 			return 1;
 860:VS4210/keyremo.c **** 		}
 861:VS4210/keyremo.c **** 
 862:VS4210/keyremo.c **** 		else if (GetItemValue(0xbb) == _TRUE)
 863:VS4210/keyremo.c **** 		{
 864:VS4210/keyremo.c **** 
 865:VS4210/keyremo.c **** 			if (ikey == UNLOCKKEY)
 866:VS4210/keyremo.c **** 			{
 867:VS4210/keyremo.c **** 				MCUTimerDelayXms(2000);
 868:VS4210/keyremo.c **** 				ikey = GetKey(1);
 869:VS4210/keyremo.c **** 				if (ikey == UNLOCKKEY)
 870:VS4210/keyremo.c **** 					WriteEEP(EEP_ONOFFChoice, 0);
 871:VS4210/keyremo.c **** 			}
 872:VS4210/keyremo.c **** 
 873:VS4210/keyremo.c **** 			ShowOSDLOCK();
 874:VS4210/keyremo.c **** 
 875:VS4210/keyremo.c **** 			ikey = 0;
 876:VS4210/keyremo.c **** 			return 1;
 877:VS4210/keyremo.c **** 		}
 878:VS4210/keyremo.c **** 		else if ((ikey & COCDisableKey) == COCDisableKey)
ARM GAS  C:\Users\ryanc.HS\AppData\Local\Temp\ccZ9UySd.s 			page 19


 879:VS4210/keyremo.c **** 		{
 880:VS4210/keyremo.c **** 			MCUTimerDelayXms(1000);
 881:VS4210/keyremo.c **** 			ikey = GetKey(1);
 882:VS4210/keyremo.c **** 			if ((ikey & COCDisableKey) == COCDisableKey)
 883:VS4210/keyremo.c **** 			{
 884:VS4210/keyremo.c **** 				Printf("(COC OSD Close)");
 885:VS4210/keyremo.c **** 				CloseOSDMenu();
 886:VS4210/keyremo.c **** 			}
 887:VS4210/keyremo.c **** 		}
 888:VS4210/keyremo.c **** 		else if ((ikey == UNLOCKKEY) && (GetDisplayedOSD() & MENU) && (OnChangingValue == 0) && (AudioVol
 889:VS4210/keyremo.c **** 		{
 890:VS4210/keyremo.c **** 			loop = 0;
 891:VS4210/keyremo.c **** 			do
 892:VS4210/keyremo.c **** 			{
 893:VS4210/keyremo.c **** 				MCUTimerDelayXms(1000);
 894:VS4210/keyremo.c **** 				ikey = GetKey(1);
 895:VS4210/keyremo.c **** 				loop++;
 896:VS4210/keyremo.c **** 				// Printf("(loop=%d)",(WORD)loop);
 897:VS4210/keyremo.c **** 			} while ((ikey == UNLOCKKEY) && (loop < 10));
 898:VS4210/keyremo.c **** 
 899:VS4210/keyremo.c **** 			if (loop > 9)
 900:VS4210/keyremo.c **** 				GrabberModeTrigger();
 901:VS4210/keyremo.c **** 		}
 902:VS4210/keyremo.c **** 		else if ((ikey == UNLOCKKEY) && (GetDisplayedOSD() & TVVOL) && (AudioVol == 15)) /// show version
 903:VS4210/keyremo.c **** 		{
 904:VS4210/keyremo.c **** 			MCUTimerDelayXms(2000);
 905:VS4210/keyremo.c **** 			ikey = GetKey(1);
 906:VS4210/keyremo.c **** 			if (ikey == UNLOCKKEY)
 907:VS4210/keyremo.c **** 			{
 908:VS4210/keyremo.c **** 				Printf("(Show Version OSD)");
 909:VS4210/keyremo.c **** 				ShowOSDVersion();
 910:VS4210/keyremo.c **** 			}
 911:VS4210/keyremo.c **** 		}
 912:VS4210/keyremo.c **** 		// mask by ryan@20171018	OSD_LOCK = ReadEEP(EEP_ONOFFChoice);
 913:VS4210/keyremo.c **** 		//	OSD_LOCK=OSD_LOCKF;
 914:VS4210/keyremo.c **** 
 915:VS4210/keyremo.c **** #if 0 /// def AWT_NEW_SLIM_MODEL  //Pinchi 20150203 add for AWT new slim model
 916:VS4210/keyremo.c **** 		if (((~P2 & UnLockKEY) == UnLockKEY) && (OSD_LOCK == 0))   //	osd lock
 917:VS4210/keyremo.c **** #else
 918:VS4210/keyremo.c **** 		// if((~P2&0x90)==0x90 && OSD_LOCK==0)   //	osd lock
 919:VS4210/keyremo.c **** #endif
 920:VS4210/keyremo.c **** #if 0
 921:VS4210/keyremo.c **** 		{ 
 922:VS4210/keyremo.c **** 			Wait_ms(2000);
 923:VS4210/keyremo.c **** #if 0 /// def AWT_NEW_SLIM_MODEL  //Pinchi 20150203 add for AWT new slim model
 924:VS4210/keyremo.c **** 			if (((~P2 & UnLockKEY) == UnLockKEY) || (LockKeyState == 3))
 925:VS4210/keyremo.c **** #else
 926:VS4210/keyremo.c **** 			if((~P2&0x90)==0x90||LockKeyState==3)
 927:VS4210/keyremo.c **** #endif
 928:VS4210/keyremo.c **** 			{
 929:VS4210/keyremo.c **** 				WriteEEP(EEP_ONOFFChoice,0x01);
 930:VS4210/keyremo.c **** 				OSD_LOCK=1;//ryan@20170908
 931:VS4210/keyremo.c **** 				OSD_LOCKF=1;
 932:VS4210/keyremo.c **** 			//	DisplayInformation(InfoOSDMENUATCIVE);
 933:VS4210/keyremo.c **** 				ikey=0;
 934:VS4210/keyremo.c **** 				Wait_ms(2000);
 935:VS4210/keyremo.c **** /*
ARM GAS  C:\Users\ryanc.HS\AppData\Local\Temp\ccZ9UySd.s 			page 20


 936:VS4210/keyremo.c **** 				if(TriggerFlag&0x20)//if rear trigger
 937:VS4210/keyremo.c **** 				{
 938:VS4210/keyremo.c **** 				DisplayGaugeOSD();
 939:VS4210/keyremo.c **** 				}
 940:VS4210/keyremo.c **** 				else
 941:VS4210/keyremo.c **** 				{
 942:VS4210/keyremo.c **** 				ClearGAUGEINFO();
 943:VS4210/keyremo.c **** 				lock_keycnt=0;
 944:VS4210/keyremo.c **** 				LockKeyState=0;
 945:VS4210/keyremo.c **** 				DisplayInput();
 946:VS4210/keyremo.c **** 			
 947:VS4210/keyremo.c **** 				}
 948:VS4210/keyremo.c **** 				*/
 949:VS4210/keyremo.c **** 				
 950:VS4210/keyremo.c **** 			
 951:VS4210/keyremo.c **** 			//#ifdef AWT_NO_SIGNAL_MSG  //Pinchi 20150320 add
 952:VS4210/keyremo.c **** 			//IsDrawNoVideoSignal = 0;
 953:VS4210/keyremo.c **** 			//#endif
 954:VS4210/keyremo.c **** 			
 955:VS4210/keyremo.c **** 			//	return 1;  //Pinchi 20150825 add  //Pinchi 20150825 disable
 956:VS4210/keyremo.c **** 			}
 957:VS4210/keyremo.c **** 		}
 958:VS4210/keyremo.c **** #endif
 959:VS4210/keyremo.c **** 		/*
 960:VS4210/keyremo.c **** 				if(TriggerFlag&&(ikey!=INPUTSOURCEKEY))     //Tigger Mode
 961:VS4210/keyremo.c **** 				{
 962:VS4210/keyremo.c **** 				  ikey=0;
 963:VS4210/keyremo.c **** 				  return 1;
 964:VS4210/keyremo.c **** 				}
 965:VS4210/keyremo.c **** 		*/
 966:VS4210/keyremo.c **** #if 0 /// ndef AWT_ML072Q  //Pinchi 20140911 add for AWT ML072Q
 967:VS4210/keyremo.c **** 		if(LockKeyState==3 && OSD_LOCK==0)
 968:VS4210/keyremo.c **** 		{
 969:VS4210/keyremo.c **** 			WriteEEP(EEP_ONOFFChoice,0x01);
 970:VS4210/keyremo.c **** 			OSD_LOCKF=1;
 971:VS4210/keyremo.c **** 			DisplayInformation(InfoOSDMENUATCIVE);
 972:VS4210/keyremo.c **** 			Wait_ms(2000);
 973:VS4210/keyremo.c **** 			//lock_keycnt=0;
 974:VS4210/keyremo.c **** 			DisplayInput();
 975:VS4210/keyremo.c **** 			LockKeyState=0;
 976:VS4210/keyremo.c **** 			PowerLED(ON);
 977:VS4210/keyremo.c **** 
 978:VS4210/keyremo.c **** #ifdef AWT_NO_SIGNAL_MSG // Pinchi 20150320 add
 979:VS4210/keyremo.c **** 			IsDrawNoVideoSignal = 0;
 980:VS4210/keyremo.c **** #endif
 981:VS4210/keyremo.c **** 		}
 982:VS4210/keyremo.c **** #endif
 983:VS4210/keyremo.c **** 
 984:VS4210/keyremo.c **** 		//	if(lock_keycnt==0 && OSD_LOCK==0 && LockKeyState!=0)
 985:VS4210/keyremo.c **** 		//	{
 986:VS4210/keyremo.c **** 		//		LockKeyState=0;
 987:VS4210/keyremo.c **** 		//		PowerLED(ON);
 988:VS4210/keyremo.c **** 		//	}
 989:VS4210/keyremo.c **** 
 990:VS4210/keyremo.c **** #if 0					  // def AWT_ML072Q  //Pinchi 20140918 add for AWT ML072Q
 991:VS4210/keyremo.c **** #ifdef AWT_NEW_SLIM_MODEL // Pinchi 20150203 add for AWT new slim model
 992:VS4210/keyremo.c **** 		if (ikey && (OSD_LOCK == 0) && ((~P2 & UnLockKEY) != UnLockKEY))
ARM GAS  C:\Users\ryanc.HS\AppData\Local\Temp\ccZ9UySd.s 			page 21


 993:VS4210/keyremo.c **** #else
 994:VS4210/keyremo.c **** 		if (ikey && (OSD_LOCK == 0) && ((~P2 & 0x90) != 0x90)&&(TriggerFlag==0))
 995:VS4210/keyremo.c **** #endif
 996:VS4210/keyremo.c **** 		{
 997:VS4210/keyremo.c **** 			ClearOSDInfo();//ryan@20170922
 998:VS4210/keyremo.c **** 			DisplayInformation(InfoOSDMENULOCKED);
 999:VS4210/keyremo.c **** 			delay(500);
1000:VS4210/keyremo.c **** 			ClearGAUGEINFO(); 
1001:VS4210/keyremo.c **** 			DisplayInput();
1002:VS4210/keyremo.c **** 			//Printf("\r\OSD_LOCK",0);
1003:VS4210/keyremo.c **** #ifdef AWT_NO_SIGNAL_MSG // Pinchi 20150320 add
1004:VS4210/keyremo.c **** 								IsDrawNoVideoSignal = 0;
1005:VS4210/keyremo.c **** #endif
1006:VS4210/keyremo.c **** 			return 1;
1007:VS4210/keyremo.c **** 		}
1008:VS4210/keyremo.c **** #endif
1009:VS4210/keyremo.c **** 
1010:VS4210/keyremo.c **** //		SetOSDLastKeyInTime();
1011:VS4210/keyremo.c **** #if 1
1012:VS4210/keyremo.c **** 		if ((GetDisplayedOSD() & MENU) || (bytGaugeAdjust == DistanceGaugePosition) || (bytGaugeAdjust ==
1013:VS4210/keyremo.c **** 		{
1014:VS4210/keyremo.c **** 			MCUTimerCancelTimerEvent(_USER_TIMER_EVENT_OSD_DISABLE);
1015:VS4210/keyremo.c **** 			MCUTimerActiveTimerEvent(SEC(Menu_Osd_Time_Out), _USER_TIMER_EVENT_OSD_DISABLE);
1016:VS4210/keyremo.c **** 		}
1017:VS4210/keyremo.c **** #endif
1018:VS4210/keyremo.c **** 		if ((bytAutoSleeping == ON) /*&& (GetDisplayedOSD() & (MENU|TVVOL))*/)
1019:VS4210/keyremo.c **** 		{
1020:VS4210/keyremo.c **** 			MCUTimerCancelTimerEvent(_SYSTEM_TIMER_EVENT_AUTO_SLEEPING_TIMEOUT);
1021:VS4210/keyremo.c **** 			MCUTimerActiveTimerEvent(SEC(10 - (bytStandByModeToTriggerMode * 5)), _SYSTEM_TIMER_EVENT_AUTO_S
1022:VS4210/keyremo.c **** 		}
1023:VS4210/keyremo.c **** 
1024:VS4210/keyremo.c **** 		MCUTimerCancelTimerEvent(_USER_TIMER_EVENT_SEQ_CHECK);
1025:VS4210/keyremo.c **** 
1026:VS4210/keyremo.c **** 		if (((GetDisplayedOSD() & _COC_OSD) == 0) && (ikey != SELECTKEY))
1027:VS4210/keyremo.c **** 			MenuTouchMode = 0;
1028:VS4210/keyremo.c **** 
1029:VS4210/keyremo.c **** 		switch (ikey)
1030:VS4210/keyremo.c **** 		{
1031:VS4210/keyremo.c **** 		case POWERKEY:
1032:VS4210/keyremo.c **** 			Printf("\r\nPOWER key ");
1033:VS4210/keyremo.c **** 			if (PowerFlag == ON)
1034:VS4210/keyremo.c **** 			{
1035:VS4210/keyremo.c **** 				PowerFlag = OFF;
1036:VS4210/keyremo.c **** 			}
1037:VS4210/keyremo.c **** 			else
1038:VS4210/keyremo.c **** 			{
1039:VS4210/keyremo.c **** 				PowerFlag = ON;
1040:VS4210/keyremo.c **** 			}
1041:VS4210/keyremo.c **** 
1042:VS4210/keyremo.c **** 			ret = 0;
1043:VS4210/keyremo.c **** 
1044:VS4210/keyremo.c **** 			if (bytStandByMode == 0)
1045:VS4210/keyremo.c **** 			{
1046:VS4210/keyremo.c **** 				WriteEEP(EEP_Powerflag, PowerFlag);
1047:VS4210/keyremo.c **** 			}
1048:VS4210/keyremo.c **** 
1049:VS4210/keyremo.c **** 			break;
ARM GAS  C:\Users\ryanc.HS\AppData\Local\Temp\ccZ9UySd.s 			page 22


1050:VS4210/keyremo.c **** 
1051:VS4210/keyremo.c **** 		case MENUKEY:
1052:VS4210/keyremo.c **** 			Printf("\r\nMENUKEY key ");
1053:VS4210/keyremo.c **** 			//	if(  GetDisplayedOSD() & MENU  )
1054:VS4210/keyremo.c **** 			//	DrawMenulist(0);
1055:VS4210/keyremo.c **** 			if (bytGrabberAdjust)
1056:VS4210/keyremo.c **** 			{
1057:VS4210/keyremo.c **** 				CLRGrabberMessage();
1058:VS4210/keyremo.c **** 				CloseOSDMenu();
1059:VS4210/keyremo.c **** 			}
1060:VS4210/keyremo.c **** 			else if (bytCOCAdjust == ON)
1061:VS4210/keyremo.c **** 			{
1062:VS4210/keyremo.c **** 				Printf("\r\n(COC Menu key)");
1063:VS4210/keyremo.c **** 				SetCOCCom(_COCOSD_BOX_Sel, SelectModeType);
1064:VS4210/keyremo.c **** 				SetCOCCom(_COCOSD_ENTER, SelectModeType);
1065:VS4210/keyremo.c **** 			}
1066:VS4210/keyremo.c **** 			else if (GetDisplayedOSD() & MENU)
1067:VS4210/keyremo.c **** 			{
1068:VS4210/keyremo.c **** 
1069:VS4210/keyremo.c **** 				if (OnChangingValue)
1070:VS4210/keyremo.c **** 				{
1071:VS4210/keyremo.c **** 					// ret = ActionRemo( REMO_MENU, 0 );
1072:VS4210/keyremo.c **** 					OnChangingValue = 0;
1073:VS4210/keyremo.c **** 
1074:VS4210/keyremo.c **** 					DisplayCursor();
1075:VS4210/keyremo.c **** 					// ret = ActionRemo( REMO_MENU, RepeatKey );
1076:VS4210/keyremo.c **** 				}
1077:VS4210/keyremo.c **** 				else
1078:VS4210/keyremo.c **** 					OSDSelect();
1079:VS4210/keyremo.c **** 			}
1080:VS4210/keyremo.c **** 			else
1081:VS4210/keyremo.c **** 			{
1082:VS4210/keyremo.c **** 
1083:VS4210/keyremo.c **** 				if (GetDisplayedOSD() & (TVVOL | _COC_OSD))
1084:VS4210/keyremo.c **** 					CloseOSDMenu();
1085:VS4210/keyremo.c **** #if 1
1086:VS4210/keyremo.c **** 				MCUTimerCancelTimerEvent(_USER_TIMER_EVENT_OSD_DISABLE);
1087:VS4210/keyremo.c **** 				MCUTimerActiveTimerEvent(SEC(Menu_Osd_Time_Out), _USER_TIMER_EVENT_OSD_DISABLE);
1088:VS4210/keyremo.c **** #endif
1089:VS4210/keyremo.c **** 				MCUTimerCancelTimerEvent(_SYSTEM_TIMER_EVENT_GRABBER_SETUP);
1090:VS4210/keyremo.c **** 				OpenOSDMenu(0);
1091:VS4210/keyremo.c **** 
1092:VS4210/keyremo.c **** 				MenuTouchMode = 1;
1093:VS4210/keyremo.c **** 				MenuTouchFlag = 1;
1094:VS4210/keyremo.c **** 			}
1095:VS4210/keyremo.c **** 
1096:VS4210/keyremo.c **** 			break;
1097:VS4210/keyremo.c **** 
1098:VS4210/keyremo.c **** 			//------------------------------------------------------------------------
1099:VS4210/keyremo.c **** 
1100:VS4210/keyremo.c **** 		case UPKEY:
1101:VS4210/keyremo.c **** 
1102:VS4210/keyremo.c **** 			if (bytCOCAdjust == ON)
1103:VS4210/keyremo.c **** 			{
1104:VS4210/keyremo.c **** 				Printf("\r\n(COC UP key)");
1105:VS4210/keyremo.c **** 				SetCOCCom(_COCOSD_BOX_Sel, SelectModeType);
1106:VS4210/keyremo.c **** 				SetCOCCom(_COCOSD_UP, SelectModeType);
ARM GAS  C:\Users\ryanc.HS\AppData\Local\Temp\ccZ9UySd.s 			page 23


1107:VS4210/keyremo.c **** 			}
1108:VS4210/keyremo.c **** 			else if (GetDisplayedOSD() & MENU)
1109:VS4210/keyremo.c **** 			{
1110:VS4210/keyremo.c **** 				if (OnChangingValue)
1111:VS4210/keyremo.c **** 				{
1112:VS4210/keyremo.c **** 					OSDValueUpDn(UP);
1113:VS4210/keyremo.c **** 				}
1114:VS4210/keyremo.c **** 				else
1115:VS4210/keyremo.c **** 				{
1116:VS4210/keyremo.c **** 					// if(OSDMenuLevel == 1||OSDMenuLevel == 2)
1117:VS4210/keyremo.c **** 					//    OSDCursorMove( DN);
1118:VS4210/keyremo.c **** 					// else
1119:VS4210/keyremo.c **** 					OSDCursorMove(UP);
1120:VS4210/keyremo.c **** 					// Printf("(2)");
1121:VS4210/keyremo.c **** 				}
1122:VS4210/keyremo.c **** 			}
1123:VS4210/keyremo.c **** 			else if (GetDisplayedOSD() & _RUN_TPMS_OSD)
1124:VS4210/keyremo.c **** 				;
1125:VS4210/keyremo.c **** 			else if (bytGaugeAdjust /*==DistanceGaugePosition*/)
1126:VS4210/keyremo.c **** 			{
1127:VS4210/keyremo.c **** 				// VXIS_fSetOsdOnOff(0 ,WINZOOMx2);
1128:VS4210/keyremo.c **** 				OSDValueUpDn(UP);
1129:VS4210/keyremo.c **** 				ShowGaugeOSD();
1130:VS4210/keyremo.c **** 			}
1131:VS4210/keyremo.c **** 			else if (bytGrabberAdjust)
1132:VS4210/keyremo.c **** 			{
1133:VS4210/keyremo.c **** 				OSDValueUpDn(UP);
1134:VS4210/keyremo.c **** 				ShowGrabberLinerOSD();
1135:VS4210/keyremo.c **** 			}
1136:VS4210/keyremo.c **** 			else
1137:VS4210/keyremo.c **** 			{
1138:VS4210/keyremo.c **** 				MCUTimerCancelTimerEvent(_SYSTEM_TIMER_EVENT_GRABBER_SETUP);
1139:VS4210/keyremo.c **** 				ChangeVol(UP);
1140:VS4210/keyremo.c **** 				DisplayVol();
1141:VS4210/keyremo.c **** 			}
1142:VS4210/keyremo.c **** 
1143:VS4210/keyremo.c **** 			/*
1144:VS4210/keyremo.c **** 				else
1145:VS4210/keyremo.c **** 				{
1146:VS4210/keyremo.c **** 					#ifdef Hs_debug
1147:VS4210/keyremo.c **** 					Printf("\r\nREMO_VOLUP",0);
1148:VS4210/keyremo.c **** 					#endif
1149:VS4210/keyremo.c **** 					ret=ActionRemo(REMO_VOLUP,0);
1150:VS4210/keyremo.c **** 					return 1;
1151:VS4210/keyremo.c **** 				}
1152:VS4210/keyremo.c **** 				*/
1153:VS4210/keyremo.c **** 			break;
1154:VS4210/keyremo.c **** 
1155:VS4210/keyremo.c **** 		case DOWNKEY:
1156:VS4210/keyremo.c **** 
1157:VS4210/keyremo.c **** 			if (bytCOCAdjust == ON)
1158:VS4210/keyremo.c **** 			{
1159:VS4210/keyremo.c **** 				Printf("\r\n(COC DOWN key)");
1160:VS4210/keyremo.c **** 				SetCOCCom(_COCOSD_BOX_Sel, SelectModeType);
1161:VS4210/keyremo.c **** 				SetCOCCom(_COCOSD_DOWN, SelectModeType);
1162:VS4210/keyremo.c **** 			}
1163:VS4210/keyremo.c **** 			else if (GetDisplayedOSD() & MENU)
ARM GAS  C:\Users\ryanc.HS\AppData\Local\Temp\ccZ9UySd.s 			page 24


1164:VS4210/keyremo.c **** 			{
1165:VS4210/keyremo.c **** 				if (OnChangingValue)
1166:VS4210/keyremo.c **** 					OSDValueUpDn(DN);
1167:VS4210/keyremo.c **** 				else
1168:VS4210/keyremo.c **** 				{
1169:VS4210/keyremo.c **** 					// if(OSDMenuLevel == 1||OSDMenuLevel == 2)
1170:VS4210/keyremo.c **** 					//    OSDCursorMove( UP);
1171:VS4210/keyremo.c **** 					// else
1172:VS4210/keyremo.c **** 					OSDCursorMove(DN);
1173:VS4210/keyremo.c **** 				}
1174:VS4210/keyremo.c **** 			}
1175:VS4210/keyremo.c **** 			else if (GetDisplayedOSD() & _RUN_TPMS_OSD)
1176:VS4210/keyremo.c **** 				;
1177:VS4210/keyremo.c **** 			else if (bytGaugeAdjust /*==DistanceGaugePosition*/)
1178:VS4210/keyremo.c **** 			{
1179:VS4210/keyremo.c **** 				// VXIS_fSetOsdOnOff(0 ,WINZOOMx2);
1180:VS4210/keyremo.c **** 				OSDValueUpDn(DN);
1181:VS4210/keyremo.c **** 				ShowGaugeOSD();
1182:VS4210/keyremo.c **** 			}
1183:VS4210/keyremo.c **** 			else if (bytGrabberAdjust)
1184:VS4210/keyremo.c **** 			{
1185:VS4210/keyremo.c **** 				OSDValueUpDn(DN);
1186:VS4210/keyremo.c **** 				ShowGrabberLinerOSD();
1187:VS4210/keyremo.c **** 			}
1188:VS4210/keyremo.c **** 			else
1189:VS4210/keyremo.c **** 			{
1190:VS4210/keyremo.c **** 				MCUTimerCancelTimerEvent(_SYSTEM_TIMER_EVENT_GRABBER_SETUP);
1191:VS4210/keyremo.c **** 				ChangeVol(DN);
1192:VS4210/keyremo.c **** 				DisplayVol();
1193:VS4210/keyremo.c **** 			}
1194:VS4210/keyremo.c **** 			/*
1195:VS4210/keyremo.c **** 				else
1196:VS4210/keyremo.c **** 				{
1197:VS4210/keyremo.c **** 					#ifdef Hs_debug
1198:VS4210/keyremo.c **** 					Printf("\r\nREMO_VOLDN",0);
1199:VS4210/keyremo.c **** 					#endif
1200:VS4210/keyremo.c **** 					ret=ActionRemo(REMO_VOLDN,0);
1201:VS4210/keyremo.c **** 					return 1;
1202:VS4210/keyremo.c **** 				}
1203:VS4210/keyremo.c **** 				*/
1204:VS4210/keyremo.c **** 			break;
1205:VS4210/keyremo.c **** 
1206:VS4210/keyremo.c **** 		case SELECTKEY:
1207:VS4210/keyremo.c **** 
1208:VS4210/keyremo.c **** 			if (bytCOCAdjust == ON)
1209:VS4210/keyremo.c **** 			{
1210:VS4210/keyremo.c **** 				Printf("\r\n(COC Right key)");
1211:VS4210/keyremo.c **** 				SetCOCCom(_COCOSD_BOX_Sel, SelectModeType);
1212:VS4210/keyremo.c **** 				SetCOCCom(_COCOSD_RIGHT, SelectModeType);
1213:VS4210/keyremo.c **** 			}
1214:VS4210/keyremo.c **** 			else if (bytGrabberAdjust)
1215:VS4210/keyremo.c **** 			{
1216:VS4210/keyremo.c **** 				if (bytGrabberAdjust == Grabber_Liner_Position)
1217:VS4210/keyremo.c **** 				{
1218:VS4210/keyremo.c **** 					bytGrabberAdjust = Grabber_Liner_Width;
1219:VS4210/keyremo.c **** 					ShowGrabberLinerOSD();
1220:VS4210/keyremo.c **** 				}
ARM GAS  C:\Users\ryanc.HS\AppData\Local\Temp\ccZ9UySd.s 			page 25


1221:VS4210/keyremo.c **** 			}
1222:VS4210/keyremo.c **** 			else
1223:VS4210/keyremo.c **** 			{
1224:VS4210/keyremo.c **** 				if (GetDisplayedOSD() & (MENU | TVVOL | _COC_OSD | _RUN_TPMS_OSD))
1225:VS4210/keyremo.c **** 					CloseOSDMenu();
1226:VS4210/keyremo.c **** 
1227:VS4210/keyremo.c **** 				SetSelectMode();
1228:VS4210/keyremo.c **** 			}
1229:VS4210/keyremo.c **** 
1230:VS4210/keyremo.c **** 			break;
1231:VS4210/keyremo.c **** 
1232:VS4210/keyremo.c **** 			//------------------------------------------------------------------------
1233:VS4210/keyremo.c **** 
1234:VS4210/keyremo.c **** 		case INPUTSOURCEKEY:
1235:VS4210/keyremo.c **** 			if (bytCOCAdjust == ON)
1236:VS4210/keyremo.c **** 			{
1237:VS4210/keyremo.c **** 
1238:VS4210/keyremo.c **** 				Printf("\r\n(COC Left key)");
1239:VS4210/keyremo.c **** 				SetCOCCom(_COCOSD_BOX_Sel, SelectModeType);
1240:VS4210/keyremo.c **** 				SetCOCCom(_COCOSD_LEFT, SelectModeType);
1241:VS4210/keyremo.c **** 			}
1242:VS4210/keyremo.c **** 			else if (bytGrabberAdjust)
1243:VS4210/keyremo.c **** 			{
1244:VS4210/keyremo.c **** 				if (bytGrabberAdjust == Grabber_Liner_Width)
1245:VS4210/keyremo.c **** 				{
1246:VS4210/keyremo.c **** 					bytGrabberAdjust = Grabber_Liner_Position;
1247:VS4210/keyremo.c **** 					ShowGrabberLinerOSD();
1248:VS4210/keyremo.c **** 				}
1249:VS4210/keyremo.c **** 			}
1250:VS4210/keyremo.c **** 			else if ((GetDisplayedOSD() & _COC_OSD) == 0)
1251:VS4210/keyremo.c **** 			{
1252:VS4210/keyremo.c **** 				if (GetDisplayedOSD() & (MENU | TVVOL | _RUN_TPMS_OSD))
1253:VS4210/keyremo.c **** 					CloseOSDMenu();
1254:VS4210/keyremo.c **** 
1255:VS4210/keyremo.c **** 				if (NowModeState == SelectMode)
1256:VS4210/keyremo.c **** 					NowModeState = JumpMode;
1257:VS4210/keyremo.c **** 				else
1258:VS4210/keyremo.c **** 					NowModeState = SelectMode;
1259:VS4210/keyremo.c **** 
1260:VS4210/keyremo.c **** 				MCUTimerCancelTimerEvent(_USER_TIMER_EVENT_SEQ_CHECK);
1261:VS4210/keyremo.c **** 
1262:VS4210/keyremo.c **** 				SetJumpMode();
1263:VS4210/keyremo.c **** 			}
1264:VS4210/keyremo.c **** 
1265:VS4210/keyremo.c **** 			break;
1266:VS4210/keyremo.c **** 		case TPMSKEY:
1267:VS4210/keyremo.c **** 
1268:VS4210/keyremo.c **** 			if (GetDisplayedOSD() & (TVVOL | _COC_OSD | MENU))
1269:VS4210/keyremo.c **** 				CloseOSDMenu();
1270:VS4210/keyremo.c **** 
1271:VS4210/keyremo.c **** 			ShowTPMSOSD();
1272:VS4210/keyremo.c **** 
1273:VS4210/keyremo.c **** 			MCUTimerCancelTimerEvent(_USER_TIMER_EVENT_OSD_DISABLE);
1274:VS4210/keyremo.c **** 			MCUTimerActiveTimerEvent(SEC(Menu_Osd_Time_Out), _USER_TIMER_EVENT_OSD_DISABLE);
1275:VS4210/keyremo.c **** 
1276:VS4210/keyremo.c **** 			break;
1277:VS4210/keyremo.c **** 
ARM GAS  C:\Users\ryanc.HS\AppData\Local\Temp\ccZ9UySd.s 			page 26


1278:VS4210/keyremo.c **** #if 0 // def QUAD
1279:VS4210/keyremo.c **** 			case  EVENTKEY:
1280:VS4210/keyremo.c **** 				Printf("\r\nEVENTKEY key pressed");
1281:VS4210/keyremo.c **** 		////	Hs_DvrTxCmdPaser(BOOKMARK);				
1282:VS4210/keyremo.c ****                	break;
1283:VS4210/keyremo.c **** #endif
1284:VS4210/keyremo.c **** 
1285:VS4210/keyremo.c **** #if 0 /// def SUPPORT_SDCARD  //Pinchi 20160929 disable for no DVR function
1286:VS4210/keyremo.c **** 			case VersionKEY:
1287:VS4210/keyremo.c **** #ifdef E_Wintek
1288:VS4210/keyremo.c **** 				FactoryMenu=1;
1289:VS4210/keyremo.c **** #endif
1290:VS4210/keyremo.c **** 				Printf("\r\nVersionKEY key pressed");
1291:VS4210/keyremo.c **** #ifdef SUPPORT_SDCARD	
1292:VS4210/keyremo.c **** 				if(DVR_Ready)
1293:VS4210/keyremo.c **** 				{
1294:VS4210/keyremo.c **** #if 1
1295:VS4210/keyremo.c **** 					if(AudioVol==15)
1296:VS4210/keyremo.c **** 					{
1297:VS4210/keyremo.c **** 						Hs_DvrTxCmdPaser(GetDVRVersion);
1298:VS4210/keyremo.c **** 					}
1299:VS4210/keyremo.c **** #ifndef SUPPORT_SDCARD
1300:VS4210/keyremo.c **** 					else
1301:VS4210/keyremo.c **** 						DisplayDVRStatus();
1302:VS4210/keyremo.c **** #endif
1303:VS4210/keyremo.c **** #endif
1304:VS4210/keyremo.c **** 				}
1305:VS4210/keyremo.c **** #else
1306:VS4210/keyremo.c **** 				if(AudioVol==15)
1307:VS4210/keyremo.c **** 				{
1308:VS4210/keyremo.c **** 					WriteDecoder(0xff, 0x01);
1309:VS4210/keyremo.c **** 					Wait_ms(5);
1310:VS4210/keyremo.c **** 					//WriteDecoder(0x82, 0x0c);
1311:VS4210/keyremo.c **** 					WriteDecoder(0x82, 0x01);
1312:VS4210/keyremo.c **** 					Wait_ms(5);
1313:VS4210/keyremo.c **** 					WriteDecoder(0xff, 0x00);
1314:VS4210/keyremo.c **** 					DisplayFWVersion();
1315:VS4210/keyremo.c **** 				}
1316:VS4210/keyremo.c **** #endif
1317:VS4210/keyremo.c **** 				//else
1318:VS4210/keyremo.c **** 				//	{
1319:VS4210/keyremo.c **** 				//	CloseOSDMenu();	
1320:VS4210/keyremo.c **** 				//	DisplayInput();
1321:VS4210/keyremo.c **** 				//	}
1322:VS4210/keyremo.c **** 				break;
1323:VS4210/keyremo.c **** #endif
1324:VS4210/keyremo.c **** 
1325:VS4210/keyremo.c **** #if 0 /// ef SUPPORT_2835_CLK_TUNE_BACK_DOOR  //Pinchi 20160929 add
1326:VS4210/keyremo.c **** 			case Tune2835ClkKEY :
1327:VS4210/keyremo.c **** 				if ((AudioVol == 20) && (IsEnter2835ClkTune == 1))
1328:VS4210/keyremo.c **** 				{
1329:VS4210/keyremo.c **** 					if (IsRun2835ClkTune == 1)
1330:VS4210/keyremo.c **** 					{
1331:VS4210/keyremo.c **** 						IsRun2835ClkTune = 0;
1332:VS4210/keyremo.c **** 						PowerLED(ON);
1333:VS4210/keyremo.c **** 						ClearDataCnt(INPUTINFO_ADDR, 2);
1334:VS4210/keyremo.c **** 						IsEnter2835ClkTune = 0;
ARM GAS  C:\Users\ryanc.HS\AppData\Local\Temp\ccZ9UySd.s 			page 27


1335:VS4210/keyremo.c **** 					}
1336:VS4210/keyremo.c **** 					else
1337:VS4210/keyremo.c **** 					{
1338:VS4210/keyremo.c **** 						IsRun2835ClkTune = 1;
1339:VS4210/keyremo.c **** 						PowerLED(2);
1340:VS4210/keyremo.c **** 						HS_Display2835ClkTuneVal(b2835ClkTuneVal);
1341:VS4210/keyremo.c **** 					}
1342:VS4210/keyremo.c **** 
1343:VS4210/keyremo.c **** 					Printf("\r\n[MSG]CheckKeyIn()=> IsRun2835ClkTune=%bx",(BYTE)IsRun2835ClkTune);
1344:VS4210/keyremo.c **** 				}
1345:VS4210/keyremo.c **** 				break;
1346:VS4210/keyremo.c **** 
1347:VS4210/keyremo.c **** 			case Enter2835TuneKEY :
1348:VS4210/keyremo.c **** 				/*
1349:VS4210/keyremo.c **** 				if (AudioVol == 23)
1350:VS4210/keyremo.c **** 				{
1351:VS4210/keyremo.c **** 					PowerLED(2);
1352:VS4210/keyremo.c **** 					Wait_ms(100);
1353:VS4210/keyremo.c **** 					PowerLED(ON);
1354:VS4210/keyremo.c **** 					Wait_ms(100);
1355:VS4210/keyremo.c **** 					PowerLED(2);
1356:VS4210/keyremo.c **** 					Wait_ms(100);
1357:VS4210/keyremo.c **** 					PowerLED(ON);
1358:VS4210/keyremo.c **** 					Wait_ms(100);
1359:VS4210/keyremo.c **** 					PowerLED(2);
1360:VS4210/keyremo.c **** 					Wait_ms(100);
1361:VS4210/keyremo.c **** 					PowerLED(ON);
1362:VS4210/keyremo.c **** 					IsEnter2835ClkTune = 1;
1363:VS4210/keyremo.c **** 					Enter2835TuneClock = SystemClock;
1364:VS4210/keyremo.c **** 				}
1365:VS4210/keyremo.c **** 				*/
1366:VS4210/keyremo.c **** 				break;
1367:VS4210/keyremo.c **** #endif
1368:VS4210/keyremo.c **** 		}
1369:VS4210/keyremo.c **** 	}
1370:VS4210/keyremo.c **** 	return (ret);
1371:VS4210/keyremo.c **** }
1372:VS4210/keyremo.c **** 
1373:VS4210/keyremo.c **** void BOX_SELECT_CHANNEL(BYTE index, BYTE action)
1374:VS4210/keyremo.c **** {
 158              		.loc 1 1374 1 is_stmt 1 view -0
 159              		.cfi_startproc
 160              		@ args = 0, pretend = 0, frame = 0
 161              		@ frame_needed = 0, uses_anonymous_args = 0
 162              		.loc 1 1374 1 is_stmt 0 view .LVU15
 163 0000 70B5     		push	{r4, r5, r6, lr}
 164              	.LCFI0:
 165              		.cfi_def_cfa_offset 16
 166              		.cfi_offset 4, -16
 167              		.cfi_offset 5, -12
 168              		.cfi_offset 6, -8
 169              		.cfi_offset 14, -4
 170 0002 0446     		mov	r4, r0
1375:VS4210/keyremo.c **** 	//	SetCOCCom(_COCOSD_BOXONLINE,SelectModeType);
1376:VS4210/keyremo.c **** 	//	Get_2824cIrq();
1377:VS4210/keyremo.c **** 
1378:VS4210/keyremo.c **** 	// if((Flisheye_CAM[SelectModeType]==FALSE))
ARM GAS  C:\Users\ryanc.HS\AppData\Local\Temp\ccZ9UySd.s 			page 28


1379:VS4210/keyremo.c **** 	{
1380:VS4210/keyremo.c **** 		if (action == UP)
 171              		.loc 1 1380 3 is_stmt 1 view .LVU16
 172              		.loc 1 1380 6 is_stmt 0 view .LVU17
 173 0004 0129     		cmp	r1, #1
 174 0006 1CD0     		beq	.L13
1381:VS4210/keyremo.c **** 		{
1382:VS4210/keyremo.c **** 			if (COCSelectModeType[SelectModeType] < 5)
1383:VS4210/keyremo.c **** 				COCSelectModeType[SelectModeType]++;
1384:VS4210/keyremo.c **** 			else
1385:VS4210/keyremo.c **** 				COCSelectModeType[SelectModeType] = 1;
1386:VS4210/keyremo.c **** 		}
1387:VS4210/keyremo.c **** 		else // action==DN
1388:VS4210/keyremo.c **** 		{
1389:VS4210/keyremo.c **** 			if (COCSelectModeType[SelectModeType] > 1)
 175              		.loc 1 1389 4 is_stmt 1 view .LVU18
 176              		.loc 1 1389 25 is_stmt 0 view .LVU19
 177 0008 174B     		ldr	r3, .L14
 178 000a 1A78     		ldrb	r2, [r3]	@ zero_extendqisi2
 179 000c 174B     		ldr	r3, .L14+4
 180 000e 9B5C     		ldrb	r3, [r3, r2]	@ zero_extendqisi2
 181              		.loc 1 1389 7 view .LVU20
 182 0010 012B     		cmp	r3, #1
 183 0012 24D9     		bls	.L11
1390:VS4210/keyremo.c **** 				COCSelectModeType[SelectModeType]--;
 184              		.loc 1 1390 5 is_stmt 1 view .LVU21
 185              		.loc 1 1390 38 is_stmt 0 view .LVU22
 186 0014 013B     		subs	r3, r3, #1
 187 0016 1549     		ldr	r1, .L14+4
 188              	.LVL3:
 189              		.loc 1 1390 38 view .LVU23
 190 0018 8B54     		strb	r3, [r1, r2]
 191              	.L10:
1391:VS4210/keyremo.c **** 			else
1392:VS4210/keyremo.c **** 				COCSelectModeType[SelectModeType] = 5;
1393:VS4210/keyremo.c **** 		}
1394:VS4210/keyremo.c **** 
1395:VS4210/keyremo.c **** 		SetCOCCom(_COCOSD_BOX_Sel, index);
 192              		.loc 1 1395 3 is_stmt 1 view .LVU24
 193 001a 2146     		mov	r1, r4
 194 001c 1920     		movs	r0, #25
 195              	.LVL4:
 196              		.loc 1 1395 3 is_stmt 0 view .LVU25
 197 001e FFF7FEFF 		bl	SetCOCCom
 198              	.LVL5:
1396:VS4210/keyremo.c **** 		SetCOCCom(_COCOSD_BOX_Channel_Sel, COCSelectModeType[SelectModeType]);
 199              		.loc 1 1396 3 is_stmt 1 view .LVU26
 200 0022 124D     		ldr	r5, .L14+4
 201 0024 104E     		ldr	r6, .L14
 202 0026 3378     		ldrb	r3, [r6]	@ zero_extendqisi2
 203 0028 E95C     		ldrb	r1, [r5, r3]	@ zero_extendqisi2
 204 002a 1A20     		movs	r0, #26
 205 002c FFF7FEFF 		bl	SetCOCCom
 206              	.LVL6:
1397:VS4210/keyremo.c **** 		Get_2824cIrq();
 207              		.loc 1 1397 3 view .LVU27
 208 0030 FFF7FEFF 		bl	Get_2824cIrq
ARM GAS  C:\Users\ryanc.HS\AppData\Local\Temp\ccZ9UySd.s 			page 29


 209              	.LVL7:
1398:VS4210/keyremo.c **** 		Printf("( _COCOSD_BOX_Channel_Sel=%02x SelectModeType=%02x)", (WORD)index, (WORD)COCSelectModeTyp
 210              		.loc 1 1398 3 view .LVU28
 211              		.loc 1 1398 101 is_stmt 0 view .LVU29
 212 0034 3378     		ldrb	r3, [r6]	@ zero_extendqisi2
 213              		.loc 1 1398 3 view .LVU30
 214 0036 EA5C     		ldrb	r2, [r5, r3]	@ zero_extendqisi2
 215 0038 2146     		mov	r1, r4
 216 003a 0D48     		ldr	r0, .L14+8
 217 003c FFF7FEFF 		bl	Printf
 218              	.LVL8:
1399:VS4210/keyremo.c **** 		/*
1400:VS4210/keyremo.c **** 			MCUTimerCancelTimerEvent(_USER_TIMER_EVENT_OSD_DISABLE);
1401:VS4210/keyremo.c **** 				MCUTimerActiveTimerEvent(SEC(Menu_Osd_Time_Out),_USER_TIMER_EVENT_OSD_DISABLE);
1402:VS4210/keyremo.c **** 		*/
1403:VS4210/keyremo.c **** 	}
1404:VS4210/keyremo.c **** }
 219              		.loc 1 1404 1 view .LVU31
 220 0040 70BD     		pop	{r4, r5, r6, pc}
 221              	.LVL9:
 222              	.L13:
1382:VS4210/keyremo.c **** 				COCSelectModeType[SelectModeType]++;
 223              		.loc 1 1382 4 is_stmt 1 view .LVU32
1382:VS4210/keyremo.c **** 				COCSelectModeType[SelectModeType]++;
 224              		.loc 1 1382 25 is_stmt 0 view .LVU33
 225 0042 094B     		ldr	r3, .L14
 226 0044 1A78     		ldrb	r2, [r3]	@ zero_extendqisi2
 227 0046 094B     		ldr	r3, .L14+4
 228 0048 9B5C     		ldrb	r3, [r3, r2]	@ zero_extendqisi2
1382:VS4210/keyremo.c **** 				COCSelectModeType[SelectModeType]++;
 229              		.loc 1 1382 7 view .LVU34
 230 004a 042B     		cmp	r3, #4
 231 004c 03D8     		bhi	.L9
1383:VS4210/keyremo.c **** 			else
 232              		.loc 1 1383 5 is_stmt 1 view .LVU35
1383:VS4210/keyremo.c **** 			else
 233              		.loc 1 1383 38 is_stmt 0 view .LVU36
 234 004e 0133     		adds	r3, r3, #1
 235 0050 0649     		ldr	r1, .L14+4
 236              	.LVL10:
1383:VS4210/keyremo.c **** 			else
 237              		.loc 1 1383 38 view .LVU37
 238 0052 8B54     		strb	r3, [r1, r2]
 239 0054 E1E7     		b	.L10
 240              	.LVL11:
 241              	.L9:
1385:VS4210/keyremo.c **** 		}
 242              		.loc 1 1385 5 is_stmt 1 view .LVU38
1385:VS4210/keyremo.c **** 		}
 243              		.loc 1 1385 39 is_stmt 0 view .LVU39
 244 0056 054B     		ldr	r3, .L14+4
 245 0058 0121     		movs	r1, #1
 246              	.LVL12:
1385:VS4210/keyremo.c **** 		}
 247              		.loc 1 1385 39 view .LVU40
 248 005a 9954     		strb	r1, [r3, r2]
 249 005c DDE7     		b	.L10
ARM GAS  C:\Users\ryanc.HS\AppData\Local\Temp\ccZ9UySd.s 			page 30


 250              	.LVL13:
 251              	.L11:
1392:VS4210/keyremo.c **** 		}
 252              		.loc 1 1392 5 is_stmt 1 view .LVU41
1392:VS4210/keyremo.c **** 		}
 253              		.loc 1 1392 39 is_stmt 0 view .LVU42
 254 005e 034B     		ldr	r3, .L14+4
 255 0060 0521     		movs	r1, #5
 256              	.LVL14:
1392:VS4210/keyremo.c **** 		}
 257              		.loc 1 1392 39 view .LVU43
 258 0062 9954     		strb	r1, [r3, r2]
 259 0064 D9E7     		b	.L10
 260              	.L15:
 261 0066 00BF     		.align	2
 262              	.L14:
 263 0068 00000000 		.word	SelectModeType
 264 006c 00000000 		.word	COCSelectModeType
 265 0070 00000000 		.word	.LC0
 266              		.cfi_endproc
 267              	.LFE75:
 269              		.section	.rodata.BOX_SET_CHANNEL.str1.4,"aMS",%progbits,1
 270              		.align	2
 271              	.LC1:
 272 0000 28205F43 		.ascii	"( _COCOSD_BOX_SET_CHANNEL=%02x ch=%02x)\000"
 272      4F434F53 
 272      445F424F 
 272      585F5345 
 272      545F4348 
 273              		.section	.text.BOX_SET_CHANNEL,"ax",%progbits
 274              		.align	1
 275              		.global	BOX_SET_CHANNEL
 276              		.syntax unified
 277              		.thumb
 278              		.thumb_func
 279              		.fpu softvfp
 281              	BOX_SET_CHANNEL:
 282              	.LVL15:
 283              	.LFB76:
1405:VS4210/keyremo.c **** 
1406:VS4210/keyremo.c **** void BOX_SET_CHANNEL(BYTE index, BYTE ch)
1407:VS4210/keyremo.c **** {
 284              		.loc 1 1407 1 is_stmt 1 view -0
 285              		.cfi_startproc
 286              		@ args = 0, pretend = 0, frame = 0
 287              		@ frame_needed = 0, uses_anonymous_args = 0
 288              		.loc 1 1407 1 is_stmt 0 view .LVU45
 289 0000 38B5     		push	{r3, r4, r5, lr}
 290              	.LCFI1:
 291              		.cfi_def_cfa_offset 16
 292              		.cfi_offset 3, -16
 293              		.cfi_offset 4, -12
 294              		.cfi_offset 5, -8
 295              		.cfi_offset 14, -4
 296 0002 0446     		mov	r4, r0
 297 0004 0D46     		mov	r5, r1
1408:VS4210/keyremo.c **** 	SetCOCCom(_COCOSD_BOX_Sel, index);
ARM GAS  C:\Users\ryanc.HS\AppData\Local\Temp\ccZ9UySd.s 			page 31


 298              		.loc 1 1408 2 is_stmt 1 view .LVU46
 299 0006 0146     		mov	r1, r0
 300              	.LVL16:
 301              		.loc 1 1408 2 is_stmt 0 view .LVU47
 302 0008 1920     		movs	r0, #25
 303              	.LVL17:
 304              		.loc 1 1408 2 view .LVU48
 305 000a FFF7FEFF 		bl	SetCOCCom
 306              	.LVL18:
1409:VS4210/keyremo.c **** 	SetCOCCom(_COCOSD_BOX_Channel_Sel, ch);
 307              		.loc 1 1409 2 is_stmt 1 view .LVU49
 308 000e 2946     		mov	r1, r5
 309 0010 1A20     		movs	r0, #26
 310 0012 FFF7FEFF 		bl	SetCOCCom
 311              	.LVL19:
1410:VS4210/keyremo.c **** 	Get_2824cIrq();
 312              		.loc 1 1410 2 view .LVU50
 313 0016 FFF7FEFF 		bl	Get_2824cIrq
 314              	.LVL20:
1411:VS4210/keyremo.c **** 	Printf("( _COCOSD_BOX_SET_CHANNEL=%02x ch=%02x)", (WORD)index, (WORD)ch);
 315              		.loc 1 1411 2 view .LVU51
 316 001a 2A46     		mov	r2, r5
 317 001c 2146     		mov	r1, r4
 318 001e 0348     		ldr	r0, .L18
 319 0020 FFF7FEFF 		bl	Printf
 320              	.LVL21:
1412:VS4210/keyremo.c **** 	BOX_Set_flag = TRUE;
 321              		.loc 1 1412 2 view .LVU52
 322              		.loc 1 1412 15 is_stmt 0 view .LVU53
 323 0024 024B     		ldr	r3, .L18+4
 324 0026 0122     		movs	r2, #1
 325 0028 1A70     		strb	r2, [r3]
1413:VS4210/keyremo.c **** }
 326              		.loc 1 1413 1 view .LVU54
 327 002a 38BD     		pop	{r3, r4, r5, pc}
 328              	.L19:
 329              		.align	2
 330              	.L18:
 331 002c 00000000 		.word	.LC1
 332 0030 00000000 		.word	.LANCHOR0
 333              		.cfi_endproc
 334              	.LFE76:
 336              		.section	.rodata.TouchSliderSetSelectMode.str1.4,"aMS",%progbits,1
 337              		.align	2
 338              	.LC2:
 339 0000 0D0A2851 		.ascii	"\015\012(QuadBoxMode==0)\000"
 339      75616442 
 339      6F784D6F 
 339      64653D3D 
 339      302900
 340 0013 00       		.align	2
 341              	.LC3:
 342 0014 0D0A5365 		.ascii	"\015\012SelectModeType=%d\000"
 342      6C656374 
 342      4D6F6465 
 342      54797065 
 342      3D256400 
ARM GAS  C:\Users\ryanc.HS\AppData\Local\Temp\ccZ9UySd.s 			page 32


 343              		.section	.text.TouchSliderSetSelectMode,"ax",%progbits
 344              		.align	1
 345              		.global	TouchSliderSetSelectMode
 346              		.syntax unified
 347              		.thumb
 348              		.thumb_func
 349              		.fpu softvfp
 351              	TouchSliderSetSelectMode:
 352              	.LVL22:
 353              	.LFB80:
1414:VS4210/keyremo.c **** 
1415:VS4210/keyremo.c **** #define SEQIndexNum 4
1416:VS4210/keyremo.c **** 
1417:VS4210/keyremo.c **** void SEQMode(void)
1418:VS4210/keyremo.c **** {
1419:VS4210/keyremo.c **** 	WORD usNum;
1420:VS4210/keyremo.c **** #if 0
1421:VS4210/keyremo.c **** 	//BYTE preSEQIndex;
1422:VS4210/keyremo.c **** 	//preSEQIndex=SEQIndex;
1423:VS4210/keyremo.c **** 	
1424:VS4210/keyremo.c **** 		if((SEQIndex<4)&&(QuadBoxId&(1<<SEQIndex))&&(COCSelectModeType[SEQIndex]<4)&&QuadBoxMode==ON)
1425:VS4210/keyremo.c **** 								{
1426:VS4210/keyremo.c **** 								COCSelectModeType[SEQIndex]++;
1427:VS4210/keyremo.c **** 								BOX_SET_CHANNEL(SEQIndex,COCSelectModeType[SEQIndex]);
1428:VS4210/keyremo.c **** 								}
1429:VS4210/keyremo.c **** 							else	if(SEQIndex>=3)
1430:VS4210/keyremo.c **** 								{
1431:VS4210/keyremo.c **** 								QuadBoxMode=0;
1432:VS4210/keyremo.c **** 								SEQIndex=0;		
1433:VS4210/keyremo.c **** 
1434:VS4210/keyremo.c **** 									if((SEQIndex<4)&&(QuadBoxId&(1<<SEQIndex))/*&&(QuadBoxMode==0)*/)
1435:VS4210/keyremo.c **** 									{
1436:VS4210/keyremo.c **** 									COCSelectModeType[SEQIndex]=1;
1437:VS4210/keyremo.c **** 									QuadBoxMode=TRUE;
1438:VS4210/keyremo.c **** 									BOX_SET_CHANNEL(SEQIndex,COCSelectModeType[SEQIndex]);				
1439:VS4210/keyremo.c **** 									}
1440:VS4210/keyremo.c **** 									
1441:VS4210/keyremo.c **** 								}
1442:VS4210/keyremo.c **** 							else
1443:VS4210/keyremo.c **** 								{
1444:VS4210/keyremo.c **** 								//QuadBoxMode=0;
1445:VS4210/keyremo.c **** 								//SEQIndex++;	
1446:VS4210/keyremo.c **** 								
1447:VS4210/keyremo.c **** 								if((SEQIndex<4)&&(QuadBoxId&(1<<SEQIndex))&&(QuadBoxMode==0))
1448:VS4210/keyremo.c **** 								{
1449:VS4210/keyremo.c **** 								COCSelectModeType[SEQIndex]=1;
1450:VS4210/keyremo.c **** 								QuadBoxMode=TRUE;
1451:VS4210/keyremo.c **** 								BOX_SET_CHANNEL(SEQIndex,COCSelectModeType[SEQIndex]);				
1452:VS4210/keyremo.c **** 								 Printf("\r\n(QuadBoxMode==0)");
1453:VS4210/keyremo.c **** 								 
1454:VS4210/keyremo.c **** 								}
1455:VS4210/keyremo.c **** 								else
1456:VS4210/keyremo.c **** 									{
1457:VS4210/keyremo.c **** 									SEQIndex++;										
1458:VS4210/keyremo.c **** 									QuadBoxMode=0;
1459:VS4210/keyremo.c **** 
1460:VS4210/keyremo.c **** 									if((SEQIndex<4)&&(QuadBoxId&(1<<SEQIndex))/*&&(QuadBoxMode==0)*/)
ARM GAS  C:\Users\ryanc.HS\AppData\Local\Temp\ccZ9UySd.s 			page 33


1461:VS4210/keyremo.c **** 									{
1462:VS4210/keyremo.c **** 									COCSelectModeType[SEQIndex]=1;
1463:VS4210/keyremo.c **** 									QuadBoxMode=TRUE;
1464:VS4210/keyremo.c **** 									BOX_SET_CHANNEL(SEQIndex,COCSelectModeType[SEQIndex]);				
1465:VS4210/keyremo.c **** 									}
1466:VS4210/keyremo.c **** 									
1467:VS4210/keyremo.c **** 									}
1468:VS4210/keyremo.c **** 								
1469:VS4210/keyremo.c **** 								
1470:VS4210/keyremo.c **** 								}
1471:VS4210/keyremo.c **** #else
1472:VS4210/keyremo.c **** 
1473:VS4210/keyremo.c **** #if 1
1474:VS4210/keyremo.c **** 
1475:VS4210/keyremo.c **** 	if (SEQIndex < SEQIndexNum)
1476:VS4210/keyremo.c **** 		SEQIndex++;
1477:VS4210/keyremo.c **** 	else
1478:VS4210/keyremo.c **** 		SEQIndex = 0;
1479:VS4210/keyremo.c **** 
1480:VS4210/keyremo.c **** #if (_DEBUG_MESSAGE_TP2824 == ON)
1481:VS4210/keyremo.c **** 	GraphicsPrint(YELLOW, "\r\n(SEQIndex ch=%02x)\r\n", (WORD)SEQIndex);
1482:VS4210/keyremo.c **** #endif
1483:VS4210/keyremo.c **** 
1484:VS4210/keyremo.c **** #if 0
1485:VS4210/keyremo.c **** 			if(SEQTable[SEQIndex]==VS4210_LOOP_MODE0_w0)
1486:VS4210/keyremo.c **** 			   {
1487:VS4210/keyremo.c **** 			   bytSelectCAMRD=SelectCameraR;   
1488:VS4210/keyremo.c **** 			   SetSelectCAMRD(SelectCameraR);
1489:VS4210/keyremo.c **** 			   }   
1490:VS4210/keyremo.c **** 			else if(SEQTable[SEQIndex]==VS4210_LOOP_MODE0_w3)
1491:VS4210/keyremo.c **** 				{
1492:VS4210/keyremo.c **** 				SetSelectCAMRD(SelectCameraD);				
1493:VS4210/keyremo.c **** 				}
1494:VS4210/keyremo.c **** 			else if(SEQTable[SEQIndex]==VS4210_LOOP_MODE0_w4)
1495:VS4210/keyremo.c **** 				{
1496:VS4210/keyremo.c **** 				bytSelectCAMRD=SelectCameraD;  
1497:VS4210/keyremo.c **** 				}
1498:VS4210/keyremo.c **** 
1499:VS4210/keyremo.c **** #else
1500:VS4210/keyremo.c **** 	if (SEQTable[SEQIndex] == SelectCameraD)
1501:VS4210/keyremo.c **** 	{
1502:VS4210/keyremo.c **** 
1503:VS4210/keyremo.c **** 		SetSelectCAMRD(SEQTable[SEQIndex]);
1504:VS4210/keyremo.c **** 		bytSelectCAMRD = SelectCameraD;
1505:VS4210/keyremo.c **** 	}
1506:VS4210/keyremo.c **** 	// else if((bytSelectCAMRD==SelectCameraD))
1507:VS4210/keyremo.c **** 	else if ((SEQTable[SEQIndex] == VS4210_LOOP_MODE0_w2))
1508:VS4210/keyremo.c **** 	{
1509:VS4210/keyremo.c **** 
1510:VS4210/keyremo.c **** 		SetSelectCAMRD(SEQTable[SEQIndex]);
1511:VS4210/keyremo.c **** 		bytSelectCAMRD = SelectCameraR;
1512:VS4210/keyremo.c **** 	}
1513:VS4210/keyremo.c **** #endif
1514:VS4210/keyremo.c **** 
1515:VS4210/keyremo.c **** #if 0
1516:VS4210/keyremo.c **** 										if(SEQTable[SEQIndex]==VS4210_LOOP_MODE0_w4)
1517:VS4210/keyremo.c **** 										{
ARM GAS  C:\Users\ryanc.HS\AppData\Local\Temp\ccZ9UySd.s 			page 34


1518:VS4210/keyremo.c **** 										bytSelectCAMRD=SelectCameraD;  
1519:VS4210/keyremo.c **** 										// Init_TP280x_CHx_RegSet(1,3);
1520:VS4210/keyremo.c **** 										}
1521:VS4210/keyremo.c **** 										else if(SEQTable[SEQIndex]==VS4210_LOOP_MODE0_w2)
1522:VS4210/keyremo.c **** 											{
1523:VS4210/keyremo.c **** 											bytSelectCAMRD=SelectCameraR;  
1524:VS4210/keyremo.c **** 											// Init_TP280x_CHx_RegSet(1,3);
1525:VS4210/keyremo.c **** 
1526:VS4210/keyremo.c **** 											}
1527:VS4210/keyremo.c **** #endif
1528:VS4210/keyremo.c **** 
1529:VS4210/keyremo.c **** 	setloopoutmode(SEQTable[SEQIndex]);
1530:VS4210/keyremo.c **** 	AudioMute(OFF);
1531:VS4210/keyremo.c **** #if 0
1532:VS4210/keyremo.c **** 						if(SEQTable[SEQIndex]==VS4210_LOOP_MODE0_w0)
1533:VS4210/keyremo.c **** 									   {
1534:VS4210/keyremo.c **** 									   //bytSelectCAMRD=SelectCameraR;   
1535:VS4210/keyremo.c **** 									   SetSelectCAMRD(SelectCameraR);
1536:VS4210/keyremo.c **** 									   }   
1537:VS4210/keyremo.c **** 									else if(SEQTable[SEQIndex]==VS4210_LOOP_MODE0_w3)
1538:VS4210/keyremo.c **** 										{
1539:VS4210/keyremo.c **** 										SetSelectCAMRD(SelectCameraD);				
1540:VS4210/keyremo.c **** 										}
1541:VS4210/keyremo.c **** 									//else if(SEQTable[SEQIndex]==VS4210_LOOP_MODE0_w4)
1542:VS4210/keyremo.c **** 									//	{
1543:VS4210/keyremo.c **** 									//	bytSelectCAMRD=SelectCameraD;  
1544:VS4210/keyremo.c **** 										//}
1545:VS4210/keyremo.c **** 
1546:VS4210/keyremo.c **** #endif
1547:VS4210/keyremo.c **** #if 1
1548:VS4210/keyremo.c **** 	if (((SEQTable[SEQIndex] == SelectCameraD) || (SEQTable[SEQIndex] == VS4210_LOOP_MODE0_w2)) && (Ti
1549:VS4210/keyremo.c **** 	{
1550:VS4210/keyremo.c **** 
1551:VS4210/keyremo.c **** 		usNum = 100;
1552:VS4210/keyremo.c **** 
1553:VS4210/keyremo.c **** 		g_bNotifyTimer0Int = _FALSE;
1554:VS4210/keyremo.c **** 
1555:VS4210/keyremo.c **** 		while (_TRUE)
1556:VS4210/keyremo.c **** 		{
1557:VS4210/keyremo.c **** 			if (g_bNotifyTimer0Int)
1558:VS4210/keyremo.c **** 			{
1559:VS4210/keyremo.c **** 				g_bNotifyTimer0Int = _FALSE;
1560:VS4210/keyremo.c **** 
1561:VS4210/keyremo.c **** 				if (--usNum)
1562:VS4210/keyremo.c **** 				{
1563:VS4210/keyremo.c **** 					EQ_Detect();
1564:VS4210/keyremo.c **** 				}
1565:VS4210/keyremo.c **** 				else
1566:VS4210/keyremo.c **** 				{
1567:VS4210/keyremo.c **** 					return;
1568:VS4210/keyremo.c **** 				}
1569:VS4210/keyremo.c **** 			}
1570:VS4210/keyremo.c **** 		}
1571:VS4210/keyremo.c **** 	}
1572:VS4210/keyremo.c **** #endif
1573:VS4210/keyremo.c **** #else
1574:VS4210/keyremo.c **** 	if (SEQIndex < 3)
ARM GAS  C:\Users\ryanc.HS\AppData\Local\Temp\ccZ9UySd.s 			page 35


1575:VS4210/keyremo.c **** 		SEQIndex++;
1576:VS4210/keyremo.c **** 	else
1577:VS4210/keyremo.c **** 		SEQIndex = 0;
1578:VS4210/keyremo.c **** 
1579:VS4210/keyremo.c **** 	setloopoutmode(SEQTable[SEQIndex]);
1580:VS4210/keyremo.c **** #endif
1581:VS4210/keyremo.c **** #endif
1582:VS4210/keyremo.c **** }
1583:VS4210/keyremo.c **** 
1584:VS4210/keyremo.c **** void SetJumpMode(void)
1585:VS4210/keyremo.c **** {
1586:VS4210/keyremo.c **** 	BYTE val, i;
1587:VS4210/keyremo.c **** 	// Printf("\r\nNowModeState",(WORD)NowModeState);
1588:VS4210/keyremo.c **** 	// LCDPowerOFF();
1589:VS4210/keyremo.c **** 	// MCUTimerActiveTimerEvent(SEC(_BACKLIGHT_ON_Time_out),  _USER_TIMER_EVENT_PANEL_BACKLIGHT_ON);
1590:VS4210/keyremo.c **** 
1591:VS4210/keyremo.c **** 	BackLightOFF();
1592:VS4210/keyremo.c **** 
1593:VS4210/keyremo.c **** 	if (NowModeState == JumpMode)
1594:VS4210/keyremo.c **** 	{
1595:VS4210/keyremo.c **** 		val = ReadEEP(EEP_JUMPMode);
1596:VS4210/keyremo.c **** 
1597:VS4210/keyremo.c **** 		if (val == 1)
1598:VS4210/keyremo.c **** 		{
1599:VS4210/keyremo.c **** 			SEQFlag = ON;
1600:VS4210/keyremo.c **** 			SEQIndex = 0;
1601:VS4210/keyremo.c **** 
1602:VS4210/keyremo.c **** 			for (i = 0; i < 4; i++)
1603:VS4210/keyremo.c **** 			{
1604:VS4210/keyremo.c **** 				if ((QuadBoxId & (1 << i)))
1605:VS4210/keyremo.c **** 				{
1606:VS4210/keyremo.c **** 					PreCOCSelectModeType[i] = COCSelectModeType[i];
1607:VS4210/keyremo.c **** 					// COCSelectModeType[i]=5;
1608:VS4210/keyremo.c **** 					// SetCOCCom(_COCOSD_BOX_Sel,i);
1609:VS4210/keyremo.c **** 					// SetCOCCom(_COCOSD_BOX_Channel_Sel,5);
1610:VS4210/keyremo.c **** 					// Get_2824cIrq();
1611:VS4210/keyremo.c **** 				}
1612:VS4210/keyremo.c **** 			}
1613:VS4210/keyremo.c **** 
1614:VS4210/keyremo.c **** 			MCUTimerCancelTimerEvent(_USER_TIMER_EVENT_SEQ_CHECK);
1615:VS4210/keyremo.c **** 			MCUTimerActiveTimerEvent(SEC(TimeStep), _USER_TIMER_EVENT_SEQ_CHECK);
1616:VS4210/keyremo.c **** 		}
1617:VS4210/keyremo.c **** 
1618:VS4210/keyremo.c **** 		if ((SEQIndex < 4) && (QuadBoxId & (1 << SEQIndex)) /*&&(QuadBoxMode==0)*/)
1619:VS4210/keyremo.c **** 		{
1620:VS4210/keyremo.c **** 			COCSelectModeType[SEQIndex] = 1;
1621:VS4210/keyremo.c **** 			QuadBoxMode = TRUE;
1622:VS4210/keyremo.c **** 			BOX_SET_CHANNEL(SEQIndex, COCSelectModeType[SEQIndex]);
1623:VS4210/keyremo.c **** 		}
1624:VS4210/keyremo.c **** 
1625:VS4210/keyremo.c **** 		SetSelectCAMRD(JumpTable[val]);
1626:VS4210/keyremo.c **** 
1627:VS4210/keyremo.c **** 		SetGarbberLinerMode(JumpTable[val]);
1628:VS4210/keyremo.c **** 
1629:VS4210/keyremo.c **** 		setloopoutmode(JumpTable[val]);
1630:VS4210/keyremo.c **** 
1631:VS4210/keyremo.c **** 		// if((JumpTable[val]==VS4210_LOOP_MODE0_w4))
ARM GAS  C:\Users\ryanc.HS\AppData\Local\Temp\ccZ9UySd.s 			page 36


1632:VS4210/keyremo.c **** 		// MCUTimerActiveTimerEvent(SEC(1.5),	_USER_TIMER_EVENT_BACKLIGHT_ON);
1633:VS4210/keyremo.c **** 		// else
1634:VS4210/keyremo.c **** 		{
1635:VS4210/keyremo.c **** 			BackLightON();
1636:VS4210/keyremo.c **** 			AudioMute(OFF);
1637:VS4210/keyremo.c **** 		}
1638:VS4210/keyremo.c **** 	}
1639:VS4210/keyremo.c **** 	else
1640:VS4210/keyremo.c **** 	{
1641:VS4210/keyremo.c **** 		val = ReadEEP(EEP_JUMPMode);
1642:VS4210/keyremo.c **** 		SEQFlag = OFF;
1643:VS4210/keyremo.c **** 
1644:VS4210/keyremo.c **** 		for (i = 0; i < 4; i++)
1645:VS4210/keyremo.c **** 		{
1646:VS4210/keyremo.c **** 			if ((QuadBoxId & (1 << i)))
1647:VS4210/keyremo.c **** 			{
1648:VS4210/keyremo.c **** 				COCSelectModeType[i] = PreCOCSelectModeType[i];
1649:VS4210/keyremo.c **** 				SetCOCCom(_COCOSD_BOX_Sel, i);
1650:VS4210/keyremo.c **** 				SetCOCCom(_COCOSD_BOX_Channel_Sel, COCSelectModeType[i]);
1651:VS4210/keyremo.c **** 				Get_2824cIrq();
1652:VS4210/keyremo.c **** 			}
1653:VS4210/keyremo.c **** 		}
1654:VS4210/keyremo.c **** 
1655:VS4210/keyremo.c **** 		// ryan@20210729 CloseOSDMenu();
1656:VS4210/keyremo.c **** 
1657:VS4210/keyremo.c **** 		// bytSelectCAMRD=MainSetSelectMode[SelectModeType];
1658:VS4210/keyremo.c **** 
1659:VS4210/keyremo.c **** 		// CAM_R_SW(OFF);
1660:VS4210/keyremo.c **** 		// CAM_D_SW(OFF);
1661:VS4210/keyremo.c **** 
1662:VS4210/keyremo.c **** 		SetSelectCAMRD(MainSetSelectMode[SelectModeType]);
1663:VS4210/keyremo.c **** 
1664:VS4210/keyremo.c **** 		SetGarbberLinerMode(MainSetSelectMode[SelectModeType]);
1665:VS4210/keyremo.c **** 
1666:VS4210/keyremo.c **** 		setloopoutmode(MainSetSelectMode[SelectModeType]);
1667:VS4210/keyremo.c **** 
1668:VS4210/keyremo.c **** 		if ((MainSetSelectMode[SelectModeType] == VS4210_LOOP_MODE0_w4))
1669:VS4210/keyremo.c **** 			MCUTimerActiveTimerEvent(SEC(0.2), _USER_TIMER_EVENT_BACKLIGHT_ON);
1670:VS4210/keyremo.c **** 		else
1671:VS4210/keyremo.c **** 		{
1672:VS4210/keyremo.c **** 			BackLightON();
1673:VS4210/keyremo.c **** 			AudioMute(OFF);
1674:VS4210/keyremo.c **** 		}
1675:VS4210/keyremo.c **** 	}
1676:VS4210/keyremo.c **** 
1677:VS4210/keyremo.c **** 	WriteEEP(EEP_NowModeState, NowModeState);
1678:VS4210/keyremo.c **** 
1679:VS4210/keyremo.c **** 	if (bytAutoSleeping == ON)
1680:VS4210/keyremo.c **** 	{
1681:VS4210/keyremo.c **** 		MCUTimerCancelTimerEvent(_SYSTEM_TIMER_EVENT_AUTO_SLEEPING_TIMEOUT);
1682:VS4210/keyremo.c **** 		MCUTimerActiveTimerEvent(SEC(10 - (bytStandByModeToTriggerMode * 5)), _SYSTEM_TIMER_EVENT_AUTO_SL
1683:VS4210/keyremo.c **** 	}
1684:VS4210/keyremo.c **** 
1685:VS4210/keyremo.c **** 	// BackLightON();
1686:VS4210/keyremo.c **** 	// AudioMute(OFF);
1687:VS4210/keyremo.c **** }
1688:VS4210/keyremo.c **** 
ARM GAS  C:\Users\ryanc.HS\AppData\Local\Temp\ccZ9UySd.s 			page 37


1689:VS4210/keyremo.c **** void SetSelectMode(void)
1690:VS4210/keyremo.c **** {
1691:VS4210/keyremo.c **** 
1692:VS4210/keyremo.c **** 	BYTE i;
1693:VS4210/keyremo.c **** 	// WORD usNum;
1694:VS4210/keyremo.c **** 
1695:VS4210/keyremo.c **** 	BYTE Maxsource;
1696:VS4210/keyremo.c **** 
1697:VS4210/keyremo.c **** 	if (Priority == _FALSE)
1698:VS4210/keyremo.c **** 		Maxsource = CAM_D;
1699:VS4210/keyremo.c **** 	else
1700:VS4210/keyremo.c **** 		Maxsource = CAM_RAB_H;
1701:VS4210/keyremo.c **** 
1702:VS4210/keyremo.c **** 	NowModeState = SelectMode;
1703:VS4210/keyremo.c **** 
1704:VS4210/keyremo.c **** 	SEQFlag = 0;
1705:VS4210/keyremo.c **** 
1706:VS4210/keyremo.c **** 	if (TouchResetSelectModeFlag == TRUE)
1707:VS4210/keyremo.c **** 	{
1708:VS4210/keyremo.c **** 		for (i = 0; i < 4; i++)
1709:VS4210/keyremo.c **** 		{
1710:VS4210/keyremo.c **** 			if ((QuadBoxId & (1 << i)))
1711:VS4210/keyremo.c **** 			{
1712:VS4210/keyremo.c **** 				COCSelectModeType[i] = PreCOCSelectModeType[i];
1713:VS4210/keyremo.c **** 				SetCOCCom(_COCOSD_BOX_Sel, i);
1714:VS4210/keyremo.c **** 				SetCOCCom(_COCOSD_BOX_Channel_Sel, COCSelectModeType[i]);
1715:VS4210/keyremo.c **** 				Get_2824cIrq();
1716:VS4210/keyremo.c **** 			}
1717:VS4210/keyremo.c **** 		}
1718:VS4210/keyremo.c **** 
1719:VS4210/keyremo.c **** 		TouchResetSelectModeFlag = FALSE;
1720:VS4210/keyremo.c **** 		SelectModeType = TouchPreSelectModeType;
1721:VS4210/keyremo.c **** 	}
1722:VS4210/keyremo.c **** 	else if ((SelectModeType < 4) && (QuadBoxId & (1 << SelectModeType)) && (COCSelectModeType[SelectM
1723:VS4210/keyremo.c **** 	{
1724:VS4210/keyremo.c **** 		BOX_SELECT_CHANNEL(SelectModeType, UP);
1725:VS4210/keyremo.c **** 	}
1726:VS4210/keyremo.c **** 	else
1727:VS4210/keyremo.c **** 	{
1728:VS4210/keyremo.c **** 
1729:VS4210/keyremo.c **** 		if (SelectModeType >= Maxsource)
1730:VS4210/keyremo.c **** 		{
1731:VS4210/keyremo.c **** 			QuadBoxMode = FALSE;
1732:VS4210/keyremo.c **** 			SelectModeType = CAM_A;
1733:VS4210/keyremo.c **** 		}
1734:VS4210/keyremo.c **** 		else
1735:VS4210/keyremo.c **** 		{
1736:VS4210/keyremo.c **** 			QuadBoxMode = FALSE;
1737:VS4210/keyremo.c **** 			SelectModeType++;
1738:VS4210/keyremo.c **** 		}
1739:VS4210/keyremo.c **** 
1740:VS4210/keyremo.c **** 		BackLightOFF();
1741:VS4210/keyremo.c **** #if 0	
1742:VS4210/keyremo.c **** 
1743:VS4210/keyremo.c **** 						 if(MainSetSelectMode[SelectModeType]==SelectCameraD)
1744:VS4210/keyremo.c **** 					 	{
1745:VS4210/keyremo.c **** 					 	bytSelectCAMRD=SelectCameraD;
ARM GAS  C:\Users\ryanc.HS\AppData\Local\Temp\ccZ9UySd.s 			page 38


1746:VS4210/keyremo.c **** 						CAM_R_SW(OFF);
1747:VS4210/keyremo.c **** 						CAM_D_SW(ON);
1748:VS4210/keyremo.c **** 						 VideoSave[3] = ReadEEP(EEP_TP2824_STD0+(4*3)+2);
1749:VS4210/keyremo.c **** 						if(VideoSave[3]==_TRUE)
1750:VS4210/keyremo.c **** 						Boot_Trigger_Function(3);	 
1751:VS4210/keyremo.c **** 					 	}
1752:VS4210/keyremo.c **** 					 else  if(bytSelectCAMRD==SelectCameraD)
1753:VS4210/keyremo.c **** 					 	{
1754:VS4210/keyremo.c **** 					 	bytSelectCAMRD=SelectCameraR;
1755:VS4210/keyremo.c **** 						CAM_R_SW(ON);
1756:VS4210/keyremo.c **** 						CAM_D_SW(OFF);
1757:VS4210/keyremo.c **** 						 VideoSave[3] = ReadEEP(EEP_TP2824_STD0+(3*3)+2);
1758:VS4210/keyremo.c **** 						 if(VideoSave[3]==_TRUE)
1759:VS4210/keyremo.c **** 						 Boot_Trigger_Function(3);						 
1760:VS4210/keyremo.c **** 					 	}
1761:VS4210/keyremo.c **** #endif
1762:VS4210/keyremo.c **** #if 1
1763:VS4210/keyremo.c **** 		if (MainSetSelectMode[SelectModeType] == SelectCameraD)
1764:VS4210/keyremo.c **** 		{
1765:VS4210/keyremo.c **** 
1766:VS4210/keyremo.c **** 			SetSelectCAMRD(MainSetSelectMode[SelectModeType]);
1767:VS4210/keyremo.c **** 			bytSelectCAMRD = SelectCameraD;
1768:VS4210/keyremo.c **** 		}
1769:VS4210/keyremo.c **** 		else if (bytSelectCAMRD == SelectCameraD)
1770:VS4210/keyremo.c **** 		{
1771:VS4210/keyremo.c **** 
1772:VS4210/keyremo.c **** 			SetSelectCAMRD(MainSetSelectMode[SelectModeType]);
1773:VS4210/keyremo.c **** 			bytSelectCAMRD = SelectCameraR;
1774:VS4210/keyremo.c **** 		}
1775:VS4210/keyremo.c **** 
1776:VS4210/keyremo.c **** #endif
1777:VS4210/keyremo.c **** 
1778:VS4210/keyremo.c **** 		// CAM_R_SW(OFF);
1779:VS4210/keyremo.c **** 		////CAM_D_SW(OFF);
1780:VS4210/keyremo.c **** 		//
1781:VS4210/keyremo.c **** 		// SetSelectCAMRD(MainSetSelectMode[SelectModeType]);
1782:VS4210/keyremo.c **** 
1783:VS4210/keyremo.c **** 		SetGarbberLinerMode(MainSetSelectMode[SelectModeType]);
1784:VS4210/keyremo.c **** 
1785:VS4210/keyremo.c **** 		setloopoutmode(MainSetSelectMode[SelectModeType]);
1786:VS4210/keyremo.c **** 
1787:VS4210/keyremo.c **** 		//				SetGarbberLinerMode(MainSetSelectMode[SelectModeType]);
1788:VS4210/keyremo.c **** 
1789:VS4210/keyremo.c **** 		// CheckGarbberLiner(MainSetSelectMode[SelectModeType]);
1790:VS4210/keyremo.c **** 
1791:VS4210/keyremo.c **** 		OSDStateFlg = 1;
1792:VS4210/keyremo.c **** 
1793:VS4210/keyremo.c **** 		PreSelectModeType = 12;
1794:VS4210/keyremo.c **** #if 1
1795:VS4210/keyremo.c **** 		if ((SelectModeType < 4) && (QuadBoxId & (1 << SelectModeType)) && (QuadBoxMode == 0))
1796:VS4210/keyremo.c **** 		{
1797:VS4210/keyremo.c **** 			COCSelectModeType[SelectModeType] = 1;
1798:VS4210/keyremo.c **** 			QuadBoxMode = TRUE;
1799:VS4210/keyremo.c **** 			BOX_SET_CHANNEL(SelectModeType, COCSelectModeType[SelectModeType]);
1800:VS4210/keyremo.c **** 
1801:VS4210/keyremo.c **** 			Printf("\r\n(QuadBoxMode==0)");
1802:VS4210/keyremo.c **** 		}
ARM GAS  C:\Users\ryanc.HS\AppData\Local\Temp\ccZ9UySd.s 			page 39


1803:VS4210/keyremo.c **** #endif
1804:VS4210/keyremo.c **** 
1805:VS4210/keyremo.c **** #if 0
1806:VS4210/keyremo.c **** 									if((MainSetSelectMode[SelectModeType]==VS4210_LOOP_MODE0_w3))
1807:VS4210/keyremo.c **** 										{
1808:VS4210/keyremo.c **** 										BackLightON();
1809:VS4210/keyremo.c **** 
1810:VS4210/keyremo.c **** 										SetSelectCAMRD(SelectCameraD);				
1811:VS4210/keyremo.c **** 										 Printf("(ReadyToCamD)");
1812:VS4210/keyremo.c **** 										usNum=100;
1813:VS4210/keyremo.c **** 						
1814:VS4210/keyremo.c **** 											g_bNotifyTimer0Int = _FALSE;
1815:VS4210/keyremo.c **** 						
1816:VS4210/keyremo.c **** 												while(_TRUE)
1817:VS4210/keyremo.c **** 												{
1818:VS4210/keyremo.c **** 															   if(g_bNotifyTimer0Int)
1819:VS4210/keyremo.c **** 															{
1820:VS4210/keyremo.c **** 																g_bNotifyTimer0Int = _FALSE;
1821:VS4210/keyremo.c **** 						
1822:VS4210/keyremo.c **** 																 if(--usNum)
1823:VS4210/keyremo.c **** 																	 {
1824:VS4210/keyremo.c **** 																	 EQ_Detect();
1825:VS4210/keyremo.c **** 																	 }
1826:VS4210/keyremo.c **** 																		 else
1827:VS4210/keyremo.c **** 																	 {
1828:VS4210/keyremo.c **** 																			   WriteEEP(EEP_SelectMode,SelectModeType);
1829:VS4210/keyremo.c **** 																			   WriteEEP(EEP_NowModeState,NowModeState);
1830:VS4210/keyremo.c **** 																			   BackLightON();
1831:VS4210/keyremo.c **** 																			   AudioMute(OFF);
1832:VS4210/keyremo.c **** 																			 
1833:VS4210/keyremo.c **** 																			 if(bytAutoSleeping==ON)
1834:VS4210/keyremo.c **** 																			 {
1835:VS4210/keyremo.c **** 																			 MCUTimerCancelTimerEvent(_SYSTEM_TIMER_EVENT_AUTO_SLEEPING_TIMEOUT);
1836:VS4210/keyremo.c **** 																			 MCUTimerActiveTimerEvent(SEC(10-(bytStandByModeToTriggerMode*5)), _SYSTEM_TIMER
1837:VS4210/keyremo.c **** 																			 }
1838:VS4210/keyremo.c **** 																			 
1839:VS4210/keyremo.c **** 																			  Printf("\r\nSelectModeType=%d",(WORD)SelectModeType);
1840:VS4210/keyremo.c **** 																			
1841:VS4210/keyremo.c **** 
1842:VS4210/keyremo.c **** 																	 
1843:VS4210/keyremo.c **** 																		return;
1844:VS4210/keyremo.c **** 
1845:VS4210/keyremo.c **** 																	 }
1846:VS4210/keyremo.c **** 														   }
1847:VS4210/keyremo.c **** 												  }
1848:VS4210/keyremo.c **** 								
1849:VS4210/keyremo.c **** 										}
1850:VS4210/keyremo.c **** 									else if((MainSetSelectMode[SelectModeType]==VS4210_LOOP_MODE0_w0))
1851:VS4210/keyremo.c **** 										{
1852:VS4210/keyremo.c **** 										BackLightON();
1853:VS4210/keyremo.c **** 										SetSelectCAMRD(SelectCameraR);				
1854:VS4210/keyremo.c **** 																				 Printf("(ReadyToCamR)");
1855:VS4210/keyremo.c **** 																				usNum=100;
1856:VS4210/keyremo.c **** 																
1857:VS4210/keyremo.c **** 																					g_bNotifyTimer0Int = _FALSE;
1858:VS4210/keyremo.c **** 																
1859:VS4210/keyremo.c **** 																						while(_TRUE)
ARM GAS  C:\Users\ryanc.HS\AppData\Local\Temp\ccZ9UySd.s 			page 40


1860:VS4210/keyremo.c **** 																						{
1861:VS4210/keyremo.c **** 																									   if(g_bNotifyTimer0Int)
1862:VS4210/keyremo.c **** 																									{
1863:VS4210/keyremo.c **** 																										g_bNotifyTimer0Int = _FALSE;
1864:VS4210/keyremo.c **** 																
1865:VS4210/keyremo.c **** 																										 if(--usNum)
1866:VS4210/keyremo.c **** 																											 {
1867:VS4210/keyremo.c **** 																											 EQ_Detect();
1868:VS4210/keyremo.c **** 																											 }
1869:VS4210/keyremo.c **** 																												 else
1870:VS4210/keyremo.c **** 																											 {
1871:VS4210/keyremo.c **** 																													   WriteEEP(EEP_SelectMode,SelectModeType);
1872:VS4210/keyremo.c **** 																													   WriteEEP(EEP_NowModeState,NowModeState);
1873:VS4210/keyremo.c **** 																													   BackLightON();
1874:VS4210/keyremo.c **** 																													   AudioMute(OFF);
1875:VS4210/keyremo.c **** 																													 
1876:VS4210/keyremo.c **** 																													 if(bytAutoSleeping==ON)
1877:VS4210/keyremo.c **** 																													 {
1878:VS4210/keyremo.c **** 																													 MCUTimerCancelTimerEvent(_SYSTEM_TIMER_EVENT_AUTO_SLEEPING_TIMEOUT);
1879:VS4210/keyremo.c **** 																													 MCUTimerActiveTimerEvent(SEC(10-(bytStandByModeToTriggerMode*5)), _SY
1880:VS4210/keyremo.c **** 																													 }
1881:VS4210/keyremo.c **** 																													 
1882:VS4210/keyremo.c **** 																													  Printf("\r\nSelectModeType=%d",(WORD)SelectModeType);
1883:VS4210/keyremo.c **** 																													
1884:VS4210/keyremo.c **** 										
1885:VS4210/keyremo.c **** 																											 
1886:VS4210/keyremo.c **** 																												return;
1887:VS4210/keyremo.c **** 										
1888:VS4210/keyremo.c **** 																											 }
1889:VS4210/keyremo.c **** 																								   }
1890:VS4210/keyremo.c **** 																						  }
1891:VS4210/keyremo.c **** 
1892:VS4210/keyremo.c **** 										}
1893:VS4210/keyremo.c **** 
1894:VS4210/keyremo.c **** #endif
1895:VS4210/keyremo.c **** 	}
1896:VS4210/keyremo.c **** 
1897:VS4210/keyremo.c **** 	WriteEEP(EEP_SelectMode, SelectModeType);
1898:VS4210/keyremo.c **** 	WriteEEP(EEP_NowModeState, NowModeState);
1899:VS4210/keyremo.c **** 
1900:VS4210/keyremo.c **** 	if (MainSetSelectMode[SelectModeType] == SelectCameraD)
1901:VS4210/keyremo.c **** 		MCUTimerActiveTimerEvent(SEC(0.2), _USER_TIMER_EVENT_BACKLIGHT_ON);
1902:VS4210/keyremo.c **** 	else
1903:VS4210/keyremo.c **** 	{
1904:VS4210/keyremo.c **** 		BackLightON();
1905:VS4210/keyremo.c **** 		AudioMute(OFF);
1906:VS4210/keyremo.c **** 	}
1907:VS4210/keyremo.c **** 	if (bytAutoSleeping == ON)
1908:VS4210/keyremo.c **** 	{
1909:VS4210/keyremo.c **** 		MCUTimerCancelTimerEvent(_SYSTEM_TIMER_EVENT_AUTO_SLEEPING_TIMEOUT);
1910:VS4210/keyremo.c **** 		MCUTimerActiveTimerEvent(SEC(10 - (bytStandByModeToTriggerMode * 5)), _SYSTEM_TIMER_EVENT_AUTO_SL
1911:VS4210/keyremo.c **** 	}
1912:VS4210/keyremo.c **** 
1913:VS4210/keyremo.c **** 	Printf("\r\nSelectModeType=%d", (WORD)SelectModeType);
1914:VS4210/keyremo.c **** }
1915:VS4210/keyremo.c **** 
1916:VS4210/keyremo.c **** void TouchSliderSetSelectMode(BYTE Action)
ARM GAS  C:\Users\ryanc.HS\AppData\Local\Temp\ccZ9UySd.s 			page 41


1917:VS4210/keyremo.c **** {
 354              		.loc 1 1917 1 is_stmt 1 view -0
 355              		.cfi_startproc
 356              		@ args = 0, pretend = 0, frame = 0
 357              		@ frame_needed = 0, uses_anonymous_args = 0
 358              		.loc 1 1917 1 is_stmt 0 view .LVU56
 359 0000 38B5     		push	{r3, r4, r5, lr}
 360              	.LCFI2:
 361              		.cfi_def_cfa_offset 16
 362              		.cfi_offset 3, -16
 363              		.cfi_offset 4, -12
 364              		.cfi_offset 5, -8
 365              		.cfi_offset 14, -4
1918:VS4210/keyremo.c **** 	BYTE i;
 366              		.loc 1 1918 2 is_stmt 1 view .LVU57
1919:VS4210/keyremo.c **** 	/*
1920:VS4210/keyremo.c **** 		CAM_A,         // 0
1921:VS4210/keyremo.c **** 		CAM_B,         // 1
1922:VS4210/keyremo.c **** 		CAM_C,         // 2
1923:VS4210/keyremo.c **** 		CAM_R,         // 3
1924:VS4210/keyremo.c **** 		CAM_AB,        // 4
1925:VS4210/keyremo.c **** 		CAM_CR,        // 8
1926:VS4210/keyremo.c **** 		CAM_AR,        // 9
1927:VS4210/keyremo.c **** 		CAM_RB,        // 10
1928:VS4210/keyremo.c **** 		CAM_AC,        // 11
1929:VS4210/keyremo.c **** 		CAM_CB,        // 12
1930:VS4210/keyremo.c **** 		CAM_RAB_T,     // 13
1931:VS4210/keyremo.c **** 		CAM_RAB_H,     // 14
1932:VS4210/keyremo.c **** 		CAM_QUAD,      // 15
1933:VS4210/keyremo.c **** 	*/
1934:VS4210/keyremo.c **** 	/*
1935:VS4210/keyremo.c **** 		if(Priority)
1936:VS4210/keyremo.c **** 			Maxsource=CAM_R;
1937:VS4210/keyremo.c **** 		else
1938:VS4210/keyremo.c **** 			Maxsource=CAM_RAB_H;
1939:VS4210/keyremo.c **** 	*/
1940:VS4210/keyremo.c **** 	BYTE Maxsource /*,tempsource*/; // VS4210_LOOP_MODE0_w0
 367              		.loc 1 1940 2 view .LVU58
1941:VS4210/keyremo.c **** 
1942:VS4210/keyremo.c **** 	if (Priority == _FALSE)
 368              		.loc 1 1942 2 view .LVU59
 369              		.loc 1 1942 15 is_stmt 0 view .LVU60
 370 0002 654B     		ldr	r3, .L43
 371 0004 1B78     		ldrb	r3, [r3]	@ zero_extendqisi2
 372              		.loc 1 1942 5 view .LVU61
 373 0006 002B     		cmp	r3, #0
 374 0008 48D1     		bne	.L33
1943:VS4210/keyremo.c **** 		Maxsource = CAM_R;
 375              		.loc 1 1943 13 view .LVU62
 376 000a 0321     		movs	r1, #3
 377              	.L21:
 378              	.LVL23:
1944:VS4210/keyremo.c **** 	else
1945:VS4210/keyremo.c **** 		Maxsource = CAM_RAB_H;
1946:VS4210/keyremo.c **** 
1947:VS4210/keyremo.c **** 	NowModeState = SelectMode;
 379              		.loc 1 1947 2 is_stmt 1 view .LVU63
ARM GAS  C:\Users\ryanc.HS\AppData\Local\Temp\ccZ9UySd.s 			page 42


 380              		.loc 1 1947 15 is_stmt 0 view .LVU64
 381 000c 0023     		movs	r3, #0
 382 000e 634A     		ldr	r2, .L43+4
 383 0010 1370     		strb	r3, [r2]
1948:VS4210/keyremo.c **** 
1949:VS4210/keyremo.c **** 	SEQFlag = 0;
 384              		.loc 1 1949 2 is_stmt 1 view .LVU65
 385              		.loc 1 1949 10 is_stmt 0 view .LVU66
 386 0012 634A     		ldr	r2, .L43+8
 387 0014 1370     		strb	r3, [r2]
1950:VS4210/keyremo.c **** 
1951:VS4210/keyremo.c **** 	// tempsource=SelectModeType;
1952:VS4210/keyremo.c **** 
1953:VS4210/keyremo.c **** 	if (Action == UP)
 388              		.loc 1 1953 2 is_stmt 1 view .LVU67
 389              		.loc 1 1953 5 is_stmt 0 view .LVU68
 390 0016 0128     		cmp	r0, #1
 391 0018 42D0     		beq	.L36
1954:VS4210/keyremo.c **** 	{
1955:VS4210/keyremo.c **** 
1956:VS4210/keyremo.c **** #if 1
1957:VS4210/keyremo.c **** 		/*
1958:VS4210/keyremo.c **** 				if((SelectModeType<4)&&(QuadBoxId&(1<<(SelectModeType)))&&(QuadBoxMode==0))
1959:VS4210/keyremo.c **** 					{
1960:VS4210/keyremo.c **** 					COCSelectModeType[(SelectModeType)]=1;
1961:VS4210/keyremo.c **** 					QuadBoxMode=TRUE;
1962:VS4210/keyremo.c **** 					BOX_SET_CHANNEL((SelectModeType),COCSelectModeType[(SelectModeType)]);
1963:VS4210/keyremo.c **** 
1964:VS4210/keyremo.c **** 						 Printf("\r\n(QuadBoxMode==0)");
1965:VS4210/keyremo.c **** 					}
1966:VS4210/keyremo.c **** 				else
1967:VS4210/keyremo.c **** 					*/
1968:VS4210/keyremo.c **** 		if ((SelectModeType < 4) && (QuadBoxId & (1 << SelectModeType)) && (COCSelectModeType[SelectModeT
1969:VS4210/keyremo.c **** 		{
1970:VS4210/keyremo.c **** 			BOX_SELECT_CHANNEL(SelectModeType, UP);
1971:VS4210/keyremo.c **** 		}
1972:VS4210/keyremo.c **** 		else if (SelectModeType >= Maxsource)
1973:VS4210/keyremo.c **** 		{
1974:VS4210/keyremo.c **** 			QuadBoxMode = FALSE;
1975:VS4210/keyremo.c **** 			SelectModeType = CAM_A;
1976:VS4210/keyremo.c **** 		}
1977:VS4210/keyremo.c **** 		else
1978:VS4210/keyremo.c **** 		{
1979:VS4210/keyremo.c **** 			QuadBoxMode = FALSE;
1980:VS4210/keyremo.c **** 			SelectModeType++;
1981:VS4210/keyremo.c **** 
1982:VS4210/keyremo.c **** 			if ((SelectModeType < 4) && (QuadBoxId & (1 << SelectModeType)) && (QuadBoxMode == 0))
1983:VS4210/keyremo.c **** 			{
1984:VS4210/keyremo.c **** 				COCSelectModeType[SelectModeType] = 1;
1985:VS4210/keyremo.c **** 				QuadBoxMode = TRUE;
1986:VS4210/keyremo.c **** 				BOX_SET_CHANNEL(SelectModeType, COCSelectModeType[SelectModeType]);
1987:VS4210/keyremo.c **** 
1988:VS4210/keyremo.c **** 				Printf("\r\n(QuadBoxMode==0)");
1989:VS4210/keyremo.c **** 			}
1990:VS4210/keyremo.c **** 		}
1991:VS4210/keyremo.c **** 
1992:VS4210/keyremo.c **** #else
ARM GAS  C:\Users\ryanc.HS\AppData\Local\Temp\ccZ9UySd.s 			page 43


1993:VS4210/keyremo.c **** 		if ((SelectModeType < 4) && (QuadBoxId & (1 << SelectModeType)) && (QuadBoxMode == 0))
1994:VS4210/keyremo.c **** 		{
1995:VS4210/keyremo.c **** 			COCSelectModeType[SelectModeType] = 1;
1996:VS4210/keyremo.c **** 			QuadBoxMode = TRUE;
1997:VS4210/keyremo.c **** 			BOX_SET_CHANNEL(SelectModeType, COCSelectModeType[SelectModeType]);
1998:VS4210/keyremo.c **** 
1999:VS4210/keyremo.c **** 			Printf("\r\n(QuadBoxMode==0)");
2000:VS4210/keyremo.c **** 		}
2001:VS4210/keyremo.c **** 		else if ((SelectModeType < 4) && (QuadBoxId & (1 << SelectModeType)) && (COCSelectModeType[Select
2002:VS4210/keyremo.c **** 		{
2003:VS4210/keyremo.c **** 			BOX_SELECT_CHANNEL(SelectModeType, UP);
2004:VS4210/keyremo.c **** 		}
2005:VS4210/keyremo.c **** 		else if (SelectModeType >= Maxsource)
2006:VS4210/keyremo.c **** 		{
2007:VS4210/keyremo.c **** 			QuadBoxMode = 0;
2008:VS4210/keyremo.c **** 			SelectModeType = CAM_A;
2009:VS4210/keyremo.c **** 		}
2010:VS4210/keyremo.c **** 		else
2011:VS4210/keyremo.c **** 		{
2012:VS4210/keyremo.c **** 			QuadBoxMode = 0;
2013:VS4210/keyremo.c **** 			SelectModeType++;
2014:VS4210/keyremo.c **** 		}
2015:VS4210/keyremo.c **** 
2016:VS4210/keyremo.c **** #endif
2017:VS4210/keyremo.c **** 	}
2018:VS4210/keyremo.c **** 	else
2019:VS4210/keyremo.c **** 	{
2020:VS4210/keyremo.c **** 		/*
2021:VS4210/keyremo.c **** 		if((SelectModeType<4)&&(QuadBoxId&(1<<SelectModeType))&&(QuadBoxMode==0))
2022:VS4210/keyremo.c **** 		{
2023:VS4210/keyremo.c **** 			COCSelectModeType[SelectModeType]=5;
2024:VS4210/keyremo.c **** 			QuadBoxMode=TRUE;
2025:VS4210/keyremo.c **** 			BOX_SET_CHANNEL(SelectModeType,COCSelectModeType[SelectModeType]);
2026:VS4210/keyremo.c **** 		}
2027:VS4210/keyremo.c **** 		else
2028:VS4210/keyremo.c **** 			*/
2029:VS4210/keyremo.c **** 		if ((SelectModeType < 4) && (QuadBoxId & (1 << SelectModeType)) && (COCSelectModeType[SelectModeT
 392              		.loc 1 2029 3 is_stmt 1 view .LVU69
 393              		.loc 1 2029 23 is_stmt 0 view .LVU70
 394 001a 624B     		ldr	r3, .L43+12
 395 001c 1878     		ldrb	r0, [r3]	@ zero_extendqisi2
 396              	.LVL24:
 397              		.loc 1 2029 6 view .LVU71
 398 001e 0328     		cmp	r0, #3
 399 0020 09D8     		bhi	.L26
 400              		.loc 1 2029 28 discriminator 1 view .LVU72
 401 0022 614B     		ldr	r3, .L43+16
 402 0024 1B78     		ldrb	r3, [r3]	@ zero_extendqisi2
 403 0026 0341     		asrs	r3, r3, r0
 404 0028 13F0010F 		tst	r3, #1
 405 002c 03D0     		beq	.L26
 406              		.loc 1 2029 88 discriminator 2 view .LVU73
 407 002e 5F4B     		ldr	r3, .L43+20
 408 0030 1B5C     		ldrb	r3, [r3, r0]	@ zero_extendqisi2
 409              		.loc 1 2029 67 discriminator 2 view .LVU74
 410 0032 012B     		cmp	r3, #1
 411 0034 68D1     		bne	.L37
ARM GAS  C:\Users\ryanc.HS\AppData\Local\Temp\ccZ9UySd.s 			page 44


 412              	.L26:
2030:VS4210/keyremo.c **** 		{
2031:VS4210/keyremo.c **** 			BOX_SELECT_CHANNEL(SelectModeType, DN);
2032:VS4210/keyremo.c **** 		}
2033:VS4210/keyremo.c **** 		else if (SelectModeType == 0)
 413              		.loc 1 2033 8 is_stmt 1 view .LVU75
 414              		.loc 1 2033 11 is_stmt 0 view .LVU76
 415 0036 0028     		cmp	r0, #0
 416 0038 6AD1     		bne	.L27
2034:VS4210/keyremo.c **** 		{
2035:VS4210/keyremo.c **** 			QuadBoxMode = 0;
 417              		.loc 1 2035 4 is_stmt 1 view .LVU77
 418              		.loc 1 2035 16 is_stmt 0 view .LVU78
 419 003a 5D4B     		ldr	r3, .L43+24
 420 003c 0022     		movs	r2, #0
 421 003e 1A70     		strb	r2, [r3]
2036:VS4210/keyremo.c **** 			SelectModeType = Maxsource;
 422              		.loc 1 2036 4 is_stmt 1 view .LVU79
 423              		.loc 1 2036 19 is_stmt 0 view .LVU80
 424 0040 584B     		ldr	r3, .L43+12
 425 0042 1970     		strb	r1, [r3]
 426              	.LVL25:
 427              	.L24:
2037:VS4210/keyremo.c **** 		}
2038:VS4210/keyremo.c **** 		else
2039:VS4210/keyremo.c **** 		{
2040:VS4210/keyremo.c **** 			QuadBoxMode = 0;
2041:VS4210/keyremo.c **** 			SelectModeType--;
2042:VS4210/keyremo.c **** 
2043:VS4210/keyremo.c **** 			if ((SelectModeType < 4) && (QuadBoxId & (1 << SelectModeType)) && (QuadBoxMode == 0))
2044:VS4210/keyremo.c **** 			{
2045:VS4210/keyremo.c **** 				COCSelectModeType[SelectModeType] = 5;
2046:VS4210/keyremo.c **** 				QuadBoxMode = TRUE;
2047:VS4210/keyremo.c **** 				BOX_SET_CHANNEL(SelectModeType, COCSelectModeType[SelectModeType]);
2048:VS4210/keyremo.c **** 			}
2049:VS4210/keyremo.c **** 		}
2050:VS4210/keyremo.c **** 	}
2051:VS4210/keyremo.c **** 
2052:VS4210/keyremo.c **** 	if (TouchResetSelectModeFlag == TRUE)
 428              		.loc 1 2052 2 is_stmt 1 view .LVU81
 429              		.loc 1 2052 31 is_stmt 0 view .LVU82
 430 0044 5B4B     		ldr	r3, .L43+28
 431 0046 1B78     		ldrb	r3, [r3]	@ zero_extendqisi2
 432              		.loc 1 2052 5 view .LVU83
 433 0048 012B     		cmp	r3, #1
 434 004a 00F09280 		beq	.L38
 435              	.L29:
2053:VS4210/keyremo.c **** 	{
2054:VS4210/keyremo.c **** 		for (i = 0; i < 4; i++)
2055:VS4210/keyremo.c **** 		{
2056:VS4210/keyremo.c **** 			if ((QuadBoxId & (1 << i)))
2057:VS4210/keyremo.c **** 			{
2058:VS4210/keyremo.c **** 				COCSelectModeType[i] = PreCOCSelectModeType[i];
2059:VS4210/keyremo.c **** 				SetCOCCom(_COCOSD_BOX_Sel, i);
2060:VS4210/keyremo.c **** 				SetCOCCom(_COCOSD_BOX_Channel_Sel, COCSelectModeType[i]);
2061:VS4210/keyremo.c **** 				Get_2824cIrq();
2062:VS4210/keyremo.c **** 			}
ARM GAS  C:\Users\ryanc.HS\AppData\Local\Temp\ccZ9UySd.s 			page 45


2063:VS4210/keyremo.c **** 		}
2064:VS4210/keyremo.c **** 
2065:VS4210/keyremo.c **** 		TouchResetSelectModeFlag = FALSE;
2066:VS4210/keyremo.c **** 		SelectModeType = TouchPreSelectModeType;
2067:VS4210/keyremo.c **** 	}
2068:VS4210/keyremo.c **** 
2069:VS4210/keyremo.c **** 	BackLightOFF();
 436              		.loc 1 2069 2 is_stmt 1 view .LVU84
 437 004e FFF7FEFF 		bl	BackLightOFF
 438              	.LVL26:
2070:VS4210/keyremo.c **** 
2071:VS4210/keyremo.c **** 	if ((SelectModeType < 4) && (Flisheye_CAM[SelectModeType] == TRUE))
 439              		.loc 1 2071 2 view .LVU85
 440              		.loc 1 2071 22 is_stmt 0 view .LVU86
 441 0052 544B     		ldr	r3, .L43+12
 442 0054 1978     		ldrb	r1, [r3]	@ zero_extendqisi2
 443              		.loc 1 2071 5 view .LVU87
 444 0056 0329     		cmp	r1, #3
 445 0058 04D8     		bhi	.L32
 446              		.loc 1 2071 43 discriminator 1 view .LVU88
 447 005a 574B     		ldr	r3, .L43+32
 448 005c 5B5C     		ldrb	r3, [r3, r1]	@ zero_extendqisi2
 449              		.loc 1 2071 27 discriminator 1 view .LVU89
 450 005e 012B     		cmp	r3, #1
 451 0060 00F09180 		beq	.L39
 452              	.L32:
2072:VS4210/keyremo.c **** 	{
2073:VS4210/keyremo.c **** 		SetCOCCom(_COCOSD_BOX_Sel, SelectModeType);
2074:VS4210/keyremo.c **** 		SetCOCCom(_COC_FLISHEYE_MODE1, Fisheye_no_save);
2075:VS4210/keyremo.c **** 	}
2076:VS4210/keyremo.c **** 
2077:VS4210/keyremo.c **** 	setloopoutmode(MainSetSelectMode[SelectModeType]);
 453              		.loc 1 2077 2 is_stmt 1 view .LVU90
 454              		.loc 1 2077 34 is_stmt 0 view .LVU91
 455 0064 4F4C     		ldr	r4, .L43+12
 456 0066 2378     		ldrb	r3, [r4]	@ zero_extendqisi2
 457 0068 544A     		ldr	r2, .L43+36
 458 006a D05C     		ldrb	r0, [r2, r3]	@ zero_extendqisi2
 459              		.loc 1 2077 2 view .LVU92
 460 006c FFF7FEFF 		bl	setloopoutmode
 461              	.LVL27:
2078:VS4210/keyremo.c **** 	OSDStateFlg = 1;
 462              		.loc 1 2078 2 is_stmt 1 view .LVU93
 463              		.loc 1 2078 14 is_stmt 0 view .LVU94
 464 0070 534B     		ldr	r3, .L43+40
 465 0072 0122     		movs	r2, #1
 466 0074 1A70     		strb	r2, [r3]
2079:VS4210/keyremo.c **** 
2080:VS4210/keyremo.c **** 	PreSelectModeType = 12;
 467              		.loc 1 2080 2 is_stmt 1 view .LVU95
 468              		.loc 1 2080 20 is_stmt 0 view .LVU96
 469 0076 534B     		ldr	r3, .L43+44
 470 0078 0C22     		movs	r2, #12
 471 007a 1A70     		strb	r2, [r3]
2081:VS4210/keyremo.c **** 
2082:VS4210/keyremo.c **** 	//	volatile
2083:VS4210/keyremo.c **** 
ARM GAS  C:\Users\ryanc.HS\AppData\Local\Temp\ccZ9UySd.s 			page 46


2084:VS4210/keyremo.c **** 	//   SetSourceMode(SelectModeType,Attr_A,Attr_B,Attr_C,Attr_R);
2085:VS4210/keyremo.c **** 
2086:VS4210/keyremo.c **** 	WriteEEP(EEP_SelectMode, SelectModeType);
 472              		.loc 1 2086 2 is_stmt 1 view .LVU97
 473 007c 2178     		ldrb	r1, [r4]	@ zero_extendqisi2
 474 007e B020     		movs	r0, #176
 475 0080 FFF7FEFF 		bl	WriteEEP
 476              	.LVL28:
2087:VS4210/keyremo.c **** 
2088:VS4210/keyremo.c **** 	WriteEEP(EEP_NowModeState, NowModeState);
 477              		.loc 1 2088 2 view .LVU98
 478 0084 454B     		ldr	r3, .L43+4
 479 0086 1978     		ldrb	r1, [r3]	@ zero_extendqisi2
 480 0088 AF20     		movs	r0, #175
 481 008a FFF7FEFF 		bl	WriteEEP
 482              	.LVL29:
2089:VS4210/keyremo.c **** 
2090:VS4210/keyremo.c **** 	BackLightON();
 483              		.loc 1 2090 2 view .LVU99
 484 008e FFF7FEFF 		bl	BackLightON
 485              	.LVL30:
2091:VS4210/keyremo.c **** 
2092:VS4210/keyremo.c **** 	// if (ReadEEP(EEP_COSDMode) == 1)
2093:VS4210/keyremo.c **** 	//	displayhold_flag = 3;
2094:VS4210/keyremo.c **** 	Printf("\r\nSelectModeType=%d", (WORD)SelectModeType);
 486              		.loc 1 2094 2 view .LVU100
 487 0092 2178     		ldrb	r1, [r4]	@ zero_extendqisi2
 488 0094 4C48     		ldr	r0, .L43+48
 489 0096 FFF7FEFF 		bl	Printf
 490              	.LVL31:
2095:VS4210/keyremo.c **** }
 491              		.loc 1 2095 1 is_stmt 0 view .LVU101
 492 009a 38BD     		pop	{r3, r4, r5, pc}
 493              	.LVL32:
 494              	.L33:
1945:VS4210/keyremo.c **** 
 495              		.loc 1 1945 13 view .LVU102
 496 009c 0C21     		movs	r1, #12
 497 009e B5E7     		b	.L21
 498              	.LVL33:
 499              	.L36:
1968:VS4210/keyremo.c **** 		{
 500              		.loc 1 1968 3 is_stmt 1 view .LVU103
1968:VS4210/keyremo.c **** 		{
 501              		.loc 1 1968 23 is_stmt 0 view .LVU104
 502 00a0 404B     		ldr	r3, .L43+12
 503 00a2 1878     		ldrb	r0, [r3]	@ zero_extendqisi2
 504              	.LVL34:
1968:VS4210/keyremo.c **** 		{
 505              		.loc 1 1968 6 view .LVU105
 506 00a4 0328     		cmp	r0, #3
 507 00a6 09D8     		bhi	.L23
1968:VS4210/keyremo.c **** 		{
 508              		.loc 1 1968 28 discriminator 1 view .LVU106
 509 00a8 3F4B     		ldr	r3, .L43+16
 510 00aa 1B78     		ldrb	r3, [r3]	@ zero_extendqisi2
 511 00ac 0341     		asrs	r3, r3, r0
ARM GAS  C:\Users\ryanc.HS\AppData\Local\Temp\ccZ9UySd.s 			page 47


 512 00ae 13F0010F 		tst	r3, #1
 513 00b2 03D0     		beq	.L23
1968:VS4210/keyremo.c **** 		{
 514              		.loc 1 1968 88 discriminator 2 view .LVU107
 515 00b4 3D4B     		ldr	r3, .L43+20
 516 00b6 1B5C     		ldrb	r3, [r3, r0]	@ zero_extendqisi2
1968:VS4210/keyremo.c **** 		{
 517              		.loc 1 1968 67 discriminator 2 view .LVU108
 518 00b8 052B     		cmp	r3, #5
 519 00ba 07D1     		bne	.L40
 520              	.L23:
1972:VS4210/keyremo.c **** 		{
 521              		.loc 1 1972 8 is_stmt 1 view .LVU109
1972:VS4210/keyremo.c **** 		{
 522              		.loc 1 1972 11 is_stmt 0 view .LVU110
 523 00bc 8842     		cmp	r0, r1
 524 00be 09D3     		bcc	.L25
1974:VS4210/keyremo.c **** 			SelectModeType = CAM_A;
 525              		.loc 1 1974 4 is_stmt 1 view .LVU111
1974:VS4210/keyremo.c **** 			SelectModeType = CAM_A;
 526              		.loc 1 1974 16 is_stmt 0 view .LVU112
 527 00c0 0023     		movs	r3, #0
 528 00c2 3B4A     		ldr	r2, .L43+24
 529 00c4 1370     		strb	r3, [r2]
1975:VS4210/keyremo.c **** 		}
 530              		.loc 1 1975 4 is_stmt 1 view .LVU113
1975:VS4210/keyremo.c **** 		}
 531              		.loc 1 1975 19 is_stmt 0 view .LVU114
 532 00c6 374A     		ldr	r2, .L43+12
 533 00c8 1370     		strb	r3, [r2]
 534 00ca BBE7     		b	.L24
 535              	.L40:
1970:VS4210/keyremo.c **** 		}
 536              		.loc 1 1970 4 is_stmt 1 view .LVU115
 537 00cc 0121     		movs	r1, #1
 538              	.LVL35:
1970:VS4210/keyremo.c **** 		}
 539              		.loc 1 1970 4 is_stmt 0 view .LVU116
 540 00ce FFF7FEFF 		bl	BOX_SELECT_CHANNEL
 541              	.LVL36:
 542 00d2 B7E7     		b	.L24
 543              	.LVL37:
 544              	.L25:
1979:VS4210/keyremo.c **** 			SelectModeType++;
 545              		.loc 1 1979 4 is_stmt 1 view .LVU117
1979:VS4210/keyremo.c **** 			SelectModeType++;
 546              		.loc 1 1979 16 is_stmt 0 view .LVU118
 547 00d4 364B     		ldr	r3, .L43+24
 548 00d6 0022     		movs	r2, #0
 549 00d8 1A70     		strb	r2, [r3]
1980:VS4210/keyremo.c **** 
 550              		.loc 1 1980 4 is_stmt 1 view .LVU119
1980:VS4210/keyremo.c **** 
 551              		.loc 1 1980 18 is_stmt 0 view .LVU120
 552 00da 0130     		adds	r0, r0, #1
 553 00dc C0B2     		uxtb	r0, r0
 554 00de 314B     		ldr	r3, .L43+12
ARM GAS  C:\Users\ryanc.HS\AppData\Local\Temp\ccZ9UySd.s 			page 48


 555 00e0 1870     		strb	r0, [r3]
1982:VS4210/keyremo.c **** 			{
 556              		.loc 1 1982 4 is_stmt 1 view .LVU121
1982:VS4210/keyremo.c **** 			{
 557              		.loc 1 1982 7 is_stmt 0 view .LVU122
 558 00e2 0328     		cmp	r0, #3
 559 00e4 AED8     		bhi	.L24
1982:VS4210/keyremo.c **** 			{
 560              		.loc 1 1982 29 discriminator 1 view .LVU123
 561 00e6 304B     		ldr	r3, .L43+16
 562 00e8 1B78     		ldrb	r3, [r3]	@ zero_extendqisi2
 563 00ea 0341     		asrs	r3, r3, r0
 564 00ec 13F0010F 		tst	r3, #1
 565 00f0 A8D0     		beq	.L24
1984:VS4210/keyremo.c **** 				QuadBoxMode = TRUE;
 566              		.loc 1 1984 5 is_stmt 1 view .LVU124
1984:VS4210/keyremo.c **** 				QuadBoxMode = TRUE;
 567              		.loc 1 1984 39 is_stmt 0 view .LVU125
 568 00f2 0121     		movs	r1, #1
 569              	.LVL38:
1984:VS4210/keyremo.c **** 				QuadBoxMode = TRUE;
 570              		.loc 1 1984 39 view .LVU126
 571 00f4 2D4B     		ldr	r3, .L43+20
 572 00f6 1954     		strb	r1, [r3, r0]
1985:VS4210/keyremo.c **** 				BOX_SET_CHANNEL(SelectModeType, COCSelectModeType[SelectModeType]);
 573              		.loc 1 1985 5 is_stmt 1 view .LVU127
1985:VS4210/keyremo.c **** 				BOX_SET_CHANNEL(SelectModeType, COCSelectModeType[SelectModeType]);
 574              		.loc 1 1985 17 is_stmt 0 view .LVU128
 575 00f8 2D4B     		ldr	r3, .L43+24
 576 00fa 1970     		strb	r1, [r3]
1986:VS4210/keyremo.c **** 
 577              		.loc 1 1986 5 is_stmt 1 view .LVU129
 578 00fc FFF7FEFF 		bl	BOX_SET_CHANNEL
 579              	.LVL39:
1988:VS4210/keyremo.c **** 			}
 580              		.loc 1 1988 5 view .LVU130
 581 0100 3248     		ldr	r0, .L43+52
 582 0102 FFF7FEFF 		bl	Printf
 583              	.LVL40:
 584 0106 9DE7     		b	.L24
 585              	.LVL41:
 586              	.L37:
2031:VS4210/keyremo.c **** 		}
 587              		.loc 1 2031 4 view .LVU131
 588 0108 0221     		movs	r1, #2
 589              	.LVL42:
2031:VS4210/keyremo.c **** 		}
 590              		.loc 1 2031 4 is_stmt 0 view .LVU132
 591 010a FFF7FEFF 		bl	BOX_SELECT_CHANNEL
 592              	.LVL43:
 593 010e 99E7     		b	.L24
 594              	.LVL44:
 595              	.L27:
2040:VS4210/keyremo.c **** 			SelectModeType--;
 596              		.loc 1 2040 4 is_stmt 1 view .LVU133
2040:VS4210/keyremo.c **** 			SelectModeType--;
 597              		.loc 1 2040 16 is_stmt 0 view .LVU134
ARM GAS  C:\Users\ryanc.HS\AppData\Local\Temp\ccZ9UySd.s 			page 49


 598 0110 274B     		ldr	r3, .L43+24
 599 0112 0022     		movs	r2, #0
 600 0114 1A70     		strb	r2, [r3]
2041:VS4210/keyremo.c **** 
 601              		.loc 1 2041 4 is_stmt 1 view .LVU135
2041:VS4210/keyremo.c **** 
 602              		.loc 1 2041 18 is_stmt 0 view .LVU136
 603 0116 0138     		subs	r0, r0, #1
 604 0118 C0B2     		uxtb	r0, r0
 605 011a 224B     		ldr	r3, .L43+12
 606 011c 1870     		strb	r0, [r3]
2043:VS4210/keyremo.c **** 			{
 607              		.loc 1 2043 4 is_stmt 1 view .LVU137
2043:VS4210/keyremo.c **** 			{
 608              		.loc 1 2043 7 is_stmt 0 view .LVU138
 609 011e 0328     		cmp	r0, #3
 610 0120 90D8     		bhi	.L24
2043:VS4210/keyremo.c **** 			{
 611              		.loc 1 2043 29 discriminator 1 view .LVU139
 612 0122 214B     		ldr	r3, .L43+16
 613 0124 1B78     		ldrb	r3, [r3]	@ zero_extendqisi2
 614 0126 0341     		asrs	r3, r3, r0
 615 0128 13F0010F 		tst	r3, #1
 616 012c 8AD0     		beq	.L24
2045:VS4210/keyremo.c **** 				QuadBoxMode = TRUE;
 617              		.loc 1 2045 5 is_stmt 1 view .LVU140
2045:VS4210/keyremo.c **** 				QuadBoxMode = TRUE;
 618              		.loc 1 2045 39 is_stmt 0 view .LVU141
 619 012e 0521     		movs	r1, #5
 620              	.LVL45:
2045:VS4210/keyremo.c **** 				QuadBoxMode = TRUE;
 621              		.loc 1 2045 39 view .LVU142
 622 0130 1E4B     		ldr	r3, .L43+20
 623 0132 1954     		strb	r1, [r3, r0]
2046:VS4210/keyremo.c **** 				BOX_SET_CHANNEL(SelectModeType, COCSelectModeType[SelectModeType]);
 624              		.loc 1 2046 5 is_stmt 1 view .LVU143
2046:VS4210/keyremo.c **** 				BOX_SET_CHANNEL(SelectModeType, COCSelectModeType[SelectModeType]);
 625              		.loc 1 2046 17 is_stmt 0 view .LVU144
 626 0134 1E4B     		ldr	r3, .L43+24
 627 0136 0122     		movs	r2, #1
 628 0138 1A70     		strb	r2, [r3]
2047:VS4210/keyremo.c **** 			}
 629              		.loc 1 2047 5 is_stmt 1 view .LVU145
 630 013a FFF7FEFF 		bl	BOX_SET_CHANNEL
 631              	.LVL46:
 632 013e 81E7     		b	.L24
 633              	.LVL47:
 634              	.L42:
2058:VS4210/keyremo.c **** 				SetCOCCom(_COCOSD_BOX_Sel, i);
 635              		.loc 1 2058 5 view .LVU146
2058:VS4210/keyremo.c **** 				SetCOCCom(_COCOSD_BOX_Sel, i);
 636              		.loc 1 2058 48 is_stmt 0 view .LVU147
 637 0140 234B     		ldr	r3, .L43+56
 638 0142 1B5D     		ldrb	r3, [r3, r4]	@ zero_extendqisi2
2058:VS4210/keyremo.c **** 				SetCOCCom(_COCOSD_BOX_Sel, i);
 639              		.loc 1 2058 26 view .LVU148
 640 0144 194D     		ldr	r5, .L43+20
ARM GAS  C:\Users\ryanc.HS\AppData\Local\Temp\ccZ9UySd.s 			page 50


 641 0146 2B55     		strb	r3, [r5, r4]
2059:VS4210/keyremo.c **** 				SetCOCCom(_COCOSD_BOX_Channel_Sel, COCSelectModeType[i]);
 642              		.loc 1 2059 5 is_stmt 1 view .LVU149
 643 0148 2146     		mov	r1, r4
 644 014a 1920     		movs	r0, #25
 645 014c FFF7FEFF 		bl	SetCOCCom
 646              	.LVL48:
2060:VS4210/keyremo.c **** 				Get_2824cIrq();
 647              		.loc 1 2060 5 view .LVU150
 648 0150 295D     		ldrb	r1, [r5, r4]	@ zero_extendqisi2
 649 0152 1A20     		movs	r0, #26
 650 0154 FFF7FEFF 		bl	SetCOCCom
 651              	.LVL49:
2061:VS4210/keyremo.c **** 			}
 652              		.loc 1 2061 5 view .LVU151
 653 0158 FFF7FEFF 		bl	Get_2824cIrq
 654              	.LVL50:
 655              	.L30:
2054:VS4210/keyremo.c **** 		{
 656              		.loc 1 2054 22 discriminator 2 view .LVU152
2054:VS4210/keyremo.c **** 		{
 657              		.loc 1 2054 23 is_stmt 0 discriminator 2 view .LVU153
 658 015c 0134     		adds	r4, r4, #1
 659              	.LVL51:
2054:VS4210/keyremo.c **** 		{
 660              		.loc 1 2054 23 discriminator 2 view .LVU154
 661 015e E4B2     		uxtb	r4, r4
 662              	.LVL52:
 663              	.L28:
2054:VS4210/keyremo.c **** 		{
 664              		.loc 1 2054 15 is_stmt 1 discriminator 1 view .LVU155
2054:VS4210/keyremo.c **** 		{
 665              		.loc 1 2054 3 is_stmt 0 discriminator 1 view .LVU156
 666 0160 032C     		cmp	r4, #3
 667 0162 08D8     		bhi	.L41
2056:VS4210/keyremo.c **** 			{
 668              		.loc 1 2056 4 is_stmt 1 view .LVU157
2056:VS4210/keyremo.c **** 			{
 669              		.loc 1 2056 8 is_stmt 0 view .LVU158
 670 0164 104B     		ldr	r3, .L43+16
 671 0166 1B78     		ldrb	r3, [r3]	@ zero_extendqisi2
 672 0168 2341     		asrs	r3, r3, r4
2056:VS4210/keyremo.c **** 			{
 673              		.loc 1 2056 7 view .LVU159
 674 016a 13F0010F 		tst	r3, #1
 675 016e F5D0     		beq	.L30
 676 0170 E6E7     		b	.L42
 677              	.LVL53:
 678              	.L38:
2054:VS4210/keyremo.c **** 		{
 679              		.loc 1 2054 10 view .LVU160
 680 0172 0024     		movs	r4, #0
 681 0174 F4E7     		b	.L28
 682              	.LVL54:
 683              	.L41:
2065:VS4210/keyremo.c **** 		SelectModeType = TouchPreSelectModeType;
 684              		.loc 1 2065 3 is_stmt 1 view .LVU161
ARM GAS  C:\Users\ryanc.HS\AppData\Local\Temp\ccZ9UySd.s 			page 51


2065:VS4210/keyremo.c **** 		SelectModeType = TouchPreSelectModeType;
 685              		.loc 1 2065 28 is_stmt 0 view .LVU162
 686 0176 0F4B     		ldr	r3, .L43+28
 687 0178 0022     		movs	r2, #0
 688 017a 1A70     		strb	r2, [r3]
2066:VS4210/keyremo.c **** 	}
 689              		.loc 1 2066 3 is_stmt 1 view .LVU163
2066:VS4210/keyremo.c **** 	}
 690              		.loc 1 2066 18 is_stmt 0 view .LVU164
 691 017c 154B     		ldr	r3, .L43+60
 692 017e 1A78     		ldrb	r2, [r3]	@ zero_extendqisi2
 693 0180 084B     		ldr	r3, .L43+12
 694 0182 1A70     		strb	r2, [r3]
 695 0184 63E7     		b	.L29
 696              	.LVL55:
 697              	.L39:
2073:VS4210/keyremo.c **** 		SetCOCCom(_COC_FLISHEYE_MODE1, Fisheye_no_save);
 698              		.loc 1 2073 3 is_stmt 1 view .LVU165
 699 0186 1920     		movs	r0, #25
 700 0188 FFF7FEFF 		bl	SetCOCCom
 701              	.LVL56:
2074:VS4210/keyremo.c **** 	}
 702              		.loc 1 2074 3 view .LVU166
 703 018c 0021     		movs	r1, #0
 704 018e 1B20     		movs	r0, #27
 705 0190 FFF7FEFF 		bl	SetCOCCom
 706              	.LVL57:
 707 0194 66E7     		b	.L32
 708              	.L44:
 709 0196 00BF     		.align	2
 710              	.L43:
 711 0198 00000000 		.word	Priority
 712 019c 00000000 		.word	NowModeState
 713 01a0 00000000 		.word	.LANCHOR1
 714 01a4 00000000 		.word	SelectModeType
 715 01a8 00000000 		.word	QuadBoxId
 716 01ac 00000000 		.word	COCSelectModeType
 717 01b0 00000000 		.word	QuadBoxMode
 718 01b4 00000000 		.word	.LANCHOR2
 719 01b8 00000000 		.word	Flisheye_CAM
 720 01bc 00000000 		.word	.LANCHOR4
 721 01c0 00000000 		.word	OSDStateFlg
 722 01c4 00000000 		.word	PreSelectModeType
 723 01c8 14000000 		.word	.LC3
 724 01cc 00000000 		.word	.LC2
 725 01d0 00000000 		.word	PreCOCSelectModeType
 726 01d4 00000000 		.word	.LANCHOR3
 727              		.cfi_endproc
 728              	.LFE80:
 730              		.section	.rodata.TouchSetSelectMode.str1.4,"aMS",%progbits,1
 731              		.align	2
 732              	.LC5:
 733 0000 0D0A546F 		.ascii	"\015\012TouchSelectModeType=%d\000"
 733      75636853 
 733      656C6563 
 733      744D6F64 
 733      65547970 
ARM GAS  C:\Users\ryanc.HS\AppData\Local\Temp\ccZ9UySd.s 			page 52


 734              		.section	.text.TouchSetSelectMode,"ax",%progbits
 735              		.align	1
 736              		.global	TouchSetSelectMode
 737              		.syntax unified
 738              		.thumb
 739              		.thumb_func
 740              		.fpu softvfp
 742              	TouchSetSelectMode:
 743              	.LVL58:
 744              	.LFB81:
2096:VS4210/keyremo.c **** 
2097:VS4210/keyremo.c **** void TouchSetSelectMode(BYTE index)
2098:VS4210/keyremo.c **** {
 745              		.loc 1 2098 1 view -0
 746              		.cfi_startproc
 747              		@ args = 0, pretend = 0, frame = 16
 748              		@ frame_needed = 0, uses_anonymous_args = 0
 749              		.loc 1 2098 1 is_stmt 0 view .LVU168
 750 0000 30B5     		push	{r4, r5, lr}
 751              	.LCFI3:
 752              		.cfi_def_cfa_offset 12
 753              		.cfi_offset 4, -12
 754              		.cfi_offset 5, -8
 755              		.cfi_offset 14, -4
 756 0002 85B0     		sub	sp, sp, #20
 757              	.LCFI4:
 758              		.cfi_def_cfa_offset 32
 759 0004 0446     		mov	r4, r0
2099:VS4210/keyremo.c **** 
2100:VS4210/keyremo.c **** 	BYTE Mirror_addr[16] = {3, 2, 1, 0, 7, 6, 5, 4, 11, 10, 9, 8, 15, 14, 13, 12}, i;
 760              		.loc 1 2100 2 is_stmt 1 view .LVU169
 761              		.loc 1 2100 7 is_stmt 0 view .LVU170
 762 0006 784B     		ldr	r3, .L69
 763 0008 0FCB     		ldm	r3, {r0, r1, r2, r3}
 764              	.LVL59:
 765              		.loc 1 2100 7 view .LVU171
 766 000a 04AD     		add	r5, sp, #16
 767 000c 05E90F00 		stmdb	r5, {r0, r1, r2, r3}
2101:VS4210/keyremo.c **** 	// LCDPowerOFF();
2102:VS4210/keyremo.c **** 	// MCUTimerActiveTimerEvent(SEC(_BACKLIGHT_ON_Time_out),  _USER_TIMER_EVENT_PANEL_BACKLIGHT_ON);
2103:VS4210/keyremo.c **** 	BackLightOFF();
 768              		.loc 1 2103 2 is_stmt 1 view .LVU172
 769 0010 FFF7FEFF 		bl	BackLightOFF
 770              	.LVL60:
2104:VS4210/keyremo.c **** 	//	MCUTimerActiveTimerEvent(SEC(_ONLY_BACKLIGHT_ON_Time_out),  _USER_TIMER_EVENT_BACKLIGHT_ON);
2105:VS4210/keyremo.c **** 
2106:VS4210/keyremo.c **** 	if (GetDisplayedOSD() & (MENU | TVVOL))
 771              		.loc 1 2106 2 view .LVU173
 772              		.loc 1 2106 6 is_stmt 0 view .LVU174
 773 0014 FFF7FEFF 		bl	GetDisplayedOSD
 774              	.LVL61:
 775              		.loc 1 2106 5 view .LVU175
 776 0018 10F0060F 		tst	r0, #6
 777 001c 38D1     		bne	.L64
 778              	.L46:
2107:VS4210/keyremo.c **** 		CloseOSDMenu();
2108:VS4210/keyremo.c **** 
ARM GAS  C:\Users\ryanc.HS\AppData\Local\Temp\ccZ9UySd.s 			page 53


2109:VS4210/keyremo.c **** 	//		 setloopoutmode(MainSetSelectMode[SelectModeType]);
2110:VS4210/keyremo.c **** 
2111:VS4210/keyremo.c **** 	if (SelectModeType > 3)
 779              		.loc 1 2111 2 is_stmt 1 view .LVU176
 780              		.loc 1 2111 21 is_stmt 0 view .LVU177
 781 001e 734B     		ldr	r3, .L69+4
 782 0020 1978     		ldrb	r1, [r3]	@ zero_extendqisi2
 783              		.loc 1 2111 5 view .LVU178
 784 0022 0329     		cmp	r1, #3
 785 0024 40F2AB80 		bls	.L47
2112:VS4210/keyremo.c **** 	{
2113:VS4210/keyremo.c **** 
2114:VS4210/keyremo.c **** 		PreSelectModeType = SelectModeType; // save state
 786              		.loc 1 2114 3 is_stmt 1 view .LVU179
 787              		.loc 1 2114 21 is_stmt 0 view .LVU180
 788 0028 714B     		ldr	r3, .L69+8
 789 002a 1970     		strb	r1, [r3]
2115:VS4210/keyremo.c **** 		SelectModeType = (MainTouchSetSelectMode[SelectModeType][index] & 0x0F);
 790              		.loc 1 2115 3 is_stmt 1 view .LVU181
 791              		.loc 1 2115 59 is_stmt 0 view .LVU182
 792 002c 714B     		ldr	r3, .L69+12
 793 002e 03EB0113 		add	r3, r3, r1, lsl #4
 794 0032 1B5D     		ldrb	r3, [r3, r4]	@ zero_extendqisi2
 795              		.loc 1 2115 67 view .LVU183
 796 0034 03F00F03 		and	r3, r3, #15
 797              		.loc 1 2115 18 view .LVU184
 798 0038 6C4A     		ldr	r2, .L69+4
 799 003a 1370     		strb	r3, [r2]
2116:VS4210/keyremo.c **** 
2117:VS4210/keyremo.c **** 		if (TouchResetSelectModeFlag == TRUE)
 800              		.loc 1 2117 3 is_stmt 1 view .LVU185
 801              		.loc 1 2117 32 is_stmt 0 view .LVU186
 802 003c 6E4A     		ldr	r2, .L69+16
 803 003e 1278     		ldrb	r2, [r2]	@ zero_extendqisi2
 804              		.loc 1 2117 6 view .LVU187
 805 0040 012A     		cmp	r2, #1
 806 0042 28D0     		beq	.L65
 807              	.L48:
2118:VS4210/keyremo.c **** 		{
2119:VS4210/keyremo.c **** 			if ((QuadBoxId & (1 << SelectModeType)) && (COCSelectModeType[SelectModeType] == 5))
2120:VS4210/keyremo.c **** 			{
2121:VS4210/keyremo.c **** 				switch (SelectModeType)
2122:VS4210/keyremo.c **** 				{
2123:VS4210/keyremo.c **** 				case 0:
2124:VS4210/keyremo.c **** 					if (CAMA_M)
2125:VS4210/keyremo.c **** 						BOX_SET_CHANNEL(SelectModeType, ((MainTouchSetSelectMode[PreSelectModeType][Mirror_addr[index
2126:VS4210/keyremo.c **** 					else
2127:VS4210/keyremo.c **** 						BOX_SET_CHANNEL(SelectModeType, ((MainTouchSetSelectMode[PreSelectModeType][index] & 0xF0) >>
2128:VS4210/keyremo.c **** 
2129:VS4210/keyremo.c **** 					break;
2130:VS4210/keyremo.c **** 				case 1:
2131:VS4210/keyremo.c **** 					if (CAMB_M)
2132:VS4210/keyremo.c **** 						BOX_SET_CHANNEL(SelectModeType, ((MainTouchSetSelectMode[PreSelectModeType][Mirror_addr[index
2133:VS4210/keyremo.c **** 					else
2134:VS4210/keyremo.c **** 						BOX_SET_CHANNEL(SelectModeType, ((MainTouchSetSelectMode[PreSelectModeType][index] & 0xF0) >>
2135:VS4210/keyremo.c **** 
2136:VS4210/keyremo.c **** 					break;
ARM GAS  C:\Users\ryanc.HS\AppData\Local\Temp\ccZ9UySd.s 			page 54


2137:VS4210/keyremo.c **** 				case 2:
2138:VS4210/keyremo.c **** 					if (CAMC_M)
2139:VS4210/keyremo.c **** 						BOX_SET_CHANNEL(SelectModeType, ((MainTouchSetSelectMode[PreSelectModeType][Mirror_addr[index
2140:VS4210/keyremo.c **** 					else
2141:VS4210/keyremo.c **** 						BOX_SET_CHANNEL(SelectModeType, ((MainTouchSetSelectMode[PreSelectModeType][index] & 0xF0) >>
2142:VS4210/keyremo.c **** 
2143:VS4210/keyremo.c **** 					break;
2144:VS4210/keyremo.c **** 				case 3:
2145:VS4210/keyremo.c **** 					if (CAMR_M)
2146:VS4210/keyremo.c **** 						BOX_SET_CHANNEL(SelectModeType, ((MainTouchSetSelectMode[PreSelectModeType][Mirror_addr[index
2147:VS4210/keyremo.c **** 					else
2148:VS4210/keyremo.c **** 						BOX_SET_CHANNEL(SelectModeType, ((MainTouchSetSelectMode[PreSelectModeType][index] & 0xF0) >>
2149:VS4210/keyremo.c **** 				}
2150:VS4210/keyremo.c **** 			}
2151:VS4210/keyremo.c **** 		}
2152:VS4210/keyremo.c **** 	}
2153:VS4210/keyremo.c **** 	else
2154:VS4210/keyremo.c **** 	{
2155:VS4210/keyremo.c **** 
2156:VS4210/keyremo.c **** 		SelectModeType = PreSelectModeType;
2157:VS4210/keyremo.c **** 
2158:VS4210/keyremo.c **** 		if (TouchResetSelectModeFlag == TRUE)
2159:VS4210/keyremo.c **** 		{
2160:VS4210/keyremo.c **** 			for (i = 0; i < 4; i++)
2161:VS4210/keyremo.c **** 			{
2162:VS4210/keyremo.c **** 				if ((QuadBoxId & (1 << i)))
2163:VS4210/keyremo.c **** 				{
2164:VS4210/keyremo.c **** 					COCSelectModeType[i] = PreCOCSelectModeType[i];
2165:VS4210/keyremo.c **** 					SetCOCCom(_COCOSD_BOX_Sel, i);
2166:VS4210/keyremo.c **** 					SetCOCCom(_COCOSD_BOX_Channel_Sel, COCSelectModeType[i]);
2167:VS4210/keyremo.c **** 					Get_2824cIrq();
2168:VS4210/keyremo.c **** 				}
2169:VS4210/keyremo.c **** 			}
2170:VS4210/keyremo.c **** 
2171:VS4210/keyremo.c **** 			TouchResetSelectModeFlag = FALSE;
2172:VS4210/keyremo.c **** 			SelectModeType = TouchPreSelectModeType;
2173:VS4210/keyremo.c **** 		}
2174:VS4210/keyremo.c **** 	}
2175:VS4210/keyremo.c **** 
2176:VS4210/keyremo.c **** 	//	 SetCOCCom(_COCOSD_BOXONLINE,SelectModeType);
2177:VS4210/keyremo.c **** 	//	 Get_2824cIrq();
2178:VS4210/keyremo.c **** 
2179:VS4210/keyremo.c **** 	if ((SelectModeType < 4) && (Flisheye_CAM[SelectModeType] == TRUE))
 808              		.loc 1 2179 2 is_stmt 1 view .LVU188
 809              		.loc 1 2179 22 is_stmt 0 view .LVU189
 810 0044 694B     		ldr	r3, .L69+4
 811 0046 1978     		ldrb	r1, [r3]	@ zero_extendqisi2
 812              		.loc 1 2179 5 view .LVU190
 813 0048 0329     		cmp	r1, #3
 814 004a 04D8     		bhi	.L61
 815              		.loc 1 2179 43 discriminator 1 view .LVU191
 816 004c 6B4B     		ldr	r3, .L69+20
 817 004e 5B5C     		ldrb	r3, [r3, r1]	@ zero_extendqisi2
 818              		.loc 1 2179 27 discriminator 1 view .LVU192
 819 0050 012B     		cmp	r3, #1
 820 0052 00F0C080 		beq	.L66
 821              	.L61:
ARM GAS  C:\Users\ryanc.HS\AppData\Local\Temp\ccZ9UySd.s 			page 55


2180:VS4210/keyremo.c **** 	{
2181:VS4210/keyremo.c **** 		SetCOCCom(_COCOSD_BOX_Sel, SelectModeType);
2182:VS4210/keyremo.c **** 		SetCOCCom(_COC_FLISHEYE_MODE1, Fisheye_no_save);
2183:VS4210/keyremo.c **** 	}
2184:VS4210/keyremo.c **** 	// else
2185:VS4210/keyremo.c **** 	//	Printf("\r\n2TouchSelectModeType=%d",(WORD)SelectModeType);
2186:VS4210/keyremo.c **** 
2187:VS4210/keyremo.c **** 	setloopoutmode(MainSetSelectMode[SelectModeType]);
 822              		.loc 1 2187 2 is_stmt 1 view .LVU193
 823              		.loc 1 2187 34 is_stmt 0 view .LVU194
 824 0056 654C     		ldr	r4, .L69+4
 825 0058 2378     		ldrb	r3, [r4]	@ zero_extendqisi2
 826 005a 694A     		ldr	r2, .L69+24
 827 005c D05C     		ldrb	r0, [r2, r3]	@ zero_extendqisi2
 828              		.loc 1 2187 2 view .LVU195
 829 005e FFF7FEFF 		bl	setloopoutmode
 830              	.LVL62:
2188:VS4210/keyremo.c **** 
2189:VS4210/keyremo.c **** 	OSDStateFlg = 1;
 831              		.loc 1 2189 2 is_stmt 1 view .LVU196
 832              		.loc 1 2189 14 is_stmt 0 view .LVU197
 833 0062 684B     		ldr	r3, .L69+28
 834 0064 0122     		movs	r2, #1
 835 0066 1A70     		strb	r2, [r3]
2190:VS4210/keyremo.c **** 
2191:VS4210/keyremo.c **** 	WriteEEP(EEP_SelectMode, SelectModeType);
 836              		.loc 1 2191 2 is_stmt 1 view .LVU198
 837 0068 2178     		ldrb	r1, [r4]	@ zero_extendqisi2
 838 006a B020     		movs	r0, #176
 839 006c FFF7FEFF 		bl	WriteEEP
 840              	.LVL63:
2192:VS4210/keyremo.c **** 	WriteEEP(EEP_NowModeState, NowModeState);
 841              		.loc 1 2192 2 view .LVU199
 842 0070 654B     		ldr	r3, .L69+32
 843 0072 1978     		ldrb	r1, [r3]	@ zero_extendqisi2
 844 0074 AF20     		movs	r0, #175
 845 0076 FFF7FEFF 		bl	WriteEEP
 846              	.LVL64:
2193:VS4210/keyremo.c **** 
2194:VS4210/keyremo.c **** 	QuadBoxMode = 0;
 847              		.loc 1 2194 2 view .LVU200
 848              		.loc 1 2194 14 is_stmt 0 view .LVU201
 849 007a 644B     		ldr	r3, .L69+36
 850 007c 0022     		movs	r2, #0
 851 007e 1A70     		strb	r2, [r3]
2195:VS4210/keyremo.c **** 
2196:VS4210/keyremo.c **** 	BackLightON();
 852              		.loc 1 2196 2 is_stmt 1 view .LVU202
 853 0080 FFF7FEFF 		bl	BackLightON
 854              	.LVL65:
2197:VS4210/keyremo.c **** 	Printf("\r\nTouchSelectModeType=%d", (WORD)SelectModeType);
 855              		.loc 1 2197 2 view .LVU203
 856 0084 2178     		ldrb	r1, [r4]	@ zero_extendqisi2
 857 0086 6248     		ldr	r0, .L69+40
 858 0088 FFF7FEFF 		bl	Printf
 859              	.LVL66:
2198:VS4210/keyremo.c **** }
ARM GAS  C:\Users\ryanc.HS\AppData\Local\Temp\ccZ9UySd.s 			page 56


 860              		.loc 1 2198 1 is_stmt 0 view .LVU204
 861 008c 05B0     		add	sp, sp, #20
 862              	.LCFI5:
 863              		.cfi_remember_state
 864              		.cfi_def_cfa_offset 12
 865              		@ sp needed
 866 008e 30BD     		pop	{r4, r5, pc}
 867              	.L64:
 868              	.LCFI6:
 869              		.cfi_restore_state
2107:VS4210/keyremo.c **** 
 870              		.loc 1 2107 3 is_stmt 1 view .LVU205
 871 0090 FFF7FEFF 		bl	CloseOSDMenu
 872              	.LVL67:
 873 0094 C3E7     		b	.L46
 874              	.L65:
2119:VS4210/keyremo.c **** 			{
 875              		.loc 1 2119 4 view .LVU206
2119:VS4210/keyremo.c **** 			{
 876              		.loc 1 2119 8 is_stmt 0 view .LVU207
 877 0096 5F4A     		ldr	r2, .L69+44
 878 0098 1278     		ldrb	r2, [r2]	@ zero_extendqisi2
 879 009a 1A41     		asrs	r2, r2, r3
2119:VS4210/keyremo.c **** 			{
 880              		.loc 1 2119 7 view .LVU208
 881 009c 12F0010F 		tst	r2, #1
 882 00a0 D0D0     		beq	.L48
2119:VS4210/keyremo.c **** 			{
 883              		.loc 1 2119 65 discriminator 1 view .LVU209
 884 00a2 5D4A     		ldr	r2, .L69+48
 885 00a4 D25C     		ldrb	r2, [r2, r3]	@ zero_extendqisi2
2119:VS4210/keyremo.c **** 			{
 886              		.loc 1 2119 44 discriminator 1 view .LVU210
 887 00a6 052A     		cmp	r2, #5
 888 00a8 CCD1     		bne	.L48
2121:VS4210/keyremo.c **** 				{
 889              		.loc 1 2121 5 is_stmt 1 view .LVU211
 890 00aa 032B     		cmp	r3, #3
 891 00ac CAD8     		bhi	.L48
 892 00ae DFE803F0 		tbb	[pc, r3]
 893              	.L50:
 894 00b2 02       		.byte	(.L53-.L50)/2
 895 00b3 1B       		.byte	(.L52-.L50)/2
 896 00b4 34       		.byte	(.L51-.L50)/2
 897 00b5 4D       		.byte	(.L49-.L50)/2
 898              		.p2align 1
 899              	.L53:
2124:VS4210/keyremo.c **** 						BOX_SET_CHANNEL(SelectModeType, ((MainTouchSetSelectMode[PreSelectModeType][Mirror_addr[index
 900              		.loc 1 2124 6 view .LVU212
2124:VS4210/keyremo.c **** 						BOX_SET_CHANNEL(SelectModeType, ((MainTouchSetSelectMode[PreSelectModeType][Mirror_addr[index
 901              		.loc 1 2124 10 is_stmt 0 view .LVU213
 902 00b6 594A     		ldr	r2, .L69+52
 903 00b8 1278     		ldrb	r2, [r2]	@ zero_extendqisi2
2124:VS4210/keyremo.c **** 						BOX_SET_CHANNEL(SelectModeType, ((MainTouchSetSelectMode[PreSelectModeType][Mirror_addr[index
 904              		.loc 1 2124 9 view .LVU214
 905 00ba 62B1     		cbz	r2, .L54
2125:VS4210/keyremo.c **** 					else
ARM GAS  C:\Users\ryanc.HS\AppData\Local\Temp\ccZ9UySd.s 			page 57


 906              		.loc 1 2125 7 is_stmt 1 view .LVU215
2125:VS4210/keyremo.c **** 					else
 907              		.loc 1 2125 94 is_stmt 0 view .LVU216
 908 00bc 04AA     		add	r2, sp, #16
 909 00be 1019     		adds	r0, r2, r4
 910 00c0 10F8100C 		ldrb	r0, [r0, #-16]	@ zero_extendqisi2
2125:VS4210/keyremo.c **** 					else
 911              		.loc 1 2125 82 view .LVU217
 912 00c4 4B4A     		ldr	r2, .L69+12
 913 00c6 02EB0111 		add	r1, r2, r1, lsl #4
 914 00ca 095C     		ldrb	r1, [r1, r0]	@ zero_extendqisi2
2125:VS4210/keyremo.c **** 					else
 915              		.loc 1 2125 7 view .LVU218
 916 00cc 0909     		lsrs	r1, r1, #4
 917 00ce 1846     		mov	r0, r3
 918 00d0 FFF7FEFF 		bl	BOX_SET_CHANNEL
 919              	.LVL68:
 920 00d4 B6E7     		b	.L48
 921              	.L54:
2127:VS4210/keyremo.c **** 
 922              		.loc 1 2127 7 is_stmt 1 view .LVU219
2127:VS4210/keyremo.c **** 
 923              		.loc 1 2127 82 is_stmt 0 view .LVU220
 924 00d6 474A     		ldr	r2, .L69+12
 925 00d8 02EB0111 		add	r1, r2, r1, lsl #4
 926 00dc 095D     		ldrb	r1, [r1, r4]	@ zero_extendqisi2
2127:VS4210/keyremo.c **** 
 927              		.loc 1 2127 7 view .LVU221
 928 00de 0909     		lsrs	r1, r1, #4
 929 00e0 1846     		mov	r0, r3
 930 00e2 FFF7FEFF 		bl	BOX_SET_CHANNEL
 931              	.LVL69:
 932 00e6 ADE7     		b	.L48
 933              	.L52:
2131:VS4210/keyremo.c **** 						BOX_SET_CHANNEL(SelectModeType, ((MainTouchSetSelectMode[PreSelectModeType][Mirror_addr[index
 934              		.loc 1 2131 6 is_stmt 1 view .LVU222
2131:VS4210/keyremo.c **** 						BOX_SET_CHANNEL(SelectModeType, ((MainTouchSetSelectMode[PreSelectModeType][Mirror_addr[index
 935              		.loc 1 2131 10 is_stmt 0 view .LVU223
 936 00e8 4D4A     		ldr	r2, .L69+56
 937 00ea 1278     		ldrb	r2, [r2]	@ zero_extendqisi2
2131:VS4210/keyremo.c **** 						BOX_SET_CHANNEL(SelectModeType, ((MainTouchSetSelectMode[PreSelectModeType][Mirror_addr[index
 938              		.loc 1 2131 9 view .LVU224
 939 00ec 62B1     		cbz	r2, .L55
2132:VS4210/keyremo.c **** 					else
 940              		.loc 1 2132 7 is_stmt 1 view .LVU225
2132:VS4210/keyremo.c **** 					else
 941              		.loc 1 2132 94 is_stmt 0 view .LVU226
 942 00ee 04AA     		add	r2, sp, #16
 943 00f0 1019     		adds	r0, r2, r4
 944 00f2 10F8100C 		ldrb	r0, [r0, #-16]	@ zero_extendqisi2
2132:VS4210/keyremo.c **** 					else
 945              		.loc 1 2132 82 view .LVU227
 946 00f6 3F4A     		ldr	r2, .L69+12
 947 00f8 02EB0111 		add	r1, r2, r1, lsl #4
 948 00fc 095C     		ldrb	r1, [r1, r0]	@ zero_extendqisi2
2132:VS4210/keyremo.c **** 					else
 949              		.loc 1 2132 7 view .LVU228
ARM GAS  C:\Users\ryanc.HS\AppData\Local\Temp\ccZ9UySd.s 			page 58


 950 00fe 0909     		lsrs	r1, r1, #4
 951 0100 1846     		mov	r0, r3
 952 0102 FFF7FEFF 		bl	BOX_SET_CHANNEL
 953              	.LVL70:
 954 0106 9DE7     		b	.L48
 955              	.L55:
2134:VS4210/keyremo.c **** 
 956              		.loc 1 2134 7 is_stmt 1 view .LVU229
2134:VS4210/keyremo.c **** 
 957              		.loc 1 2134 82 is_stmt 0 view .LVU230
 958 0108 3A4A     		ldr	r2, .L69+12
 959 010a 02EB0111 		add	r1, r2, r1, lsl #4
 960 010e 095D     		ldrb	r1, [r1, r4]	@ zero_extendqisi2
2134:VS4210/keyremo.c **** 
 961              		.loc 1 2134 7 view .LVU231
 962 0110 0909     		lsrs	r1, r1, #4
 963 0112 1846     		mov	r0, r3
 964 0114 FFF7FEFF 		bl	BOX_SET_CHANNEL
 965              	.LVL71:
 966 0118 94E7     		b	.L48
 967              	.L51:
2138:VS4210/keyremo.c **** 						BOX_SET_CHANNEL(SelectModeType, ((MainTouchSetSelectMode[PreSelectModeType][Mirror_addr[index
 968              		.loc 1 2138 6 is_stmt 1 view .LVU232
2138:VS4210/keyremo.c **** 						BOX_SET_CHANNEL(SelectModeType, ((MainTouchSetSelectMode[PreSelectModeType][Mirror_addr[index
 969              		.loc 1 2138 10 is_stmt 0 view .LVU233
 970 011a 424A     		ldr	r2, .L69+60
 971 011c 1278     		ldrb	r2, [r2]	@ zero_extendqisi2
2138:VS4210/keyremo.c **** 						BOX_SET_CHANNEL(SelectModeType, ((MainTouchSetSelectMode[PreSelectModeType][Mirror_addr[index
 972              		.loc 1 2138 9 view .LVU234
 973 011e 62B1     		cbz	r2, .L56
2139:VS4210/keyremo.c **** 					else
 974              		.loc 1 2139 7 is_stmt 1 view .LVU235
2139:VS4210/keyremo.c **** 					else
 975              		.loc 1 2139 94 is_stmt 0 view .LVU236
 976 0120 04AA     		add	r2, sp, #16
 977 0122 1019     		adds	r0, r2, r4
 978 0124 10F8100C 		ldrb	r0, [r0, #-16]	@ zero_extendqisi2
2139:VS4210/keyremo.c **** 					else
 979              		.loc 1 2139 82 view .LVU237
 980 0128 324A     		ldr	r2, .L69+12
 981 012a 02EB0111 		add	r1, r2, r1, lsl #4
 982 012e 095C     		ldrb	r1, [r1, r0]	@ zero_extendqisi2
2139:VS4210/keyremo.c **** 					else
 983              		.loc 1 2139 7 view .LVU238
 984 0130 0909     		lsrs	r1, r1, #4
 985 0132 1846     		mov	r0, r3
 986 0134 FFF7FEFF 		bl	BOX_SET_CHANNEL
 987              	.LVL72:
 988 0138 84E7     		b	.L48
 989              	.L56:
2141:VS4210/keyremo.c **** 
 990              		.loc 1 2141 7 is_stmt 1 view .LVU239
2141:VS4210/keyremo.c **** 
 991              		.loc 1 2141 82 is_stmt 0 view .LVU240
 992 013a 2E4A     		ldr	r2, .L69+12
 993 013c 02EB0111 		add	r1, r2, r1, lsl #4
 994 0140 095D     		ldrb	r1, [r1, r4]	@ zero_extendqisi2
ARM GAS  C:\Users\ryanc.HS\AppData\Local\Temp\ccZ9UySd.s 			page 59


2141:VS4210/keyremo.c **** 
 995              		.loc 1 2141 7 view .LVU241
 996 0142 0909     		lsrs	r1, r1, #4
 997 0144 1846     		mov	r0, r3
 998 0146 FFF7FEFF 		bl	BOX_SET_CHANNEL
 999              	.LVL73:
 1000 014a 7BE7     		b	.L48
 1001              	.L49:
2145:VS4210/keyremo.c **** 						BOX_SET_CHANNEL(SelectModeType, ((MainTouchSetSelectMode[PreSelectModeType][Mirror_addr[index
 1002              		.loc 1 2145 6 is_stmt 1 view .LVU242
2145:VS4210/keyremo.c **** 						BOX_SET_CHANNEL(SelectModeType, ((MainTouchSetSelectMode[PreSelectModeType][Mirror_addr[index
 1003              		.loc 1 2145 10 is_stmt 0 view .LVU243
 1004 014c 364A     		ldr	r2, .L69+64
 1005 014e 1278     		ldrb	r2, [r2]	@ zero_extendqisi2
2145:VS4210/keyremo.c **** 						BOX_SET_CHANNEL(SelectModeType, ((MainTouchSetSelectMode[PreSelectModeType][Mirror_addr[index
 1006              		.loc 1 2145 9 view .LVU244
 1007 0150 62B1     		cbz	r2, .L57
2146:VS4210/keyremo.c **** 					else
 1008              		.loc 1 2146 7 is_stmt 1 view .LVU245
2146:VS4210/keyremo.c **** 					else
 1009              		.loc 1 2146 94 is_stmt 0 view .LVU246
 1010 0152 04AA     		add	r2, sp, #16
 1011 0154 1019     		adds	r0, r2, r4
 1012 0156 10F8100C 		ldrb	r0, [r0, #-16]	@ zero_extendqisi2
2146:VS4210/keyremo.c **** 					else
 1013              		.loc 1 2146 82 view .LVU247
 1014 015a 264A     		ldr	r2, .L69+12
 1015 015c 02EB0111 		add	r1, r2, r1, lsl #4
 1016 0160 095C     		ldrb	r1, [r1, r0]	@ zero_extendqisi2
2146:VS4210/keyremo.c **** 					else
 1017              		.loc 1 2146 7 view .LVU248
 1018 0162 0909     		lsrs	r1, r1, #4
 1019 0164 1846     		mov	r0, r3
 1020 0166 FFF7FEFF 		bl	BOX_SET_CHANNEL
 1021              	.LVL74:
 1022 016a 6BE7     		b	.L48
 1023              	.L57:
2148:VS4210/keyremo.c **** 				}
 1024              		.loc 1 2148 7 is_stmt 1 view .LVU249
2148:VS4210/keyremo.c **** 				}
 1025              		.loc 1 2148 82 is_stmt 0 view .LVU250
 1026 016c 214A     		ldr	r2, .L69+12
 1027 016e 02EB0111 		add	r1, r2, r1, lsl #4
 1028 0172 095D     		ldrb	r1, [r1, r4]	@ zero_extendqisi2
2148:VS4210/keyremo.c **** 				}
 1029              		.loc 1 2148 7 view .LVU251
 1030 0174 0909     		lsrs	r1, r1, #4
 1031 0176 1846     		mov	r0, r3
 1032 0178 FFF7FEFF 		bl	BOX_SET_CHANNEL
 1033              	.LVL75:
 1034 017c 62E7     		b	.L48
 1035              	.L47:
2156:VS4210/keyremo.c **** 
 1036              		.loc 1 2156 3 is_stmt 1 view .LVU252
2156:VS4210/keyremo.c **** 
 1037              		.loc 1 2156 18 is_stmt 0 view .LVU253
 1038 017e 1C4B     		ldr	r3, .L69+8
ARM GAS  C:\Users\ryanc.HS\AppData\Local\Temp\ccZ9UySd.s 			page 60


 1039 0180 1A78     		ldrb	r2, [r3]	@ zero_extendqisi2
 1040 0182 1A4B     		ldr	r3, .L69+4
 1041 0184 1A70     		strb	r2, [r3]
2158:VS4210/keyremo.c **** 		{
 1042              		.loc 1 2158 3 is_stmt 1 view .LVU254
2158:VS4210/keyremo.c **** 		{
 1043              		.loc 1 2158 32 is_stmt 0 view .LVU255
 1044 0186 1C4B     		ldr	r3, .L69+16
 1045 0188 1B78     		ldrb	r3, [r3]	@ zero_extendqisi2
2158:VS4210/keyremo.c **** 		{
 1046              		.loc 1 2158 6 view .LVU256
 1047 018a 012B     		cmp	r3, #1
 1048 018c 7FF45AAF 		bne	.L48
2160:VS4210/keyremo.c **** 			{
 1049              		.loc 1 2160 11 view .LVU257
 1050 0190 0024     		movs	r4, #0
 1051 0192 0FE0     		b	.L58
 1052              	.LVL76:
 1053              	.L68:
2164:VS4210/keyremo.c **** 					SetCOCCom(_COCOSD_BOX_Sel, i);
 1054              		.loc 1 2164 6 is_stmt 1 view .LVU258
2164:VS4210/keyremo.c **** 					SetCOCCom(_COCOSD_BOX_Sel, i);
 1055              		.loc 1 2164 49 is_stmt 0 view .LVU259
 1056 0194 254B     		ldr	r3, .L69+68
 1057 0196 1B5D     		ldrb	r3, [r3, r4]	@ zero_extendqisi2
2164:VS4210/keyremo.c **** 					SetCOCCom(_COCOSD_BOX_Sel, i);
 1058              		.loc 1 2164 27 view .LVU260
 1059 0198 1F4D     		ldr	r5, .L69+48
 1060 019a 2B55     		strb	r3, [r5, r4]
2165:VS4210/keyremo.c **** 					SetCOCCom(_COCOSD_BOX_Channel_Sel, COCSelectModeType[i]);
 1061              		.loc 1 2165 6 is_stmt 1 view .LVU261
 1062 019c 2146     		mov	r1, r4
 1063 019e 1920     		movs	r0, #25
 1064 01a0 FFF7FEFF 		bl	SetCOCCom
 1065              	.LVL77:
2166:VS4210/keyremo.c **** 					Get_2824cIrq();
 1066              		.loc 1 2166 6 view .LVU262
 1067 01a4 295D     		ldrb	r1, [r5, r4]	@ zero_extendqisi2
 1068 01a6 1A20     		movs	r0, #26
 1069 01a8 FFF7FEFF 		bl	SetCOCCom
 1070              	.LVL78:
2167:VS4210/keyremo.c **** 				}
 1071              		.loc 1 2167 6 view .LVU263
 1072 01ac FFF7FEFF 		bl	Get_2824cIrq
 1073              	.LVL79:
 1074              	.L59:
2160:VS4210/keyremo.c **** 			{
 1075              		.loc 1 2160 23 discriminator 2 view .LVU264
2160:VS4210/keyremo.c **** 			{
 1076              		.loc 1 2160 24 is_stmt 0 discriminator 2 view .LVU265
 1077 01b0 0134     		adds	r4, r4, #1
 1078              	.LVL80:
2160:VS4210/keyremo.c **** 			{
 1079              		.loc 1 2160 24 discriminator 2 view .LVU266
 1080 01b2 E4B2     		uxtb	r4, r4
 1081              	.LVL81:
 1082              	.L58:
ARM GAS  C:\Users\ryanc.HS\AppData\Local\Temp\ccZ9UySd.s 			page 61


2160:VS4210/keyremo.c **** 			{
 1083              		.loc 1 2160 16 is_stmt 1 discriminator 1 view .LVU267
2160:VS4210/keyremo.c **** 			{
 1084              		.loc 1 2160 4 is_stmt 0 discriminator 1 view .LVU268
 1085 01b4 032C     		cmp	r4, #3
 1086 01b6 06D8     		bhi	.L67
2162:VS4210/keyremo.c **** 				{
 1087              		.loc 1 2162 5 is_stmt 1 view .LVU269
2162:VS4210/keyremo.c **** 				{
 1088              		.loc 1 2162 9 is_stmt 0 view .LVU270
 1089 01b8 164B     		ldr	r3, .L69+44
 1090 01ba 1B78     		ldrb	r3, [r3]	@ zero_extendqisi2
 1091 01bc 2341     		asrs	r3, r3, r4
2162:VS4210/keyremo.c **** 				{
 1092              		.loc 1 2162 8 view .LVU271
 1093 01be 13F0010F 		tst	r3, #1
 1094 01c2 F5D0     		beq	.L59
 1095 01c4 E6E7     		b	.L68
 1096              	.L67:
2171:VS4210/keyremo.c **** 			SelectModeType = TouchPreSelectModeType;
 1097              		.loc 1 2171 4 is_stmt 1 view .LVU272
2171:VS4210/keyremo.c **** 			SelectModeType = TouchPreSelectModeType;
 1098              		.loc 1 2171 29 is_stmt 0 view .LVU273
 1099 01c6 0C4B     		ldr	r3, .L69+16
 1100 01c8 0022     		movs	r2, #0
 1101 01ca 1A70     		strb	r2, [r3]
2172:VS4210/keyremo.c **** 		}
 1102              		.loc 1 2172 4 is_stmt 1 view .LVU274
2172:VS4210/keyremo.c **** 		}
 1103              		.loc 1 2172 19 is_stmt 0 view .LVU275
 1104 01cc 184B     		ldr	r3, .L69+72
 1105 01ce 1A78     		ldrb	r2, [r3]	@ zero_extendqisi2
 1106 01d0 064B     		ldr	r3, .L69+4
 1107 01d2 1A70     		strb	r2, [r3]
 1108 01d4 36E7     		b	.L48
 1109              	.LVL82:
 1110              	.L66:
2181:VS4210/keyremo.c **** 		SetCOCCom(_COC_FLISHEYE_MODE1, Fisheye_no_save);
 1111              		.loc 1 2181 3 is_stmt 1 view .LVU276
 1112 01d6 1920     		movs	r0, #25
 1113 01d8 FFF7FEFF 		bl	SetCOCCom
 1114              	.LVL83:
2182:VS4210/keyremo.c **** 	}
 1115              		.loc 1 2182 3 view .LVU277
 1116 01dc 0021     		movs	r1, #0
 1117 01de 1B20     		movs	r0, #27
 1118 01e0 FFF7FEFF 		bl	SetCOCCom
 1119              	.LVL84:
 1120 01e4 37E7     		b	.L61
 1121              	.L70:
 1122 01e6 00BF     		.align	2
 1123              	.L69:
 1124 01e8 00000000 		.word	.LANCHOR5
 1125 01ec 00000000 		.word	SelectModeType
 1126 01f0 00000000 		.word	PreSelectModeType
 1127 01f4 00000000 		.word	.LANCHOR6
 1128 01f8 00000000 		.word	.LANCHOR2
ARM GAS  C:\Users\ryanc.HS\AppData\Local\Temp\ccZ9UySd.s 			page 62


 1129 01fc 00000000 		.word	Flisheye_CAM
 1130 0200 00000000 		.word	.LANCHOR4
 1131 0204 00000000 		.word	OSDStateFlg
 1132 0208 00000000 		.word	NowModeState
 1133 020c 00000000 		.word	QuadBoxMode
 1134 0210 00000000 		.word	.LC5
 1135 0214 00000000 		.word	QuadBoxId
 1136 0218 00000000 		.word	COCSelectModeType
 1137 021c 00000000 		.word	CAMA_M
 1138 0220 00000000 		.word	CAMB_M
 1139 0224 00000000 		.word	CAMC_M
 1140 0228 00000000 		.word	CAMR_M
 1141 022c 00000000 		.word	PreCOCSelectModeType
 1142 0230 00000000 		.word	.LANCHOR3
 1143              		.cfi_endproc
 1144              	.LFE81:
 1146              		.section	.rodata.TouchResetSelectMode.str1.4,"aMS",%progbits,1
 1147              		.align	2
 1148              	.LC6:
 1149 0000 0D0A546F 		.ascii	"\015\012TouchResetSelectModeType=%d\000"
 1149      75636852 
 1149      65736574 
 1149      53656C65 
 1149      63744D6F 
 1150              		.section	.text.TouchResetSelectMode,"ax",%progbits
 1151              		.align	1
 1152              		.global	TouchResetSelectMode
 1153              		.syntax unified
 1154              		.thumb
 1155              		.thumb_func
 1156              		.fpu softvfp
 1158              	TouchResetSelectMode:
 1159              	.LFB82:
2199:VS4210/keyremo.c **** 
2200:VS4210/keyremo.c **** void TouchResetSelectMode(void)
2201:VS4210/keyremo.c **** {
 1160              		.loc 1 2201 1 view -0
 1161              		.cfi_startproc
 1162              		@ args = 0, pretend = 0, frame = 0
 1163              		@ frame_needed = 0, uses_anonymous_args = 0
 1164 0000 38B5     		push	{r3, r4, r5, lr}
 1165              	.LCFI7:
 1166              		.cfi_def_cfa_offset 16
 1167              		.cfi_offset 3, -16
 1168              		.cfi_offset 4, -12
 1169              		.cfi_offset 5, -8
 1170              		.cfi_offset 14, -4
2202:VS4210/keyremo.c **** 	BYTE i;
 1171              		.loc 1 2202 2 view .LVU279
2203:VS4210/keyremo.c **** 
2204:VS4210/keyremo.c **** 	BackLightOFF();
 1172              		.loc 1 2204 2 view .LVU280
 1173 0002 FFF7FEFF 		bl	BackLightOFF
 1174              	.LVL85:
2205:VS4210/keyremo.c **** 
2206:VS4210/keyremo.c **** 	if (GetDisplayedOSD() & (MENU | TVVOL | _COC_OSD))
 1175              		.loc 1 2206 2 view .LVU281
ARM GAS  C:\Users\ryanc.HS\AppData\Local\Temp\ccZ9UySd.s 			page 63


 1176              		.loc 1 2206 6 is_stmt 0 view .LVU282
 1177 0006 FFF7FEFF 		bl	GetDisplayedOSD
 1178              	.LVL86:
 1179              		.loc 1 2206 5 view .LVU283
 1180 000a 10F0260F 		tst	r0, #38
 1181 000e 01D1     		bne	.L77
 1182              	.L72:
2201:VS4210/keyremo.c **** 	BYTE i;
 1183              		.loc 1 2201 1 discriminator 1 view .LVU284
 1184 0010 0024     		movs	r4, #0
 1185 0012 14E0     		b	.L74
 1186              	.L77:
2207:VS4210/keyremo.c **** 		CloseOSDMenu();
 1187              		.loc 1 2207 3 is_stmt 1 view .LVU285
 1188 0014 FFF7FEFF 		bl	CloseOSDMenu
 1189              	.LVL87:
 1190 0018 FAE7     		b	.L72
 1191              	.LVL88:
 1192              	.L79:
2208:VS4210/keyremo.c **** 
2209:VS4210/keyremo.c **** 	for (i = 0; i < 4; i++)
2210:VS4210/keyremo.c **** 	{
2211:VS4210/keyremo.c **** 		if ((QuadBoxId & (1 << i)))
2212:VS4210/keyremo.c **** 		{
2213:VS4210/keyremo.c **** 			PreCOCSelectModeType[i] = COCSelectModeType[i];
 1193              		.loc 1 2213 4 view .LVU286
 1194              		.loc 1 2213 47 is_stmt 0 view .LVU287
 1195 001a 1D4B     		ldr	r3, .L80
 1196 001c 195D     		ldrb	r1, [r3, r4]	@ zero_extendqisi2
 1197              		.loc 1 2213 28 view .LVU288
 1198 001e 1D4A     		ldr	r2, .L80+4
 1199 0020 1155     		strb	r1, [r2, r4]
2214:VS4210/keyremo.c **** 			COCSelectModeType[i] = 5;
 1200              		.loc 1 2214 4 is_stmt 1 view .LVU289
 1201              		.loc 1 2214 25 is_stmt 0 view .LVU290
 1202 0022 0525     		movs	r5, #5
 1203 0024 1D55     		strb	r5, [r3, r4]
2215:VS4210/keyremo.c **** 			SetCOCCom(_COCOSD_BOX_Sel, i);
 1204              		.loc 1 2215 4 is_stmt 1 view .LVU291
 1205 0026 2146     		mov	r1, r4
 1206 0028 1920     		movs	r0, #25
 1207 002a FFF7FEFF 		bl	SetCOCCom
 1208              	.LVL89:
2216:VS4210/keyremo.c **** 			SetCOCCom(_COCOSD_BOX_Channel_Sel, 5);
 1209              		.loc 1 2216 4 view .LVU292
 1210 002e 2946     		mov	r1, r5
 1211 0030 1A20     		movs	r0, #26
 1212 0032 FFF7FEFF 		bl	SetCOCCom
 1213              	.LVL90:
2217:VS4210/keyremo.c **** 			Get_2824cIrq();
 1214              		.loc 1 2217 4 view .LVU293
 1215 0036 FFF7FEFF 		bl	Get_2824cIrq
 1216              	.LVL91:
 1217              	.L73:
2209:VS4210/keyremo.c **** 	{
 1218              		.loc 1 2209 21 discriminator 2 view .LVU294
2209:VS4210/keyremo.c **** 	{
ARM GAS  C:\Users\ryanc.HS\AppData\Local\Temp\ccZ9UySd.s 			page 64


 1219              		.loc 1 2209 22 is_stmt 0 discriminator 2 view .LVU295
 1220 003a 0134     		adds	r4, r4, #1
 1221              	.LVL92:
2209:VS4210/keyremo.c **** 	{
 1222              		.loc 1 2209 22 discriminator 2 view .LVU296
 1223 003c E4B2     		uxtb	r4, r4
 1224              	.LVL93:
 1225              	.L74:
2209:VS4210/keyremo.c **** 	{
 1226              		.loc 1 2209 14 is_stmt 1 discriminator 1 view .LVU297
2209:VS4210/keyremo.c **** 	{
 1227              		.loc 1 2209 2 is_stmt 0 discriminator 1 view .LVU298
 1228 003e 032C     		cmp	r4, #3
 1229 0040 06D8     		bhi	.L78
2211:VS4210/keyremo.c **** 		{
 1230              		.loc 1 2211 3 is_stmt 1 view .LVU299
2211:VS4210/keyremo.c **** 		{
 1231              		.loc 1 2211 7 is_stmt 0 view .LVU300
 1232 0042 154B     		ldr	r3, .L80+8
 1233 0044 1B78     		ldrb	r3, [r3]	@ zero_extendqisi2
 1234 0046 2341     		asrs	r3, r3, r4
2211:VS4210/keyremo.c **** 		{
 1235              		.loc 1 2211 6 view .LVU301
 1236 0048 13F0010F 		tst	r3, #1
 1237 004c F5D0     		beq	.L73
 1238 004e E4E7     		b	.L79
 1239              	.L78:
2218:VS4210/keyremo.c **** 		}
2219:VS4210/keyremo.c **** 	}
2220:VS4210/keyremo.c **** 
2221:VS4210/keyremo.c **** 	TouchPreSelectModeType = SelectModeType;
 1240              		.loc 1 2221 2 is_stmt 1 view .LVU302
 1241              		.loc 1 2221 25 is_stmt 0 view .LVU303
 1242 0050 124C     		ldr	r4, .L80+12
 1243              	.LVL94:
 1244              		.loc 1 2221 25 view .LVU304
 1245 0052 2278     		ldrb	r2, [r4]	@ zero_extendqisi2
 1246 0054 124B     		ldr	r3, .L80+16
 1247 0056 1A70     		strb	r2, [r3]
2222:VS4210/keyremo.c **** 	TouchResetSelectModeFlag = TRUE;
 1248              		.loc 1 2222 2 is_stmt 1 view .LVU305
 1249              		.loc 1 2222 27 is_stmt 0 view .LVU306
 1250 0058 0125     		movs	r5, #1
 1251 005a 124B     		ldr	r3, .L80+20
 1252 005c 1D70     		strb	r5, [r3]
2223:VS4210/keyremo.c **** 
2224:VS4210/keyremo.c **** 	SelectModeType = 12;
 1253              		.loc 1 2224 2 is_stmt 1 view .LVU307
 1254              		.loc 1 2224 17 is_stmt 0 view .LVU308
 1255 005e 0C23     		movs	r3, #12
 1256 0060 2370     		strb	r3, [r4]
2225:VS4210/keyremo.c **** 	setloopoutmode(MainSetSelectMode[SelectModeType]);
 1257              		.loc 1 2225 2 is_stmt 1 view .LVU309
 1258              		.loc 1 2225 34 is_stmt 0 view .LVU310
 1259 0062 114B     		ldr	r3, .L80+24
 1260 0064 187B     		ldrb	r0, [r3, #12]	@ zero_extendqisi2
 1261              		.loc 1 2225 2 view .LVU311
ARM GAS  C:\Users\ryanc.HS\AppData\Local\Temp\ccZ9UySd.s 			page 65


 1262 0066 FFF7FEFF 		bl	setloopoutmode
 1263              	.LVL95:
2226:VS4210/keyremo.c **** 
2227:VS4210/keyremo.c **** 	OSDStateFlg = 1;
 1264              		.loc 1 2227 2 is_stmt 1 view .LVU312
 1265              		.loc 1 2227 14 is_stmt 0 view .LVU313
 1266 006a 104B     		ldr	r3, .L80+28
 1267 006c 1D70     		strb	r5, [r3]
2228:VS4210/keyremo.c **** 
2229:VS4210/keyremo.c **** 	WriteEEP(EEP_SelectMode, SelectModeType);
 1268              		.loc 1 2229 2 is_stmt 1 view .LVU314
 1269 006e 2178     		ldrb	r1, [r4]	@ zero_extendqisi2
 1270 0070 B020     		movs	r0, #176
 1271 0072 FFF7FEFF 		bl	WriteEEP
 1272              	.LVL96:
2230:VS4210/keyremo.c **** 	WriteEEP(EEP_NowModeState, NowModeState);
 1273              		.loc 1 2230 2 view .LVU315
 1274 0076 0E4B     		ldr	r3, .L80+32
 1275 0078 1978     		ldrb	r1, [r3]	@ zero_extendqisi2
 1276 007a AF20     		movs	r0, #175
 1277 007c FFF7FEFF 		bl	WriteEEP
 1278              	.LVL97:
2231:VS4210/keyremo.c **** 
2232:VS4210/keyremo.c **** 	BackLightON();
 1279              		.loc 1 2232 2 view .LVU316
 1280 0080 FFF7FEFF 		bl	BackLightON
 1281              	.LVL98:
2233:VS4210/keyremo.c **** 	Printf("\r\nTouchResetSelectModeType=%d", (WORD)SelectModeType);
 1282              		.loc 1 2233 2 view .LVU317
 1283 0084 2178     		ldrb	r1, [r4]	@ zero_extendqisi2
 1284 0086 0B48     		ldr	r0, .L80+36
 1285 0088 FFF7FEFF 		bl	Printf
 1286              	.LVL99:
2234:VS4210/keyremo.c **** }
 1287              		.loc 1 2234 1 is_stmt 0 view .LVU318
 1288 008c 38BD     		pop	{r3, r4, r5, pc}
 1289              	.L81:
 1290 008e 00BF     		.align	2
 1291              	.L80:
 1292 0090 00000000 		.word	COCSelectModeType
 1293 0094 00000000 		.word	PreCOCSelectModeType
 1294 0098 00000000 		.word	QuadBoxId
 1295 009c 00000000 		.word	SelectModeType
 1296 00a0 00000000 		.word	.LANCHOR3
 1297 00a4 00000000 		.word	.LANCHOR2
 1298 00a8 00000000 		.word	.LANCHOR4
 1299 00ac 00000000 		.word	OSDStateFlg
 1300 00b0 00000000 		.word	NowModeState
 1301 00b4 00000000 		.word	.LC6
 1302              		.cfi_endproc
 1303              	.LFE82:
 1305              		.section	.text.GetKey,"ax",%progbits
 1306              		.align	1
 1307              		.global	GetKey
 1308              		.syntax unified
 1309              		.thumb
 1310              		.thumb_func
ARM GAS  C:\Users\ryanc.HS\AppData\Local\Temp\ccZ9UySd.s 			page 66


 1311              		.fpu softvfp
 1313              	GetKey:
 1314              	.LVL100:
 1315              	.LFB83:
2235:VS4210/keyremo.c **** 
2236:VS4210/keyremo.c **** //=============================================================================
2237:VS4210/keyremo.c **** //		Get Key
2238:VS4210/keyremo.c **** //=============================================================================
2239:VS4210/keyremo.c **** #define CUPKEY DOWNKEY
2240:VS4210/keyremo.c **** #define CDOWNKEY UPKEY
2241:VS4210/keyremo.c **** 
2242:VS4210/keyremo.c **** BYTE GetKey(BYTE repeat)
2243:VS4210/keyremo.c **** {
 1316              		.loc 1 2243 1 is_stmt 1 view -0
 1317              		.cfi_startproc
 1318              		@ args = 0, pretend = 0, frame = 0
 1319              		@ frame_needed = 0, uses_anonymous_args = 0
 1320              		@ link register save eliminated.
2244:VS4210/keyremo.c **** 
2245:VS4210/keyremo.c **** 	bit ready;
 1321              		.loc 1 2245 2 view .LVU320
2246:VS4210/keyremo.c **** 	// BYTE KeyBuffer2;  //Pinchi disable for compiler warning
2247:VS4210/keyremo.c **** 	ready = KeyReady;
 1322              		.loc 1 2247 2 view .LVU321
 1323              		.loc 1 2247 8 is_stmt 0 view .LVU322
 1324 0000 244B     		ldr	r3, .L96
 1325 0002 1968     		ldr	r1, [r3]
 1326              	.LVL101:
2248:VS4210/keyremo.c **** 	KeyReady = 0;
 1327              		.loc 1 2248 2 is_stmt 1 view .LVU323
 1328              		.loc 1 2248 11 is_stmt 0 view .LVU324
 1329 0004 0022     		movs	r2, #0
 1330 0006 1A60     		str	r2, [r3]
2249:VS4210/keyremo.c **** 
2250:VS4210/keyremo.c **** 	//	#if 1//ryan@20170914
2251:VS4210/keyremo.c **** 
2252:VS4210/keyremo.c **** 	// if((ChangeKey==1)&&(Key==0))
2253:VS4210/keyremo.c **** 
2254:VS4210/keyremo.c **** 	if ((ChangeKey == 1) && (Key == 0))
 1331              		.loc 1 2254 2 is_stmt 1 view .LVU325
 1332              		.loc 1 2254 17 is_stmt 0 view .LVU326
 1333 0008 234B     		ldr	r3, .L96+4
 1334 000a 1B68     		ldr	r3, [r3]
 1335              		.loc 1 2254 5 view .LVU327
 1336 000c 012B     		cmp	r3, #1
 1337 000e 08D0     		beq	.L91
 1338              	.L83:
2255:VS4210/keyremo.c **** 	{
2256:VS4210/keyremo.c **** #if 1
2257:VS4210/keyremo.c **** 		ready = 1;
2258:VS4210/keyremo.c **** 
2259:VS4210/keyremo.c **** 		/*
2260:VS4210/keyremo.c **** 			if((updn_reg[0] == 3) && (updn_reg[1] == 2)&& (updn_reg[2] == 0)&& (updn_reg[3] == 1))  		//Up K
2261:VS4210/keyremo.c **** 					Key=DOWNKEY;
2262:VS4210/keyremo.c **** 				else	if((updn_reg[0] ==0) && (updn_reg[1] == 2)&& (updn_reg[2] == 3)&& (updn_reg[3] == 1))  //D
2263:VS4210/keyremo.c **** 					Key=UPKEY;
2264:VS4210/keyremo.c **** 		*/
ARM GAS  C:\Users\ryanc.HS\AppData\Local\Temp\ccZ9UySd.s 			page 67


2265:VS4210/keyremo.c **** #if 1
2266:VS4210/keyremo.c **** 		if ((updn_reg[0] == 1) && (updn_reg[1] == 3) && (updn_reg[2] == 2) && (updn_reg[3] == 0)) // Up K
2267:VS4210/keyremo.c **** 			Key |= DOWNKEY;
2268:VS4210/keyremo.c **** #else
2269:VS4210/keyremo.c **** 		if ((updn_reg[0] == 3) && (updn_reg[1] == 2) && (updn_reg[2] == 0) && (updn_reg[3] == 1)) // Up K
2270:VS4210/keyremo.c **** 			Key |= DOWNKEY;
2271:VS4210/keyremo.c **** #endif
2272:VS4210/keyremo.c **** 		//	else if((updn_reg[0] == 2) && (updn_reg[1] == 0)&& (updn_reg[2] == 1)&& (updn_reg[3] == 3))  /
2273:VS4210/keyremo.c **** 		//		Key|=DOWNKEY;
2274:VS4210/keyremo.c **** 		//	else if((updn_reg[0] == 0) && (updn_reg[1] == 1) && (updn_reg[2] == 3)&& (updn_reg[3] == 2))  
2275:VS4210/keyremo.c **** 		//		Key|=DOWNKEY;
2276:VS4210/keyremo.c **** 		//	else if((updn_reg[0] == 1) && (updn_reg[1] == 3)&& (updn_reg[2] == 2)&& (updn_reg[3] == 0))  /
2277:VS4210/keyremo.c **** 		//		Key|=DOWNKEY;
2278:VS4210/keyremo.c **** 		//	else if((updn_reg[0] == 0) && (updn_reg[1] == 2)&& (updn_reg[2] == 3)&& (updn_reg[3] == 1))  /
2279:VS4210/keyremo.c **** 		//			Key|=UPKEY;
2280:VS4210/keyremo.c **** 		//	else if((updn_reg[0] == 3) && (updn_reg[1] == 1)&& (updn_reg[2] == 0)&& (updn_reg[3] == 2))  /
2281:VS4210/keyremo.c **** 		//			Key|=UPKEY;
2282:VS4210/keyremo.c **** 		else if ((updn_reg[0] == 2) && (updn_reg[1] == 3) && (updn_reg[2] == 1) && (updn_reg[3] == 0)) //
2283:VS4210/keyremo.c **** 			Key |= UPKEY;
2284:VS4210/keyremo.c **** 			//	else if((updn_reg[0] == 1) && (updn_reg[1] == 0)&& (updn_reg[2] == 2)&& (updn_reg[3] == 3)) /
2285:VS4210/keyremo.c **** 			//			Key|=UPKEY;
2286:VS4210/keyremo.c **** 
2287:VS4210/keyremo.c **** #else
2288:VS4210/keyremo.c **** 		ready = 1;
2289:VS4210/keyremo.c **** 		if ((updn_reg[0] == 3) && (updn_reg[1] == 2) && (updn_reg[2] == 0) && (updn_reg[3] == 1)) // Up K
2290:VS4210/keyremo.c **** 			Key |= DOWNKEY;
2291:VS4210/keyremo.c **** 		else if ((updn_reg[0] == 2) && (updn_reg[1] == 0) && (updn_reg[2] == 1) && (updn_reg[3] == 3)) //
2292:VS4210/keyremo.c **** 			Key |= DOWNKEY;
2293:VS4210/keyremo.c **** 		else if ((updn_reg[0] == 0) && (updn_reg[1] == 1) && (updn_reg[2] == 3) && (updn_reg[3] == 2)) //
2294:VS4210/keyremo.c **** 			Key |= DOWNKEY;
2295:VS4210/keyremo.c **** 		else if ((updn_reg[0] == 1) && (updn_reg[1] == 3) && (updn_reg[2] == 2) && (updn_reg[3] == 0)) //
2296:VS4210/keyremo.c **** 			Key |= DOWNKEY;
2297:VS4210/keyremo.c **** 		else if ((updn_reg[0] == 0) && (updn_reg[1] == 2) && (updn_reg[2] == 3) && (updn_reg[3] == 1)) //
2298:VS4210/keyremo.c **** 			Key |= UPKEY;
2299:VS4210/keyremo.c **** 		else if ((updn_reg[0] == 3) && (updn_reg[1] == 1) && (updn_reg[2] == 0) && (updn_reg[3] == 2)) //
2300:VS4210/keyremo.c **** 			Key |= UPKEY;
2301:VS4210/keyremo.c **** 		else if ((updn_reg[0] == 2) && (updn_reg[1] == 3) && (updn_reg[2] == 1) && (updn_reg[3] == 0)) //
2302:VS4210/keyremo.c **** 			Key |= UPKEY;
2303:VS4210/keyremo.c **** 		else if ((updn_reg[0] == 1) && (updn_reg[1] == 0) && (updn_reg[2] == 2) && (updn_reg[3] == 3)) //
2304:VS4210/keyremo.c **** 			Key |= UPKEY;
2305:VS4210/keyremo.c **** #endif
2306:VS4210/keyremo.c **** 		/*
2307:VS4210/keyremo.c **** 		if(Encoder_flag==OFF)
2308:VS4210/keyremo.c **** 		{
2309:VS4210/keyremo.c **** 			Key=0;
2310:VS4210/keyremo.c **** 				Printf("(Encoder_flag==OFF)");
2311:VS4210/keyremo.c **** 		}
2312:VS4210/keyremo.c **** 		else
2313:VS4210/keyremo.c **** 		{
2314:VS4210/keyremo.c **** 			Printf("(Encoder_flag==ON)");
2315:VS4210/keyremo.c **** 			Encoder_flag=OFF;
2316:VS4210/keyremo.c **** 			//MCUTimerActiveTimerEvent(SEC(0.2), _USER_TIMER_EVENT_Encoder_Loop);
2317:VS4210/keyremo.c **** 		}
2318:VS4210/keyremo.c **** 		*/
2319:VS4210/keyremo.c **** 		ChangeKey = 0;
2320:VS4210/keyremo.c **** 	}
2321:VS4210/keyremo.c **** 
ARM GAS  C:\Users\ryanc.HS\AppData\Local\Temp\ccZ9UySd.s 			page 68


2322:VS4210/keyremo.c **** #if 0 // elif 0
2323:VS4210/keyremo.c **** 	if(ChangeKey==1)
2324:VS4210/keyremo.c **** 	{
2325:VS4210/keyremo.c **** 
2326:VS4210/keyremo.c **** 		ready=1;
2327:VS4210/keyremo.c **** 		
2328:VS4210/keyremo.c **** 		if((updn_reg[0] == 1) && (updn_reg[1] == 3) && (updn_reg[2] == 2)&& (updn_reg[3] == 0))  //UP Key
2329:VS4210/keyremo.c **** 			Key|=CUPKEY;
2330:VS4210/keyremo.c **** 		//else if((updn_reg[0] == 3) && (updn_reg[1] == 2)&& (updn_reg[2] == 0)&& (updn_reg[3] == 1))  //
2331:VS4210/keyremo.c **** 		//	Key|=CUPKEY;
2332:VS4210/keyremo.c **** 
2333:VS4210/keyremo.c **** 		if((updn_reg[0] == 1) && (updn_reg[1] == 0)&& (updn_reg[2] == 2)&& (updn_reg[3] == 3))  //DN Key
2334:VS4210/keyremo.c **** 			Key|=CDOWNKEY;
2335:VS4210/keyremo.c **** 		//else if((updn_reg[0] == 3) && (updn_reg[1] == 1)&& (updn_reg[2] == 0)&& (updn_reg[3] == 2))  //
2336:VS4210/keyremo.c **** 		//	Key|=CDOWNKEY;
2337:VS4210/keyremo.c **** 		
2338:VS4210/keyremo.c **** 		ChangeKey = 0;	
2339:VS4210/keyremo.c **** 
2340:VS4210/keyremo.c **** 		
2341:VS4210/keyremo.c **** 	}   
2342:VS4210/keyremo.c **** 	
2343:VS4210/keyremo.c **** 
2344:VS4210/keyremo.c **** 	//#else
2345:VS4210/keyremo.c **** 	if(ChangeKey==1)//Kane @HS 2007 0814 Ver1.31<<<<
2346:VS4210/keyremo.c **** 	{
2347:VS4210/keyremo.c **** 		ready=1;
2348:VS4210/keyremo.c **** 
2349:VS4210/keyremo.c **** 		if((updn_reg[0] == 0) && (updn_reg[1] == 1) && (updn_reg[2] == 3)&& (updn_reg[3] == 2))  //UP Key
2350:VS4210/keyremo.c **** 			Key|=UPKEY;
2351:VS4210/keyremo.c **** 		if((updn_reg[0] == 3) && (updn_reg[1] == 2)&& (updn_reg[2] == 0)&& (updn_reg[3] == 1))  //UP Key
2352:VS4210/keyremo.c **** 			Key|=UPKEY;
2353:VS4210/keyremo.c **** 
2354:VS4210/keyremo.c **** 		if((updn_reg[0] == 0) && (updn_reg[1] == 2)&& (updn_reg[2] == 3)&& (updn_reg[3] == 1))  //DN Key
2355:VS4210/keyremo.c **** 			Key|=DOWNKEY;
2356:VS4210/keyremo.c **** 		if((updn_reg[0] == 3) && (updn_reg[1] == 1)&& (updn_reg[2] == 0)&& (updn_reg[3] == 2))  //DN Key
2357:VS4210/keyremo.c **** 			Key|=DOWNKEY;
2358:VS4210/keyremo.c **** 		 
2359:VS4210/keyremo.c **** 		//if(OnChangingValue==1)
2360:VS4210/keyremo.c **** 		if ((GetDisplayedOSD() & MENU) == 0) 	//william-v1.42-961203
2361:VS4210/keyremo.c **** 		{
2362:VS4210/keyremo.c **** 			if((updn_reg[0] == 1) && (updn_reg[1] == 3)&& (updn_reg[2] == 2)&& (updn_reg[3] == 0))  //UP Key
2363:VS4210/keyremo.c **** 				Key|=UPKEY;
2364:VS4210/keyremo.c **** 			if((updn_reg[0] == 2) && (updn_reg[1] == 0)&& (updn_reg[2] == 1)&& (updn_reg[3] == 3))  //UP Key
2365:VS4210/keyremo.c **** 				Key|=UPKEY;
2366:VS4210/keyremo.c **** 			if((updn_reg[0] == 2) && (updn_reg[1] == 3)&& (updn_reg[2] == 1)&& (updn_reg[3] == 0))  //DN Key
2367:VS4210/keyremo.c **** 				Key|=DOWNKEY;
2368:VS4210/keyremo.c **** 			if((updn_reg[0] == 1) && (updn_reg[1] == 0)&& (updn_reg[2] == 2)&& (updn_reg[3] == 3))  //DN Key
2369:VS4210/keyremo.c **** 				Key|=DOWNKEY;
2370:VS4210/keyremo.c **** 		}
2371:VS4210/keyremo.c **** 		ChangeKey = 0;		//william-v1.42-961130
2372:VS4210/keyremo.c **** 	}
2373:VS4210/keyremo.c **** 
2374:VS4210/keyremo.c **** #endif
2375:VS4210/keyremo.c **** 
2376:VS4210/keyremo.c **** 	if (!ready)
 1339              		.loc 1 2376 2 is_stmt 1 view .LVU328
 1340              		.loc 1 2376 5 is_stmt 0 view .LVU329
ARM GAS  C:\Users\ryanc.HS\AppData\Local\Temp\ccZ9UySd.s 			page 69


 1341 0010 0029     		cmp	r1, #0
 1342 0012 3CD0     		beq	.L89
 1343              	.LVL102:
 1344              	.L86:
2377:VS4210/keyremo.c **** 		return 0;
2378:VS4210/keyremo.c **** 	if (repeat)
 1345              		.loc 1 2378 2 is_stmt 1 view .LVU330
 1346              		.loc 1 2378 5 is_stmt 0 view .LVU331
 1347 0014 0028     		cmp	r0, #0
 1348 0016 34D1     		bne	.L92
2379:VS4210/keyremo.c **** 		return Key;
2380:VS4210/keyremo.c **** 	if (!RepeatKey)
 1349              		.loc 1 2380 2 is_stmt 1 view .LVU332
 1350              		.loc 1 2380 6 is_stmt 0 view .LVU333
 1351 0018 204B     		ldr	r3, .L96+8
 1352 001a 1B68     		ldr	r3, [r3]
 1353              		.loc 1 2380 5 view .LVU334
 1354 001c 002B     		cmp	r3, #0
 1355 001e 33D0     		beq	.L93
 1356              	.LVL103:
 1357              	.L87:
2381:VS4210/keyremo.c **** 		return Key;
2382:VS4210/keyremo.c **** 
2383:VS4210/keyremo.c **** 	return 0;
2384:VS4210/keyremo.c **** }
 1358              		.loc 1 2384 1 view .LVU335
 1359 0020 7047     		bx	lr
 1360              	.LVL104:
 1361              	.L91:
2254:VS4210/keyremo.c **** 	{
 1362              		.loc 1 2254 31 discriminator 1 view .LVU336
 1363 0022 1F4B     		ldr	r3, .L96+12
 1364 0024 1B78     		ldrb	r3, [r3]	@ zero_extendqisi2
2254:VS4210/keyremo.c **** 	{
 1365              		.loc 1 2254 23 discriminator 1 view .LVU337
 1366 0026 002B     		cmp	r3, #0
 1367 0028 F2D1     		bne	.L83
2257:VS4210/keyremo.c **** 
 1368              		.loc 1 2257 3 is_stmt 1 view .LVU338
 1369              	.LVL105:
2266:VS4210/keyremo.c **** 			Key |= DOWNKEY;
 1370              		.loc 1 2266 3 view .LVU339
2266:VS4210/keyremo.c **** 			Key |= DOWNKEY;
 1371              		.loc 1 2266 16 is_stmt 0 view .LVU340
 1372 002a 1E4A     		ldr	r2, .L96+16
 1373 002c 1278     		ldrb	r2, [r2]	@ zero_extendqisi2
2266:VS4210/keyremo.c **** 			Key |= DOWNKEY;
 1374              		.loc 1 2266 6 view .LVU341
 1375 002e 012A     		cmp	r2, #1
 1376 0030 05D0     		beq	.L94
 1377              	.L84:
2282:VS4210/keyremo.c **** 			Key |= UPKEY;
 1378              		.loc 1 2282 8 is_stmt 1 view .LVU342
2282:VS4210/keyremo.c **** 			Key |= UPKEY;
 1379              		.loc 1 2282 11 is_stmt 0 view .LVU343
 1380 0032 022A     		cmp	r2, #2
 1381 0034 14D0     		beq	.L95
ARM GAS  C:\Users\ryanc.HS\AppData\Local\Temp\ccZ9UySd.s 			page 70


 1382              	.L85:
2319:VS4210/keyremo.c **** 	}
 1383              		.loc 1 2319 3 is_stmt 1 view .LVU344
2319:VS4210/keyremo.c **** 	}
 1384              		.loc 1 2319 13 is_stmt 0 view .LVU345
 1385 0036 184B     		ldr	r3, .L96+4
 1386 0038 0022     		movs	r2, #0
 1387 003a 1A60     		str	r2, [r3]
2376:VS4210/keyremo.c **** 		return 0;
 1388              		.loc 1 2376 2 is_stmt 1 view .LVU346
 1389 003c EAE7     		b	.L86
 1390              	.L94:
2266:VS4210/keyremo.c **** 			Key |= DOWNKEY;
 1391              		.loc 1 2266 38 is_stmt 0 discriminator 1 view .LVU347
 1392 003e 1949     		ldr	r1, .L96+16
 1393 0040 4978     		ldrb	r1, [r1, #1]	@ zero_extendqisi2
2266:VS4210/keyremo.c **** 			Key |= DOWNKEY;
 1394              		.loc 1 2266 26 discriminator 1 view .LVU348
 1395 0042 0329     		cmp	r1, #3
 1396 0044 F5D1     		bne	.L84
2266:VS4210/keyremo.c **** 			Key |= DOWNKEY;
 1397              		.loc 1 2266 60 discriminator 2 view .LVU349
 1398 0046 1749     		ldr	r1, .L96+16
 1399 0048 8978     		ldrb	r1, [r1, #2]	@ zero_extendqisi2
2266:VS4210/keyremo.c **** 			Key |= DOWNKEY;
 1400              		.loc 1 2266 48 discriminator 2 view .LVU350
 1401 004a 0229     		cmp	r1, #2
 1402 004c F1D1     		bne	.L84
2266:VS4210/keyremo.c **** 			Key |= DOWNKEY;
 1403              		.loc 1 2266 82 discriminator 3 view .LVU351
 1404 004e 1549     		ldr	r1, .L96+16
 1405 0050 C978     		ldrb	r1, [r1, #3]	@ zero_extendqisi2
2266:VS4210/keyremo.c **** 			Key |= DOWNKEY;
 1406              		.loc 1 2266 70 discriminator 3 view .LVU352
 1407 0052 0029     		cmp	r1, #0
 1408 0054 EDD1     		bne	.L84
2267:VS4210/keyremo.c **** #else
 1409              		.loc 1 2267 4 is_stmt 1 view .LVU353
2267:VS4210/keyremo.c **** #else
 1410              		.loc 1 2267 8 is_stmt 0 view .LVU354
 1411 0056 43F00203 		orr	r3, r3, #2
 1412 005a 114A     		ldr	r2, .L96+12
 1413 005c 1370     		strb	r3, [r2]
 1414 005e EAE7     		b	.L85
 1415              	.L95:
2282:VS4210/keyremo.c **** 			Key |= UPKEY;
 1416              		.loc 1 2282 43 discriminator 1 view .LVU355
 1417 0060 104A     		ldr	r2, .L96+16
 1418 0062 5278     		ldrb	r2, [r2, #1]	@ zero_extendqisi2
2282:VS4210/keyremo.c **** 			Key |= UPKEY;
 1419              		.loc 1 2282 31 discriminator 1 view .LVU356
 1420 0064 032A     		cmp	r2, #3
 1421 0066 E6D1     		bne	.L85
2282:VS4210/keyremo.c **** 			Key |= UPKEY;
 1422              		.loc 1 2282 65 discriminator 2 view .LVU357
 1423 0068 0E4A     		ldr	r2, .L96+16
 1424 006a 9278     		ldrb	r2, [r2, #2]	@ zero_extendqisi2
ARM GAS  C:\Users\ryanc.HS\AppData\Local\Temp\ccZ9UySd.s 			page 71


2282:VS4210/keyremo.c **** 			Key |= UPKEY;
 1425              		.loc 1 2282 53 discriminator 2 view .LVU358
 1426 006c 012A     		cmp	r2, #1
 1427 006e E2D1     		bne	.L85
2282:VS4210/keyremo.c **** 			Key |= UPKEY;
 1428              		.loc 1 2282 87 discriminator 3 view .LVU359
 1429 0070 0C4A     		ldr	r2, .L96+16
 1430 0072 D278     		ldrb	r2, [r2, #3]	@ zero_extendqisi2
2282:VS4210/keyremo.c **** 			Key |= UPKEY;
 1431              		.loc 1 2282 75 discriminator 3 view .LVU360
 1432 0074 002A     		cmp	r2, #0
 1433 0076 DED1     		bne	.L85
2283:VS4210/keyremo.c **** 			//	else if((updn_reg[0] == 1) && (updn_reg[1] == 0)&& (updn_reg[2] == 2)&& (updn_reg[3] == 3)) /
 1434              		.loc 1 2283 4 is_stmt 1 view .LVU361
2283:VS4210/keyremo.c **** 			//	else if((updn_reg[0] == 1) && (updn_reg[1] == 0)&& (updn_reg[2] == 2)&& (updn_reg[3] == 3)) /
 1435              		.loc 1 2283 8 is_stmt 0 view .LVU362
 1436 0078 43F00103 		orr	r3, r3, #1
 1437 007c 084A     		ldr	r2, .L96+12
 1438 007e 1370     		strb	r3, [r2]
 1439 0080 D9E7     		b	.L85
 1440              	.LVL106:
 1441              	.L92:
2379:VS4210/keyremo.c **** 	if (!RepeatKey)
 1442              		.loc 1 2379 3 is_stmt 1 view .LVU363
2379:VS4210/keyremo.c **** 	if (!RepeatKey)
 1443              		.loc 1 2379 10 is_stmt 0 view .LVU364
 1444 0082 074B     		ldr	r3, .L96+12
 1445 0084 1878     		ldrb	r0, [r3]	@ zero_extendqisi2
 1446              	.LVL107:
2379:VS4210/keyremo.c **** 	if (!RepeatKey)
 1447              		.loc 1 2379 10 view .LVU365
 1448 0086 7047     		bx	lr
 1449              	.LVL108:
 1450              	.L93:
2381:VS4210/keyremo.c **** 
 1451              		.loc 1 2381 3 is_stmt 1 view .LVU366
2381:VS4210/keyremo.c **** 
 1452              		.loc 1 2381 10 is_stmt 0 view .LVU367
 1453 0088 054B     		ldr	r3, .L96+12
 1454 008a 1878     		ldrb	r0, [r3]	@ zero_extendqisi2
 1455              	.LVL109:
2381:VS4210/keyremo.c **** 
 1456              		.loc 1 2381 10 view .LVU368
 1457 008c 7047     		bx	lr
 1458              	.LVL110:
 1459              	.L89:
2377:VS4210/keyremo.c **** 	if (repeat)
 1460              		.loc 1 2377 10 view .LVU369
 1461 008e 0020     		movs	r0, #0
 1462              	.LVL111:
2377:VS4210/keyremo.c **** 	if (repeat)
 1463              		.loc 1 2377 10 view .LVU370
 1464 0090 C6E7     		b	.L87
 1465              	.L97:
 1466 0092 00BF     		.align	2
 1467              	.L96:
 1468 0094 00000000 		.word	KeyReady
ARM GAS  C:\Users\ryanc.HS\AppData\Local\Temp\ccZ9UySd.s 			page 72


 1469 0098 00000000 		.word	ChangeKey
 1470 009c 00000000 		.word	RepeatKey
 1471 00a0 00000000 		.word	Key
 1472 00a4 00000000 		.word	.LANCHOR7
 1473              		.cfi_endproc
 1474              	.LFE83:
 1476              		.section	.rodata.SetSelectCAMRD.str1.4,"aMS",%progbits,1
 1477              		.align	2
 1478              	.LC7:
 1479 0000 28536574 		.ascii	"(SetSelectCAMRD..)\015\012\000"
 1479      53656C65 
 1479      63744341 
 1479      4D52442E 
 1479      2E290D0A 
 1480 0015 000000   		.align	2
 1481              	.LC8:
 1482 0018 285A3129 		.ascii	"(Z1) index=%02x\015\012\000"
 1482      20696E64 
 1482      65783D25 
 1482      3032780D 
 1482      0A00
 1483 002a 0000     		.align	2
 1484              	.LC9:
 1485 002c 285A3229 		.ascii	"(Z2) index=%02x\015\012\000"
 1485      20696E64 
 1485      65783D25 
 1485      3032780D 
 1485      0A00
 1486 003e 0000     		.align	2
 1487              	.LC10:
 1488 0040 282A4348 		.ascii	"(*CHange D index=%02x SEQFlag=%02x VideoD=%02x)\015"
 1488      616E6765 
 1488      20442069 
 1488      6E646578 
 1488      3D253032 
 1489 0070 0A00     		.ascii	"\012\000"
 1490 0072 0000     		.align	2
 1491              	.LC11:
 1492 0074 2843414D 		.ascii	"(CAMD)\015\012\000"
 1492      44290D0A 
 1492      00
 1493 007d 000000   		.align	2
 1494              	.LC12:
 1495 0080 28526573 		.ascii	"(Reset CAMD)\015\012\000"
 1495      65742043 
 1495      414D4429 
 1495      0D0A00
 1496 008f 00       		.align	2
 1497              	.LC13:
 1498 0090 282A4368 		.ascii	"(*Change C index=%02x VideoR=%02x)\000"
 1498      616E6765 
 1498      20432069 
 1498      6E646578 
 1498      3D253032 
 1499 00b3 00       		.align	2
 1500              	.LC14:
 1501 00b4 2843414D 		.ascii	"(CAMR)\015\012\000"
ARM GAS  C:\Users\ryanc.HS\AppData\Local\Temp\ccZ9UySd.s 			page 73


 1501      52290D0A 
 1501      00
 1502 00bd 000000   		.align	2
 1503              	.LC15:
 1504 00c0 28526573 		.ascii	"(Reset CAMR)\015\012\000"
 1504      65742043 
 1504      414D5229 
 1504      0D0A00
 1505 00cf 00       		.align	2
 1506              	.LC16:
 1507 00d0 282A5031 		.ascii	"(*P1)\000"
 1507      2900
 1508 00d6 0000     		.align	2
 1509              	.LC17:
 1510 00d8 282A5032 		.ascii	"(*P2)\000"
 1510      2900
 1511              		.section	.text.SetSelectCAMRD,"ax",%progbits
 1512              		.align	1
 1513              		.global	SetSelectCAMRD
 1514              		.syntax unified
 1515              		.thumb
 1516              		.thumb_func
 1517              		.fpu softvfp
 1519              	SetSelectCAMRD:
 1520              	.LVL112:
 1521              	.LFB85:
2385:VS4210/keyremo.c **** 
2386:VS4210/keyremo.c **** //=============================================================================
2387:VS4210/keyremo.c **** //		CheckRemo
2388:VS4210/keyremo.c **** //=============================================================================
2389:VS4210/keyremo.c **** #if 0 // def REMO_RC5
2390:VS4210/keyremo.c **** 
2391:VS4210/keyremo.c **** BYTE IsRemoDataReady(BYTE *DataCode, BYTE *AutoKey)
2392:VS4210/keyremo.c **** {
2393:VS4210/keyremo.c **** 	bit togglebit;
2394:VS4210/keyremo.c **** 	static bit	LastToggle=0;
2395:VS4210/keyremo.c **** 	static BYTE AutoWait=0;
2396:VS4210/keyremo.c **** 
2397:VS4210/keyremo.c **** 	BYTE _RemoSystemCode, _RemoDataCode, _RemoDataReady;
2398:VS4210/keyremo.c **** 
2399:VS4210/keyremo.c **** 	if( !RemoDataReady ) return 0;
2400:VS4210/keyremo.c **** 
2401:VS4210/keyremo.c **** 	_RemoDataReady = RemoDataReady;
2402:VS4210/keyremo.c **** 	_RemoDataCode = RemoDataCode;
2403:VS4210/keyremo.c **** 	_RemoSystemCode = RemoSystemCode;
2404:VS4210/keyremo.c **** 
2405:VS4210/keyremo.c **** 	*AutoKey = 0;
2406:VS4210/keyremo.c **** 
2407:VS4210/keyremo.c **** 	EnableRemoconInt();
2408:VS4210/keyremo.c **** 
2409:VS4210/keyremo.c **** #ifdef DEBUG_KEYREMO
2410:VS4210/keyremo.c **** 	dPrintf("\r\n(CheckRemo)R-S:%02x, R-D:%02x", (WORD)_RemoSystemCode, (WORD)_RemoDataCode);
2411:VS4210/keyremo.c **** #endif
2412:VS4210/keyremo.c **** 
2413:VS4210/keyremo.c **** 	if( (_RemoSystemCode & 0xc0) != 0xc0 ) return 0;
2414:VS4210/keyremo.c **** 	if( (_RemoSystemCode & 0x1f) != REMO_CUSTOM ) return 0;
2415:VS4210/keyremo.c **** 
ARM GAS  C:\Users\ryanc.HS\AppData\Local\Temp\ccZ9UySd.s 			page 74


2416:VS4210/keyremo.c **** 	togglebit = LastToggle;
2417:VS4210/keyremo.c **** 	if( _RemoSystemCode & 0x20 ) LastToggle = 1;
2418:VS4210/keyremo.c **** 	else LastToggle = 0;
2419:VS4210/keyremo.c **** 
2420:VS4210/keyremo.c **** #ifdef DEBUG_KEYREMO
2421:VS4210/keyremo.c **** 	dPrintf("**** %d  %d ", (WORD)LastToggle, (WORD)_RemoDataReady);
2422:VS4210/keyremo.c **** #endif
2423:VS4210/keyremo.c **** 
2424:VS4210/keyremo.c **** 	if( LastToggle != togglebit ) {			// new key
2425:VS4210/keyremo.c **** 		AutoWait =  0;
2426:VS4210/keyremo.c **** 	}
2427:VS4210/keyremo.c **** 	else if( AutoWait>=4 ) {				// auto key
2428:VS4210/keyremo.c **** 		AutoWait++;
2429:VS4210/keyremo.c **** 		if( AutoWait>=6 ) {
2430:VS4210/keyremo.c **** 			AutoWait = 4;
2431:VS4210/keyremo.c **** 			*AutoKey = 1;
2432:VS4210/keyremo.c **** 		}
2433:VS4210/keyremo.c **** 		else return 0;
2434:VS4210/keyremo.c **** 	}
2435:VS4210/keyremo.c **** 	else {									// wait auto key
2436:VS4210/keyremo.c **** 		AutoWait++;
2437:VS4210/keyremo.c **** 		return 0;
2438:VS4210/keyremo.c **** 	}
2439:VS4210/keyremo.c **** 
2440:VS4210/keyremo.c **** #ifdef DEBUG_KEYREMO
2441:VS4210/keyremo.c **** 	if( *AutoKey ) {
2442:VS4210/keyremo.c **** 		dPuts(" ---> AutoKey ");
2443:VS4210/keyremo.c **** 	}
2444:VS4210/keyremo.c **** 	else {
2445:VS4210/keyremo.c **** 		dPuts(" ---> New Key ");
2446:VS4210/keyremo.c **** 	}
2447:VS4210/keyremo.c **** #endif
2448:VS4210/keyremo.c **** 
2449:VS4210/keyremo.c **** 	*DataCode = _RemoDataCode;
2450:VS4210/keyremo.c **** 	return 1;
2451:VS4210/keyremo.c **** }
2452:VS4210/keyremo.c **** 
2453:VS4210/keyremo.c **** ///#elif defined REMO_NEC
2454:VS4210/keyremo.c **** extern DATA		BYTE	 RemoData[4];
2455:VS4210/keyremo.c **** 
2456:VS4210/keyremo.c **** BYTE IsRemoDataReady(BYTE *DataCode, BYTE *AutoKey)
2457:VS4210/keyremo.c **** {
2458:VS4210/keyremo.c **** 	static BYTE AutoWait=0;
2459:VS4210/keyremo.c **** 	static IDATA BYTE LastDataCode=0xff;
2460:VS4210/keyremo.c **** 	static IDATA BYTE repeatcnt=0;
2461:VS4210/keyremo.c **** 	BYTE ret =0 ;
2462:VS4210/keyremo.c **** 
2463:VS4210/keyremo.c **** 	*AutoKey = 0;
2464:VS4210/keyremo.c **** 	switch ( RemoDataReady ) {
2465:VS4210/keyremo.c **** 
2466:VS4210/keyremo.c **** 	case 0: return 0;
2467:VS4210/keyremo.c **** 
2468:VS4210/keyremo.c **** 	case 1:
2469:VS4210/keyremo.c **** #ifdef DEBUG_KEYREMO
2470:VS4210/keyremo.c **** 		dPrintf("\r\nNEC RemoData = %02x %02x %02x %02x", (WORD)RemoData[0], (WORD)RemoData[1], (WORD)Rem
2471:VS4210/keyremo.c **** #endif
2472:VS4210/keyremo.c **** 		if( (RemoData[0]==REMO_CUSTOM1) && (RemoData[1]==REMO_CUSTOM2 ) && (RemoData[2]+RemoData[3])==0xf
ARM GAS  C:\Users\ryanc.HS\AppData\Local\Temp\ccZ9UySd.s 			page 75


2473:VS4210/keyremo.c **** 			RemoDataCode = RemoData[2];
2474:VS4210/keyremo.c **** 			LastDataCode = RemoDataCode;
2475:VS4210/keyremo.c **** 			AutoWait = 0;
2476:VS4210/keyremo.c **** 			*AutoKey = 0;
2477:VS4210/keyremo.c **** 			repeatcnt = 0;
2478:VS4210/keyremo.c **** 		}
2479:VS4210/keyremo.c **** 		else {
2480:VS4210/keyremo.c **** 			RemoDataCode = 0xff;
2481:VS4210/keyremo.c **** 			LastDataCode = 0xff;
2482:VS4210/keyremo.c **** 
2483:VS4210/keyremo.c **** 			EnableRemoconInt();		//
2484:VS4210/keyremo.c **** 			return 0;
2485:VS4210/keyremo.c **** 		}
2486:VS4210/keyremo.c **** 		break;
2487:VS4210/keyremo.c **** 
2488:VS4210/keyremo.c **** 	case 2:
2489:VS4210/keyremo.c **** 		AutoWait++;
2490:VS4210/keyremo.c **** 		if( AutoWait>=6 ) {
2491:VS4210/keyremo.c **** 			RemoDataCode = LastDataCode;
2492:VS4210/keyremo.c **** 			repeatcnt++;
2493:VS4210/keyremo.c **** 			if( repeatcnt>=5 ) {
2494:VS4210/keyremo.c **** 				AutoWait = 5;
2495:VS4210/keyremo.c **** 			}
2496:VS4210/keyremo.c **** 			else
2497:VS4210/keyremo.c **** 				AutoWait = 4;
2498:VS4210/keyremo.c **** 
2499:VS4210/keyremo.c **** 			*AutoKey = 1;
2500:VS4210/keyremo.c **** 		}
2501:VS4210/keyremo.c **** 		else {
2502:VS4210/keyremo.c **** 			EnableRemoconInt();		//
2503:VS4210/keyremo.c **** 			return 0;
2504:VS4210/keyremo.c **** 		}
2505:VS4210/keyremo.c **** 		break;
2506:VS4210/keyremo.c **** 
2507:VS4210/keyremo.c **** 	}
2508:VS4210/keyremo.c **** 
2509:VS4210/keyremo.c **** 	EnableRemoconInt();		////LJY052902
2510:VS4210/keyremo.c **** 	if( RemoDataCode==0xff )	return 0;
2511:VS4210/keyremo.c **** 
2512:VS4210/keyremo.c **** #ifdef DEBUG_KEYREMO
2513:VS4210/keyremo.c **** 	dPrintf("(R-D:%02x)  ", (WORD)RemoDataCode);
2514:VS4210/keyremo.c **** #endif
2515:VS4210/keyremo.c **** 
2516:VS4210/keyremo.c **** 	*DataCode = RemoDataCode;
2517:VS4210/keyremo.c **** 	return 1;
2518:VS4210/keyremo.c **** }
2519:VS4210/keyremo.c **** 
2520:VS4210/keyremo.c **** #endif // REMO_NEC
2521:VS4210/keyremo.c **** 
2522:VS4210/keyremo.c **** #if 0 // def SUPPORT_2835_CLK_TUNE_BACK_DOOR  //Pinchi 20160929 add
2523:VS4210/keyremo.c **** void HS_Display2835ClkTuneVal(WORD val)
2524:VS4210/keyremo.c **** {
2525:VS4210/keyremo.c **** 	BYTE mstr[]={ ' ',' ' };
2526:VS4210/keyremo.c **** 	//Printf("\r\n[MSG]Display2835ClkTuneVal()=> enter to draw 2835ClkTuneVal",0);  //pinchi test
2527:VS4210/keyremo.c **** 	mstr[1] =  val % 10 + '0';	 val /= 10;
2528:VS4210/keyremo.c **** 	mstr[0] = val + '0';
2529:VS4210/keyremo.c **** 
ARM GAS  C:\Users\ryanc.HS\AppData\Local\Temp\ccZ9UySd.s 			page 76


2530:VS4210/keyremo.c **** 	InitOSDWindow(Init_Osd_DisplayInput_B);
2531:VS4210/keyremo.c **** 	SetDisplayedOSD(INPUTINFO);
2532:VS4210/keyremo.c **** 	ClearDataCnt(INPUTINFO_ADDR, 2);
2533:VS4210/keyremo.c **** 	DrawAttrCnt(INPUTINFO_ADDR , BG_COLOR_CYAN|CH_COLOR_WHITE, 2);
2534:VS4210/keyremo.c **** 	WriteStringToAddr(INPUTINFO_ADDR , mstr, 2);
2535:VS4210/keyremo.c **** 	
2536:VS4210/keyremo.c **** 	ShowOSDWindow(INPUTINFO_OSDWIN-1,TRUE);
2537:VS4210/keyremo.c **** 	ShowOSDWindowAll(1);  //0x09c  4bit : OSD ON, 1: OSD OFF
2538:VS4210/keyremo.c **** }
2539:VS4210/keyremo.c **** #endif
2540:VS4210/keyremo.c **** void CheckCAMDInputVideo(BYTE index)
2541:VS4210/keyremo.c **** {
2542:VS4210/keyremo.c **** 	WORD usNum;
2543:VS4210/keyremo.c **** 
2544:VS4210/keyremo.c **** 	SetSelectCAMRD(index);
2545:VS4210/keyremo.c **** 	Printf("(\r\n(*CheckCAMDInputVideo=%d)", (WORD)index);
2546:VS4210/keyremo.c **** //	usNum=100;
2547:VS4210/keyremo.c **** #if (RECALL_SORUCE_RESET == OFF)
2548:VS4210/keyremo.c **** 	usNum = 50;
2549:VS4210/keyremo.c **** #else
2550:VS4210/keyremo.c **** 	usNum = 20;
2551:VS4210/keyremo.c **** #endif
2552:VS4210/keyremo.c **** 	g_bNotifyTimer0Int = _FALSE;
2553:VS4210/keyremo.c **** 
2554:VS4210/keyremo.c **** 	while (_TRUE)
2555:VS4210/keyremo.c **** 	{
2556:VS4210/keyremo.c **** 		if (g_bNotifyTimer0Int)
2557:VS4210/keyremo.c **** 		{
2558:VS4210/keyremo.c **** 			g_bNotifyTimer0Int = _FALSE;
2559:VS4210/keyremo.c **** 
2560:VS4210/keyremo.c **** 			if (--usNum)
2561:VS4210/keyremo.c **** 			{
2562:VS4210/keyremo.c **** 				EQ_Detect();
2563:VS4210/keyremo.c **** 			}
2564:VS4210/keyremo.c **** 			else
2565:VS4210/keyremo.c **** 			{
2566:VS4210/keyremo.c **** 
2567:VS4210/keyremo.c **** 				return;
2568:VS4210/keyremo.c **** 			}
2569:VS4210/keyremo.c **** 		}
2570:VS4210/keyremo.c **** 	}
2571:VS4210/keyremo.c **** }
2572:VS4210/keyremo.c **** 
2573:VS4210/keyremo.c **** void SetSelectCAMRD(BYTE index)
2574:VS4210/keyremo.c **** {
 1522              		.loc 1 2574 1 is_stmt 1 view -0
 1523              		.cfi_startproc
 1524              		@ args = 0, pretend = 0, frame = 0
 1525              		@ frame_needed = 0, uses_anonymous_args = 0
 1526              		.loc 1 2574 1 is_stmt 0 view .LVU372
 1527 0000 2DE9F84F 		push	{r3, r4, r5, r6, r7, r8, r9, r10, fp, lr}
 1528              	.LCFI8:
 1529              		.cfi_def_cfa_offset 40
 1530              		.cfi_offset 3, -40
 1531              		.cfi_offset 4, -36
 1532              		.cfi_offset 5, -32
 1533              		.cfi_offset 6, -28
ARM GAS  C:\Users\ryanc.HS\AppData\Local\Temp\ccZ9UySd.s 			page 77


 1534              		.cfi_offset 7, -24
 1535              		.cfi_offset 8, -20
 1536              		.cfi_offset 9, -16
 1537              		.cfi_offset 10, -12
 1538              		.cfi_offset 11, -8
 1539              		.cfi_offset 14, -4
 1540 0004 0446     		mov	r4, r0
2575:VS4210/keyremo.c **** 
2576:VS4210/keyremo.c **** 	BYTE modeR, stdR;
 1541              		.loc 1 2576 2 is_stmt 1 view .LVU373
2577:VS4210/keyremo.c **** 	BYTE modeD, stdD;
 1542              		.loc 1 2577 2 view .LVU374
2578:VS4210/keyremo.c **** 	BYTE VideoD, VideoR;
 1543              		.loc 1 2578 2 view .LVU375
2579:VS4210/keyremo.c **** 	BYTE change = 0;
 1544              		.loc 1 2579 2 view .LVU376
 1545              	.LVL113:
2580:VS4210/keyremo.c **** 
2581:VS4210/keyremo.c **** 	stdR = ReadEEP(EEP_TP2824_STD3);
 1546              		.loc 1 2581 2 view .LVU377
 1547              		.loc 1 2581 9 is_stmt 0 view .LVU378
 1548 0006 D020     		movs	r0, #208
 1549              	.LVL114:
 1550              		.loc 1 2581 9 view .LVU379
 1551 0008 FFF7FEFF 		bl	ReadEEP
 1552              	.LVL115:
 1553 000c 8246     		mov	r10, r0
 1554              	.LVL116:
2582:VS4210/keyremo.c **** 	modeR = ReadEEP(EEP_TP2824_MODE3);
 1555              		.loc 1 2582 2 is_stmt 1 view .LVU380
 1556              		.loc 1 2582 10 is_stmt 0 view .LVU381
 1557 000e D120     		movs	r0, #209
 1558 0010 FFF7FEFF 		bl	ReadEEP
 1559              	.LVL117:
 1560 0014 8046     		mov	r8, r0
 1561              	.LVL118:
2583:VS4210/keyremo.c **** 	VideoR = ReadEEP(EEP_TP2824_SAVE3);
 1562              		.loc 1 2583 2 is_stmt 1 view .LVU382
 1563              		.loc 1 2583 11 is_stmt 0 view .LVU383
 1564 0016 D220     		movs	r0, #210
 1565 0018 FFF7FEFF 		bl	ReadEEP
 1566              	.LVL119:
 1567 001c 0546     		mov	r5, r0
 1568              	.LVL120:
2584:VS4210/keyremo.c **** 
2585:VS4210/keyremo.c **** 	stdD = ReadEEP(EEP_TP2824_STD4);
 1569              		.loc 1 2585 2 is_stmt 1 view .LVU384
 1570              		.loc 1 2585 9 is_stmt 0 view .LVU385
 1571 001e D320     		movs	r0, #211
 1572 0020 FFF7FEFF 		bl	ReadEEP
 1573              	.LVL121:
 1574 0024 8146     		mov	r9, r0
 1575              	.LVL122:
2586:VS4210/keyremo.c **** 	modeD = ReadEEP(EEP_TP2824_MODE4);
 1576              		.loc 1 2586 2 is_stmt 1 view .LVU386
 1577              		.loc 1 2586 10 is_stmt 0 view .LVU387
 1578 0026 D420     		movs	r0, #212
ARM GAS  C:\Users\ryanc.HS\AppData\Local\Temp\ccZ9UySd.s 			page 78


 1579 0028 FFF7FEFF 		bl	ReadEEP
 1580              	.LVL123:
 1581 002c 0746     		mov	r7, r0
 1582              	.LVL124:
2587:VS4210/keyremo.c **** 	VideoD = ReadEEP(EEP_TP2824_SAVE4);
 1583              		.loc 1 2587 2 is_stmt 1 view .LVU388
 1584              		.loc 1 2587 11 is_stmt 0 view .LVU389
 1585 002e D520     		movs	r0, #213
 1586 0030 FFF7FEFF 		bl	ReadEEP
 1587              	.LVL125:
 1588 0034 0646     		mov	r6, r0
 1589              	.LVL126:
2588:VS4210/keyremo.c **** 
2589:VS4210/keyremo.c **** #if (_DEBUG_MESSAGE_Source_Change == ON)
2590:VS4210/keyremo.c **** 	GraphicsPrint(YELLOW, "(SetSelectCAMRD..)\r\n");
 1590              		.loc 1 2590 2 is_stmt 1 view .LVU390
 1591 0036 6D49     		ldr	r1, .L123
 1592 0038 0320     		movs	r0, #3
 1593 003a FFF7FEFF 		bl	GraphicsPrint
 1594              	.LVL127:
2591:VS4210/keyremo.c **** #endif
2592:VS4210/keyremo.c **** 
2593:VS4210/keyremo.c **** 	switch (index)
 1595              		.loc 1 2593 2 view .LVU391
 1596 003e 372C     		cmp	r4, #55
 1597 0040 45D8     		bhi	.L113
 1598 0042 DFE804F0 		tbb	[pc, r4]
 1599              	.L101:
 1600 0046 1C       		.byte	(.L100-.L101)/2
 1601 0047 1C       		.byte	(.L100-.L101)/2
 1602 0048 1C       		.byte	(.L100-.L101)/2
 1603 0049 1C       		.byte	(.L100-.L101)/2
 1604 004a 3D       		.byte	(.L102-.L101)/2
 1605 004b 1C       		.byte	(.L100-.L101)/2
 1606 004c 1C       		.byte	(.L100-.L101)/2
 1607 004d 1C       		.byte	(.L100-.L101)/2
 1608 004e 1C       		.byte	(.L100-.L101)/2
 1609 004f 1C       		.byte	(.L100-.L101)/2
 1610 0050 1C       		.byte	(.L100-.L101)/2
 1611 0051 1C       		.byte	(.L100-.L101)/2
 1612 0052 1C       		.byte	(.L100-.L101)/2
 1613 0053 44       		.byte	(.L113-.L101)/2
 1614 0054 1C       		.byte	(.L100-.L101)/2
 1615 0055 1C       		.byte	(.L100-.L101)/2
 1616 0056 1C       		.byte	(.L100-.L101)/2
 1617 0057 1C       		.byte	(.L100-.L101)/2
 1618 0058 1C       		.byte	(.L100-.L101)/2
 1619 0059 1C       		.byte	(.L100-.L101)/2
 1620 005a 1C       		.byte	(.L100-.L101)/2
 1621 005b 1C       		.byte	(.L100-.L101)/2
 1622 005c 1C       		.byte	(.L100-.L101)/2
 1623 005d 1C       		.byte	(.L100-.L101)/2
 1624 005e 1C       		.byte	(.L100-.L101)/2
 1625 005f 1C       		.byte	(.L100-.L101)/2
 1626 0060 1C       		.byte	(.L100-.L101)/2
 1627 0061 1C       		.byte	(.L100-.L101)/2
 1628 0062 1C       		.byte	(.L100-.L101)/2
ARM GAS  C:\Users\ryanc.HS\AppData\Local\Temp\ccZ9UySd.s 			page 79


 1629 0063 1C       		.byte	(.L100-.L101)/2
 1630 0064 1C       		.byte	(.L100-.L101)/2
 1631 0065 1C       		.byte	(.L100-.L101)/2
 1632 0066 1C       		.byte	(.L100-.L101)/2
 1633 0067 1C       		.byte	(.L100-.L101)/2
 1634 0068 1C       		.byte	(.L100-.L101)/2
 1635 0069 1C       		.byte	(.L100-.L101)/2
 1636 006a 1C       		.byte	(.L100-.L101)/2
 1637 006b 1C       		.byte	(.L100-.L101)/2
 1638 006c 1C       		.byte	(.L100-.L101)/2
 1639 006d 1C       		.byte	(.L100-.L101)/2
 1640 006e 1C       		.byte	(.L100-.L101)/2
 1641 006f 1C       		.byte	(.L100-.L101)/2
 1642 0070 1C       		.byte	(.L100-.L101)/2
 1643 0071 1C       		.byte	(.L100-.L101)/2
 1644 0072 1C       		.byte	(.L100-.L101)/2
 1645 0073 1C       		.byte	(.L100-.L101)/2
 1646 0074 1C       		.byte	(.L100-.L101)/2
 1647 0075 1C       		.byte	(.L100-.L101)/2
 1648 0076 1C       		.byte	(.L100-.L101)/2
 1649 0077 1C       		.byte	(.L100-.L101)/2
 1650 0078 1C       		.byte	(.L100-.L101)/2
 1651 0079 1C       		.byte	(.L100-.L101)/2
 1652 007a 1C       		.byte	(.L100-.L101)/2
 1653 007b 1C       		.byte	(.L100-.L101)/2
 1654 007c 1C       		.byte	(.L100-.L101)/2
 1655 007d 1C       		.byte	(.L100-.L101)/2
 1656              		.p2align 1
 1657              	.L100:
2594:VS4210/keyremo.c **** 	{
2595:VS4210/keyremo.c **** 	case VS4210_LOOP_MODE0_w0:
2596:VS4210/keyremo.c **** 	case VS4210_LOOP_MODE0_w1:
2597:VS4210/keyremo.c **** 	case VS4210_LOOP_MODE0_w2:
2598:VS4210/keyremo.c **** 	case VS4210_LOOP_MODE0_w3:
2599:VS4210/keyremo.c **** 	case VS4210_LOOP_MODE1:
2600:VS4210/keyremo.c **** 	case VS4210_LOOP_MODE2:
2601:VS4210/keyremo.c **** 	case VS4210_LOOP_MODE10_123:
2602:VS4210/keyremo.c **** 	case VS4210_LOOP_MODE8:
2603:VS4210/keyremo.c **** 	case VS4210_LOOP_MODE9:
2604:VS4210/keyremo.c **** 	case VS4210_LOOP_MODE12_12:
2605:VS4210/keyremo.c **** 	case VS4210_LOOP_MODE12_34:
2606:VS4210/keyremo.c **** 	case VS4210_LOOP_MODE12_14:
2607:VS4210/keyremo.c **** 	case VS4210_LOOP_MODE12_42:
2608:VS4210/keyremo.c **** 	case VS4210_LOOP_MODE12_43:
2609:VS4210/keyremo.c **** 	case VS4210_LOOP_MODE12_21:
2610:VS4210/keyremo.c **** 	case VS4210_LOOP_MODE12_23:
2611:VS4210/keyremo.c **** 	case VS4210_LOOP_MODE12_24:
2612:VS4210/keyremo.c **** 	case VS4210_LOOP_MODE12_13:
2613:VS4210/keyremo.c **** 	case VS4210_LOOP_MODE12_31:
2614:VS4210/keyremo.c **** 	case VS4210_LOOP_MODE12_32:
2615:VS4210/keyremo.c **** 	case VS4210_LOOP_MODE8_412:
2616:VS4210/keyremo.c **** 	case VS4210_LOOP_MODE8_123:
2617:VS4210/keyremo.c **** 	case VS4210_LOOP_MODE8_124:
2618:VS4210/keyremo.c **** 	case VS4210_LOOP_MODE8_134:
2619:VS4210/keyremo.c **** 	case VS4210_LOOP_MODE8_213:
2620:VS4210/keyremo.c **** 	case VS4210_LOOP_MODE8_214:
2621:VS4210/keyremo.c **** 	case VS4210_LOOP_MODE8_234:
ARM GAS  C:\Users\ryanc.HS\AppData\Local\Temp\ccZ9UySd.s 			page 80


2622:VS4210/keyremo.c **** 	case VS4210_LOOP_MODE8_312:
2623:VS4210/keyremo.c **** 	case VS4210_LOOP_MODE8_314:
2624:VS4210/keyremo.c **** 	case VS4210_LOOP_MODE8_324:
2625:VS4210/keyremo.c **** 	case VS4210_LOOP_MODE10_412:
2626:VS4210/keyremo.c **** 	case VS4210_LOOP_MODE10_413:
2627:VS4210/keyremo.c **** 	case VS4210_LOOP_MODE10_423:
2628:VS4210/keyremo.c **** 	case VS4210_LOOP_MODE8_413:
2629:VS4210/keyremo.c **** 	case VS4210_LOOP_MODE8_423:
2630:VS4210/keyremo.c **** 	case VS4210_LOOP_MODE14:
2631:VS4210/keyremo.c **** 	case VS4210_LOOP_MODE9_412:
2632:VS4210/keyremo.c **** 	case VS4210_LOOP_MODE9_123:
2633:VS4210/keyremo.c **** 	case VS4210_LOOP_MODE9_124:
2634:VS4210/keyremo.c **** 	case VS4210_LOOP_MODE9_134:
2635:VS4210/keyremo.c **** 	case VS4210_LOOP_MODE9_213:
2636:VS4210/keyremo.c **** 	case VS4210_LOOP_MODE9_214:
2637:VS4210/keyremo.c **** 	case VS4210_LOOP_MODE9_234:
2638:VS4210/keyremo.c **** 	case VS4210_LOOP_MODE9_312:
2639:VS4210/keyremo.c **** 	case VS4210_LOOP_MODE9_314:
2640:VS4210/keyremo.c **** 	case VS4210_LOOP_MODE9_324:
2641:VS4210/keyremo.c **** 	case VS4210_LOOP_MODE10_124:
2642:VS4210/keyremo.c **** 	case VS4210_LOOP_MODE10_134:
2643:VS4210/keyremo.c **** 	case VS4210_LOOP_MODE10_213:
2644:VS4210/keyremo.c **** 	case VS4210_LOOP_MODE10_214:
2645:VS4210/keyremo.c **** 	case VS4210_LOOP_MODE10_234:
2646:VS4210/keyremo.c **** 	case VS4210_LOOP_MODE10_312:
2647:VS4210/keyremo.c **** 	case VS4210_LOOP_MODE10_314:
2648:VS4210/keyremo.c **** 	case VS4210_LOOP_MODE10_324:
2649:VS4210/keyremo.c **** 
2650:VS4210/keyremo.c **** 		change = SelectCameraR;
 1658              		.loc 1 2650 3 view .LVU392
 1659              	.LVL128:
2651:VS4210/keyremo.c **** #if (_DEBUG_MESSAGE_Source_Change == ON)
2652:VS4210/keyremo.c **** 		GraphicsPrint(RED, "(Z1) index=%02x\r\n", (WORD)index);
 1660              		.loc 1 2652 3 view .LVU393
 1661 007e 2246     		mov	r2, r4
 1662 0080 5B49     		ldr	r1, .L123+4
 1663 0082 0120     		movs	r0, #1
 1664 0084 FFF7FEFF 		bl	GraphicsPrint
 1665              	.LVL129:
2653:VS4210/keyremo.c **** #endif
2654:VS4210/keyremo.c **** 		break;
 1666              		.loc 1 2654 3 view .LVU394
2650:VS4210/keyremo.c **** #if (_DEBUG_MESSAGE_Source_Change == ON)
 1667              		.loc 1 2650 10 is_stmt 0 view .LVU395
 1668 0088 0322     		movs	r2, #3
 1669              	.LVL130:
 1670              	.L99:
2655:VS4210/keyremo.c **** 	case VS4210_LOOP_MODE0_w4:
2656:VS4210/keyremo.c **** 		change = SelectCameraD;
2657:VS4210/keyremo.c **** #if (_DEBUG_MESSAGE_Source_Change == ON)
2658:VS4210/keyremo.c **** 		GraphicsPrint(RED, "(Z2) index=%02x\r\n", (WORD)index);
2659:VS4210/keyremo.c **** #endif
2660:VS4210/keyremo.c **** 
2661:VS4210/keyremo.c **** 		break;
2662:VS4210/keyremo.c **** 	}
2663:VS4210/keyremo.c **** 
2664:VS4210/keyremo.c **** 	if ((bytSelectCAMRD != SelectCameraD) && (change == SelectCameraD)) /// CMAERA D
ARM GAS  C:\Users\ryanc.HS\AppData\Local\Temp\ccZ9UySd.s 			page 81


 1671              		.loc 1 2664 2 is_stmt 1 view .LVU396
 1672              		.loc 1 2664 22 is_stmt 0 view .LVU397
 1673 008a 5A4B     		ldr	r3, .L123+8
 1674 008c 1B78     		ldrb	r3, [r3]	@ zero_extendqisi2
 1675              		.loc 1 2664 5 view .LVU398
 1676 008e 042B     		cmp	r3, #4
 1677 0090 01D0     		beq	.L103
 1678              		.loc 1 2664 40 discriminator 1 view .LVU399
 1679 0092 042A     		cmp	r2, #4
 1680 0094 1DD0     		beq	.L115
 1681              	.L103:
2665:VS4210/keyremo.c **** 	{
2666:VS4210/keyremo.c **** #if (_DEBUG_MESSAGE_Source_Change == ON)
2667:VS4210/keyremo.c **** 		Printf("(*CHange D index=%02x SEQFlag=%02x VideoD=%02x)\r\n", (WORD)index, (WORD)SEQFlag, (WORD)V
2668:VS4210/keyremo.c **** #endif
2669:VS4210/keyremo.c **** 
2670:VS4210/keyremo.c **** 		// if(TriggerFlag==0)
2671:VS4210/keyremo.c **** 		// if((SEQFlag==0))
2672:VS4210/keyremo.c **** 		bytSelectCAMRD = SelectCameraD;
2673:VS4210/keyremo.c **** 
2674:VS4210/keyremo.c **** 		CAM_R_SW(OFF);
2675:VS4210/keyremo.c **** 		CAM_D_SW(ON);
2676:VS4210/keyremo.c **** 
2677:VS4210/keyremo.c **** 		VideoSave[3] = VideoD;
2678:VS4210/keyremo.c **** 		// if((VideoD==_TRUE)&&(stdD!=stdR)&&(modeD!=modeR))
2679:VS4210/keyremo.c **** 		if ((BOOT_ISSUE == 0) && (VideoD == _TRUE) && ((modeD != modeR) || (index == VS4210_LOOP_MODE0_w4
2680:VS4210/keyremo.c **** 		{
2681:VS4210/keyremo.c **** 			// VideoSave[3]= VideoD;
2682:VS4210/keyremo.c **** 			Boot_Trigger_Function(3);
2683:VS4210/keyremo.c **** // Printf("\r\n(SetSelectCAMD)");
2684:VS4210/keyremo.c **** /*
2685:VS4210/keyremo.c **** if((stdD==1)&&(modeD==2))
2686:VS4210/keyremo.c ****    {
2687:VS4210/keyremo.c **** 	tp28xx_byte_write(0x40, 0x03);
2688:VS4210/keyremo.c **** 	 tp28xx_byte_write(0xfb, 0x88);
2689:VS4210/keyremo.c ****    }
2690:VS4210/keyremo.c **** */
2691:VS4210/keyremo.c **** #if (_DEBUG_MESSAGE_Source_Change == ON)
2692:VS4210/keyremo.c **** 			GraphicsPrint(RED, "(CAMD)\r\n");
2693:VS4210/keyremo.c **** #endif
2694:VS4210/keyremo.c **** 		}
2695:VS4210/keyremo.c **** 		else if ((VideoD == 0xFF) && (VideoR == _TRUE))
2696:VS4210/keyremo.c **** 		{
2697:VS4210/keyremo.c **** #if (_DEBUG_MESSAGE_Source_Change == ON)
2698:VS4210/keyremo.c **** 			GraphicsPrint(YELLOW, "(Reset CAMD)\r\n");
2699:VS4210/keyremo.c **** #endif
2700:VS4210/keyremo.c **** 			if (TriggerFlag)
2701:VS4210/keyremo.c **** 				VS4210_Rx_NoSignal(3); // blue screen
2702:VS4210/keyremo.c **** 			SETChannelReset(3);
2703:VS4210/keyremo.c **** 		}
2704:VS4210/keyremo.c **** 	}
2705:VS4210/keyremo.c **** 	else if (((change == SelectCameraR) && (bytSelectCAMRD != SelectCameraR)) /*||(TriggerStatus==4)*/
 1682              		.loc 1 2705 7 is_stmt 1 view .LVU400
 1683              		.loc 1 2705 10 is_stmt 0 view .LVU401
 1684 0096 032A     		cmp	r2, #3
 1685 0098 59D0     		beq	.L116
 1686              	.L108:
ARM GAS  C:\Users\ryanc.HS\AppData\Local\Temp\ccZ9UySd.s 			page 82


2706:VS4210/keyremo.c **** 	{
2707:VS4210/keyremo.c **** 
2708:VS4210/keyremo.c **** #if (_DEBUG_MESSAGE_Source_Change == ON)
2709:VS4210/keyremo.c **** 		Printf("(*Change C index=%02x VideoR=%02x)", (WORD)index, (WORD)VideoR);
2710:VS4210/keyremo.c **** #endif
2711:VS4210/keyremo.c **** 
2712:VS4210/keyremo.c **** 		// if(TriggerFlag==0)
2713:VS4210/keyremo.c **** 		bytSelectCAMRD = SelectCameraR;
2714:VS4210/keyremo.c **** 
2715:VS4210/keyremo.c **** 		CAM_R_SW(ON);
2716:VS4210/keyremo.c **** 		CAM_D_SW(OFF);
2717:VS4210/keyremo.c **** 
2718:VS4210/keyremo.c **** 		VideoSave[3] = VideoR;
2719:VS4210/keyremo.c **** 		//	if((VideoR==_TRUE)&&(stdD!=stdR)&&(modeD!=modeR))
2720:VS4210/keyremo.c **** 		if ((BOOT_ISSUE == 0) && (VideoR == _TRUE) && ((modeD != modeR) || (index != VS4210_LOOP_MODE0_w4
2721:VS4210/keyremo.c **** 		{
2722:VS4210/keyremo.c **** 			// VideoSave[3]= VideoR;
2723:VS4210/keyremo.c **** 			Boot_Trigger_Function(3);
2724:VS4210/keyremo.c **** 			// Printf("\r\n(SetSelectCAMR)");
2725:VS4210/keyremo.c **** 			/*
2726:VS4210/keyremo.c **** 			  if((stdR==1)&&(modeR==2))
2727:VS4210/keyremo.c **** 			   {
2728:VS4210/keyremo.c **** 				  tp28xx_byte_write(0x40, 0x03);
2729:VS4210/keyremo.c **** 			   tp28xx_byte_write(0xfb, 0x88);
2730:VS4210/keyremo.c **** 			   }
2731:VS4210/keyremo.c **** 			  */
2732:VS4210/keyremo.c **** #if (_DEBUG_MESSAGE_Source_Change == ON)
2733:VS4210/keyremo.c **** 			GraphicsPrint(RED, "(CAMR)\r\n");
2734:VS4210/keyremo.c **** #endif
2735:VS4210/keyremo.c **** 		}
2736:VS4210/keyremo.c **** 		else if ((VideoR == 0xFF) && (VideoD == _TRUE))
2737:VS4210/keyremo.c **** 		{
2738:VS4210/keyremo.c **** #if (_DEBUG_MESSAGE_Source_Change == ON)
2739:VS4210/keyremo.c **** 			GraphicsPrint(YELLOW, "(Reset CAMR)\r\n");
2740:VS4210/keyremo.c **** #endif
2741:VS4210/keyremo.c **** 			if (TriggerFlag)
2742:VS4210/keyremo.c **** 				VS4210_Rx_NoSignal(3); // blue screen
2743:VS4210/keyremo.c **** 			SETChannelReset(3);
2744:VS4210/keyremo.c **** 		}
2745:VS4210/keyremo.c **** 	}
2746:VS4210/keyremo.c **** 	else
2747:VS4210/keyremo.c **** 	{
2748:VS4210/keyremo.c **** 
2749:VS4210/keyremo.c **** 		if (bytSelectCAMRD == SelectCameraD)
 1687              		.loc 1 2749 3 is_stmt 1 view .LVU402
 1688              		.loc 1 2749 6 is_stmt 0 view .LVU403
 1689 009a 042B     		cmp	r3, #4
 1690 009c 00F09680 		beq	.L117
2750:VS4210/keyremo.c **** 		{
2751:VS4210/keyremo.c **** 			CAM_R_SW(OFF);
2752:VS4210/keyremo.c **** 			CAM_D_SW(ON);
2753:VS4210/keyremo.c **** #if (_DEBUG_MESSAGE_Source_Change == ON)
2754:VS4210/keyremo.c **** 			Printf("(*P1)");
2755:VS4210/keyremo.c **** #endif
2756:VS4210/keyremo.c **** 		}
2757:VS4210/keyremo.c **** 		else
2758:VS4210/keyremo.c **** 		{
ARM GAS  C:\Users\ryanc.HS\AppData\Local\Temp\ccZ9UySd.s 			page 83


2759:VS4210/keyremo.c **** 			CAM_R_SW(ON);
 1691              		.loc 1 2759 4 is_stmt 1 view .LVU404
 1692 00a0 554C     		ldr	r4, .L123+12
 1693 00a2 0122     		movs	r2, #1
 1694              	.LVL131:
 1695              		.loc 1 2759 4 is_stmt 0 view .LVU405
 1696 00a4 1146     		mov	r1, r2
 1697 00a6 2046     		mov	r0, r4
 1698 00a8 FFF7FEFF 		bl	HAL_GPIO_WritePin
 1699              	.LVL132:
2760:VS4210/keyremo.c **** 			CAM_D_SW(OFF);
 1700              		.loc 1 2760 4 is_stmt 1 view .LVU406
 1701 00ac 0022     		movs	r2, #0
 1702 00ae 0221     		movs	r1, #2
 1703 00b0 2046     		mov	r0, r4
 1704 00b2 FFF7FEFF 		bl	HAL_GPIO_WritePin
 1705              	.LVL133:
2761:VS4210/keyremo.c **** #if (_DEBUG_MESSAGE_Source_Change == ON)
2762:VS4210/keyremo.c **** 			Printf("(*P2)");
 1706              		.loc 1 2762 4 view .LVU407
 1707 00b6 5148     		ldr	r0, .L123+16
 1708 00b8 FFF7FEFF 		bl	Printf
 1709              	.LVL134:
 1710              	.L98:
2763:VS4210/keyremo.c **** #endif
2764:VS4210/keyremo.c **** 		}
2765:VS4210/keyremo.c **** 	}
2766:VS4210/keyremo.c **** }
 1711              		.loc 1 2766 1 is_stmt 0 view .LVU408
 1712 00bc BDE8F88F 		pop	{r3, r4, r5, r6, r7, r8, r9, r10, fp, pc}
 1713              	.LVL135:
 1714              	.L102:
2656:VS4210/keyremo.c **** #if (_DEBUG_MESSAGE_Source_Change == ON)
 1715              		.loc 1 2656 3 is_stmt 1 view .LVU409
2658:VS4210/keyremo.c **** #endif
 1716              		.loc 1 2658 3 view .LVU410
 1717 00c0 2246     		mov	r2, r4
 1718 00c2 4F49     		ldr	r1, .L123+20
 1719 00c4 0120     		movs	r0, #1
 1720 00c6 FFF7FEFF 		bl	GraphicsPrint
 1721              	.LVL136:
2661:VS4210/keyremo.c **** 	}
 1722              		.loc 1 2661 3 view .LVU411
2656:VS4210/keyremo.c **** #if (_DEBUG_MESSAGE_Source_Change == ON)
 1723              		.loc 1 2656 10 is_stmt 0 view .LVU412
 1724 00ca 2246     		mov	r2, r4
2661:VS4210/keyremo.c **** 	}
 1725              		.loc 1 2661 3 view .LVU413
 1726 00cc DDE7     		b	.L99
 1727              	.LVL137:
 1728              	.L113:
2590:VS4210/keyremo.c **** #endif
 1729              		.loc 1 2590 2 view .LVU414
 1730 00ce 0022     		movs	r2, #0
 1731 00d0 DBE7     		b	.L99
 1732              	.LVL138:
 1733              	.L115:
ARM GAS  C:\Users\ryanc.HS\AppData\Local\Temp\ccZ9UySd.s 			page 84


2667:VS4210/keyremo.c **** #endif
 1734              		.loc 1 2667 3 is_stmt 1 view .LVU415
 1735 00d2 3346     		mov	r3, r6
 1736 00d4 4B4A     		ldr	r2, .L123+24
 1737              	.LVL139:
2667:VS4210/keyremo.c **** #endif
 1738              		.loc 1 2667 3 is_stmt 0 view .LVU416
 1739 00d6 1278     		ldrb	r2, [r2]	@ zero_extendqisi2
 1740 00d8 2146     		mov	r1, r4
 1741 00da 4B48     		ldr	r0, .L123+28
 1742 00dc FFF7FEFF 		bl	Printf
 1743              	.LVL140:
2672:VS4210/keyremo.c **** 
 1744              		.loc 1 2672 3 is_stmt 1 view .LVU417
2672:VS4210/keyremo.c **** 
 1745              		.loc 1 2672 18 is_stmt 0 view .LVU418
 1746 00e0 444B     		ldr	r3, .L123+8
 1747 00e2 0422     		movs	r2, #4
 1748 00e4 1A70     		strb	r2, [r3]
2674:VS4210/keyremo.c **** 		CAM_D_SW(ON);
 1749              		.loc 1 2674 3 is_stmt 1 view .LVU419
 1750 00e6 DFF810B1 		ldr	fp, .L123+12
 1751 00ea 0022     		movs	r2, #0
 1752 00ec 0121     		movs	r1, #1
 1753 00ee 5846     		mov	r0, fp
 1754 00f0 FFF7FEFF 		bl	HAL_GPIO_WritePin
 1755              	.LVL141:
2675:VS4210/keyremo.c **** 
 1756              		.loc 1 2675 3 view .LVU420
 1757 00f4 0122     		movs	r2, #1
 1758 00f6 0221     		movs	r1, #2
 1759 00f8 5846     		mov	r0, fp
 1760 00fa FFF7FEFF 		bl	HAL_GPIO_WritePin
 1761              	.LVL142:
2677:VS4210/keyremo.c **** 		// if((VideoD==_TRUE)&&(stdD!=stdR)&&(modeD!=modeR))
 1762              		.loc 1 2677 3 view .LVU421
2677:VS4210/keyremo.c **** 		// if((VideoD==_TRUE)&&(stdD!=stdR)&&(modeD!=modeR))
 1763              		.loc 1 2677 16 is_stmt 0 view .LVU422
 1764 00fe 434B     		ldr	r3, .L123+32
 1765 0100 DE70     		strb	r6, [r3, #3]
2679:VS4210/keyremo.c **** 		{
 1766              		.loc 1 2679 3 is_stmt 1 view .LVU423
2679:VS4210/keyremo.c **** 		{
 1767              		.loc 1 2679 19 is_stmt 0 view .LVU424
 1768 0102 434B     		ldr	r3, .L123+36
 1769 0104 1B78     		ldrb	r3, [r3]	@ zero_extendqisi2
2679:VS4210/keyremo.c **** 		{
 1770              		.loc 1 2679 6 view .LVU425
 1771 0106 0BB9     		cbnz	r3, .L104
2679:VS4210/keyremo.c **** 		{
 1772              		.loc 1 2679 25 discriminator 1 view .LVU426
 1773 0108 012E     		cmp	r6, #1
 1774 010a 0ED0     		beq	.L118
 1775              	.L104:
2695:VS4210/keyremo.c **** 		{
 1776              		.loc 1 2695 8 is_stmt 1 view .LVU427
2695:VS4210/keyremo.c **** 		{
ARM GAS  C:\Users\ryanc.HS\AppData\Local\Temp\ccZ9UySd.s 			page 85


 1777              		.loc 1 2695 11 is_stmt 0 view .LVU428
 1778 010c FF2E     		cmp	r6, #255
 1779 010e D5D1     		bne	.L98
2695:VS4210/keyremo.c **** 		{
 1780              		.loc 1 2695 29 discriminator 1 view .LVU429
 1781 0110 012D     		cmp	r5, #1
 1782 0112 D3D1     		bne	.L98
2698:VS4210/keyremo.c **** #endif
 1783              		.loc 1 2698 4 is_stmt 1 view .LVU430
 1784 0114 3F49     		ldr	r1, .L123+40
 1785 0116 0320     		movs	r0, #3
 1786 0118 FFF7FEFF 		bl	GraphicsPrint
 1787              	.LVL143:
2700:VS4210/keyremo.c **** 				VS4210_Rx_NoSignal(3); // blue screen
 1788              		.loc 1 2700 4 view .LVU431
2700:VS4210/keyremo.c **** 				VS4210_Rx_NoSignal(3); // blue screen
 1789              		.loc 1 2700 8 is_stmt 0 view .LVU432
 1790 011c 3E4B     		ldr	r3, .L123+44
 1791 011e 1B78     		ldrb	r3, [r3]	@ zero_extendqisi2
2700:VS4210/keyremo.c **** 				VS4210_Rx_NoSignal(3); // blue screen
 1792              		.loc 1 2700 7 view .LVU433
 1793 0120 8BB9     		cbnz	r3, .L119
 1794              	.L107:
2702:VS4210/keyremo.c **** 		}
 1795              		.loc 1 2702 4 is_stmt 1 view .LVU434
 1796 0122 0320     		movs	r0, #3
 1797 0124 FFF7FEFF 		bl	SETChannelReset
 1798              	.LVL144:
 1799 0128 C8E7     		b	.L98
 1800              	.L118:
2679:VS4210/keyremo.c **** 		{
 1801              		.loc 1 2679 46 is_stmt 0 discriminator 2 view .LVU435
 1802 012a B845     		cmp	r8, r7
 1803 012c 03D1     		bne	.L105
2679:VS4210/keyremo.c **** 		{
 1804              		.loc 1 2679 67 discriminator 3 view .LVU436
 1805 012e 042C     		cmp	r4, #4
 1806 0130 01D0     		beq	.L105
2679:VS4210/keyremo.c **** 		{
 1807              		.loc 1 2679 102 discriminator 4 view .LVU437
 1808 0132 CA45     		cmp	r10, r9
 1809 0134 EAD0     		beq	.L104
 1810              	.L105:
2682:VS4210/keyremo.c **** // Printf("\r\n(SetSelectCAMD)");
 1811              		.loc 1 2682 4 is_stmt 1 view .LVU438
 1812 0136 0320     		movs	r0, #3
 1813 0138 FFF7FEFF 		bl	Boot_Trigger_Function
 1814              	.LVL145:
2692:VS4210/keyremo.c **** #endif
 1815              		.loc 1 2692 4 view .LVU439
 1816 013c 3749     		ldr	r1, .L123+48
 1817 013e 0120     		movs	r0, #1
 1818 0140 FFF7FEFF 		bl	GraphicsPrint
 1819              	.LVL146:
 1820 0144 BAE7     		b	.L98
 1821              	.L119:
2701:VS4210/keyremo.c **** 			SETChannelReset(3);
ARM GAS  C:\Users\ryanc.HS\AppData\Local\Temp\ccZ9UySd.s 			page 86


 1822              		.loc 1 2701 5 view .LVU440
 1823 0146 0320     		movs	r0, #3
 1824 0148 FFF7FEFF 		bl	VS4210_Rx_NoSignal
 1825              	.LVL147:
 1826 014c E9E7     		b	.L107
 1827              	.LVL148:
 1828              	.L116:
2705:VS4210/keyremo.c **** 	{
 1829              		.loc 1 2705 38 is_stmt 0 discriminator 1 view .LVU441
 1830 014e 032B     		cmp	r3, #3
 1831 0150 A3D0     		beq	.L108
2709:VS4210/keyremo.c **** #endif
 1832              		.loc 1 2709 3 is_stmt 1 view .LVU442
 1833 0152 2A46     		mov	r2, r5
 1834              	.LVL149:
2709:VS4210/keyremo.c **** #endif
 1835              		.loc 1 2709 3 is_stmt 0 view .LVU443
 1836 0154 2146     		mov	r1, r4
 1837 0156 3248     		ldr	r0, .L123+52
 1838 0158 FFF7FEFF 		bl	Printf
 1839              	.LVL150:
2713:VS4210/keyremo.c **** 
 1840              		.loc 1 2713 3 is_stmt 1 view .LVU444
2713:VS4210/keyremo.c **** 
 1841              		.loc 1 2713 18 is_stmt 0 view .LVU445
 1842 015c 254B     		ldr	r3, .L123+8
 1843 015e 0322     		movs	r2, #3
 1844 0160 1A70     		strb	r2, [r3]
2715:VS4210/keyremo.c **** 		CAM_D_SW(OFF);
 1845              		.loc 1 2715 3 is_stmt 1 view .LVU446
 1846 0162 DFF894B0 		ldr	fp, .L123+12
 1847 0166 0122     		movs	r2, #1
 1848 0168 1146     		mov	r1, r2
 1849 016a 5846     		mov	r0, fp
 1850 016c FFF7FEFF 		bl	HAL_GPIO_WritePin
 1851              	.LVL151:
2716:VS4210/keyremo.c **** 
 1852              		.loc 1 2716 3 view .LVU447
 1853 0170 0022     		movs	r2, #0
 1854 0172 0221     		movs	r1, #2
 1855 0174 5846     		mov	r0, fp
 1856 0176 FFF7FEFF 		bl	HAL_GPIO_WritePin
 1857              	.LVL152:
2718:VS4210/keyremo.c **** 		//	if((VideoR==_TRUE)&&(stdD!=stdR)&&(modeD!=modeR))
 1858              		.loc 1 2718 3 view .LVU448
2718:VS4210/keyremo.c **** 		//	if((VideoR==_TRUE)&&(stdD!=stdR)&&(modeD!=modeR))
 1859              		.loc 1 2718 16 is_stmt 0 view .LVU449
 1860 017a 244B     		ldr	r3, .L123+32
 1861 017c DD70     		strb	r5, [r3, #3]
2720:VS4210/keyremo.c **** 		{
 1862              		.loc 1 2720 3 is_stmt 1 view .LVU450
2720:VS4210/keyremo.c **** 		{
 1863              		.loc 1 2720 19 is_stmt 0 view .LVU451
 1864 017e 244B     		ldr	r3, .L123+36
 1865 0180 1B78     		ldrb	r3, [r3]	@ zero_extendqisi2
2720:VS4210/keyremo.c **** 		{
 1866              		.loc 1 2720 6 view .LVU452
ARM GAS  C:\Users\ryanc.HS\AppData\Local\Temp\ccZ9UySd.s 			page 87


 1867 0182 0BB9     		cbnz	r3, .L109
2720:VS4210/keyremo.c **** 		{
 1868              		.loc 1 2720 25 discriminator 1 view .LVU453
 1869 0184 012D     		cmp	r5, #1
 1870 0186 0ED0     		beq	.L120
 1871              	.L109:
2736:VS4210/keyremo.c **** 		{
 1872              		.loc 1 2736 8 is_stmt 1 view .LVU454
2736:VS4210/keyremo.c **** 		{
 1873              		.loc 1 2736 11 is_stmt 0 view .LVU455
 1874 0188 FF2D     		cmp	r5, #255
 1875 018a 97D1     		bne	.L98
2736:VS4210/keyremo.c **** 		{
 1876              		.loc 1 2736 29 discriminator 1 view .LVU456
 1877 018c 012E     		cmp	r6, #1
 1878 018e 95D1     		bne	.L98
2739:VS4210/keyremo.c **** #endif
 1879              		.loc 1 2739 4 is_stmt 1 view .LVU457
 1880 0190 2449     		ldr	r1, .L123+56
 1881 0192 0320     		movs	r0, #3
 1882 0194 FFF7FEFF 		bl	GraphicsPrint
 1883              	.LVL153:
2741:VS4210/keyremo.c **** 				VS4210_Rx_NoSignal(3); // blue screen
 1884              		.loc 1 2741 4 view .LVU458
2741:VS4210/keyremo.c **** 				VS4210_Rx_NoSignal(3); // blue screen
 1885              		.loc 1 2741 8 is_stmt 0 view .LVU459
 1886 0198 1F4B     		ldr	r3, .L123+44
 1887 019a 1B78     		ldrb	r3, [r3]	@ zero_extendqisi2
2741:VS4210/keyremo.c **** 				VS4210_Rx_NoSignal(3); // blue screen
 1888              		.loc 1 2741 7 view .LVU460
 1889 019c 93B9     		cbnz	r3, .L121
 1890              	.L111:
2743:VS4210/keyremo.c **** 		}
 1891              		.loc 1 2743 4 is_stmt 1 view .LVU461
 1892 019e 0320     		movs	r0, #3
 1893 01a0 FFF7FEFF 		bl	SETChannelReset
 1894              	.LVL154:
 1895 01a4 8AE7     		b	.L98
 1896              	.L120:
2720:VS4210/keyremo.c **** 		{
 1897              		.loc 1 2720 46 is_stmt 0 discriminator 2 view .LVU462
 1898 01a6 B845     		cmp	r8, r7
 1899 01a8 01D1     		bne	.L110
2720:VS4210/keyremo.c **** 		{
 1900              		.loc 1 2720 67 discriminator 3 view .LVU463
 1901 01aa 042C     		cmp	r4, #4
 1902 01ac 07D0     		beq	.L122
 1903              	.L110:
2723:VS4210/keyremo.c **** 			// Printf("\r\n(SetSelectCAMR)");
 1904              		.loc 1 2723 4 is_stmt 1 view .LVU464
 1905 01ae 0320     		movs	r0, #3
 1906 01b0 FFF7FEFF 		bl	Boot_Trigger_Function
 1907              	.LVL155:
2733:VS4210/keyremo.c **** #endif
 1908              		.loc 1 2733 4 view .LVU465
 1909 01b4 1C49     		ldr	r1, .L123+60
 1910 01b6 0120     		movs	r0, #1
ARM GAS  C:\Users\ryanc.HS\AppData\Local\Temp\ccZ9UySd.s 			page 88


 1911 01b8 FFF7FEFF 		bl	GraphicsPrint
 1912              	.LVL156:
 1913 01bc 7EE7     		b	.L98
 1914              	.L122:
2720:VS4210/keyremo.c **** 		{
 1915              		.loc 1 2720 102 is_stmt 0 discriminator 4 view .LVU466
 1916 01be CA45     		cmp	r10, r9
 1917 01c0 F5D1     		bne	.L110
 1918 01c2 E1E7     		b	.L109
 1919              	.L121:
2742:VS4210/keyremo.c **** 			SETChannelReset(3);
 1920              		.loc 1 2742 5 is_stmt 1 view .LVU467
 1921 01c4 0320     		movs	r0, #3
 1922 01c6 FFF7FEFF 		bl	VS4210_Rx_NoSignal
 1923              	.LVL157:
 1924 01ca E8E7     		b	.L111
 1925              	.LVL158:
 1926              	.L117:
2751:VS4210/keyremo.c **** 			CAM_D_SW(ON);
 1927              		.loc 1 2751 4 view .LVU468
 1928 01cc 0A4C     		ldr	r4, .L123+12
 1929 01ce 0022     		movs	r2, #0
 1930              	.LVL159:
2751:VS4210/keyremo.c **** 			CAM_D_SW(ON);
 1931              		.loc 1 2751 4 is_stmt 0 view .LVU469
 1932 01d0 0121     		movs	r1, #1
 1933 01d2 2046     		mov	r0, r4
 1934 01d4 FFF7FEFF 		bl	HAL_GPIO_WritePin
 1935              	.LVL160:
2752:VS4210/keyremo.c **** #if (_DEBUG_MESSAGE_Source_Change == ON)
 1936              		.loc 1 2752 4 is_stmt 1 view .LVU470
 1937 01d8 0122     		movs	r2, #1
 1938 01da 0221     		movs	r1, #2
 1939 01dc 2046     		mov	r0, r4
 1940 01de FFF7FEFF 		bl	HAL_GPIO_WritePin
 1941              	.LVL161:
2754:VS4210/keyremo.c **** #endif
 1942              		.loc 1 2754 4 view .LVU471
 1943 01e2 1248     		ldr	r0, .L123+64
 1944 01e4 FFF7FEFF 		bl	Printf
 1945              	.LVL162:
 1946 01e8 68E7     		b	.L98
 1947              	.L124:
 1948 01ea 00BF     		.align	2
 1949              	.L123:
 1950 01ec 00000000 		.word	.LC7
 1951 01f0 18000000 		.word	.LC8
 1952 01f4 00000000 		.word	bytSelectCAMRD
 1953 01f8 00100140 		.word	1073811456
 1954 01fc D8000000 		.word	.LC17
 1955 0200 2C000000 		.word	.LC9
 1956 0204 00000000 		.word	.LANCHOR1
 1957 0208 40000000 		.word	.LC10
 1958 020c 00000000 		.word	VideoSave
 1959 0210 00000000 		.word	BOOT_ISSUE
 1960 0214 80000000 		.word	.LC12
 1961 0218 00000000 		.word	.LANCHOR8
ARM GAS  C:\Users\ryanc.HS\AppData\Local\Temp\ccZ9UySd.s 			page 89


 1962 021c 74000000 		.word	.LC11
 1963 0220 90000000 		.word	.LC13
 1964 0224 C0000000 		.word	.LC15
 1965 0228 B4000000 		.word	.LC14
 1966 022c D0000000 		.word	.LC16
 1967              		.cfi_endproc
 1968              	.LFE85:
 1970              		.section	.rodata.SEQMode.str1.4,"aMS",%progbits,1
 1971              		.align	2
 1972              	.LC18:
 1973 0000 0D0A2853 		.ascii	"\015\012(SEQIndex ch=%02x)\015\012\000"
 1973      4551496E 
 1973      64657820 
 1973      63683D25 
 1973      30327829 
 1974              		.section	.text.SEQMode,"ax",%progbits
 1975              		.align	1
 1976              		.global	SEQMode
 1977              		.syntax unified
 1978              		.thumb
 1979              		.thumb_func
 1980              		.fpu softvfp
 1982              	SEQMode:
 1983              	.LFB77:
1418:VS4210/keyremo.c **** 	WORD usNum;
 1984              		.loc 1 1418 1 view -0
 1985              		.cfi_startproc
 1986              		@ args = 0, pretend = 0, frame = 0
 1987              		@ frame_needed = 0, uses_anonymous_args = 0
 1988 0000 38B5     		push	{r3, r4, r5, lr}
 1989              	.LCFI9:
 1990              		.cfi_def_cfa_offset 16
 1991              		.cfi_offset 3, -16
 1992              		.cfi_offset 4, -12
 1993              		.cfi_offset 5, -8
 1994              		.cfi_offset 14, -4
1419:VS4210/keyremo.c **** #if 0
 1995              		.loc 1 1419 2 view .LVU473
1475:VS4210/keyremo.c **** 		SEQIndex++;
 1996              		.loc 1 1475 2 view .LVU474
1475:VS4210/keyremo.c **** 		SEQIndex++;
 1997              		.loc 1 1475 15 is_stmt 0 view .LVU475
 1998 0002 244B     		ldr	r3, .L137
 1999 0004 1B78     		ldrb	r3, [r3]	@ zero_extendqisi2
1475:VS4210/keyremo.c **** 		SEQIndex++;
 2000              		.loc 1 1475 5 view .LVU476
 2001 0006 032B     		cmp	r3, #3
 2002 0008 1FD8     		bhi	.L126
1476:VS4210/keyremo.c **** 	else
 2003              		.loc 1 1476 3 is_stmt 1 view .LVU477
1476:VS4210/keyremo.c **** 	else
 2004              		.loc 1 1476 11 is_stmt 0 view .LVU478
 2005 000a 0133     		adds	r3, r3, #1
 2006 000c 214A     		ldr	r2, .L137
 2007 000e 1370     		strb	r3, [r2]
 2008              	.L127:
1481:VS4210/keyremo.c **** #endif
ARM GAS  C:\Users\ryanc.HS\AppData\Local\Temp\ccZ9UySd.s 			page 90


 2009              		.loc 1 1481 2 is_stmt 1 view .LVU479
 2010 0010 204C     		ldr	r4, .L137
 2011 0012 2278     		ldrb	r2, [r4]	@ zero_extendqisi2
 2012 0014 2049     		ldr	r1, .L137+4
 2013 0016 0320     		movs	r0, #3
 2014 0018 FFF7FEFF 		bl	GraphicsPrint
 2015              	.LVL163:
1500:VS4210/keyremo.c **** 	{
 2016              		.loc 1 1500 2 view .LVU480
1500:VS4210/keyremo.c **** 	{
 2017              		.loc 1 1500 14 is_stmt 0 view .LVU481
 2018 001c 2378     		ldrb	r3, [r4]	@ zero_extendqisi2
 2019 001e 1F4A     		ldr	r2, .L137+8
 2020 0020 D05C     		ldrb	r0, [r2, r3]	@ zero_extendqisi2
1500:VS4210/keyremo.c **** 	{
 2021              		.loc 1 1500 5 view .LVU482
 2022 0022 0428     		cmp	r0, #4
 2023 0024 15D0     		beq	.L135
1507:VS4210/keyremo.c **** 	{
 2024              		.loc 1 1507 7 is_stmt 1 view .LVU483
1507:VS4210/keyremo.c **** 	{
 2025              		.loc 1 1507 10 is_stmt 0 view .LVU484
 2026 0026 0228     		cmp	r0, #2
 2027 0028 19D0     		beq	.L136
 2028              	.L129:
1529:VS4210/keyremo.c **** 	AudioMute(OFF);
 2029              		.loc 1 1529 2 is_stmt 1 view .LVU485
1529:VS4210/keyremo.c **** 	AudioMute(OFF);
 2030              		.loc 1 1529 25 is_stmt 0 view .LVU486
 2031 002a 1C4C     		ldr	r4, .L137+8
 2032 002c 194D     		ldr	r5, .L137
 2033 002e 2B78     		ldrb	r3, [r5]	@ zero_extendqisi2
1529:VS4210/keyremo.c **** 	AudioMute(OFF);
 2034              		.loc 1 1529 2 view .LVU487
 2035 0030 E05C     		ldrb	r0, [r4, r3]	@ zero_extendqisi2
 2036 0032 FFF7FEFF 		bl	setloopoutmode
 2037              	.LVL164:
1530:VS4210/keyremo.c **** #if 0
 2038              		.loc 1 1530 2 is_stmt 1 view .LVU488
 2039 0036 0020     		movs	r0, #0
 2040 0038 FFF7FEFF 		bl	AudioMute
 2041              	.LVL165:
1548:VS4210/keyremo.c **** 	{
 2042              		.loc 1 1548 2 view .LVU489
1548:VS4210/keyremo.c **** 	{
 2043              		.loc 1 1548 16 is_stmt 0 view .LVU490
 2044 003c 2B78     		ldrb	r3, [r5]	@ zero_extendqisi2
 2045 003e E35C     		ldrb	r3, [r4, r3]	@ zero_extendqisi2
1548:VS4210/keyremo.c **** 	{
 2046              		.loc 1 1548 5 view .LVU491
 2047 0040 042B     		cmp	r3, #4
 2048 0042 12D0     		beq	.L130
1548:VS4210/keyremo.c **** 	{
 2049              		.loc 1 1548 45 discriminator 2 view .LVU492
 2050 0044 022B     		cmp	r3, #2
 2051 0046 10D0     		beq	.L130
 2052              	.L125:
ARM GAS  C:\Users\ryanc.HS\AppData\Local\Temp\ccZ9UySd.s 			page 91


1582:VS4210/keyremo.c **** 
 2053              		.loc 1 1582 1 view .LVU493
 2054 0048 38BD     		pop	{r3, r4, r5, pc}
 2055              	.L126:
1478:VS4210/keyremo.c **** 
 2056              		.loc 1 1478 3 is_stmt 1 view .LVU494
1478:VS4210/keyremo.c **** 
 2057              		.loc 1 1478 12 is_stmt 0 view .LVU495
 2058 004a 124B     		ldr	r3, .L137
 2059 004c 0022     		movs	r2, #0
 2060 004e 1A70     		strb	r2, [r3]
 2061 0050 DEE7     		b	.L127
 2062              	.L135:
1503:VS4210/keyremo.c **** 		bytSelectCAMRD = SelectCameraD;
 2063              		.loc 1 1503 3 is_stmt 1 view .LVU496
 2064 0052 FFF7FEFF 		bl	SetSelectCAMRD
 2065              	.LVL166:
1504:VS4210/keyremo.c **** 	}
 2066              		.loc 1 1504 3 view .LVU497
1504:VS4210/keyremo.c **** 	}
 2067              		.loc 1 1504 18 is_stmt 0 view .LVU498
 2068 0056 124B     		ldr	r3, .L137+12
 2069 0058 0422     		movs	r2, #4
 2070 005a 1A70     		strb	r2, [r3]
 2071 005c E5E7     		b	.L129
 2072              	.L136:
1510:VS4210/keyremo.c **** 		bytSelectCAMRD = SelectCameraR;
 2073              		.loc 1 1510 3 is_stmt 1 view .LVU499
 2074 005e FFF7FEFF 		bl	SetSelectCAMRD
 2075              	.LVL167:
1511:VS4210/keyremo.c **** 	}
 2076              		.loc 1 1511 3 view .LVU500
1511:VS4210/keyremo.c **** 	}
 2077              		.loc 1 1511 18 is_stmt 0 view .LVU501
 2078 0062 0F4B     		ldr	r3, .L137+12
 2079 0064 0322     		movs	r2, #3
 2080 0066 1A70     		strb	r2, [r3]
 2081 0068 DFE7     		b	.L129
 2082              	.L130:
1548:VS4210/keyremo.c **** 	{
 2083              		.loc 1 1548 107 discriminator 3 view .LVU502
 2084 006a 0E4B     		ldr	r3, .L137+16
 2085 006c 1B78     		ldrb	r3, [r3]	@ zero_extendqisi2
1548:VS4210/keyremo.c **** 	{
 2086              		.loc 1 1548 94 discriminator 3 view .LVU503
 2087 006e 032B     		cmp	r3, #3
 2088 0070 EAD8     		bhi	.L125
1551:VS4210/keyremo.c **** 
 2089              		.loc 1 1551 3 is_stmt 1 view .LVU504
 2090              	.LVL168:
1553:VS4210/keyremo.c **** 
 2091              		.loc 1 1553 3 view .LVU505
1553:VS4210/keyremo.c **** 
 2092              		.loc 1 1553 22 is_stmt 0 view .LVU506
 2093 0072 0D4B     		ldr	r3, .L137+20
 2094 0074 0022     		movs	r2, #0
 2095 0076 1A60     		str	r2, [r3]
ARM GAS  C:\Users\ryanc.HS\AppData\Local\Temp\ccZ9UySd.s 			page 92


1551:VS4210/keyremo.c **** 
 2096              		.loc 1 1551 9 view .LVU507
 2097 0078 6424     		movs	r4, #100
 2098              	.LVL169:
 2099              	.L132:
1555:VS4210/keyremo.c **** 		{
 2100              		.loc 1 1555 3 is_stmt 1 view .LVU508
1557:VS4210/keyremo.c **** 			{
 2101              		.loc 1 1557 4 view .LVU509
1557:VS4210/keyremo.c **** 			{
 2102              		.loc 1 1557 8 is_stmt 0 view .LVU510
 2103 007a 0B4B     		ldr	r3, .L137+20
 2104 007c 1B68     		ldr	r3, [r3]
1557:VS4210/keyremo.c **** 			{
 2105              		.loc 1 1557 7 view .LVU511
 2106 007e 002B     		cmp	r3, #0
 2107 0080 FBD0     		beq	.L132
1559:VS4210/keyremo.c **** 
 2108              		.loc 1 1559 5 is_stmt 1 view .LVU512
1559:VS4210/keyremo.c **** 
 2109              		.loc 1 1559 24 is_stmt 0 view .LVU513
 2110 0082 094B     		ldr	r3, .L137+20
 2111 0084 0022     		movs	r2, #0
 2112 0086 1A60     		str	r2, [r3]
1561:VS4210/keyremo.c **** 				{
 2113              		.loc 1 1561 5 is_stmt 1 view .LVU514
 2114              	.LVL170:
1561:VS4210/keyremo.c **** 				{
 2115              		.loc 1 1561 8 is_stmt 0 view .LVU515
 2116 0088 013C     		subs	r4, r4, #1
 2117              	.LVL171:
1561:VS4210/keyremo.c **** 				{
 2118              		.loc 1 1561 8 view .LVU516
 2119 008a DDD0     		beq	.L125
1563:VS4210/keyremo.c **** 				}
 2120              		.loc 1 1563 6 is_stmt 1 view .LVU517
 2121 008c FFF7FEFF 		bl	EQ_Detect
 2122              	.LVL172:
 2123 0090 F3E7     		b	.L132
 2124              	.L138:
 2125 0092 00BF     		.align	2
 2126              	.L137:
 2127 0094 00000000 		.word	SEQIndex
 2128 0098 00000000 		.word	.LC18
 2129 009c 00000000 		.word	.LANCHOR9
 2130 00a0 00000000 		.word	bytSelectCAMRD
 2131 00a4 00000000 		.word	TimeStep
 2132 00a8 00000000 		.word	g_bNotifyTimer0Int
 2133              		.cfi_endproc
 2134              	.LFE77:
 2136              		.section	.text.SetJumpMode,"ax",%progbits
 2137              		.align	1
 2138              		.global	SetJumpMode
 2139              		.syntax unified
 2140              		.thumb
 2141              		.thumb_func
 2142              		.fpu softvfp
ARM GAS  C:\Users\ryanc.HS\AppData\Local\Temp\ccZ9UySd.s 			page 93


 2144              	SetJumpMode:
 2145              	.LFB78:
1585:VS4210/keyremo.c **** 	BYTE val, i;
 2146              		.loc 1 1585 1 view -0
 2147              		.cfi_startproc
 2148              		@ args = 0, pretend = 0, frame = 0
 2149              		@ frame_needed = 0, uses_anonymous_args = 0
 2150 0000 38B5     		push	{r3, r4, r5, lr}
 2151              	.LCFI10:
 2152              		.cfi_def_cfa_offset 16
 2153              		.cfi_offset 3, -16
 2154              		.cfi_offset 4, -12
 2155              		.cfi_offset 5, -8
 2156              		.cfi_offset 14, -4
1586:VS4210/keyremo.c **** 	// Printf("\r\nNowModeState",(WORD)NowModeState);
 2157              		.loc 1 1586 2 view .LVU519
1591:VS4210/keyremo.c **** 
 2158              		.loc 1 1591 2 view .LVU520
 2159 0002 FFF7FEFF 		bl	BackLightOFF
 2160              	.LVL173:
1593:VS4210/keyremo.c **** 	{
 2161              		.loc 1 1593 2 view .LVU521
1593:VS4210/keyremo.c **** 	{
 2162              		.loc 1 1593 19 is_stmt 0 view .LVU522
 2163 0006 544B     		ldr	r3, .L161
 2164 0008 1B78     		ldrb	r3, [r3]	@ zero_extendqisi2
1593:VS4210/keyremo.c **** 	{
 2165              		.loc 1 1593 5 view .LVU523
 2166 000a 012B     		cmp	r3, #1
 2167 000c 06D0     		beq	.L153
1641:VS4210/keyremo.c **** 		SEQFlag = OFF;
 2168              		.loc 1 1641 3 is_stmt 1 view .LVU524
1641:VS4210/keyremo.c **** 		SEQFlag = OFF;
 2169              		.loc 1 1641 9 is_stmt 0 view .LVU525
 2170 000e AE20     		movs	r0, #174
 2171 0010 FFF7FEFF 		bl	ReadEEP
 2172              	.LVL174:
1642:VS4210/keyremo.c **** 
 2173              		.loc 1 1642 3 is_stmt 1 view .LVU526
1642:VS4210/keyremo.c **** 
 2174              		.loc 1 1642 11 is_stmt 0 view .LVU527
 2175 0014 0024     		movs	r4, #0
 2176 0016 514B     		ldr	r3, .L161+4
 2177 0018 1C70     		strb	r4, [r3]
1644:VS4210/keyremo.c **** 		{
 2178              		.loc 1 1644 3 is_stmt 1 view .LVU528
 2179              	.LVL175:
1644:VS4210/keyremo.c **** 		{
 2180              		.loc 1 1644 3 is_stmt 0 view .LVU529
 2181 001a 5AE0     		b	.L147
 2182              	.LVL176:
 2183              	.L153:
1595:VS4210/keyremo.c **** 
 2184              		.loc 1 1595 3 is_stmt 1 view .LVU530
1595:VS4210/keyremo.c **** 
 2185              		.loc 1 1595 9 is_stmt 0 view .LVU531
 2186 001c AE20     		movs	r0, #174
ARM GAS  C:\Users\ryanc.HS\AppData\Local\Temp\ccZ9UySd.s 			page 94


 2187 001e FFF7FEFF 		bl	ReadEEP
 2188              	.LVL177:
 2189 0022 0446     		mov	r4, r0
 2190              	.LVL178:
1597:VS4210/keyremo.c **** 		{
 2191              		.loc 1 1597 3 is_stmt 1 view .LVU532
1597:VS4210/keyremo.c **** 		{
 2192              		.loc 1 1597 6 is_stmt 0 view .LVU533
 2193 0024 0128     		cmp	r0, #1
 2194 0026 19D0     		beq	.L154
 2195              	.LVL179:
 2196              	.L141:
1618:VS4210/keyremo.c **** 		{
 2197              		.loc 1 1618 3 is_stmt 1 view .LVU534
1618:VS4210/keyremo.c **** 		{
 2198              		.loc 1 1618 17 is_stmt 0 view .LVU535
 2199 0028 4D4B     		ldr	r3, .L161+8
 2200 002a 1878     		ldrb	r0, [r3]	@ zero_extendqisi2
1618:VS4210/keyremo.c **** 		{
 2201              		.loc 1 1618 6 view .LVU536
 2202 002c 0328     		cmp	r0, #3
 2203 002e 05D8     		bhi	.L145
1618:VS4210/keyremo.c **** 		{
 2204              		.loc 1 1618 22 discriminator 1 view .LVU537
 2205 0030 4C4B     		ldr	r3, .L161+12
 2206 0032 1B78     		ldrb	r3, [r3]	@ zero_extendqisi2
 2207 0034 0341     		asrs	r3, r3, r0
 2208 0036 13F0010F 		tst	r3, #1
 2209 003a 32D1     		bne	.L155
 2210              	.L145:
1625:VS4210/keyremo.c **** 
 2211              		.loc 1 1625 3 is_stmt 1 view .LVU538
 2212 003c 4A4D     		ldr	r5, .L161+16
 2213 003e 285D     		ldrb	r0, [r5, r4]	@ zero_extendqisi2
 2214 0040 FFF7FEFF 		bl	SetSelectCAMRD
 2215              	.LVL180:
1627:VS4210/keyremo.c **** 
 2216              		.loc 1 1627 3 view .LVU539
 2217 0044 285D     		ldrb	r0, [r5, r4]	@ zero_extendqisi2
 2218 0046 FFF7FEFF 		bl	SetGarbberLinerMode
 2219              	.LVL181:
1629:VS4210/keyremo.c **** 
 2220              		.loc 1 1629 3 view .LVU540
 2221 004a 285D     		ldrb	r0, [r5, r4]	@ zero_extendqisi2
 2222 004c FFF7FEFF 		bl	setloopoutmode
 2223              	.LVL182:
1635:VS4210/keyremo.c **** 			AudioMute(OFF);
 2224              		.loc 1 1635 4 view .LVU541
 2225 0050 FFF7FEFF 		bl	BackLightON
 2226              	.LVL183:
1636:VS4210/keyremo.c **** 		}
 2227              		.loc 1 1636 4 view .LVU542
 2228 0054 0020     		movs	r0, #0
 2229 0056 FFF7FEFF 		bl	AudioMute
 2230              	.LVL184:
 2231 005a 5BE0     		b	.L146
 2232              	.LVL185:
ARM GAS  C:\Users\ryanc.HS\AppData\Local\Temp\ccZ9UySd.s 			page 95


 2233              	.L154:
1599:VS4210/keyremo.c **** 			SEQIndex = 0;
 2234              		.loc 1 1599 4 view .LVU543
1599:VS4210/keyremo.c **** 			SEQIndex = 0;
 2235              		.loc 1 1599 12 is_stmt 0 view .LVU544
 2236 005c 3F4B     		ldr	r3, .L161+4
 2237 005e 0122     		movs	r2, #1
 2238 0060 1A70     		strb	r2, [r3]
1600:VS4210/keyremo.c **** 
 2239              		.loc 1 1600 4 is_stmt 1 view .LVU545
1600:VS4210/keyremo.c **** 
 2240              		.loc 1 1600 13 is_stmt 0 view .LVU546
 2241 0062 0023     		movs	r3, #0
 2242 0064 3E4A     		ldr	r2, .L161+8
 2243 0066 1370     		strb	r3, [r2]
1602:VS4210/keyremo.c **** 			{
 2244              		.loc 1 1602 4 is_stmt 1 view .LVU547
 2245              	.LVL186:
1602:VS4210/keyremo.c **** 			{
 2246              		.loc 1 1602 4 is_stmt 0 view .LVU548
 2247 0068 01E0     		b	.L142
 2248              	.LVL187:
 2249              	.L143:
1602:VS4210/keyremo.c **** 			{
 2250              		.loc 1 1602 23 is_stmt 1 discriminator 2 view .LVU549
1602:VS4210/keyremo.c **** 			{
 2251              		.loc 1 1602 24 is_stmt 0 discriminator 2 view .LVU550
 2252 006a 0133     		adds	r3, r3, #1
 2253              	.LVL188:
1602:VS4210/keyremo.c **** 			{
 2254              		.loc 1 1602 24 discriminator 2 view .LVU551
 2255 006c DBB2     		uxtb	r3, r3
 2256              	.LVL189:
 2257              	.L142:
1602:VS4210/keyremo.c **** 			{
 2258              		.loc 1 1602 16 is_stmt 1 discriminator 1 view .LVU552
1602:VS4210/keyremo.c **** 			{
 2259              		.loc 1 1602 4 is_stmt 0 discriminator 1 view .LVU553
 2260 006e 032B     		cmp	r3, #3
 2261 0070 0AD8     		bhi	.L156
1604:VS4210/keyremo.c **** 				{
 2262              		.loc 1 1604 5 is_stmt 1 view .LVU554
1604:VS4210/keyremo.c **** 				{
 2263              		.loc 1 1604 9 is_stmt 0 view .LVU555
 2264 0072 3C4A     		ldr	r2, .L161+12
 2265 0074 1278     		ldrb	r2, [r2]	@ zero_extendqisi2
 2266 0076 1A41     		asrs	r2, r2, r3
1604:VS4210/keyremo.c **** 				{
 2267              		.loc 1 1604 8 view .LVU556
 2268 0078 12F0010F 		tst	r2, #1
 2269 007c F5D0     		beq	.L143
1606:VS4210/keyremo.c **** 					// COCSelectModeType[i]=5;
 2270              		.loc 1 1606 6 is_stmt 1 view .LVU557
1606:VS4210/keyremo.c **** 					// COCSelectModeType[i]=5;
 2271              		.loc 1 1606 49 is_stmt 0 view .LVU558
 2272 007e 3B4A     		ldr	r2, .L161+20
 2273 0080 D15C     		ldrb	r1, [r2, r3]	@ zero_extendqisi2
ARM GAS  C:\Users\ryanc.HS\AppData\Local\Temp\ccZ9UySd.s 			page 96


1606:VS4210/keyremo.c **** 					// COCSelectModeType[i]=5;
 2274              		.loc 1 1606 30 view .LVU559
 2275 0082 3B4A     		ldr	r2, .L161+24
 2276 0084 D154     		strb	r1, [r2, r3]
 2277 0086 F0E7     		b	.L143
 2278              	.L156:
1614:VS4210/keyremo.c **** 			MCUTimerActiveTimerEvent(SEC(TimeStep), _USER_TIMER_EVENT_SEQ_CHECK);
 2279              		.loc 1 1614 4 is_stmt 1 view .LVU560
 2280 0088 1420     		movs	r0, #20
 2281              	.LVL190:
1614:VS4210/keyremo.c **** 			MCUTimerActiveTimerEvent(SEC(TimeStep), _USER_TIMER_EVENT_SEQ_CHECK);
 2282              		.loc 1 1614 4 is_stmt 0 view .LVU561
 2283 008a FFF7FEFF 		bl	MCUTimerCancelTimerEvent
 2284              	.LVL191:
1615:VS4210/keyremo.c **** 		}
 2285              		.loc 1 1615 4 is_stmt 1 view .LVU562
1615:VS4210/keyremo.c **** 		}
 2286              		.loc 1 1615 29 is_stmt 0 view .LVU563
 2287 008e 394B     		ldr	r3, .L161+28
 2288 0090 1B78     		ldrb	r3, [r3]	@ zero_extendqisi2
1615:VS4210/keyremo.c **** 		}
 2289              		.loc 1 1615 4 view .LVU564
 2290 0092 1421     		movs	r1, #20
 2291 0094 4FF47A70 		mov	r0, #1000
 2292 0098 00FB03F0 		mul	r0, r0, r3
 2293 009c FFF7FEFF 		bl	MCUTimerActiveTimerEvent
 2294              	.LVL192:
 2295 00a0 C2E7     		b	.L141
 2296              	.L155:
1620:VS4210/keyremo.c **** 			QuadBoxMode = TRUE;
 2297              		.loc 1 1620 4 is_stmt 1 view .LVU565
1620:VS4210/keyremo.c **** 			QuadBoxMode = TRUE;
 2298              		.loc 1 1620 32 is_stmt 0 view .LVU566
 2299 00a2 0121     		movs	r1, #1
 2300 00a4 314B     		ldr	r3, .L161+20
 2301 00a6 1954     		strb	r1, [r3, r0]
1621:VS4210/keyremo.c **** 			BOX_SET_CHANNEL(SEQIndex, COCSelectModeType[SEQIndex]);
 2302              		.loc 1 1621 4 is_stmt 1 view .LVU567
1621:VS4210/keyremo.c **** 			BOX_SET_CHANNEL(SEQIndex, COCSelectModeType[SEQIndex]);
 2303              		.loc 1 1621 16 is_stmt 0 view .LVU568
 2304 00a8 334B     		ldr	r3, .L161+32
 2305 00aa 1970     		strb	r1, [r3]
1622:VS4210/keyremo.c **** 		}
 2306              		.loc 1 1622 4 is_stmt 1 view .LVU569
 2307 00ac FFF7FEFF 		bl	BOX_SET_CHANNEL
 2308              	.LVL193:
 2309 00b0 C4E7     		b	.L145
 2310              	.LVL194:
 2311              	.L158:
1648:VS4210/keyremo.c **** 				SetCOCCom(_COCOSD_BOX_Sel, i);
 2312              		.loc 1 1648 5 view .LVU570
1648:VS4210/keyremo.c **** 				SetCOCCom(_COCOSD_BOX_Sel, i);
 2313              		.loc 1 1648 48 is_stmt 0 view .LVU571
 2314 00b2 2F4B     		ldr	r3, .L161+24
 2315 00b4 1B5D     		ldrb	r3, [r3, r4]	@ zero_extendqisi2
1648:VS4210/keyremo.c **** 				SetCOCCom(_COCOSD_BOX_Sel, i);
 2316              		.loc 1 1648 26 view .LVU572
ARM GAS  C:\Users\ryanc.HS\AppData\Local\Temp\ccZ9UySd.s 			page 97


 2317 00b6 2D4D     		ldr	r5, .L161+20
 2318 00b8 2B55     		strb	r3, [r5, r4]
1649:VS4210/keyremo.c **** 				SetCOCCom(_COCOSD_BOX_Channel_Sel, COCSelectModeType[i]);
 2319              		.loc 1 1649 5 is_stmt 1 view .LVU573
 2320 00ba 2146     		mov	r1, r4
 2321 00bc 1920     		movs	r0, #25
 2322 00be FFF7FEFF 		bl	SetCOCCom
 2323              	.LVL195:
1650:VS4210/keyremo.c **** 				Get_2824cIrq();
 2324              		.loc 1 1650 5 view .LVU574
 2325 00c2 295D     		ldrb	r1, [r5, r4]	@ zero_extendqisi2
 2326 00c4 1A20     		movs	r0, #26
 2327 00c6 FFF7FEFF 		bl	SetCOCCom
 2328              	.LVL196:
1651:VS4210/keyremo.c **** 			}
 2329              		.loc 1 1651 5 view .LVU575
 2330 00ca FFF7FEFF 		bl	Get_2824cIrq
 2331              	.LVL197:
 2332              	.L148:
1644:VS4210/keyremo.c **** 		{
 2333              		.loc 1 1644 22 discriminator 2 view .LVU576
1644:VS4210/keyremo.c **** 		{
 2334              		.loc 1 1644 23 is_stmt 0 discriminator 2 view .LVU577
 2335 00ce 0134     		adds	r4, r4, #1
 2336              	.LVL198:
1644:VS4210/keyremo.c **** 		{
 2337              		.loc 1 1644 23 discriminator 2 view .LVU578
 2338 00d0 E4B2     		uxtb	r4, r4
 2339              	.LVL199:
 2340              	.L147:
1644:VS4210/keyremo.c **** 		{
 2341              		.loc 1 1644 15 is_stmt 1 discriminator 1 view .LVU579
1644:VS4210/keyremo.c **** 		{
 2342              		.loc 1 1644 3 is_stmt 0 discriminator 1 view .LVU580
 2343 00d2 032C     		cmp	r4, #3
 2344 00d4 06D8     		bhi	.L157
1646:VS4210/keyremo.c **** 			{
 2345              		.loc 1 1646 4 is_stmt 1 view .LVU581
1646:VS4210/keyremo.c **** 			{
 2346              		.loc 1 1646 8 is_stmt 0 view .LVU582
 2347 00d6 234B     		ldr	r3, .L161+12
 2348 00d8 1B78     		ldrb	r3, [r3]	@ zero_extendqisi2
 2349 00da 2341     		asrs	r3, r3, r4
1646:VS4210/keyremo.c **** 			{
 2350              		.loc 1 1646 7 view .LVU583
 2351 00dc 13F0010F 		tst	r3, #1
 2352 00e0 F5D0     		beq	.L148
 2353 00e2 E6E7     		b	.L158
 2354              	.L157:
1662:VS4210/keyremo.c **** 
 2355              		.loc 1 1662 3 is_stmt 1 view .LVU584
 2356 00e4 254D     		ldr	r5, .L161+36
 2357 00e6 2B78     		ldrb	r3, [r5]	@ zero_extendqisi2
 2358 00e8 254C     		ldr	r4, .L161+40
 2359              	.LVL200:
1662:VS4210/keyremo.c **** 
 2360              		.loc 1 1662 3 is_stmt 0 view .LVU585
ARM GAS  C:\Users\ryanc.HS\AppData\Local\Temp\ccZ9UySd.s 			page 98


 2361 00ea E05C     		ldrb	r0, [r4, r3]	@ zero_extendqisi2
 2362 00ec FFF7FEFF 		bl	SetSelectCAMRD
 2363              	.LVL201:
1664:VS4210/keyremo.c **** 
 2364              		.loc 1 1664 3 is_stmt 1 view .LVU586
 2365 00f0 2B78     		ldrb	r3, [r5]	@ zero_extendqisi2
 2366 00f2 E05C     		ldrb	r0, [r4, r3]	@ zero_extendqisi2
 2367 00f4 FFF7FEFF 		bl	SetGarbberLinerMode
 2368              	.LVL202:
1666:VS4210/keyremo.c **** 
 2369              		.loc 1 1666 3 view .LVU587
1666:VS4210/keyremo.c **** 
 2370              		.loc 1 1666 35 is_stmt 0 view .LVU588
 2371 00f8 2B78     		ldrb	r3, [r5]	@ zero_extendqisi2
 2372 00fa E05C     		ldrb	r0, [r4, r3]	@ zero_extendqisi2
1666:VS4210/keyremo.c **** 
 2373              		.loc 1 1666 3 view .LVU589
 2374 00fc FFF7FEFF 		bl	setloopoutmode
 2375              	.LVL203:
1668:VS4210/keyremo.c **** 			MCUTimerActiveTimerEvent(SEC(0.2), _USER_TIMER_EVENT_BACKLIGHT_ON);
 2376              		.loc 1 1668 3 is_stmt 1 view .LVU590
1668:VS4210/keyremo.c **** 			MCUTimerActiveTimerEvent(SEC(0.2), _USER_TIMER_EVENT_BACKLIGHT_ON);
 2377              		.loc 1 1668 25 is_stmt 0 view .LVU591
 2378 0100 2B78     		ldrb	r3, [r5]	@ zero_extendqisi2
 2379 0102 E35C     		ldrb	r3, [r4, r3]	@ zero_extendqisi2
 2380 0104 DBB2     		uxtb	r3, r3
1668:VS4210/keyremo.c **** 			MCUTimerActiveTimerEvent(SEC(0.2), _USER_TIMER_EVENT_BACKLIGHT_ON);
 2381              		.loc 1 1668 6 view .LVU592
 2382 0106 042B     		cmp	r3, #4
 2383 0108 0ED0     		beq	.L159
1672:VS4210/keyremo.c **** 			AudioMute(OFF);
 2384              		.loc 1 1672 4 is_stmt 1 view .LVU593
 2385 010a FFF7FEFF 		bl	BackLightON
 2386              	.LVL204:
1673:VS4210/keyremo.c **** 		}
 2387              		.loc 1 1673 4 view .LVU594
 2388 010e 0020     		movs	r0, #0
 2389 0110 FFF7FEFF 		bl	AudioMute
 2390              	.LVL205:
 2391              	.L146:
1677:VS4210/keyremo.c **** 
 2392              		.loc 1 1677 2 view .LVU595
 2393 0114 104B     		ldr	r3, .L161
 2394 0116 1978     		ldrb	r1, [r3]	@ zero_extendqisi2
 2395 0118 AF20     		movs	r0, #175
 2396 011a FFF7FEFF 		bl	WriteEEP
 2397              	.LVL206:
1679:VS4210/keyremo.c **** 	{
 2398              		.loc 1 1679 2 view .LVU596
1679:VS4210/keyremo.c **** 	{
 2399              		.loc 1 1679 22 is_stmt 0 view .LVU597
 2400 011e 194B     		ldr	r3, .L161+44
 2401 0120 1B78     		ldrb	r3, [r3]	@ zero_extendqisi2
1679:VS4210/keyremo.c **** 	{
 2402              		.loc 1 1679 5 view .LVU598
 2403 0122 012B     		cmp	r3, #1
 2404 0124 05D0     		beq	.L160
ARM GAS  C:\Users\ryanc.HS\AppData\Local\Temp\ccZ9UySd.s 			page 99


 2405              	.L139:
1687:VS4210/keyremo.c **** 
 2406              		.loc 1 1687 1 view .LVU599
 2407 0126 38BD     		pop	{r3, r4, r5, pc}
 2408              	.L159:
1669:VS4210/keyremo.c **** 		else
 2409              		.loc 1 1669 4 is_stmt 1 view .LVU600
 2410 0128 1321     		movs	r1, #19
 2411 012a C820     		movs	r0, #200
 2412 012c FFF7FEFF 		bl	MCUTimerActiveTimerEvent
 2413              	.LVL207:
 2414 0130 F0E7     		b	.L146
 2415              	.L160:
1681:VS4210/keyremo.c **** 		MCUTimerActiveTimerEvent(SEC(10 - (bytStandByModeToTriggerMode * 5)), _SYSTEM_TIMER_EVENT_AUTO_SL
 2416              		.loc 1 1681 3 view .LVU601
 2417 0132 4E20     		movs	r0, #78
 2418 0134 FFF7FEFF 		bl	MCUTimerCancelTimerEvent
 2419              	.LVL208:
1682:VS4210/keyremo.c **** 	}
 2420              		.loc 1 1682 3 view .LVU602
1682:VS4210/keyremo.c **** 	}
 2421              		.loc 1 1682 28 is_stmt 0 view .LVU603
 2422 0138 134B     		ldr	r3, .L161+48
 2423 013a 1B78     		ldrb	r3, [r3]	@ zero_extendqisi2
 2424 013c C3EB8370 		rsb	r0, r3, r3, lsl #30
 2425 0140 C3EB8003 		rsb	r3, r3, r0, lsl #2
 2426 0144 0A33     		adds	r3, r3, #10
1682:VS4210/keyremo.c **** 	}
 2427              		.loc 1 1682 3 view .LVU604
 2428 0146 4E21     		movs	r1, #78
 2429 0148 4FF47A70 		mov	r0, #1000
 2430 014c 00FB03F0 		mul	r0, r0, r3
 2431 0150 FFF7FEFF 		bl	MCUTimerActiveTimerEvent
 2432              	.LVL209:
1687:VS4210/keyremo.c **** 
 2433              		.loc 1 1687 1 view .LVU605
 2434 0154 E7E7     		b	.L139
 2435              	.L162:
 2436 0156 00BF     		.align	2
 2437              	.L161:
 2438 0158 00000000 		.word	NowModeState
 2439 015c 00000000 		.word	.LANCHOR1
 2440 0160 00000000 		.word	SEQIndex
 2441 0164 00000000 		.word	QuadBoxId
 2442 0168 00000000 		.word	.LANCHOR10
 2443 016c 00000000 		.word	COCSelectModeType
 2444 0170 00000000 		.word	PreCOCSelectModeType
 2445 0174 00000000 		.word	TimeStep
 2446 0178 00000000 		.word	QuadBoxMode
 2447 017c 00000000 		.word	SelectModeType
 2448 0180 00000000 		.word	.LANCHOR4
 2449 0184 00000000 		.word	bytAutoSleeping
 2450 0188 00000000 		.word	bytStandByModeToTriggerMode
 2451              		.cfi_endproc
 2452              	.LFE78:
 2454              		.section	.text.SetSelectMode,"ax",%progbits
 2455              		.align	1
ARM GAS  C:\Users\ryanc.HS\AppData\Local\Temp\ccZ9UySd.s 			page 100


 2456              		.global	SetSelectMode
 2457              		.syntax unified
 2458              		.thumb
 2459              		.thumb_func
 2460              		.fpu softvfp
 2462              	SetSelectMode:
 2463              	.LFB79:
1690:VS4210/keyremo.c **** 
 2464              		.loc 1 1690 1 is_stmt 1 view -0
 2465              		.cfi_startproc
 2466              		@ args = 0, pretend = 0, frame = 0
 2467              		@ frame_needed = 0, uses_anonymous_args = 0
 2468 0000 38B5     		push	{r3, r4, r5, lr}
 2469              	.LCFI11:
 2470              		.cfi_def_cfa_offset 16
 2471              		.cfi_offset 3, -16
 2472              		.cfi_offset 4, -12
 2473              		.cfi_offset 5, -8
 2474              		.cfi_offset 14, -4
1692:VS4210/keyremo.c **** 	// WORD usNum;
 2475              		.loc 1 1692 2 view .LVU607
1695:VS4210/keyremo.c **** 
 2476              		.loc 1 1695 2 view .LVU608
1697:VS4210/keyremo.c **** 		Maxsource = CAM_D;
 2477              		.loc 1 1697 2 view .LVU609
1697:VS4210/keyremo.c **** 		Maxsource = CAM_D;
 2478              		.loc 1 1697 15 is_stmt 0 view .LVU610
 2479 0002 684B     		ldr	r3, .L190
 2480 0004 1B78     		ldrb	r3, [r3]	@ zero_extendqisi2
1697:VS4210/keyremo.c **** 		Maxsource = CAM_D;
 2481              		.loc 1 1697 5 view .LVU611
 2482 0006 002B     		cmp	r3, #0
 2483 0008 56D1     		bne	.L178
1698:VS4210/keyremo.c **** 	else
 2484              		.loc 1 1698 13 view .LVU612
 2485 000a 0421     		movs	r1, #4
 2486              	.L164:
 2487              	.LVL210:
1702:VS4210/keyremo.c **** 
 2488              		.loc 1 1702 2 is_stmt 1 view .LVU613
1702:VS4210/keyremo.c **** 
 2489              		.loc 1 1702 15 is_stmt 0 view .LVU614
 2490 000c 0023     		movs	r3, #0
 2491 000e 664A     		ldr	r2, .L190+4
 2492 0010 1370     		strb	r3, [r2]
1704:VS4210/keyremo.c **** 
 2493              		.loc 1 1704 2 is_stmt 1 view .LVU615
1704:VS4210/keyremo.c **** 
 2494              		.loc 1 1704 10 is_stmt 0 view .LVU616
 2495 0012 664A     		ldr	r2, .L190+8
 2496 0014 1370     		strb	r3, [r2]
1706:VS4210/keyremo.c **** 	{
 2497              		.loc 1 1706 2 is_stmt 1 view .LVU617
1706:VS4210/keyremo.c **** 	{
 2498              		.loc 1 1706 31 is_stmt 0 view .LVU618
 2499 0016 664B     		ldr	r3, .L190+12
 2500 0018 1B78     		ldrb	r3, [r3]	@ zero_extendqisi2
ARM GAS  C:\Users\ryanc.HS\AppData\Local\Temp\ccZ9UySd.s 			page 101


1706:VS4210/keyremo.c **** 	{
 2501              		.loc 1 1706 5 view .LVU619
 2502 001a 012B     		cmp	r3, #1
 2503 001c 67D0     		beq	.L182
1722:VS4210/keyremo.c **** 	{
 2504              		.loc 1 1722 7 is_stmt 1 view .LVU620
1722:VS4210/keyremo.c **** 	{
 2505              		.loc 1 1722 27 is_stmt 0 view .LVU621
 2506 001e 654B     		ldr	r3, .L190+16
 2507 0020 1878     		ldrb	r0, [r3]	@ zero_extendqisi2
1722:VS4210/keyremo.c **** 	{
 2508              		.loc 1 1722 10 view .LVU622
 2509 0022 0328     		cmp	r0, #3
 2510 0024 0DD8     		bhi	.L170
1722:VS4210/keyremo.c **** 	{
 2511              		.loc 1 1722 32 discriminator 1 view .LVU623
 2512 0026 644B     		ldr	r3, .L190+20
 2513 0028 1B78     		ldrb	r3, [r3]	@ zero_extendqisi2
 2514 002a 0341     		asrs	r3, r3, r0
 2515 002c 13F0010F 		tst	r3, #1
 2516 0030 07D0     		beq	.L170
1722:VS4210/keyremo.c **** 	{
 2517              		.loc 1 1722 92 discriminator 2 view .LVU624
 2518 0032 624B     		ldr	r3, .L190+24
 2519 0034 1B5C     		ldrb	r3, [r3, r0]	@ zero_extendqisi2
1722:VS4210/keyremo.c **** 	{
 2520              		.loc 1 1722 71 discriminator 2 view .LVU625
 2521 0036 052B     		cmp	r3, #5
 2522 0038 03D0     		beq	.L170
1722:VS4210/keyremo.c **** 	{
 2523              		.loc 1 1722 131 discriminator 3 view .LVU626
 2524 003a 614B     		ldr	r3, .L190+28
 2525 003c 1B78     		ldrb	r3, [r3]	@ zero_extendqisi2
1722:VS4210/keyremo.c **** 	{
 2526              		.loc 1 1722 115 discriminator 3 view .LVU627
 2527 003e 012B     		cmp	r3, #1
 2528 0040 7DD0     		beq	.L183
 2529              	.L170:
1729:VS4210/keyremo.c **** 		{
 2530              		.loc 1 1729 3 is_stmt 1 view .LVU628
1729:VS4210/keyremo.c **** 		{
 2531              		.loc 1 1729 6 is_stmt 0 view .LVU629
 2532 0042 8842     		cmp	r0, r1
 2533 0044 7FD3     		bcc	.L171
1731:VS4210/keyremo.c **** 			SelectModeType = CAM_A;
 2534              		.loc 1 1731 4 is_stmt 1 view .LVU630
1731:VS4210/keyremo.c **** 			SelectModeType = CAM_A;
 2535              		.loc 1 1731 16 is_stmt 0 view .LVU631
 2536 0046 0023     		movs	r3, #0
 2537 0048 5D4A     		ldr	r2, .L190+28
 2538 004a 1370     		strb	r3, [r2]
1732:VS4210/keyremo.c **** 		}
 2539              		.loc 1 1732 4 is_stmt 1 view .LVU632
1732:VS4210/keyremo.c **** 		}
 2540              		.loc 1 1732 19 is_stmt 0 view .LVU633
 2541 004c 594A     		ldr	r2, .L190+16
 2542 004e 1370     		strb	r3, [r2]
ARM GAS  C:\Users\ryanc.HS\AppData\Local\Temp\ccZ9UySd.s 			page 102


 2543              	.L172:
1740:VS4210/keyremo.c **** #if 0	
 2544              		.loc 1 1740 3 is_stmt 1 view .LVU634
 2545 0050 FFF7FEFF 		bl	BackLightOFF
 2546              	.LVL211:
1763:VS4210/keyremo.c **** 		{
 2547              		.loc 1 1763 3 view .LVU635
1763:VS4210/keyremo.c **** 		{
 2548              		.loc 1 1763 24 is_stmt 0 view .LVU636
 2549 0054 574B     		ldr	r3, .L190+16
 2550 0056 1A78     		ldrb	r2, [r3]	@ zero_extendqisi2
 2551 0058 5A4B     		ldr	r3, .L190+32
 2552 005a 9B5C     		ldrb	r3, [r3, r2]	@ zero_extendqisi2
 2553 005c DBB2     		uxtb	r3, r3
1763:VS4210/keyremo.c **** 		{
 2554              		.loc 1 1763 6 view .LVU637
 2555 005e 042B     		cmp	r3, #4
 2556 0060 78D0     		beq	.L184
1769:VS4210/keyremo.c **** 		{
 2557              		.loc 1 1769 8 is_stmt 1 view .LVU638
1769:VS4210/keyremo.c **** 		{
 2558              		.loc 1 1769 27 is_stmt 0 view .LVU639
 2559 0062 594B     		ldr	r3, .L190+36
 2560 0064 1B78     		ldrb	r3, [r3]	@ zero_extendqisi2
1769:VS4210/keyremo.c **** 		{
 2561              		.loc 1 1769 11 view .LVU640
 2562 0066 042B     		cmp	r3, #4
 2563 0068 7CD0     		beq	.L185
 2564              	.L174:
1783:VS4210/keyremo.c **** 
 2565              		.loc 1 1783 3 is_stmt 1 view .LVU641
 2566 006a 524C     		ldr	r4, .L190+16
 2567 006c 2378     		ldrb	r3, [r4]	@ zero_extendqisi2
 2568 006e 554D     		ldr	r5, .L190+32
 2569 0070 E85C     		ldrb	r0, [r5, r3]	@ zero_extendqisi2
 2570 0072 FFF7FEFF 		bl	SetGarbberLinerMode
 2571              	.LVL212:
1785:VS4210/keyremo.c **** 
 2572              		.loc 1 1785 3 view .LVU642
1785:VS4210/keyremo.c **** 
 2573              		.loc 1 1785 35 is_stmt 0 view .LVU643
 2574 0076 2378     		ldrb	r3, [r4]	@ zero_extendqisi2
 2575 0078 E85C     		ldrb	r0, [r5, r3]	@ zero_extendqisi2
1785:VS4210/keyremo.c **** 
 2576              		.loc 1 1785 3 view .LVU644
 2577 007a FFF7FEFF 		bl	setloopoutmode
 2578              	.LVL213:
1791:VS4210/keyremo.c **** 
 2579              		.loc 1 1791 3 is_stmt 1 view .LVU645
1791:VS4210/keyremo.c **** 
 2580              		.loc 1 1791 15 is_stmt 0 view .LVU646
 2581 007e 534B     		ldr	r3, .L190+40
 2582 0080 0122     		movs	r2, #1
 2583 0082 1A70     		strb	r2, [r3]
1793:VS4210/keyremo.c **** #if 1
 2584              		.loc 1 1793 3 is_stmt 1 view .LVU647
1793:VS4210/keyremo.c **** #if 1
ARM GAS  C:\Users\ryanc.HS\AppData\Local\Temp\ccZ9UySd.s 			page 103


 2585              		.loc 1 1793 21 is_stmt 0 view .LVU648
 2586 0084 524B     		ldr	r3, .L190+44
 2587 0086 0C22     		movs	r2, #12
 2588 0088 1A70     		strb	r2, [r3]
1795:VS4210/keyremo.c **** 		{
 2589              		.loc 1 1795 3 is_stmt 1 view .LVU649
1795:VS4210/keyremo.c **** 		{
 2590              		.loc 1 1795 23 is_stmt 0 view .LVU650
 2591 008a 2078     		ldrb	r0, [r4]	@ zero_extendqisi2
1795:VS4210/keyremo.c **** 		{
 2592              		.loc 1 1795 6 view .LVU651
 2593 008c 0328     		cmp	r0, #3
 2594 008e 37D8     		bhi	.L169
1795:VS4210/keyremo.c **** 		{
 2595              		.loc 1 1795 28 discriminator 1 view .LVU652
 2596 0090 494B     		ldr	r3, .L190+20
 2597 0092 1B78     		ldrb	r3, [r3]	@ zero_extendqisi2
 2598 0094 0341     		asrs	r3, r3, r0
 2599 0096 13F0010F 		tst	r3, #1
 2600 009a 31D0     		beq	.L169
1795:VS4210/keyremo.c **** 		{
 2601              		.loc 1 1795 83 discriminator 2 view .LVU653
 2602 009c 484B     		ldr	r3, .L190+28
 2603 009e 1B78     		ldrb	r3, [r3]	@ zero_extendqisi2
1795:VS4210/keyremo.c **** 		{
 2604              		.loc 1 1795 67 discriminator 2 view .LVU654
 2605 00a0 73BB     		cbnz	r3, .L169
1797:VS4210/keyremo.c **** 			QuadBoxMode = TRUE;
 2606              		.loc 1 1797 4 is_stmt 1 view .LVU655
1797:VS4210/keyremo.c **** 			QuadBoxMode = TRUE;
 2607              		.loc 1 1797 38 is_stmt 0 view .LVU656
 2608 00a2 0121     		movs	r1, #1
 2609 00a4 454B     		ldr	r3, .L190+24
 2610 00a6 1954     		strb	r1, [r3, r0]
1798:VS4210/keyremo.c **** 			BOX_SET_CHANNEL(SelectModeType, COCSelectModeType[SelectModeType]);
 2611              		.loc 1 1798 4 is_stmt 1 view .LVU657
1798:VS4210/keyremo.c **** 			BOX_SET_CHANNEL(SelectModeType, COCSelectModeType[SelectModeType]);
 2612              		.loc 1 1798 16 is_stmt 0 view .LVU658
 2613 00a8 454B     		ldr	r3, .L190+28
 2614 00aa 1970     		strb	r1, [r3]
1799:VS4210/keyremo.c **** 
 2615              		.loc 1 1799 4 is_stmt 1 view .LVU659
 2616 00ac FFF7FEFF 		bl	BOX_SET_CHANNEL
 2617              	.LVL214:
1801:VS4210/keyremo.c **** 		}
 2618              		.loc 1 1801 4 view .LVU660
 2619 00b0 4848     		ldr	r0, .L190+48
 2620 00b2 FFF7FEFF 		bl	Printf
 2621              	.LVL215:
 2622 00b6 23E0     		b	.L169
 2623              	.L178:
1700:VS4210/keyremo.c **** 
 2624              		.loc 1 1700 13 is_stmt 0 view .LVU661
 2625 00b8 0C21     		movs	r1, #12
 2626 00ba A7E7     		b	.L164
 2627              	.LVL216:
 2628              	.L187:
ARM GAS  C:\Users\ryanc.HS\AppData\Local\Temp\ccZ9UySd.s 			page 104


1712:VS4210/keyremo.c **** 				SetCOCCom(_COCOSD_BOX_Sel, i);
 2629              		.loc 1 1712 5 is_stmt 1 view .LVU662
1712:VS4210/keyremo.c **** 				SetCOCCom(_COCOSD_BOX_Sel, i);
 2630              		.loc 1 1712 48 is_stmt 0 view .LVU663
 2631 00bc 464B     		ldr	r3, .L190+52
 2632 00be 1B5D     		ldrb	r3, [r3, r4]	@ zero_extendqisi2
1712:VS4210/keyremo.c **** 				SetCOCCom(_COCOSD_BOX_Sel, i);
 2633              		.loc 1 1712 26 view .LVU664
 2634 00c0 3E4D     		ldr	r5, .L190+24
 2635 00c2 2B55     		strb	r3, [r5, r4]
1713:VS4210/keyremo.c **** 				SetCOCCom(_COCOSD_BOX_Channel_Sel, COCSelectModeType[i]);
 2636              		.loc 1 1713 5 is_stmt 1 view .LVU665
 2637 00c4 2146     		mov	r1, r4
 2638 00c6 1920     		movs	r0, #25
 2639 00c8 FFF7FEFF 		bl	SetCOCCom
 2640              	.LVL217:
1714:VS4210/keyremo.c **** 				Get_2824cIrq();
 2641              		.loc 1 1714 5 view .LVU666
 2642 00cc 295D     		ldrb	r1, [r5, r4]	@ zero_extendqisi2
 2643 00ce 1A20     		movs	r0, #26
 2644 00d0 FFF7FEFF 		bl	SetCOCCom
 2645              	.LVL218:
1715:VS4210/keyremo.c **** 			}
 2646              		.loc 1 1715 5 view .LVU667
 2647 00d4 FFF7FEFF 		bl	Get_2824cIrq
 2648              	.LVL219:
 2649              	.L167:
1708:VS4210/keyremo.c **** 		{
 2650              		.loc 1 1708 22 discriminator 2 view .LVU668
1708:VS4210/keyremo.c **** 		{
 2651              		.loc 1 1708 23 is_stmt 0 discriminator 2 view .LVU669
 2652 00d8 0134     		adds	r4, r4, #1
 2653              	.LVL220:
1708:VS4210/keyremo.c **** 		{
 2654              		.loc 1 1708 23 discriminator 2 view .LVU670
 2655 00da E4B2     		uxtb	r4, r4
 2656              	.LVL221:
 2657              	.L165:
1708:VS4210/keyremo.c **** 		{
 2658              		.loc 1 1708 15 is_stmt 1 discriminator 1 view .LVU671
1708:VS4210/keyremo.c **** 		{
 2659              		.loc 1 1708 3 is_stmt 0 discriminator 1 view .LVU672
 2660 00dc 032C     		cmp	r4, #3
 2661 00de 08D8     		bhi	.L186
1710:VS4210/keyremo.c **** 			{
 2662              		.loc 1 1710 4 is_stmt 1 view .LVU673
1710:VS4210/keyremo.c **** 			{
 2663              		.loc 1 1710 8 is_stmt 0 view .LVU674
 2664 00e0 354B     		ldr	r3, .L190+20
 2665 00e2 1B78     		ldrb	r3, [r3]	@ zero_extendqisi2
 2666 00e4 2341     		asrs	r3, r3, r4
1710:VS4210/keyremo.c **** 			{
 2667              		.loc 1 1710 7 view .LVU675
 2668 00e6 13F0010F 		tst	r3, #1
 2669 00ea F5D0     		beq	.L167
 2670 00ec E6E7     		b	.L187
 2671              	.LVL222:
ARM GAS  C:\Users\ryanc.HS\AppData\Local\Temp\ccZ9UySd.s 			page 105


 2672              	.L182:
1708:VS4210/keyremo.c **** 		{
 2673              		.loc 1 1708 10 view .LVU676
 2674 00ee 0024     		movs	r4, #0
 2675 00f0 F4E7     		b	.L165
 2676              	.LVL223:
 2677              	.L186:
1719:VS4210/keyremo.c **** 		SelectModeType = TouchPreSelectModeType;
 2678              		.loc 1 1719 3 is_stmt 1 view .LVU677
1719:VS4210/keyremo.c **** 		SelectModeType = TouchPreSelectModeType;
 2679              		.loc 1 1719 28 is_stmt 0 view .LVU678
 2680 00f2 2F4B     		ldr	r3, .L190+12
 2681 00f4 0022     		movs	r2, #0
 2682 00f6 1A70     		strb	r2, [r3]
1720:VS4210/keyremo.c **** 	}
 2683              		.loc 1 1720 3 is_stmt 1 view .LVU679
1720:VS4210/keyremo.c **** 	}
 2684              		.loc 1 1720 18 is_stmt 0 view .LVU680
 2685 00f8 384B     		ldr	r3, .L190+56
 2686 00fa 1A78     		ldrb	r2, [r3]	@ zero_extendqisi2
 2687 00fc 2D4B     		ldr	r3, .L190+16
 2688 00fe 1A70     		strb	r2, [r3]
 2689              	.LVL224:
 2690              	.L169:
1897:VS4210/keyremo.c **** 	WriteEEP(EEP_NowModeState, NowModeState);
 2691              		.loc 1 1897 2 is_stmt 1 view .LVU681
 2692 0100 2C4C     		ldr	r4, .L190+16
 2693 0102 2178     		ldrb	r1, [r4]	@ zero_extendqisi2
 2694 0104 B020     		movs	r0, #176
 2695 0106 FFF7FEFF 		bl	WriteEEP
 2696              	.LVL225:
1898:VS4210/keyremo.c **** 
 2697              		.loc 1 1898 2 view .LVU682
 2698 010a 274B     		ldr	r3, .L190+4
 2699 010c 1978     		ldrb	r1, [r3]	@ zero_extendqisi2
 2700 010e AF20     		movs	r0, #175
 2701 0110 FFF7FEFF 		bl	WriteEEP
 2702              	.LVL226:
1900:VS4210/keyremo.c **** 		MCUTimerActiveTimerEvent(SEC(0.2), _USER_TIMER_EVENT_BACKLIGHT_ON);
 2703              		.loc 1 1900 2 view .LVU683
1900:VS4210/keyremo.c **** 		MCUTimerActiveTimerEvent(SEC(0.2), _USER_TIMER_EVENT_BACKLIGHT_ON);
 2704              		.loc 1 1900 23 is_stmt 0 view .LVU684
 2705 0114 2378     		ldrb	r3, [r4]	@ zero_extendqisi2
 2706 0116 2B4A     		ldr	r2, .L190+32
 2707 0118 D35C     		ldrb	r3, [r2, r3]	@ zero_extendqisi2
 2708 011a DBB2     		uxtb	r3, r3
1900:VS4210/keyremo.c **** 		MCUTimerActiveTimerEvent(SEC(0.2), _USER_TIMER_EVENT_BACKLIGHT_ON);
 2709              		.loc 1 1900 5 view .LVU685
 2710 011c 042B     		cmp	r3, #4
 2711 011e 29D0     		beq	.L188
1904:VS4210/keyremo.c **** 		AudioMute(OFF);
 2712              		.loc 1 1904 3 is_stmt 1 view .LVU686
 2713 0120 FFF7FEFF 		bl	BackLightON
 2714              	.LVL227:
1905:VS4210/keyremo.c **** 	}
 2715              		.loc 1 1905 3 view .LVU687
 2716 0124 0020     		movs	r0, #0
ARM GAS  C:\Users\ryanc.HS\AppData\Local\Temp\ccZ9UySd.s 			page 106


 2717 0126 FFF7FEFF 		bl	AudioMute
 2718              	.LVL228:
 2719              	.L176:
1907:VS4210/keyremo.c **** 	{
 2720              		.loc 1 1907 2 view .LVU688
1907:VS4210/keyremo.c **** 	{
 2721              		.loc 1 1907 22 is_stmt 0 view .LVU689
 2722 012a 2D4B     		ldr	r3, .L190+60
 2723 012c 1B78     		ldrb	r3, [r3]	@ zero_extendqisi2
1907:VS4210/keyremo.c **** 	{
 2724              		.loc 1 1907 5 view .LVU690
 2725 012e 012B     		cmp	r3, #1
 2726 0130 25D0     		beq	.L189
 2727              	.L177:
1913:VS4210/keyremo.c **** }
 2728              		.loc 1 1913 2 is_stmt 1 view .LVU691
 2729 0132 204B     		ldr	r3, .L190+16
 2730 0134 1978     		ldrb	r1, [r3]	@ zero_extendqisi2
 2731 0136 2B48     		ldr	r0, .L190+64
 2732 0138 FFF7FEFF 		bl	Printf
 2733              	.LVL229:
1914:VS4210/keyremo.c **** 
 2734              		.loc 1 1914 1 is_stmt 0 view .LVU692
 2735 013c 38BD     		pop	{r3, r4, r5, pc}
 2736              	.LVL230:
 2737              	.L183:
1724:VS4210/keyremo.c **** 	}
 2738              		.loc 1 1724 3 is_stmt 1 view .LVU693
 2739 013e 0121     		movs	r1, #1
 2740              	.LVL231:
1724:VS4210/keyremo.c **** 	}
 2741              		.loc 1 1724 3 is_stmt 0 view .LVU694
 2742 0140 FFF7FEFF 		bl	BOX_SELECT_CHANNEL
 2743              	.LVL232:
 2744 0144 DCE7     		b	.L169
 2745              	.LVL233:
 2746              	.L171:
1736:VS4210/keyremo.c **** 			SelectModeType++;
 2747              		.loc 1 1736 4 is_stmt 1 view .LVU695
1736:VS4210/keyremo.c **** 			SelectModeType++;
 2748              		.loc 1 1736 16 is_stmt 0 view .LVU696
 2749 0146 1E4B     		ldr	r3, .L190+28
 2750 0148 0022     		movs	r2, #0
 2751 014a 1A70     		strb	r2, [r3]
1737:VS4210/keyremo.c **** 		}
 2752              		.loc 1 1737 4 is_stmt 1 view .LVU697
1737:VS4210/keyremo.c **** 		}
 2753              		.loc 1 1737 18 is_stmt 0 view .LVU698
 2754 014c 0130     		adds	r0, r0, #1
 2755 014e 194B     		ldr	r3, .L190+16
 2756 0150 1870     		strb	r0, [r3]
 2757 0152 7DE7     		b	.L172
 2758              	.LVL234:
 2759              	.L184:
1766:VS4210/keyremo.c **** 			bytSelectCAMRD = SelectCameraD;
 2760              		.loc 1 1766 4 is_stmt 1 view .LVU699
 2761 0154 1B4B     		ldr	r3, .L190+32
ARM GAS  C:\Users\ryanc.HS\AppData\Local\Temp\ccZ9UySd.s 			page 107


 2762 0156 985C     		ldrb	r0, [r3, r2]	@ zero_extendqisi2
 2763 0158 FFF7FEFF 		bl	SetSelectCAMRD
 2764              	.LVL235:
1767:VS4210/keyremo.c **** 		}
 2765              		.loc 1 1767 4 view .LVU700
1767:VS4210/keyremo.c **** 		}
 2766              		.loc 1 1767 19 is_stmt 0 view .LVU701
 2767 015c 1A4B     		ldr	r3, .L190+36
 2768 015e 0422     		movs	r2, #4
 2769 0160 1A70     		strb	r2, [r3]
 2770 0162 82E7     		b	.L174
 2771              	.L185:
1772:VS4210/keyremo.c **** 			bytSelectCAMRD = SelectCameraR;
 2772              		.loc 1 1772 4 is_stmt 1 view .LVU702
 2773 0164 174B     		ldr	r3, .L190+32
 2774 0166 985C     		ldrb	r0, [r3, r2]	@ zero_extendqisi2
 2775 0168 FFF7FEFF 		bl	SetSelectCAMRD
 2776              	.LVL236:
1773:VS4210/keyremo.c **** 		}
 2777              		.loc 1 1773 4 view .LVU703
1773:VS4210/keyremo.c **** 		}
 2778              		.loc 1 1773 19 is_stmt 0 view .LVU704
 2779 016c 164B     		ldr	r3, .L190+36
 2780 016e 0322     		movs	r2, #3
 2781 0170 1A70     		strb	r2, [r3]
 2782 0172 7AE7     		b	.L174
 2783              	.L188:
1901:VS4210/keyremo.c **** 	else
 2784              		.loc 1 1901 3 is_stmt 1 view .LVU705
 2785 0174 1321     		movs	r1, #19
 2786 0176 C820     		movs	r0, #200
 2787 0178 FFF7FEFF 		bl	MCUTimerActiveTimerEvent
 2788              	.LVL237:
 2789 017c D5E7     		b	.L176
 2790              	.L189:
1909:VS4210/keyremo.c **** 		MCUTimerActiveTimerEvent(SEC(10 - (bytStandByModeToTriggerMode * 5)), _SYSTEM_TIMER_EVENT_AUTO_SL
 2791              		.loc 1 1909 3 view .LVU706
 2792 017e 4E20     		movs	r0, #78
 2793 0180 FFF7FEFF 		bl	MCUTimerCancelTimerEvent
 2794              	.LVL238:
1910:VS4210/keyremo.c **** 	}
 2795              		.loc 1 1910 3 view .LVU707
1910:VS4210/keyremo.c **** 	}
 2796              		.loc 1 1910 28 is_stmt 0 view .LVU708
 2797 0184 184B     		ldr	r3, .L190+68
 2798 0186 1878     		ldrb	r0, [r3]	@ zero_extendqisi2
 2799 0188 C0EB8073 		rsb	r3, r0, r0, lsl #30
 2800 018c C0EB8300 		rsb	r0, r0, r3, lsl #2
 2801 0190 0A30     		adds	r0, r0, #10
1910:VS4210/keyremo.c **** 	}
 2802              		.loc 1 1910 3 view .LVU709
 2803 0192 4E21     		movs	r1, #78
 2804 0194 4FF47A73 		mov	r3, #1000
 2805 0198 03FB00F0 		mul	r0, r3, r0
 2806 019c FFF7FEFF 		bl	MCUTimerActiveTimerEvent
 2807              	.LVL239:
 2808 01a0 C7E7     		b	.L177
ARM GAS  C:\Users\ryanc.HS\AppData\Local\Temp\ccZ9UySd.s 			page 108


 2809              	.L191:
 2810 01a2 00BF     		.align	2
 2811              	.L190:
 2812 01a4 00000000 		.word	Priority
 2813 01a8 00000000 		.word	NowModeState
 2814 01ac 00000000 		.word	.LANCHOR1
 2815 01b0 00000000 		.word	.LANCHOR2
 2816 01b4 00000000 		.word	SelectModeType
 2817 01b8 00000000 		.word	QuadBoxId
 2818 01bc 00000000 		.word	COCSelectModeType
 2819 01c0 00000000 		.word	QuadBoxMode
 2820 01c4 00000000 		.word	.LANCHOR4
 2821 01c8 00000000 		.word	bytSelectCAMRD
 2822 01cc 00000000 		.word	OSDStateFlg
 2823 01d0 00000000 		.word	PreSelectModeType
 2824 01d4 00000000 		.word	.LC2
 2825 01d8 00000000 		.word	PreCOCSelectModeType
 2826 01dc 00000000 		.word	.LANCHOR3
 2827 01e0 00000000 		.word	bytAutoSleeping
 2828 01e4 14000000 		.word	.LC3
 2829 01e8 00000000 		.word	bytStandByModeToTriggerMode
 2830              		.cfi_endproc
 2831              	.LFE79:
 2833              		.section	.rodata.CheckKeyIn.str1.4,"aMS",%progbits,1
 2834              		.align	2
 2835              	.LC19:
 2836 0000 0D0A5057 		.ascii	"\015\012PWR key\000"
 2836      52206B65 
 2836      7900
 2837 000a 0000     		.align	2
 2838              	.LC20:
 2839 000c 0D0A4D45 		.ascii	"\015\012MENU key\000"
 2839      4E55206B 
 2839      657900
 2840 0017 00       		.align	2
 2841              	.LC21:
 2842 0018 0D0A4A55 		.ascii	"\015\012JUMP key\000"
 2842      4D50206B 
 2842      657900
 2843 0023 00       		.align	2
 2844              	.LC22:
 2845 0024 0D0A5550 		.ascii	"\015\012UP key\000"
 2845      206B6579 
 2845      00
 2846 002d 000000   		.align	2
 2847              	.LC23:
 2848 0030 0D0A444F 		.ascii	"\015\012DOWN key\000"
 2848      574E206B 
 2848      657900
 2849 003b 00       		.align	2
 2850              	.LC24:
 2851 003c 0D0A5345 		.ascii	"\015\012SELECT key\000"
 2851      4C454354 
 2851      206B6579 
 2851      00
 2852 0049 000000   		.align	2
 2853              	.LC25:
ARM GAS  C:\Users\ryanc.HS\AppData\Local\Temp\ccZ9UySd.s 			page 109


 2854 004c 0D0A554E 		.ascii	"\015\012UNLOCK key\000"
 2854      4C4F434B 
 2854      206B6579 
 2854      00
 2855 0059 000000   		.align	2
 2856              	.LC26:
 2857 005c 0D0A4E4F 		.ascii	"\015\012NOT ASSIGNED key pressed\000"
 2857      54204153 
 2857      5349474E 
 2857      4544206B 
 2857      65792070 
 2858 0077 00       		.align	2
 2859              	.LC27:
 2860 0078 2844494D 		.ascii	"(DIMMER_change_disable_1)\000"
 2860      4D45525F 
 2860      6368616E 
 2860      67655F64 
 2860      69736162 
 2861 0092 0000     		.align	2
 2862              	.LC28:
 2863 0094 2844494D 		.ascii	"(DIMMER_change_disable_2)\000"
 2863      4D45525F 
 2863      6368616E 
 2863      67655F64 
 2863      69736162 
 2864 00ae 0000     		.align	2
 2865              	.LC29:
 2866 00b0 28576169 		.ascii	"(Waiting PWR SW release)\000"
 2866      74696E67 
 2866      20505752 
 2866      20535720 
 2866      72656C65 
 2867 00c9 000000   		.align	2
 2868              	.LC30:
 2869 00cc 2844494D 		.ascii	"(DIMMER_Key1)\000"
 2869      4D45525F 
 2869      4B657931 
 2869      2900
 2870 00da 0000     		.align	2
 2871              	.LC31:
 2872 00dc 2844494D 		.ascii	"(DIMMER_Key2)\000"
 2872      4D45525F 
 2872      4B657932 
 2872      2900
 2873 00ea 0000     		.align	2
 2874              	.LC32:
 2875 00ec 28434F43 		.ascii	"(COC OSD Close)\000"
 2875      204F5344 
 2875      20436C6F 
 2875      73652900 
 2876              		.align	2
 2877              	.LC33:
 2878 00fc 2853686F 		.ascii	"(Show Version OSD)\000"
 2878      77205665 
 2878      7273696F 
 2878      6E204F53 
 2878      442900
ARM GAS  C:\Users\ryanc.HS\AppData\Local\Temp\ccZ9UySd.s 			page 110


 2879 010f 00       		.align	2
 2880              	.LC34:
 2881 0110 0D0A504F 		.ascii	"\015\012POWER key \000"
 2881      57455220 
 2881      6B657920 
 2881      00
 2882 011d 000000   		.align	2
 2883              	.LC35:
 2884 0120 0D0A4D45 		.ascii	"\015\012MENUKEY key \000"
 2884      4E554B45 
 2884      59206B65 
 2884      792000
 2885 012f 00       		.align	2
 2886              	.LC36:
 2887 0130 0D0A2843 		.ascii	"\015\012(COC Menu key)\000"
 2887      4F43204D 
 2887      656E7520 
 2887      6B657929 
 2887      00
 2888 0141 000000   		.align	2
 2889              	.LC37:
 2890 0144 0D0A2843 		.ascii	"\015\012(COC UP key)\000"
 2890      4F432055 
 2890      50206B65 
 2890      792900
 2891 0153 00       		.align	2
 2892              	.LC38:
 2893 0154 0D0A2843 		.ascii	"\015\012(COC DOWN key)\000"
 2893      4F432044 
 2893      4F574E20 
 2893      6B657929 
 2893      00
 2894 0165 000000   		.align	2
 2895              	.LC39:
 2896 0168 0D0A2843 		.ascii	"\015\012(COC Right key)\000"
 2896      4F432052 
 2896      69676874 
 2896      206B6579 
 2896      2900
 2897 017a 0000     		.align	2
 2898              	.LC40:
 2899 017c 0D0A2843 		.ascii	"\015\012(COC Left key)\000"
 2899      4F43204C 
 2899      65667420 
 2899      6B657929 
 2899      00
 2900              		.section	.text.CheckKeyIn,"ax",%progbits
 2901              		.align	1
 2902              		.global	CheckKeyIn
 2903              		.syntax unified
 2904              		.thumb
 2905              		.thumb_func
 2906              		.fpu softvfp
 2908              	CheckKeyIn:
 2909              	.LFB74:
 727:VS4210/keyremo.c **** 	BYTE ret = 1, ikey /*,OSD_LOCK*/, loop;
 2910              		.loc 1 727 1 is_stmt 1 view -0
ARM GAS  C:\Users\ryanc.HS\AppData\Local\Temp\ccZ9UySd.s 			page 111


 2911              		.cfi_startproc
 2912              		@ args = 0, pretend = 0, frame = 0
 2913              		@ frame_needed = 0, uses_anonymous_args = 0
 2914 0000 70B5     		push	{r4, r5, r6, lr}
 2915              	.LCFI12:
 2916              		.cfi_def_cfa_offset 16
 2917              		.cfi_offset 4, -16
 2918              		.cfi_offset 5, -12
 2919              		.cfi_offset 6, -8
 2920              		.cfi_offset 14, -4
 728:VS4210/keyremo.c **** 	/*
 2921              		.loc 1 728 2 view .LVU711
 2922              	.LVL240:
 739:VS4210/keyremo.c **** 
 2923              		.loc 1 739 2 view .LVU712
 739:VS4210/keyremo.c **** 
 2924              		.loc 1 739 9 is_stmt 0 view .LVU713
 2925 0002 0120     		movs	r0, #1
 2926 0004 FFF7FEFF 		bl	GetKey
 2927              	.LVL241:
 741:VS4210/keyremo.c **** 	{
 2928              		.loc 1 741 2 is_stmt 1 view .LVU714
 741:VS4210/keyremo.c **** 	{
 2929              		.loc 1 741 5 is_stmt 0 view .LVU715
 2930 0008 0028     		cmp	r0, #0
 2931 000a 00F09C83 		beq	.L262
 2932 000e 0446     		mov	r4, r0
 745:VS4210/keyremo.c **** 		{
 2933              		.loc 1 745 3 is_stmt 1 view .LVU716
 2934 0010 2028     		cmp	r0, #32
 2935 0012 19D8     		bhi	.L194
 2936 0014 43B2     		sxtb	r3, r0
 2937 0016 002B     		cmp	r3, #0
 2938 0018 00F0D380 		beq	.L195
 2939 001c 431E     		subs	r3, r0, #1
 2940 001e 1F2B     		cmp	r3, #31
 2941 0020 00F2CF80 		bhi	.L195
 2942 0024 DFE803F0 		tbb	[pc, r3]
 2943              	.L197:
 2944 0028 C5       		.byte	(.L200-.L197)/2
 2945 0029 C9       		.byte	(.L199-.L197)/2
 2946 002a CD       		.byte	(.L195-.L197)/2
 2947 002b CD       		.byte	(.L195-.L197)/2
 2948 002c CD       		.byte	(.L195-.L197)/2
 2949 002d CD       		.byte	(.L195-.L197)/2
 2950 002e CD       		.byte	(.L195-.L197)/2
 2951 002f CD       		.byte	(.L195-.L197)/2
 2952 0030 CD       		.byte	(.L195-.L197)/2
 2953 0031 CD       		.byte	(.L195-.L197)/2
 2954 0032 CD       		.byte	(.L195-.L197)/2
 2955 0033 CD       		.byte	(.L195-.L197)/2
 2956 0034 CD       		.byte	(.L195-.L197)/2
 2957 0035 CD       		.byte	(.L195-.L197)/2
 2958 0036 CD       		.byte	(.L195-.L197)/2
 2959 0037 20       		.byte	(.L198-.L197)/2
 2960 0038 CD       		.byte	(.L195-.L197)/2
 2961 0039 CD       		.byte	(.L195-.L197)/2
ARM GAS  C:\Users\ryanc.HS\AppData\Local\Temp\ccZ9UySd.s 			page 112


 2962 003a CD       		.byte	(.L195-.L197)/2
 2963 003b CD       		.byte	(.L195-.L197)/2
 2964 003c CD       		.byte	(.L195-.L197)/2
 2965 003d CD       		.byte	(.L195-.L197)/2
 2966 003e CD       		.byte	(.L195-.L197)/2
 2967 003f CD       		.byte	(.L195-.L197)/2
 2968 0040 CD       		.byte	(.L195-.L197)/2
 2969 0041 CD       		.byte	(.L195-.L197)/2
 2970 0042 CD       		.byte	(.L195-.L197)/2
 2971 0043 CD       		.byte	(.L195-.L197)/2
 2972 0044 CD       		.byte	(.L195-.L197)/2
 2973 0045 CD       		.byte	(.L195-.L197)/2
 2974 0046 CD       		.byte	(.L195-.L197)/2
 2975 0047 BD       		.byte	(.L196-.L197)/2
 2976              		.p2align 1
 2977              	.L194:
 2978 0048 8028     		cmp	r0, #128
 2979 004a 00F0AE80 		beq	.L201
 2980 004e C028     		cmp	r0, #192
 2981 0050 03D1     		bne	.L276
 772:VS4210/keyremo.c **** 			break;
 2982              		.loc 1 772 4 view .LVU717
 2983 0052 A248     		ldr	r0, .L308
 2984              	.LVL242:
 772:VS4210/keyremo.c **** 			break;
 2985              		.loc 1 772 4 is_stmt 0 view .LVU718
 2986 0054 FFF7FEFF 		bl	Printf
 2987              	.LVL243:
 773:VS4210/keyremo.c **** 		default:
 2988              		.loc 1 773 4 is_stmt 1 view .LVU719
 2989 0058 09E0     		b	.L204
 2990              	.LVL244:
 2991              	.L276:
 745:VS4210/keyremo.c **** 		{
 2992              		.loc 1 745 3 is_stmt 0 view .LVU720
 2993 005a 4028     		cmp	r0, #64
 2994 005c 40F0B180 		bne	.L195
 769:VS4210/keyremo.c **** 			break; // Printf("\r\nSELECTKEY key pressed"); break;
 2995              		.loc 1 769 4 is_stmt 1 view .LVU721
 2996 0060 9F48     		ldr	r0, .L308+4
 2997              	.LVL245:
 769:VS4210/keyremo.c **** 			break; // Printf("\r\nSELECTKEY key pressed"); break;
 2998              		.loc 1 769 4 is_stmt 0 view .LVU722
 2999 0062 FFF7FEFF 		bl	Printf
 3000              	.LVL246:
 770:VS4210/keyremo.c **** 		case UNLOCKKEY:
 3001              		.loc 1 770 4 is_stmt 1 view .LVU723
 3002 0066 02E0     		b	.L204
 3003              	.LVL247:
 3004              	.L198:
 748:VS4210/keyremo.c **** 			break;
 3005              		.loc 1 748 4 view .LVU724
 3006 0068 9E48     		ldr	r0, .L308+8
 3007              	.LVL248:
 748:VS4210/keyremo.c **** 			break;
 3008              		.loc 1 748 4 is_stmt 0 view .LVU725
 3009 006a FFF7FEFF 		bl	Printf
ARM GAS  C:\Users\ryanc.HS\AppData\Local\Temp\ccZ9UySd.s 			page 113


 3010              	.LVL249:
 749:VS4210/keyremo.c **** 		case MENUKEY:
 3011              		.loc 1 749 4 is_stmt 1 view .LVU726
 3012              	.L204:
 785:VS4210/keyremo.c **** 		{
 3013              		.loc 1 785 3 view .LVU727
 785:VS4210/keyremo.c **** 		{
 3014              		.loc 1 785 6 is_stmt 0 view .LVU728
 3015 006e 102C     		cmp	r4, #16
 3016 0070 07D0     		beq	.L205
 787:VS4210/keyremo.c **** 			{
 3017              		.loc 1 787 4 is_stmt 1 view .LVU729
 787:VS4210/keyremo.c **** 			{
 3018              		.loc 1 787 19 is_stmt 0 view .LVU730
 3019 0072 9D4B     		ldr	r3, .L308+12
 3020 0074 1B78     		ldrb	r3, [r3]	@ zero_extendqisi2
 787:VS4210/keyremo.c **** 			{
 3021              		.loc 1 787 7 view .LVU731
 3022 0076 012B     		cmp	r3, #1
 3023 0078 00F0A780 		beq	.L277
 794:VS4210/keyremo.c **** 			{
 3024              		.loc 1 794 9 is_stmt 1 view .LVU732
 794:VS4210/keyremo.c **** 			{
 3025              		.loc 1 794 12 is_stmt 0 view .LVU733
 3026 007c 032B     		cmp	r3, #3
 3027 007e 00F0AB80 		beq	.L278
 3028              	.L205:
 803:VS4210/keyremo.c **** 		{
 3029              		.loc 1 803 3 is_stmt 1 view .LVU734
 803:VS4210/keyremo.c **** 		{
 3030              		.loc 1 803 7 is_stmt 0 view .LVU735
 3031 0082 9A4B     		ldr	r3, .L308+16
 3032 0084 1B78     		ldrb	r3, [r3]	@ zero_extendqisi2
 803:VS4210/keyremo.c **** 		{
 3033              		.loc 1 803 6 view .LVU736
 3034 0086 002B     		cmp	r3, #0
 3035 0088 40F06083 		bne	.L263
 803:VS4210/keyremo.c **** 		{
 3036              		.loc 1 803 20 discriminator 1 view .LVU737
 3037 008c 984B     		ldr	r3, .L308+20
 3038 008e 1B78     		ldrb	r3, [r3]	@ zero_extendqisi2
 3039 0090 002B     		cmp	r3, #0
 3040 0092 40F05D83 		bne	.L264
 803:VS4210/keyremo.c **** 		{
 3041              		.loc 1 803 42 discriminator 2 view .LVU738
 3042 0096 974B     		ldr	r3, .L308+24
 3043 0098 1B78     		ldrb	r3, [r3]	@ zero_extendqisi2
 3044 009a 002B     		cmp	r3, #0
 3045 009c 40F05A83 		bne	.L265
 803:VS4210/keyremo.c **** 		{
 3046              		.loc 1 803 61 discriminator 3 view .LVU739
 3047 00a0 954B     		ldr	r3, .L308+28
 3048 00a2 1D78     		ldrb	r5, [r3]	@ zero_extendqisi2
 3049 00a4 002D     		cmp	r5, #0
 3050 00a6 40F05783 		bne	.L266
 803:VS4210/keyremo.c **** 		{
 3051              		.loc 1 803 93 discriminator 4 view .LVU740
ARM GAS  C:\Users\ryanc.HS\AppData\Local\Temp\ccZ9UySd.s 			page 114


 3052 00aa 944B     		ldr	r3, .L308+32
 3053 00ac 1B78     		ldrb	r3, [r3]	@ zero_extendqisi2
 803:VS4210/keyremo.c **** 		{
 3054              		.loc 1 803 78 discriminator 4 view .LVU741
 3055 00ae 13B9     		cbnz	r3, .L207
 803:VS4210/keyremo.c **** 		{
 3056              		.loc 1 803 101 discriminator 5 view .LVU742
 3057 00b0 102C     		cmp	r4, #16
 3058 00b2 40F05383 		bne	.L267
 3059              	.L207:
 809:VS4210/keyremo.c **** 		{
 3060              		.loc 1 809 8 is_stmt 1 view .LVU743
 809:VS4210/keyremo.c **** 		{
 3061              		.loc 1 809 11 is_stmt 0 view .LVU744
 3062 00b6 0BB9     		cbnz	r3, .L208
 809:VS4210/keyremo.c **** 		{
 3063              		.loc 1 809 31 discriminator 1 view .LVU745
 3064 00b8 102C     		cmp	r4, #16
 3065 00ba 1AD0     		beq	.L209
 3066              	.L208:
 813:VS4210/keyremo.c **** 		{
 3067              		.loc 1 813 8 is_stmt 1 view .LVU746
 813:VS4210/keyremo.c **** 		{
 3068              		.loc 1 813 11 is_stmt 0 view .LVU747
 3069 00bc C02C     		cmp	r4, #192
 3070 00be 00F09280 		beq	.L279
 3071              	.L210:
 823:VS4210/keyremo.c **** 		{
 3072              		.loc 1 823 8 is_stmt 1 view .LVU748
 823:VS4210/keyremo.c **** 		{
 3073              		.loc 1 823 11 is_stmt 0 view .LVU749
 3074 00c2 102C     		cmp	r4, #16
 3075 00c4 04D1     		bne	.L211
 823:VS4210/keyremo.c **** 		{
 3076              		.loc 1 823 45 discriminator 1 view .LVU750
 3077 00c6 8D4B     		ldr	r3, .L308+32
 3078 00c8 1E78     		ldrb	r6, [r3]	@ zero_extendqisi2
 823:VS4210/keyremo.c **** 		{
 3079              		.loc 1 823 31 discriminator 1 view .LVU751
 3080 00ca 012E     		cmp	r6, #1
 3081 00cc 00F0A280 		beq	.L280
 3082              	.L211:
 862:VS4210/keyremo.c **** 		{
 3083              		.loc 1 862 8 is_stmt 1 view .LVU752
 862:VS4210/keyremo.c **** 		{
 3084              		.loc 1 862 12 is_stmt 0 view .LVU753
 3085 00d0 BB20     		movs	r0, #187
 3086 00d2 FFF7FEFF 		bl	GetItemValue
 3087              	.LVL250:
 862:VS4210/keyremo.c **** 		{
 3088              		.loc 1 862 11 view .LVU754
 3089 00d6 0128     		cmp	r0, #1
 3090 00d8 00F0D980 		beq	.L281
 878:VS4210/keyremo.c **** 		{
 3091              		.loc 1 878 8 is_stmt 1 view .LVU755
 878:VS4210/keyremo.c **** 		{
 3092              		.loc 1 878 11 is_stmt 0 view .LVU756
ARM GAS  C:\Users\ryanc.HS\AppData\Local\Temp\ccZ9UySd.s 			page 115


 3093 00dc 04F0A003 		and	r3, r4, #160
 3094 00e0 A02B     		cmp	r3, #160
 3095 00e2 00F0E880 		beq	.L282
 888:VS4210/keyremo.c **** 		{
 3096              		.loc 1 888 8 is_stmt 1 view .LVU757
 888:VS4210/keyremo.c **** 		{
 3097              		.loc 1 888 11 is_stmt 0 view .LVU758
 3098 00e6 C02C     		cmp	r4, #192
 3099 00e8 00F03681 		beq	.L283
 3100              	.L220:
 902:VS4210/keyremo.c **** 		{
 3101              		.loc 1 902 8 is_stmt 1 view .LVU759
 902:VS4210/keyremo.c **** 		{
 3102              		.loc 1 902 11 is_stmt 0 view .LVU760
 3103 00ec C02C     		cmp	r4, #192
 3104 00ee 00F05881 		beq	.L284
 3105              	.L209:
 3106              	.LVL251:
1012:VS4210/keyremo.c **** 		{
 3107              		.loc 1 1012 3 is_stmt 1 view .LVU761
1012:VS4210/keyremo.c **** 		{
 3108              		.loc 1 1012 8 is_stmt 0 view .LVU762
 3109 00f2 FFF7FEFF 		bl	GetDisplayedOSD
 3110              	.LVL252:
1012:VS4210/keyremo.c **** 		{
 3111              		.loc 1 1012 6 view .LVU763
 3112 00f6 10F0020F 		tst	r0, #2
 3113 00fa 0BD1     		bne	.L223
1012:VS4210/keyremo.c **** 		{
 3114              		.loc 1 1012 53 discriminator 1 view .LVU764
 3115 00fc 804B     		ldr	r3, .L308+36
 3116 00fe 1B78     		ldrb	r3, [r3]	@ zero_extendqisi2
1012:VS4210/keyremo.c **** 		{
 3117              		.loc 1 1012 34 discriminator 1 view .LVU765
 3118 0100 BE2B     		cmp	r3, #190
 3119 0102 07D0     		beq	.L223
1012:VS4210/keyremo.c **** 		{
 3120              		.loc 1 1012 79 discriminator 2 view .LVU766
 3121 0104 BF2B     		cmp	r3, #191
 3122 0106 05D0     		beq	.L223
1012:VS4210/keyremo.c **** 		{
 3123              		.loc 1 1012 121 discriminator 3 view .LVU767
 3124 0108 7E4B     		ldr	r3, .L308+40
 3125 010a 1B78     		ldrb	r3, [r3]	@ zero_extendqisi2
 3126 010c 13B9     		cbnz	r3, .L223
1012:VS4210/keyremo.c **** 		{
 3127              		.loc 1 1012 143 discriminator 4 view .LVU768
 3128 010e 7E4B     		ldr	r3, .L308+44
 3129 0110 1B78     		ldrb	r3, [r3]	@ zero_extendqisi2
 3130 0112 3BB1     		cbz	r3, .L224
 3131              	.L223:
1014:VS4210/keyremo.c **** 			MCUTimerActiveTimerEvent(SEC(Menu_Osd_Time_Out), _USER_TIMER_EVENT_OSD_DISABLE);
 3132              		.loc 1 1014 4 is_stmt 1 view .LVU769
 3133 0114 0E20     		movs	r0, #14
 3134 0116 FFF7FEFF 		bl	MCUTimerCancelTimerEvent
 3135              	.LVL253:
1015:VS4210/keyremo.c **** 		}
ARM GAS  C:\Users\ryanc.HS\AppData\Local\Temp\ccZ9UySd.s 			page 116


 3136              		.loc 1 1015 4 view .LVU770
 3137 011a 0E21     		movs	r1, #14
 3138 011c 43F69820 		movw	r0, #15000
 3139 0120 FFF7FEFF 		bl	MCUTimerActiveTimerEvent
 3140              	.LVL254:
 3141              	.L224:
1018:VS4210/keyremo.c **** 		{
 3142              		.loc 1 1018 3 view .LVU771
1018:VS4210/keyremo.c **** 		{
 3143              		.loc 1 1018 24 is_stmt 0 view .LVU772
 3144 0124 794B     		ldr	r3, .L308+48
 3145 0126 1B78     		ldrb	r3, [r3]	@ zero_extendqisi2
1018:VS4210/keyremo.c **** 		{
 3146              		.loc 1 1018 6 view .LVU773
 3147 0128 012B     		cmp	r3, #1
 3148 012a 00F05681 		beq	.L285
 3149              	.L225:
1024:VS4210/keyremo.c **** 
 3150              		.loc 1 1024 3 is_stmt 1 view .LVU774
 3151 012e 1420     		movs	r0, #20
 3152 0130 FFF7FEFF 		bl	MCUTimerCancelTimerEvent
 3153              	.LVL255:
1026:VS4210/keyremo.c **** 			MenuTouchMode = 0;
 3154              		.loc 1 1026 3 view .LVU775
1026:VS4210/keyremo.c **** 			MenuTouchMode = 0;
 3155              		.loc 1 1026 9 is_stmt 0 view .LVU776
 3156 0134 FFF7FEFF 		bl	GetDisplayedOSD
 3157              	.LVL256:
1026:VS4210/keyremo.c **** 			MenuTouchMode = 0;
 3158              		.loc 1 1026 6 view .LVU777
 3159 0138 10F0200F 		tst	r0, #32
 3160 013c 04D1     		bne	.L226
1026:VS4210/keyremo.c **** 			MenuTouchMode = 0;
 3161              		.loc 1 1026 45 discriminator 1 view .LVU778
 3162 013e 402C     		cmp	r4, #64
 3163 0140 02D0     		beq	.L226
1027:VS4210/keyremo.c **** 
 3164              		.loc 1 1027 4 is_stmt 1 view .LVU779
1027:VS4210/keyremo.c **** 
 3165              		.loc 1 1027 18 is_stmt 0 view .LVU780
 3166 0142 734B     		ldr	r3, .L308+52
 3167 0144 0022     		movs	r2, #0
 3168 0146 1A70     		strb	r2, [r3]
 3169              	.L226:
1029:VS4210/keyremo.c **** 		{
 3170              		.loc 1 1029 3 is_stmt 1 view .LVU781
 3171 0148 202C     		cmp	r4, #32
 3172 014a 00F25881 		bhi	.L227
 3173 014e 63B2     		sxtb	r3, r4
 3174 0150 002B     		cmp	r3, #0
 3175 0152 00F00583 		beq	.L268
 3176 0156 631E     		subs	r3, r4, #1
 3177 0158 1F2B     		cmp	r3, #31
 3178 015a 00F20383 		bhi	.L269
 3179 015e DFE813F0 		tbh	[pc, r3, lsl #1]
 3180              	.L229:
 3181 0162 DE01     		.2byte	(.L232-.L229)/2
ARM GAS  C:\Users\ryanc.HS\AppData\Local\Temp\ccZ9UySd.s 			page 117


 3182 0164 2502     		.2byte	(.L231-.L229)/2
 3183 0166 0103     		.2byte	(.L269-.L229)/2
 3184 0168 0103     		.2byte	(.L269-.L229)/2
 3185 016a 0103     		.2byte	(.L269-.L229)/2
 3186 016c 0103     		.2byte	(.L269-.L229)/2
 3187 016e 0103     		.2byte	(.L269-.L229)/2
 3188 0170 0103     		.2byte	(.L269-.L229)/2
 3189 0172 0103     		.2byte	(.L269-.L229)/2
 3190 0174 0103     		.2byte	(.L269-.L229)/2
 3191 0176 0103     		.2byte	(.L269-.L229)/2
 3192 0178 0103     		.2byte	(.L269-.L229)/2
 3193 017a 0103     		.2byte	(.L269-.L229)/2
 3194 017c 0103     		.2byte	(.L269-.L229)/2
 3195 017e 0103     		.2byte	(.L269-.L229)/2
 3196 0180 7801     		.2byte	(.L230-.L229)/2
 3197 0182 0103     		.2byte	(.L269-.L229)/2
 3198 0184 0103     		.2byte	(.L269-.L229)/2
 3199 0186 0103     		.2byte	(.L269-.L229)/2
 3200 0188 0103     		.2byte	(.L269-.L229)/2
 3201 018a 0103     		.2byte	(.L269-.L229)/2
 3202 018c 0103     		.2byte	(.L269-.L229)/2
 3203 018e 0103     		.2byte	(.L269-.L229)/2
 3204 0190 0103     		.2byte	(.L269-.L229)/2
 3205 0192 0103     		.2byte	(.L269-.L229)/2
 3206 0194 0103     		.2byte	(.L269-.L229)/2
 3207 0196 0103     		.2byte	(.L269-.L229)/2
 3208 0198 0103     		.2byte	(.L269-.L229)/2
 3209 019a 0103     		.2byte	(.L269-.L229)/2
 3210 019c 0103     		.2byte	(.L269-.L229)/2
 3211 019e 0103     		.2byte	(.L269-.L229)/2
 3212 01a0 9201     		.2byte	(.L228-.L229)/2
 3213              	.LVL257:
 3214              		.p2align 1
 3215              	.L196:
 751:VS4210/keyremo.c **** 			/*
 3216              		.loc 1 751 4 view .LVU782
 3217 01a2 5C48     		ldr	r0, .L308+56
 3218              	.LVL258:
 751:VS4210/keyremo.c **** 			/*
 3219              		.loc 1 751 4 is_stmt 0 view .LVU783
 3220 01a4 FFF7FEFF 		bl	Printf
 3221              	.LVL259:
 758:VS4210/keyremo.c **** 		case INPUTSOURCEKEY:
 3222              		.loc 1 758 4 is_stmt 1 view .LVU784
 3223 01a8 61E7     		b	.L204
 3224              	.LVL260:
 3225              	.L201:
 760:VS4210/keyremo.c **** 			break;
 3226              		.loc 1 760 4 view .LVU785
 3227 01aa 5B48     		ldr	r0, .L308+60
 3228              	.LVL261:
 760:VS4210/keyremo.c **** 			break;
 3229              		.loc 1 760 4 is_stmt 0 view .LVU786
 3230 01ac FFF7FEFF 		bl	Printf
 3231              	.LVL262:
 761:VS4210/keyremo.c **** 		case UPKEY:
 3232              		.loc 1 761 4 is_stmt 1 view .LVU787
ARM GAS  C:\Users\ryanc.HS\AppData\Local\Temp\ccZ9UySd.s 			page 118


 3233 01b0 5DE7     		b	.L204
 3234              	.LVL263:
 3235              	.L200:
 763:VS4210/keyremo.c **** 			break;
 3236              		.loc 1 763 4 view .LVU788
 3237 01b2 5A48     		ldr	r0, .L308+64
 3238              	.LVL264:
 763:VS4210/keyremo.c **** 			break;
 3239              		.loc 1 763 4 is_stmt 0 view .LVU789
 3240 01b4 FFF7FEFF 		bl	Printf
 3241              	.LVL265:
 764:VS4210/keyremo.c **** 		case DOWNKEY:
 3242              		.loc 1 764 4 is_stmt 1 view .LVU790
 3243 01b8 59E7     		b	.L204
 3244              	.LVL266:
 3245              	.L199:
 766:VS4210/keyremo.c **** 			break;
 3246              		.loc 1 766 4 view .LVU791
 3247 01ba 5948     		ldr	r0, .L308+68
 3248              	.LVL267:
 766:VS4210/keyremo.c **** 			break;
 3249              		.loc 1 766 4 is_stmt 0 view .LVU792
 3250 01bc FFF7FEFF 		bl	Printf
 3251              	.LVL268:
 767:VS4210/keyremo.c **** 		case SELECTKEY:
 3252              		.loc 1 767 4 is_stmt 1 view .LVU793
 3253 01c0 55E7     		b	.L204
 3254              	.LVL269:
 3255              	.L195:
 775:VS4210/keyremo.c **** 			break;
 3256              		.loc 1 775 4 view .LVU794
 3257 01c2 5848     		ldr	r0, .L308+72
 3258              	.LVL270:
 775:VS4210/keyremo.c **** 			break;
 3259              		.loc 1 775 4 is_stmt 0 view .LVU795
 3260 01c4 FFF7FEFF 		bl	Printf
 3261              	.LVL271:
 776:VS4210/keyremo.c **** 		}
 3262              		.loc 1 776 4 is_stmt 1 view .LVU796
 3263 01c8 51E7     		b	.L204
 3264              	.L277:
 789:VS4210/keyremo.c **** #if (_DEBUG_CheckKeyIn == ON)
 3265              		.loc 1 789 5 view .LVU797
 789:VS4210/keyremo.c **** #if (_DEBUG_CheckKeyIn == ON)
 3266              		.loc 1 789 16 is_stmt 0 view .LVU798
 3267 01ca 474B     		ldr	r3, .L308+12
 3268 01cc 0022     		movs	r2, #0
 3269 01ce 1A70     		strb	r2, [r3]
 791:VS4210/keyremo.c **** #endif
 3270              		.loc 1 791 5 is_stmt 1 view .LVU799
 3271 01d0 5548     		ldr	r0, .L308+76
 3272 01d2 FFF7FEFF 		bl	Printf
 3273              	.LVL272:
 3274 01d6 54E7     		b	.L205
 3275              	.L278:
 796:VS4210/keyremo.c **** #if (_DEBUG_CheckKeyIn == ON)
 3276              		.loc 1 796 5 view .LVU800
ARM GAS  C:\Users\ryanc.HS\AppData\Local\Temp\ccZ9UySd.s 			page 119


 796:VS4210/keyremo.c **** #if (_DEBUG_CheckKeyIn == ON)
 3277              		.loc 1 796 16 is_stmt 0 view .LVU801
 3278 01d8 434B     		ldr	r3, .L308+12
 3279 01da 0222     		movs	r2, #2
 3280 01dc 1A70     		strb	r2, [r3]
 798:VS4210/keyremo.c **** #endif
 3281              		.loc 1 798 5 is_stmt 1 view .LVU802
 3282 01de 5348     		ldr	r0, .L308+80
 3283 01e0 FFF7FEFF 		bl	Printf
 3284              	.LVL273:
 3285 01e4 4DE7     		b	.L205
 3286              	.L279:
 813:VS4210/keyremo.c **** 		{
 3287              		.loc 1 813 37 is_stmt 0 discriminator 1 view .LVU803
 3288 01e6 FFF7FEFF 		bl	GetDisplayedOSD
 3289              	.LVL274:
 813:VS4210/keyremo.c **** 		{
 3290              		.loc 1 813 32 discriminator 1 view .LVU804
 3291 01ea 10F0200F 		tst	r0, #32
 3292 01ee 3FF468AF 		beq	.L210
 815:VS4210/keyremo.c **** 			ikey = GetKey(1);
 3293              		.loc 1 815 4 is_stmt 1 view .LVU805
 3294 01f2 4FF47A70 		mov	r0, #1000
 3295 01f6 FFF7FEFF 		bl	MCUTimerDelayXms
 3296              	.LVL275:
 816:VS4210/keyremo.c **** 			if (ikey == UNLOCKKEY)
 3297              		.loc 1 816 4 view .LVU806
 816:VS4210/keyremo.c **** 			if (ikey == UNLOCKKEY)
 3298              		.loc 1 816 11 is_stmt 0 view .LVU807
 3299 01fa 0120     		movs	r0, #1
 3300 01fc FFF7FEFF 		bl	GetKey
 3301              	.LVL276:
 3302 0200 0446     		mov	r4, r0
 3303              	.LVL277:
 817:VS4210/keyremo.c **** 			{
 3304              		.loc 1 817 4 is_stmt 1 view .LVU808
 817:VS4210/keyremo.c **** 			{
 3305              		.loc 1 817 7 is_stmt 0 view .LVU809
 3306 0202 C028     		cmp	r0, #192
 3307 0204 7FF475AF 		bne	.L209
 819:VS4210/keyremo.c **** 				CloseOSDMenu();
 3308              		.loc 1 819 5 is_stmt 1 view .LVU810
 3309 0208 0E20     		movs	r0, #14
 3310              	.LVL278:
 819:VS4210/keyremo.c **** 				CloseOSDMenu();
 3311              		.loc 1 819 5 is_stmt 0 view .LVU811
 3312 020a FFF7FEFF 		bl	MCUTimerCancelTimerEvent
 3313              	.LVL279:
 820:VS4210/keyremo.c **** 			}
 3314              		.loc 1 820 5 is_stmt 1 view .LVU812
 3315 020e FFF7FEFF 		bl	CloseOSDMenu
 3316              	.LVL280:
 3317 0212 6EE7     		b	.L209
 3318              	.L280:
 827:VS4210/keyremo.c **** 			{
 3319              		.loc 1 827 4 view .LVU813
 827:VS4210/keyremo.c **** 			{
ARM GAS  C:\Users\ryanc.HS\AppData\Local\Temp\ccZ9UySd.s 			page 120


 3320              		.loc 1 827 22 is_stmt 0 view .LVU814
 3321 0214 464B     		ldr	r3, .L308+84
 3322 0216 1B68     		ldr	r3, [r3]
 827:VS4210/keyremo.c **** 			{
 3323              		.loc 1 827 7 view .LVU815
 3324 0218 B3F5827F 		cmp	r3, #260
 3325 021c 0CD8     		bhi	.L286
 842:VS4210/keyremo.c **** 			{
 3326              		.loc 1 842 9 is_stmt 1 view .LVU816
 842:VS4210/keyremo.c **** 			{
 3327              		.loc 1 842 25 is_stmt 0 view .LVU817
 3328 021e 324B     		ldr	r3, .L308+12
 3329 0220 1B78     		ldrb	r3, [r3]	@ zero_extendqisi2
 842:VS4210/keyremo.c **** 			{
 3330              		.loc 1 842 12 view .LVU818
 3331 0222 13B9     		cbnz	r3, .L216
 842:VS4210/keyremo.c **** 			{
 3332              		.loc 1 842 60 discriminator 1 view .LVU819
 3333 0224 434A     		ldr	r2, .L308+88
 3334 0226 1278     		ldrb	r2, [r2]	@ zero_extendqisi2
 842:VS4210/keyremo.c **** 			{
 3335              		.loc 1 842 42 discriminator 1 view .LVU820
 3336 0228 1AB3     		cbz	r2, .L287
 3337              	.L216:
 849:VS4210/keyremo.c **** 			{
 3338              		.loc 1 849 9 is_stmt 1 view .LVU821
 849:VS4210/keyremo.c **** 			{
 3339              		.loc 1 849 12 is_stmt 0 view .LVU822
 3340 022a 022B     		cmp	r3, #2
 3341 022c 28D0     		beq	.L288
 3342              	.L215:
 856:VS4210/keyremo.c **** 			ikey = 0;
 3343              		.loc 1 856 4 is_stmt 1 view .LVU823
 3344              	.LVL281:
 857:VS4210/keyremo.c **** 			Key = 0;
 3345              		.loc 1 857 4 view .LVU824
 858:VS4210/keyremo.c **** 			return 1;
 3346              		.loc 1 858 4 view .LVU825
 858:VS4210/keyremo.c **** 			return 1;
 3347              		.loc 1 858 8 is_stmt 0 view .LVU826
 3348 022e 424B     		ldr	r3, .L308+92
 3349 0230 0022     		movs	r2, #0
 3350 0232 1A70     		strb	r2, [r3]
 859:VS4210/keyremo.c **** 		}
 3351              		.loc 1 859 4 is_stmt 1 view .LVU827
 859:VS4210/keyremo.c **** 		}
 3352              		.loc 1 859 11 is_stmt 0 view .LVU828
 3353 0234 3546     		mov	r5, r6
 3354 0236 87E2     		b	.L193
 3355              	.LVL282:
 3356              	.L286:
 829:VS4210/keyremo.c **** 
 3357              		.loc 1 829 5 is_stmt 1 view .LVU829
 829:VS4210/keyremo.c **** 
 3358              		.loc 1 829 22 is_stmt 0 view .LVU830
 3359 0238 404B     		ldr	r3, .L308+96
 3360 023a 0122     		movs	r2, #1
ARM GAS  C:\Users\ryanc.HS\AppData\Local\Temp\ccZ9UySd.s 			page 121


 3361 023c 1A70     		strb	r2, [r3]
 831:VS4210/keyremo.c **** 				LCDPowerOFF();
 3362              		.loc 1 831 5 is_stmt 1 view .LVU831
 3363 023e 2F20     		movs	r0, #47
 3364 0240 FFF7FEFF 		bl	PowerLED
 3365              	.LVL283:
 832:VS4210/keyremo.c **** 				CloseOSDMenu();
 3366              		.loc 1 832 5 view .LVU832
 3367 0244 FFF7FEFF 		bl	LCDPowerOFF
 3368              	.LVL284:
 833:VS4210/keyremo.c **** 				MCUTimerCancelTimerEvent(_USER_TIMER_EVENT_PANEL_BACKLIGHT_ON);
 3369              		.loc 1 833 5 view .LVU833
 3370 0248 FFF7FEFF 		bl	CloseOSDMenu
 3371              	.LVL285:
 834:VS4210/keyremo.c **** 
 3372              		.loc 1 834 5 view .LVU834
 3373 024c 1120     		movs	r0, #17
 3374 024e FFF7FEFF 		bl	MCUTimerCancelTimerEvent
 3375              	.LVL286:
 836:VS4210/keyremo.c **** 				{
 3376              		.loc 1 836 5 view .LVU835
 836:VS4210/keyremo.c **** 				{
 3377              		.loc 1 836 11 is_stmt 0 view .LVU836
 3378 0252 06E0     		b	.L213
 3379              	.L214:
 838:VS4210/keyremo.c **** 					Printf("(Waiting PWR SW release)");
 3380              		.loc 1 838 6 is_stmt 1 view .LVU837
 3381 0254 4FF47A70 		mov	r0, #1000
 3382 0258 FFF7FEFF 		bl	MCUTimerDelayXms
 3383              	.LVL287:
 839:VS4210/keyremo.c **** 				}
 3384              		.loc 1 839 6 view .LVU838
 3385 025c 3848     		ldr	r0, .L308+100
 3386 025e FFF7FEFF 		bl	Printf
 3387              	.LVL288:
 3388              	.L213:
 836:VS4210/keyremo.c **** 				{
 3389              		.loc 1 836 11 view .LVU839
 836:VS4210/keyremo.c **** 				{
 3390              		.loc 1 836 13 is_stmt 0 view .LVU840
 3391 0262 384B     		ldr	r3, .L308+104
 3392 0264 9B68     		ldr	r3, [r3, #8]
 3393 0266 384B     		ldr	r3, .L308+108
 3394 0268 9B68     		ldr	r3, [r3, #8]
 836:VS4210/keyremo.c **** 				{
 3395              		.loc 1 836 11 view .LVU841
 3396 026a 13F4805F 		tst	r3, #4096
 3397 026e F1D0     		beq	.L214
 3398 0270 DDE7     		b	.L215
 3399              	.L287:
 844:VS4210/keyremo.c **** #if (_DEBUG_CheckKeyIn == ON)
 3400              		.loc 1 844 5 is_stmt 1 view .LVU842
 844:VS4210/keyremo.c **** #if (_DEBUG_CheckKeyIn == ON)
 3401              		.loc 1 844 16 is_stmt 0 view .LVU843
 3402 0272 1D4B     		ldr	r3, .L308+12
 3403 0274 0122     		movs	r2, #1
 3404 0276 1A70     		strb	r2, [r3]
ARM GAS  C:\Users\ryanc.HS\AppData\Local\Temp\ccZ9UySd.s 			page 122


 846:VS4210/keyremo.c **** #endif
 3405              		.loc 1 846 5 is_stmt 1 view .LVU844
 3406 0278 3448     		ldr	r0, .L308+112
 3407 027a FFF7FEFF 		bl	Printf
 3408              	.LVL289:
 3409 027e D6E7     		b	.L215
 3410              	.L288:
 852:VS4210/keyremo.c **** #endif
 3411              		.loc 1 852 5 view .LVU845
 3412 0280 3348     		ldr	r0, .L308+116
 3413 0282 FFF7FEFF 		bl	Printf
 3414              	.LVL290:
 854:VS4210/keyremo.c **** 			}
 3415              		.loc 1 854 5 view .LVU846
 854:VS4210/keyremo.c **** 			}
 3416              		.loc 1 854 16 is_stmt 0 view .LVU847
 3417 0286 184B     		ldr	r3, .L308+12
 3418 0288 0322     		movs	r2, #3
 3419 028a 1A70     		strb	r2, [r3]
 3420 028c CFE7     		b	.L215
 3421              	.L281:
 865:VS4210/keyremo.c **** 			{
 3422              		.loc 1 865 4 is_stmt 1 view .LVU848
 865:VS4210/keyremo.c **** 			{
 3423              		.loc 1 865 7 is_stmt 0 view .LVU849
 3424 028e C02C     		cmp	r4, #192
 3425 0290 03D0     		beq	.L289
 3426              	.L218:
 873:VS4210/keyremo.c **** 
 3427              		.loc 1 873 4 is_stmt 1 view .LVU850
 3428 0292 FFF7FEFF 		bl	ShowOSDLOCK
 3429              	.LVL291:
 875:VS4210/keyremo.c **** 			return 1;
 3430              		.loc 1 875 4 view .LVU851
 876:VS4210/keyremo.c **** 		}
 3431              		.loc 1 876 4 view .LVU852
 876:VS4210/keyremo.c **** 		}
 3432              		.loc 1 876 11 is_stmt 0 view .LVU853
 3433 0296 0125     		movs	r5, #1
 3434 0298 56E2     		b	.L193
 3435              	.LVL292:
 3436              	.L289:
 867:VS4210/keyremo.c **** 				ikey = GetKey(1);
 3437              		.loc 1 867 5 is_stmt 1 view .LVU854
 3438 029a 4FF4FA60 		mov	r0, #2000
 3439 029e FFF7FEFF 		bl	MCUTimerDelayXms
 3440              	.LVL293:
 868:VS4210/keyremo.c **** 				if (ikey == UNLOCKKEY)
 3441              		.loc 1 868 5 view .LVU855
 868:VS4210/keyremo.c **** 				if (ikey == UNLOCKKEY)
 3442              		.loc 1 868 12 is_stmt 0 view .LVU856
 3443 02a2 0120     		movs	r0, #1
 3444 02a4 FFF7FEFF 		bl	GetKey
 3445              	.LVL294:
 869:VS4210/keyremo.c **** 					WriteEEP(EEP_ONOFFChoice, 0);
 3446              		.loc 1 869 5 is_stmt 1 view .LVU857
 869:VS4210/keyremo.c **** 					WriteEEP(EEP_ONOFFChoice, 0);
ARM GAS  C:\Users\ryanc.HS\AppData\Local\Temp\ccZ9UySd.s 			page 123


 3447              		.loc 1 869 8 is_stmt 0 view .LVU858
 3448 02a8 C028     		cmp	r0, #192
 3449 02aa F2D1     		bne	.L218
 870:VS4210/keyremo.c **** 			}
 3450              		.loc 1 870 6 is_stmt 1 view .LVU859
 3451 02ac 0021     		movs	r1, #0
 3452 02ae AC20     		movs	r0, #172
 3453              	.LVL295:
 870:VS4210/keyremo.c **** 			}
 3454              		.loc 1 870 6 is_stmt 0 view .LVU860
 3455 02b0 FFF7FEFF 		bl	WriteEEP
 3456              	.LVL296:
 3457 02b4 EDE7     		b	.L218
 3458              	.L282:
 880:VS4210/keyremo.c **** 			ikey = GetKey(1);
 3459              		.loc 1 880 4 is_stmt 1 view .LVU861
 3460 02b6 4FF47A70 		mov	r0, #1000
 3461 02ba FFF7FEFF 		bl	MCUTimerDelayXms
 3462              	.LVL297:
 881:VS4210/keyremo.c **** 			if ((ikey & COCDisableKey) == COCDisableKey)
 3463              		.loc 1 881 4 view .LVU862
 881:VS4210/keyremo.c **** 			if ((ikey & COCDisableKey) == COCDisableKey)
 3464              		.loc 1 881 11 is_stmt 0 view .LVU863
 3465 02be 0120     		movs	r0, #1
 3466 02c0 FFF7FEFF 		bl	GetKey
 3467              	.LVL298:
 3468 02c4 0446     		mov	r4, r0
 3469              	.LVL299:
 882:VS4210/keyremo.c **** 			{
 3470              		.loc 1 882 4 is_stmt 1 view .LVU864
 882:VS4210/keyremo.c **** 			{
 3471              		.loc 1 882 7 is_stmt 0 view .LVU865
 3472 02c6 00F0A003 		and	r3, r0, #160
 3473 02ca A02B     		cmp	r3, #160
 3474 02cc 7FF411AF 		bne	.L209
 884:VS4210/keyremo.c **** 				CloseOSDMenu();
 3475              		.loc 1 884 5 is_stmt 1 view .LVU866
 3476 02d0 2048     		ldr	r0, .L308+120
 3477              	.LVL300:
 884:VS4210/keyremo.c **** 				CloseOSDMenu();
 3478              		.loc 1 884 5 is_stmt 0 view .LVU867
 3479 02d2 FFF7FEFF 		bl	Printf
 3480              	.LVL301:
 885:VS4210/keyremo.c **** 			}
 3481              		.loc 1 885 5 is_stmt 1 view .LVU868
 3482 02d6 FFF7FEFF 		bl	CloseOSDMenu
 3483              	.LVL302:
 3484 02da 0AE7     		b	.L209
 3485              	.L309:
 3486              		.align	2
 3487              	.L308:
 3488 02dc 4C000000 		.word	.LC25
 3489 02e0 3C000000 		.word	.LC24
 3490 02e4 00000000 		.word	.LC19
 3491 02e8 00000000 		.word	RUN_DIMMER
 3492 02ec 00000000 		.word	BOOT_ISSUE
 3493 02f0 00000000 		.word	bytResetOSDValue
ARM GAS  C:\Users\ryanc.HS\AppData\Local\Temp\ccZ9UySd.s 			page 124


 3494 02f4 00000000 		.word	.LANCHOR11
 3495 02f8 00000000 		.word	.LANCHOR8
 3496 02fc 00000000 		.word	PowerFlag
 3497 0300 00000000 		.word	bytGaugeAdjust
 3498 0304 00000000 		.word	bytGrabberAdjust
 3499 0308 00000000 		.word	bytCOCAdjust
 3500 030c 00000000 		.word	bytAutoSleeping
 3501 0310 00000000 		.word	.LANCHOR13
 3502 0314 0C000000 		.word	.LC20
 3503 0318 18000000 		.word	.LC21
 3504 031c 24000000 		.word	.LC22
 3505 0320 30000000 		.word	.LC23
 3506 0324 5C000000 		.word	.LC26
 3507 0328 78000000 		.word	.LC27
 3508 032c 94000000 		.word	.LC28
 3509 0330 00000000 		.word	standby_count
 3510 0334 00000000 		.word	PWR_OFF_TO_ON
 3511 0338 00000000 		.word	Key
 3512 033c 00000000 		.word	bytPowerDownMode
 3513 0340 B0000000 		.word	.LC29
 3514 0344 00100140 		.word	1073811456
 3515 0348 000C0140 		.word	1073810432
 3516 034c CC000000 		.word	.LC30
 3517 0350 DC000000 		.word	.LC31
 3518 0354 EC000000 		.word	.LC32
 3519              	.L283:
 888:VS4210/keyremo.c **** 		{
 3520              		.loc 1 888 36 is_stmt 0 discriminator 1 view .LVU869
 3521 0358 FFF7FEFF 		bl	GetDisplayedOSD
 3522              	.LVL303:
 888:VS4210/keyremo.c **** 		{
 3523              		.loc 1 888 32 discriminator 1 view .LVU870
 3524 035c 10F0020F 		tst	r0, #2
 3525 0360 3FF4C4AE 		beq	.L220
 888:VS4210/keyremo.c **** 		{
 3526              		.loc 1 888 82 discriminator 2 view .LVU871
 3527 0364 BB4B     		ldr	r3, .L310
 3528 0366 1B68     		ldr	r3, [r3]
 888:VS4210/keyremo.c **** 		{
 3529              		.loc 1 888 62 discriminator 2 view .LVU872
 3530 0368 002B     		cmp	r3, #0
 3531 036a 7FF4BFAE 		bne	.L220
 888:VS4210/keyremo.c **** 		{
 3532              		.loc 1 888 101 discriminator 3 view .LVU873
 3533 036e BA4B     		ldr	r3, .L310+4
 3534 0370 1B78     		ldrb	r3, [r3]	@ zero_extendqisi2
 888:VS4210/keyremo.c **** 		{
 3535              		.loc 1 888 88 discriminator 3 view .LVU874
 3536 0372 0A2B     		cmp	r3, #10
 3537 0374 7FF4BAAE 		bne	.L220
 890:VS4210/keyremo.c **** 			do
 3538              		.loc 1 890 9 view .LVU875
 3539 0378 2E46     		mov	r6, r5
 3540              	.L222:
 3541              	.LVL304:
 891:VS4210/keyremo.c **** 			{
 3542              		.loc 1 891 4 is_stmt 1 discriminator 2 view .LVU876
ARM GAS  C:\Users\ryanc.HS\AppData\Local\Temp\ccZ9UySd.s 			page 125


 893:VS4210/keyremo.c **** 				ikey = GetKey(1);
 3543              		.loc 1 893 5 discriminator 2 view .LVU877
 3544 037a 4FF47A70 		mov	r0, #1000
 3545 037e FFF7FEFF 		bl	MCUTimerDelayXms
 3546              	.LVL305:
 894:VS4210/keyremo.c **** 				loop++;
 3547              		.loc 1 894 5 discriminator 2 view .LVU878
 894:VS4210/keyremo.c **** 				loop++;
 3548              		.loc 1 894 12 is_stmt 0 discriminator 2 view .LVU879
 3549 0382 0120     		movs	r0, #1
 3550 0384 FFF7FEFF 		bl	GetKey
 3551              	.LVL306:
 3552 0388 0446     		mov	r4, r0
 3553              	.LVL307:
 895:VS4210/keyremo.c **** 				// Printf("(loop=%d)",(WORD)loop);
 3554              		.loc 1 895 5 is_stmt 1 discriminator 2 view .LVU880
 895:VS4210/keyremo.c **** 				// Printf("(loop=%d)",(WORD)loop);
 3555              		.loc 1 895 9 is_stmt 0 discriminator 2 view .LVU881
 3556 038a 0136     		adds	r6, r6, #1
 3557              	.LVL308:
 895:VS4210/keyremo.c **** 				// Printf("(loop=%d)",(WORD)loop);
 3558              		.loc 1 895 9 discriminator 2 view .LVU882
 3559 038c F6B2     		uxtb	r6, r6
 3560              	.LVL309:
 897:VS4210/keyremo.c **** 
 3561              		.loc 1 897 12 is_stmt 1 discriminator 2 view .LVU883
 897:VS4210/keyremo.c **** 
 3562              		.loc 1 897 4 is_stmt 0 discriminator 2 view .LVU884
 3563 038e C028     		cmp	r0, #192
 3564 0390 01D1     		bne	.L221
 897:VS4210/keyremo.c **** 
 3565              		.loc 1 897 33 discriminator 1 view .LVU885
 3566 0392 092E     		cmp	r6, #9
 3567 0394 F1D9     		bls	.L222
 3568              	.L221:
 899:VS4210/keyremo.c **** 				GrabberModeTrigger();
 3569              		.loc 1 899 4 is_stmt 1 view .LVU886
 899:VS4210/keyremo.c **** 				GrabberModeTrigger();
 3570              		.loc 1 899 7 is_stmt 0 view .LVU887
 3571 0396 092E     		cmp	r6, #9
 3572 0398 7FF6ABAE 		bls	.L209
 900:VS4210/keyremo.c **** 		}
 3573              		.loc 1 900 5 is_stmt 1 view .LVU888
 3574 039c FFF7FEFF 		bl	GrabberModeTrigger
 3575              	.LVL310:
 900:VS4210/keyremo.c **** 		}
 3576              		.loc 1 900 5 is_stmt 0 view .LVU889
 3577 03a0 A7E6     		b	.L209
 3578              	.LVL311:
 3579              	.L284:
 902:VS4210/keyremo.c **** 		{
 3580              		.loc 1 902 36 discriminator 1 view .LVU890
 3581 03a2 FFF7FEFF 		bl	GetDisplayedOSD
 3582              	.LVL312:
 902:VS4210/keyremo.c **** 		{
 3583              		.loc 1 902 32 discriminator 1 view .LVU891
 3584 03a6 10F0040F 		tst	r0, #4
ARM GAS  C:\Users\ryanc.HS\AppData\Local\Temp\ccZ9UySd.s 			page 126


 3585 03aa 3FF4A2AE 		beq	.L209
 902:VS4210/keyremo.c **** 		{
 3586              		.loc 1 902 76 discriminator 2 view .LVU892
 3587 03ae AA4B     		ldr	r3, .L310+4
 3588 03b0 1B78     		ldrb	r3, [r3]	@ zero_extendqisi2
 902:VS4210/keyremo.c **** 		{
 3589              		.loc 1 902 63 discriminator 2 view .LVU893
 3590 03b2 0F2B     		cmp	r3, #15
 3591 03b4 7FF49DAE 		bne	.L209
 904:VS4210/keyremo.c **** 			ikey = GetKey(1);
 3592              		.loc 1 904 4 is_stmt 1 view .LVU894
 3593 03b8 4FF4FA60 		mov	r0, #2000
 3594 03bc FFF7FEFF 		bl	MCUTimerDelayXms
 3595              	.LVL313:
 905:VS4210/keyremo.c **** 			if (ikey == UNLOCKKEY)
 3596              		.loc 1 905 4 view .LVU895
 905:VS4210/keyremo.c **** 			if (ikey == UNLOCKKEY)
 3597              		.loc 1 905 11 is_stmt 0 view .LVU896
 3598 03c0 0120     		movs	r0, #1
 3599 03c2 FFF7FEFF 		bl	GetKey
 3600              	.LVL314:
 3601 03c6 0446     		mov	r4, r0
 3602              	.LVL315:
 906:VS4210/keyremo.c **** 			{
 3603              		.loc 1 906 4 is_stmt 1 view .LVU897
 906:VS4210/keyremo.c **** 			{
 3604              		.loc 1 906 7 is_stmt 0 view .LVU898
 3605 03c8 C028     		cmp	r0, #192
 3606 03ca 7FF492AE 		bne	.L209
 908:VS4210/keyremo.c **** 				ShowOSDVersion();
 3607              		.loc 1 908 5 is_stmt 1 view .LVU899
 3608 03ce A348     		ldr	r0, .L310+8
 3609              	.LVL316:
 908:VS4210/keyremo.c **** 				ShowOSDVersion();
 3610              		.loc 1 908 5 is_stmt 0 view .LVU900
 3611 03d0 FFF7FEFF 		bl	Printf
 3612              	.LVL317:
 909:VS4210/keyremo.c **** 			}
 3613              		.loc 1 909 5 is_stmt 1 view .LVU901
 3614 03d4 FFF7FEFF 		bl	ShowOSDVersion
 3615              	.LVL318:
 3616 03d8 8BE6     		b	.L209
 3617              	.LVL319:
 3618              	.L285:
1020:VS4210/keyremo.c **** 			MCUTimerActiveTimerEvent(SEC(10 - (bytStandByModeToTriggerMode * 5)), _SYSTEM_TIMER_EVENT_AUTO_S
 3619              		.loc 1 1020 4 view .LVU902
 3620 03da 4E20     		movs	r0, #78
 3621 03dc FFF7FEFF 		bl	MCUTimerCancelTimerEvent
 3622              	.LVL320:
1021:VS4210/keyremo.c **** 		}
 3623              		.loc 1 1021 4 view .LVU903
1021:VS4210/keyremo.c **** 		}
 3624              		.loc 1 1021 29 is_stmt 0 view .LVU904
 3625 03e0 9F4B     		ldr	r3, .L310+12
 3626 03e2 1B78     		ldrb	r3, [r3]	@ zero_extendqisi2
 3627 03e4 C3EB8372 		rsb	r2, r3, r3, lsl #30
 3628 03e8 C3EB8203 		rsb	r3, r3, r2, lsl #2
ARM GAS  C:\Users\ryanc.HS\AppData\Local\Temp\ccZ9UySd.s 			page 127


 3629 03ec 0A33     		adds	r3, r3, #10
1021:VS4210/keyremo.c **** 		}
 3630              		.loc 1 1021 4 view .LVU905
 3631 03ee 4E21     		movs	r1, #78
 3632 03f0 4FF47A70 		mov	r0, #1000
 3633 03f4 00FB03F0 		mul	r0, r0, r3
 3634 03f8 FFF7FEFF 		bl	MCUTimerActiveTimerEvent
 3635              	.LVL321:
 3636 03fc 97E6     		b	.L225
 3637              	.L227:
1029:VS4210/keyremo.c **** 		{
 3638              		.loc 1 1029 3 view .LVU906
 3639 03fe 802C     		cmp	r4, #128
 3640 0400 00F05F81 		beq	.L233
 3641 0404 902C     		cmp	r4, #144
 3642 0406 11D1     		bne	.L290
1268:VS4210/keyremo.c **** 				CloseOSDMenu();
 3643              		.loc 1 1268 4 is_stmt 1 view .LVU907
1268:VS4210/keyremo.c **** 				CloseOSDMenu();
 3644              		.loc 1 1268 8 is_stmt 0 view .LVU908
 3645 0408 FFF7FEFF 		bl	GetDisplayedOSD
 3646              	.LVL322:
1268:VS4210/keyremo.c **** 				CloseOSDMenu();
 3647              		.loc 1 1268 7 view .LVU909
 3648 040c 10F0260F 		tst	r0, #38
 3649 0410 40F09681 		bne	.L291
 3650              	.L261:
1271:VS4210/keyremo.c **** 
 3651              		.loc 1 1271 4 is_stmt 1 view .LVU910
 3652 0414 FFF7FEFF 		bl	ShowTPMSOSD
 3653              	.LVL323:
1273:VS4210/keyremo.c **** 			MCUTimerActiveTimerEvent(SEC(Menu_Osd_Time_Out), _USER_TIMER_EVENT_OSD_DISABLE);
 3654              		.loc 1 1273 4 view .LVU911
 3655 0418 0E20     		movs	r0, #14
 3656 041a FFF7FEFF 		bl	MCUTimerCancelTimerEvent
 3657              	.LVL324:
1274:VS4210/keyremo.c **** 
 3658              		.loc 1 1274 4 view .LVU912
 3659 041e 0E21     		movs	r1, #14
 3660 0420 43F69820 		movw	r0, #15000
 3661 0424 FFF7FEFF 		bl	MCUTimerActiveTimerEvent
 3662              	.LVL325:
1276:VS4210/keyremo.c **** 
 3663              		.loc 1 1276 4 view .LVU913
 728:VS4210/keyremo.c **** 	/*
 3664              		.loc 1 728 7 is_stmt 0 view .LVU914
 3665 0428 0125     		movs	r5, #1
1276:VS4210/keyremo.c **** 
 3666              		.loc 1 1276 4 view .LVU915
 3667 042a 8DE1     		b	.L193
 3668              	.L290:
1029:VS4210/keyremo.c **** 		{
 3669              		.loc 1 1029 3 view .LVU916
 3670 042c 402C     		cmp	r4, #64
 3671 042e 0ED1     		bne	.L292
1208:VS4210/keyremo.c **** 			{
 3672              		.loc 1 1208 4 is_stmt 1 view .LVU917
ARM GAS  C:\Users\ryanc.HS\AppData\Local\Temp\ccZ9UySd.s 			page 128


1208:VS4210/keyremo.c **** 			{
 3673              		.loc 1 1208 21 is_stmt 0 view .LVU918
 3674 0430 8C4B     		ldr	r3, .L310+16
 3675 0432 1D78     		ldrb	r5, [r3]	@ zero_extendqisi2
1208:VS4210/keyremo.c **** 			{
 3676              		.loc 1 1208 7 view .LVU919
 3677 0434 012D     		cmp	r5, #1
 3678 0436 00F00081 		beq	.L293
1214:VS4210/keyremo.c **** 			{
 3679              		.loc 1 1214 9 is_stmt 1 view .LVU920
1214:VS4210/keyremo.c **** 			{
 3680              		.loc 1 1214 13 is_stmt 0 view .LVU921
 3681 043a 8B4B     		ldr	r3, .L310+20
 3682 043c 1B78     		ldrb	r3, [r3]	@ zero_extendqisi2
1214:VS4210/keyremo.c **** 			{
 3683              		.loc 1 1214 12 view .LVU922
 3684 043e 002B     		cmp	r3, #0
 3685 0440 00F03381 		beq	.L254
1216:VS4210/keyremo.c **** 				{
 3686              		.loc 1 1216 5 is_stmt 1 view .LVU923
1216:VS4210/keyremo.c **** 				{
 3687              		.loc 1 1216 8 is_stmt 0 view .LVU924
 3688 0444 622B     		cmp	r3, #98
 3689 0446 00F02981 		beq	.L294
 728:VS4210/keyremo.c **** 	/*
 3690              		.loc 1 728 7 view .LVU925
 3691 044a 0125     		movs	r5, #1
 3692 044c 7CE1     		b	.L193
 3693              	.L292:
1029:VS4210/keyremo.c **** 		{
 3694              		.loc 1 1029 3 view .LVU926
 3695 044e 0125     		movs	r5, #1
 3696 0450 7AE1     		b	.L193
 3697              	.L230:
1032:VS4210/keyremo.c **** 			if (PowerFlag == ON)
 3698              		.loc 1 1032 4 is_stmt 1 view .LVU927
 3699 0452 8648     		ldr	r0, .L310+24
 3700 0454 FFF7FEFF 		bl	Printf
 3701              	.LVL326:
1033:VS4210/keyremo.c **** 			{
 3702              		.loc 1 1033 4 view .LVU928
1033:VS4210/keyremo.c **** 			{
 3703              		.loc 1 1033 18 is_stmt 0 view .LVU929
 3704 0458 854B     		ldr	r3, .L310+28
 3705 045a 1B78     		ldrb	r3, [r3]	@ zero_extendqisi2
1033:VS4210/keyremo.c **** 			{
 3706              		.loc 1 1033 7 view .LVU930
 3707 045c 012B     		cmp	r3, #1
 3708 045e 0ED0     		beq	.L295
1039:VS4210/keyremo.c **** 			}
 3709              		.loc 1 1039 5 is_stmt 1 view .LVU931
1039:VS4210/keyremo.c **** 			}
 3710              		.loc 1 1039 15 is_stmt 0 view .LVU932
 3711 0460 834B     		ldr	r3, .L310+28
 3712 0462 0122     		movs	r2, #1
 3713 0464 1A70     		strb	r2, [r3]
 3714              	.L237:
ARM GAS  C:\Users\ryanc.HS\AppData\Local\Temp\ccZ9UySd.s 			page 129


1042:VS4210/keyremo.c **** 
 3715              		.loc 1 1042 4 is_stmt 1 view .LVU933
 3716              	.LVL327:
1044:VS4210/keyremo.c **** 			{
 3717              		.loc 1 1044 4 view .LVU934
1044:VS4210/keyremo.c **** 			{
 3718              		.loc 1 1044 23 is_stmt 0 view .LVU935
 3719 0466 834B     		ldr	r3, .L310+32
 3720 0468 1C78     		ldrb	r4, [r3]	@ zero_extendqisi2
 3721              	.LVL328:
1044:VS4210/keyremo.c **** 			{
 3722              		.loc 1 1044 7 view .LVU936
 3723 046a 002C     		cmp	r4, #0
 3724 046c 40F06C81 		bne	.L193
1046:VS4210/keyremo.c **** 			}
 3725              		.loc 1 1046 5 is_stmt 1 view .LVU937
 3726 0470 7F4B     		ldr	r3, .L310+28
 3727 0472 1978     		ldrb	r1, [r3]	@ zero_extendqisi2
 3728 0474 AB20     		movs	r0, #171
 3729 0476 FFF7FEFF 		bl	WriteEEP
 3730              	.LVL329:
1042:VS4210/keyremo.c **** 
 3731              		.loc 1 1042 8 is_stmt 0 view .LVU938
 3732 047a 2546     		mov	r5, r4
 3733 047c 64E1     		b	.L193
 3734              	.LVL330:
 3735              	.L295:
1035:VS4210/keyremo.c **** 			}
 3736              		.loc 1 1035 5 is_stmt 1 view .LVU939
1035:VS4210/keyremo.c **** 			}
 3737              		.loc 1 1035 15 is_stmt 0 view .LVU940
 3738 047e 7C4B     		ldr	r3, .L310+28
 3739 0480 0022     		movs	r2, #0
 3740 0482 1A70     		strb	r2, [r3]
 3741 0484 EFE7     		b	.L237
 3742              	.L228:
1052:VS4210/keyremo.c **** 			//	if(  GetDisplayedOSD() & MENU  )
 3743              		.loc 1 1052 4 is_stmt 1 view .LVU941
 3744 0486 7C48     		ldr	r0, .L310+36
 3745 0488 FFF7FEFF 		bl	Printf
 3746              	.LVL331:
1055:VS4210/keyremo.c **** 			{
 3747              		.loc 1 1055 4 view .LVU942
1055:VS4210/keyremo.c **** 			{
 3748              		.loc 1 1055 8 is_stmt 0 view .LVU943
 3749 048c 764B     		ldr	r3, .L310+20
 3750 048e 1B78     		ldrb	r3, [r3]	@ zero_extendqisi2
1055:VS4210/keyremo.c **** 			{
 3751              		.loc 1 1055 7 view .LVU944
 3752 0490 93B9     		cbnz	r3, .L296
1060:VS4210/keyremo.c **** 			{
 3753              		.loc 1 1060 9 is_stmt 1 view .LVU945
1060:VS4210/keyremo.c **** 			{
 3754              		.loc 1 1060 26 is_stmt 0 view .LVU946
 3755 0492 744B     		ldr	r3, .L310+16
 3756 0494 1D78     		ldrb	r5, [r3]	@ zero_extendqisi2
1060:VS4210/keyremo.c **** 			{
ARM GAS  C:\Users\ryanc.HS\AppData\Local\Temp\ccZ9UySd.s 			page 130


 3757              		.loc 1 1060 12 view .LVU947
 3758 0496 012D     		cmp	r5, #1
 3759 0498 14D0     		beq	.L297
1066:VS4210/keyremo.c **** 			{
 3760              		.loc 1 1066 9 is_stmt 1 view .LVU948
1066:VS4210/keyremo.c **** 			{
 3761              		.loc 1 1066 13 is_stmt 0 view .LVU949
 3762 049a FFF7FEFF 		bl	GetDisplayedOSD
 3763              	.LVL332:
1066:VS4210/keyremo.c **** 			{
 3764              		.loc 1 1066 12 view .LVU950
 3765 049e 10F0020F 		tst	r0, #2
 3766 04a2 20D0     		beq	.L240
1069:VS4210/keyremo.c **** 				{
 3767              		.loc 1 1069 5 is_stmt 1 view .LVU951
1069:VS4210/keyremo.c **** 				{
 3768              		.loc 1 1069 9 is_stmt 0 view .LVU952
 3769 04a4 6B4B     		ldr	r3, .L310
 3770 04a6 1B68     		ldr	r3, [r3]
1069:VS4210/keyremo.c **** 				{
 3771              		.loc 1 1069 8 view .LVU953
 3772 04a8 CBB1     		cbz	r3, .L241
1072:VS4210/keyremo.c **** 
 3773              		.loc 1 1072 6 is_stmt 1 view .LVU954
1072:VS4210/keyremo.c **** 
 3774              		.loc 1 1072 22 is_stmt 0 view .LVU955
 3775 04aa 6A4B     		ldr	r3, .L310
 3776 04ac 0022     		movs	r2, #0
 3777 04ae 1A60     		str	r2, [r3]
1074:VS4210/keyremo.c **** 					// ret = ActionRemo( REMO_MENU, RepeatKey );
 3778              		.loc 1 1074 6 is_stmt 1 view .LVU956
 3779 04b0 FFF7FEFF 		bl	DisplayCursor
 3780              	.LVL333:
 728:VS4210/keyremo.c **** 	/*
 3781              		.loc 1 728 7 is_stmt 0 view .LVU957
 3782 04b4 0125     		movs	r5, #1
 3783 04b6 47E1     		b	.L193
 3784              	.L296:
1057:VS4210/keyremo.c **** 				CloseOSDMenu();
 3785              		.loc 1 1057 5 is_stmt 1 view .LVU958
 3786 04b8 FFF7FEFF 		bl	CLRGrabberMessage
 3787              	.LVL334:
1058:VS4210/keyremo.c **** 			}
 3788              		.loc 1 1058 5 view .LVU959
 3789 04bc FFF7FEFF 		bl	CloseOSDMenu
 3790              	.LVL335:
 728:VS4210/keyremo.c **** 	/*
 3791              		.loc 1 728 7 is_stmt 0 view .LVU960
 3792 04c0 0125     		movs	r5, #1
 3793 04c2 41E1     		b	.L193
 3794              	.L297:
1062:VS4210/keyremo.c **** 				SetCOCCom(_COCOSD_BOX_Sel, SelectModeType);
 3795              		.loc 1 1062 5 is_stmt 1 view .LVU961
 3796 04c4 6D48     		ldr	r0, .L310+40
 3797 04c6 FFF7FEFF 		bl	Printf
 3798              	.LVL336:
1063:VS4210/keyremo.c **** 				SetCOCCom(_COCOSD_ENTER, SelectModeType);
ARM GAS  C:\Users\ryanc.HS\AppData\Local\Temp\ccZ9UySd.s 			page 131


 3799              		.loc 1 1063 5 view .LVU962
 3800 04ca 6D4C     		ldr	r4, .L310+44
 3801              	.LVL337:
1063:VS4210/keyremo.c **** 				SetCOCCom(_COCOSD_ENTER, SelectModeType);
 3802              		.loc 1 1063 5 is_stmt 0 view .LVU963
 3803 04cc 2178     		ldrb	r1, [r4]	@ zero_extendqisi2
 3804 04ce 1920     		movs	r0, #25
 3805 04d0 FFF7FEFF 		bl	SetCOCCom
 3806              	.LVL338:
1064:VS4210/keyremo.c **** 			}
 3807              		.loc 1 1064 5 is_stmt 1 view .LVU964
 3808 04d4 2178     		ldrb	r1, [r4]	@ zero_extendqisi2
 3809 04d6 1320     		movs	r0, #19
 3810 04d8 FFF7FEFF 		bl	SetCOCCom
 3811              	.LVL339:
 3812 04dc 34E1     		b	.L193
 3813              	.LVL340:
 3814              	.L241:
1078:VS4210/keyremo.c **** 			}
 3815              		.loc 1 1078 6 view .LVU965
 3816 04de FFF7FEFF 		bl	OSDSelect
 3817              	.LVL341:
 728:VS4210/keyremo.c **** 	/*
 3818              		.loc 1 728 7 is_stmt 0 view .LVU966
 3819 04e2 0125     		movs	r5, #1
 3820 04e4 30E1     		b	.L193
 3821              	.L240:
1083:VS4210/keyremo.c **** 					CloseOSDMenu();
 3822              		.loc 1 1083 5 is_stmt 1 view .LVU967
1083:VS4210/keyremo.c **** 					CloseOSDMenu();
 3823              		.loc 1 1083 9 is_stmt 0 view .LVU968
 3824 04e6 FFF7FEFF 		bl	GetDisplayedOSD
 3825              	.LVL342:
1083:VS4210/keyremo.c **** 					CloseOSDMenu();
 3826              		.loc 1 1083 8 view .LVU969
 3827 04ea 10F0240F 		tst	r0, #36
 3828 04ee 13D1     		bne	.L298
 3829              	.L242:
1086:VS4210/keyremo.c **** 				MCUTimerActiveTimerEvent(SEC(Menu_Osd_Time_Out), _USER_TIMER_EVENT_OSD_DISABLE);
 3830              		.loc 1 1086 5 is_stmt 1 view .LVU970
 3831 04f0 0E20     		movs	r0, #14
 3832 04f2 FFF7FEFF 		bl	MCUTimerCancelTimerEvent
 3833              	.LVL343:
1087:VS4210/keyremo.c **** #endif
 3834              		.loc 1 1087 5 view .LVU971
 3835 04f6 0E21     		movs	r1, #14
 3836 04f8 43F69820 		movw	r0, #15000
 3837 04fc FFF7FEFF 		bl	MCUTimerActiveTimerEvent
 3838              	.LVL344:
1089:VS4210/keyremo.c **** 				OpenOSDMenu(0);
 3839              		.loc 1 1089 5 view .LVU972
 3840 0500 4A20     		movs	r0, #74
 3841 0502 FFF7FEFF 		bl	MCUTimerCancelTimerEvent
 3842              	.LVL345:
1090:VS4210/keyremo.c **** 
 3843              		.loc 1 1090 5 view .LVU973
 3844 0506 0020     		movs	r0, #0
ARM GAS  C:\Users\ryanc.HS\AppData\Local\Temp\ccZ9UySd.s 			page 132


 3845 0508 FFF7FEFF 		bl	OpenOSDMenu
 3846              	.LVL346:
1092:VS4210/keyremo.c **** 				MenuTouchFlag = 1;
 3847              		.loc 1 1092 5 view .LVU974
1092:VS4210/keyremo.c **** 				MenuTouchFlag = 1;
 3848              		.loc 1 1092 19 is_stmt 0 view .LVU975
 3849 050c 0125     		movs	r5, #1
 3850 050e 5D4B     		ldr	r3, .L310+48
 3851 0510 1D70     		strb	r5, [r3]
1093:VS4210/keyremo.c **** 			}
 3852              		.loc 1 1093 5 is_stmt 1 view .LVU976
1093:VS4210/keyremo.c **** 			}
 3853              		.loc 1 1093 19 is_stmt 0 view .LVU977
 3854 0512 5D4B     		ldr	r3, .L310+52
 3855 0514 1D70     		strb	r5, [r3]
 3856 0516 17E1     		b	.L193
 3857              	.L298:
1084:VS4210/keyremo.c **** #if 1
 3858              		.loc 1 1084 6 is_stmt 1 view .LVU978
 3859 0518 FFF7FEFF 		bl	CloseOSDMenu
 3860              	.LVL347:
 3861 051c E8E7     		b	.L242
 3862              	.L232:
1102:VS4210/keyremo.c **** 			{
 3863              		.loc 1 1102 4 view .LVU979
1102:VS4210/keyremo.c **** 			{
 3864              		.loc 1 1102 21 is_stmt 0 view .LVU980
 3865 051e 514B     		ldr	r3, .L310+16
 3866 0520 1D78     		ldrb	r5, [r3]	@ zero_extendqisi2
1102:VS4210/keyremo.c **** 			{
 3867              		.loc 1 1102 7 view .LVU981
 3868 0522 012D     		cmp	r5, #1
 3869 0524 0CD0     		beq	.L299
1108:VS4210/keyremo.c **** 			{
 3870              		.loc 1 1108 9 is_stmt 1 view .LVU982
1108:VS4210/keyremo.c **** 			{
 3871              		.loc 1 1108 13 is_stmt 0 view .LVU983
 3872 0526 FFF7FEFF 		bl	GetDisplayedOSD
 3873              	.LVL348:
1108:VS4210/keyremo.c **** 			{
 3874              		.loc 1 1108 12 view .LVU984
 3875 052a 10F0020F 		tst	r0, #2
 3876 052e 19D0     		beq	.L244
1110:VS4210/keyremo.c **** 				{
 3877              		.loc 1 1110 5 is_stmt 1 view .LVU985
1110:VS4210/keyremo.c **** 				{
 3878              		.loc 1 1110 9 is_stmt 0 view .LVU986
 3879 0530 484B     		ldr	r3, .L310
 3880 0532 1B68     		ldr	r3, [r3]
1110:VS4210/keyremo.c **** 				{
 3881              		.loc 1 1110 8 view .LVU987
 3882 0534 8BB1     		cbz	r3, .L245
1112:VS4210/keyremo.c **** 				}
 3883              		.loc 1 1112 6 is_stmt 1 view .LVU988
 3884 0536 0120     		movs	r0, #1
 3885 0538 FFF7FEFF 		bl	OSDValueUpDn
 3886              	.LVL349:
ARM GAS  C:\Users\ryanc.HS\AppData\Local\Temp\ccZ9UySd.s 			page 133


 728:VS4210/keyremo.c **** 	/*
 3887              		.loc 1 728 7 is_stmt 0 view .LVU989
 3888 053c 2546     		mov	r5, r4
 3889 053e 03E1     		b	.L193
 3890              	.L299:
1104:VS4210/keyremo.c **** 				SetCOCCom(_COCOSD_BOX_Sel, SelectModeType);
 3891              		.loc 1 1104 5 is_stmt 1 view .LVU990
 3892 0540 5248     		ldr	r0, .L310+56
 3893 0542 FFF7FEFF 		bl	Printf
 3894              	.LVL350:
1105:VS4210/keyremo.c **** 				SetCOCCom(_COCOSD_UP, SelectModeType);
 3895              		.loc 1 1105 5 view .LVU991
 3896 0546 4E4C     		ldr	r4, .L310+44
 3897              	.LVL351:
1105:VS4210/keyremo.c **** 				SetCOCCom(_COCOSD_UP, SelectModeType);
 3898              		.loc 1 1105 5 is_stmt 0 view .LVU992
 3899 0548 2178     		ldrb	r1, [r4]	@ zero_extendqisi2
 3900 054a 1920     		movs	r0, #25
 3901 054c FFF7FEFF 		bl	SetCOCCom
 3902              	.LVL352:
1106:VS4210/keyremo.c **** 			}
 3903              		.loc 1 1106 5 is_stmt 1 view .LVU993
 3904 0550 2178     		ldrb	r1, [r4]	@ zero_extendqisi2
 3905 0552 0F20     		movs	r0, #15
 3906 0554 FFF7FEFF 		bl	SetCOCCom
 3907              	.LVL353:
 3908 0558 F6E0     		b	.L193
 3909              	.LVL354:
 3910              	.L245:
1119:VS4210/keyremo.c **** 					// Printf("(2)");
 3911              		.loc 1 1119 6 view .LVU994
 3912 055a 0120     		movs	r0, #1
 3913 055c FFF7FEFF 		bl	OSDCursorMove
 3914              	.LVL355:
 728:VS4210/keyremo.c **** 	/*
 3915              		.loc 1 728 7 is_stmt 0 view .LVU995
 3916 0560 2546     		mov	r5, r4
 3917 0562 F1E0     		b	.L193
 3918              	.L244:
1123:VS4210/keyremo.c **** 				;
 3919              		.loc 1 1123 9 is_stmt 1 view .LVU996
1123:VS4210/keyremo.c **** 				;
 3920              		.loc 1 1123 13 is_stmt 0 view .LVU997
 3921 0564 FFF7FEFF 		bl	GetDisplayedOSD
 3922              	.LVL356:
1123:VS4210/keyremo.c **** 				;
 3923              		.loc 1 1123 12 view .LVU998
 3924 0568 10F0400F 		tst	r0, #64
 3925 056c 40F0FC80 		bne	.L270
1125:VS4210/keyremo.c **** 			{
 3926              		.loc 1 1125 9 is_stmt 1 view .LVU999
1125:VS4210/keyremo.c **** 			{
 3927              		.loc 1 1125 13 is_stmt 0 view .LVU1000
 3928 0570 474B     		ldr	r3, .L310+60
 3929 0572 1B78     		ldrb	r3, [r3]	@ zero_extendqisi2
1125:VS4210/keyremo.c **** 			{
 3930              		.loc 1 1125 12 view .LVU1001
ARM GAS  C:\Users\ryanc.HS\AppData\Local\Temp\ccZ9UySd.s 			page 134


 3931 0574 4BB9     		cbnz	r3, .L300
1131:VS4210/keyremo.c **** 			{
 3932              		.loc 1 1131 9 is_stmt 1 view .LVU1002
1131:VS4210/keyremo.c **** 			{
 3933              		.loc 1 1131 13 is_stmt 0 view .LVU1003
 3934 0576 3C4B     		ldr	r3, .L310+20
 3935 0578 1B78     		ldrb	r3, [r3]	@ zero_extendqisi2
1131:VS4210/keyremo.c **** 			{
 3936              		.loc 1 1131 12 view .LVU1004
 3937 057a 6BB1     		cbz	r3, .L247
1133:VS4210/keyremo.c **** 				ShowGrabberLinerOSD();
 3938              		.loc 1 1133 5 is_stmt 1 view .LVU1005
 3939 057c 0120     		movs	r0, #1
 3940 057e FFF7FEFF 		bl	OSDValueUpDn
 3941              	.LVL357:
1134:VS4210/keyremo.c **** 			}
 3942              		.loc 1 1134 5 view .LVU1006
 3943 0582 FFF7FEFF 		bl	ShowGrabberLinerOSD
 3944              	.LVL358:
 728:VS4210/keyremo.c **** 	/*
 3945              		.loc 1 728 7 is_stmt 0 view .LVU1007
 3946 0586 2546     		mov	r5, r4
 3947 0588 DEE0     		b	.L193
 3948              	.L300:
1128:VS4210/keyremo.c **** 				ShowGaugeOSD();
 3949              		.loc 1 1128 5 is_stmt 1 view .LVU1008
 3950 058a 0120     		movs	r0, #1
 3951 058c FFF7FEFF 		bl	OSDValueUpDn
 3952              	.LVL359:
1129:VS4210/keyremo.c **** 			}
 3953              		.loc 1 1129 5 view .LVU1009
 3954 0590 FFF7FEFF 		bl	ShowGaugeOSD
 3955              	.LVL360:
 728:VS4210/keyremo.c **** 	/*
 3956              		.loc 1 728 7 is_stmt 0 view .LVU1010
 3957 0594 2546     		mov	r5, r4
 3958 0596 D7E0     		b	.L193
 3959              	.L247:
1138:VS4210/keyremo.c **** 				ChangeVol(UP);
 3960              		.loc 1 1138 5 is_stmt 1 view .LVU1011
 3961 0598 4A20     		movs	r0, #74
 3962 059a FFF7FEFF 		bl	MCUTimerCancelTimerEvent
 3963              	.LVL361:
1139:VS4210/keyremo.c **** 				DisplayVol();
 3964              		.loc 1 1139 5 view .LVU1012
 3965 059e 0120     		movs	r0, #1
 3966 05a0 FFF7FEFF 		bl	ChangeVol
 3967              	.LVL362:
1140:VS4210/keyremo.c **** 			}
 3968              		.loc 1 1140 5 view .LVU1013
 3969 05a4 FFF7FEFF 		bl	DisplayVol
 3970              	.LVL363:
 728:VS4210/keyremo.c **** 	/*
 3971              		.loc 1 728 7 is_stmt 0 view .LVU1014
 3972 05a8 2546     		mov	r5, r4
 3973 05aa CDE0     		b	.L193
 3974              	.L231:
ARM GAS  C:\Users\ryanc.HS\AppData\Local\Temp\ccZ9UySd.s 			page 135


1157:VS4210/keyremo.c **** 			{
 3975              		.loc 1 1157 4 is_stmt 1 view .LVU1015
1157:VS4210/keyremo.c **** 			{
 3976              		.loc 1 1157 21 is_stmt 0 view .LVU1016
 3977 05ac 2D4B     		ldr	r3, .L310+16
 3978 05ae 1D78     		ldrb	r5, [r3]	@ zero_extendqisi2
1157:VS4210/keyremo.c **** 			{
 3979              		.loc 1 1157 7 view .LVU1017
 3980 05b0 012D     		cmp	r5, #1
 3981 05b2 0CD0     		beq	.L301
1163:VS4210/keyremo.c **** 			{
 3982              		.loc 1 1163 9 is_stmt 1 view .LVU1018
1163:VS4210/keyremo.c **** 			{
 3983              		.loc 1 1163 13 is_stmt 0 view .LVU1019
 3984 05b4 FFF7FEFF 		bl	GetDisplayedOSD
 3985              	.LVL364:
1163:VS4210/keyremo.c **** 			{
 3986              		.loc 1 1163 12 view .LVU1020
 3987 05b8 10F0020F 		tst	r0, #2
 3988 05bc 19D0     		beq	.L249
1165:VS4210/keyremo.c **** 					OSDValueUpDn(DN);
 3989              		.loc 1 1165 5 is_stmt 1 view .LVU1021
1165:VS4210/keyremo.c **** 					OSDValueUpDn(DN);
 3990              		.loc 1 1165 9 is_stmt 0 view .LVU1022
 3991 05be 254B     		ldr	r3, .L310
 3992 05c0 1B68     		ldr	r3, [r3]
1165:VS4210/keyremo.c **** 					OSDValueUpDn(DN);
 3993              		.loc 1 1165 8 view .LVU1023
 3994 05c2 8BB1     		cbz	r3, .L250
1166:VS4210/keyremo.c **** 				else
 3995              		.loc 1 1166 6 is_stmt 1 view .LVU1024
 3996 05c4 0220     		movs	r0, #2
 3997 05c6 FFF7FEFF 		bl	OSDValueUpDn
 3998              	.LVL365:
 728:VS4210/keyremo.c **** 	/*
 3999              		.loc 1 728 7 is_stmt 0 view .LVU1025
 4000 05ca 0125     		movs	r5, #1
 4001 05cc BCE0     		b	.L193
 4002              	.L301:
1159:VS4210/keyremo.c **** 				SetCOCCom(_COCOSD_BOX_Sel, SelectModeType);
 4003              		.loc 1 1159 5 is_stmt 1 view .LVU1026
 4004 05ce 3148     		ldr	r0, .L310+64
 4005 05d0 FFF7FEFF 		bl	Printf
 4006              	.LVL366:
1160:VS4210/keyremo.c **** 				SetCOCCom(_COCOSD_DOWN, SelectModeType);
 4007              		.loc 1 1160 5 view .LVU1027
 4008 05d4 2A4C     		ldr	r4, .L310+44
 4009              	.LVL367:
1160:VS4210/keyremo.c **** 				SetCOCCom(_COCOSD_DOWN, SelectModeType);
 4010              		.loc 1 1160 5 is_stmt 0 view .LVU1028
 4011 05d6 2178     		ldrb	r1, [r4]	@ zero_extendqisi2
 4012 05d8 1920     		movs	r0, #25
 4013 05da FFF7FEFF 		bl	SetCOCCom
 4014              	.LVL368:
1161:VS4210/keyremo.c **** 			}
 4015              		.loc 1 1161 5 is_stmt 1 view .LVU1029
 4016 05de 2178     		ldrb	r1, [r4]	@ zero_extendqisi2
ARM GAS  C:\Users\ryanc.HS\AppData\Local\Temp\ccZ9UySd.s 			page 136


 4017 05e0 1020     		movs	r0, #16
 4018 05e2 FFF7FEFF 		bl	SetCOCCom
 4019              	.LVL369:
 4020 05e6 AFE0     		b	.L193
 4021              	.LVL370:
 4022              	.L250:
1172:VS4210/keyremo.c **** 				}
 4023              		.loc 1 1172 6 view .LVU1030
 4024 05e8 0220     		movs	r0, #2
 4025 05ea FFF7FEFF 		bl	OSDCursorMove
 4026              	.LVL371:
 728:VS4210/keyremo.c **** 	/*
 4027              		.loc 1 728 7 is_stmt 0 view .LVU1031
 4028 05ee 0125     		movs	r5, #1
 4029 05f0 AAE0     		b	.L193
 4030              	.L249:
1175:VS4210/keyremo.c **** 				;
 4031              		.loc 1 1175 9 is_stmt 1 view .LVU1032
1175:VS4210/keyremo.c **** 				;
 4032              		.loc 1 1175 13 is_stmt 0 view .LVU1033
 4033 05f2 FFF7FEFF 		bl	GetDisplayedOSD
 4034              	.LVL372:
1175:VS4210/keyremo.c **** 				;
 4035              		.loc 1 1175 12 view .LVU1034
 4036 05f6 10F0400F 		tst	r0, #64
 4037 05fa 40F0B780 		bne	.L271
1177:VS4210/keyremo.c **** 			{
 4038              		.loc 1 1177 9 is_stmt 1 view .LVU1035
1177:VS4210/keyremo.c **** 			{
 4039              		.loc 1 1177 13 is_stmt 0 view .LVU1036
 4040 05fe 244B     		ldr	r3, .L310+60
 4041 0600 1B78     		ldrb	r3, [r3]	@ zero_extendqisi2
1177:VS4210/keyremo.c **** 			{
 4042              		.loc 1 1177 12 view .LVU1037
 4043 0602 4BB9     		cbnz	r3, .L302
1183:VS4210/keyremo.c **** 			{
 4044              		.loc 1 1183 9 is_stmt 1 view .LVU1038
1183:VS4210/keyremo.c **** 			{
 4045              		.loc 1 1183 13 is_stmt 0 view .LVU1039
 4046 0604 184B     		ldr	r3, .L310+20
 4047 0606 1B78     		ldrb	r3, [r3]	@ zero_extendqisi2
1183:VS4210/keyremo.c **** 			{
 4048              		.loc 1 1183 12 view .LVU1040
 4049 0608 6BB1     		cbz	r3, .L252
1185:VS4210/keyremo.c **** 				ShowGrabberLinerOSD();
 4050              		.loc 1 1185 5 is_stmt 1 view .LVU1041
 4051 060a 0220     		movs	r0, #2
 4052 060c FFF7FEFF 		bl	OSDValueUpDn
 4053              	.LVL373:
1186:VS4210/keyremo.c **** 			}
 4054              		.loc 1 1186 5 view .LVU1042
 4055 0610 FFF7FEFF 		bl	ShowGrabberLinerOSD
 4056              	.LVL374:
 728:VS4210/keyremo.c **** 	/*
 4057              		.loc 1 728 7 is_stmt 0 view .LVU1043
 4058 0614 0125     		movs	r5, #1
 4059 0616 97E0     		b	.L193
ARM GAS  C:\Users\ryanc.HS\AppData\Local\Temp\ccZ9UySd.s 			page 137


 4060              	.L302:
1180:VS4210/keyremo.c **** 				ShowGaugeOSD();
 4061              		.loc 1 1180 5 is_stmt 1 view .LVU1044
 4062 0618 0220     		movs	r0, #2
 4063 061a FFF7FEFF 		bl	OSDValueUpDn
 4064              	.LVL375:
1181:VS4210/keyremo.c **** 			}
 4065              		.loc 1 1181 5 view .LVU1045
 4066 061e FFF7FEFF 		bl	ShowGaugeOSD
 4067              	.LVL376:
 728:VS4210/keyremo.c **** 	/*
 4068              		.loc 1 728 7 is_stmt 0 view .LVU1046
 4069 0622 0125     		movs	r5, #1
 4070 0624 90E0     		b	.L193
 4071              	.L252:
1190:VS4210/keyremo.c **** 				ChangeVol(DN);
 4072              		.loc 1 1190 5 is_stmt 1 view .LVU1047
 4073 0626 4A20     		movs	r0, #74
 4074 0628 FFF7FEFF 		bl	MCUTimerCancelTimerEvent
 4075              	.LVL377:
1191:VS4210/keyremo.c **** 				DisplayVol();
 4076              		.loc 1 1191 5 view .LVU1048
 4077 062c 0220     		movs	r0, #2
 4078 062e FFF7FEFF 		bl	ChangeVol
 4079              	.LVL378:
1192:VS4210/keyremo.c **** 			}
 4080              		.loc 1 1192 5 view .LVU1049
 4081 0632 FFF7FEFF 		bl	DisplayVol
 4082              	.LVL379:
 728:VS4210/keyremo.c **** 	/*
 4083              		.loc 1 728 7 is_stmt 0 view .LVU1050
 4084 0636 0125     		movs	r5, #1
 4085 0638 86E0     		b	.L193
 4086              	.L293:
1210:VS4210/keyremo.c **** 				SetCOCCom(_COCOSD_BOX_Sel, SelectModeType);
 4087              		.loc 1 1210 5 is_stmt 1 view .LVU1051
 4088 063a 1748     		ldr	r0, .L310+68
 4089 063c FFF7FEFF 		bl	Printf
 4090              	.LVL380:
1211:VS4210/keyremo.c **** 				SetCOCCom(_COCOSD_RIGHT, SelectModeType);
 4091              		.loc 1 1211 5 view .LVU1052
 4092 0640 0F4C     		ldr	r4, .L310+44
 4093              	.LVL381:
1211:VS4210/keyremo.c **** 				SetCOCCom(_COCOSD_RIGHT, SelectModeType);
 4094              		.loc 1 1211 5 is_stmt 0 view .LVU1053
 4095 0642 2178     		ldrb	r1, [r4]	@ zero_extendqisi2
 4096 0644 1920     		movs	r0, #25
 4097 0646 FFF7FEFF 		bl	SetCOCCom
 4098              	.LVL382:
1212:VS4210/keyremo.c **** 			}
 4099              		.loc 1 1212 5 is_stmt 1 view .LVU1054
 4100 064a 2178     		ldrb	r1, [r4]	@ zero_extendqisi2
 4101 064c 1220     		movs	r0, #18
 4102 064e FFF7FEFF 		bl	SetCOCCom
 4103              	.LVL383:
 4104 0652 79E0     		b	.L193
 4105              	.L311:
ARM GAS  C:\Users\ryanc.HS\AppData\Local\Temp\ccZ9UySd.s 			page 138


 4106              		.align	2
 4107              	.L310:
 4108 0654 00000000 		.word	.LANCHOR12
 4109 0658 00000000 		.word	AudioVol
 4110 065c FC000000 		.word	.LC33
 4111 0660 00000000 		.word	bytStandByModeToTriggerMode
 4112 0664 00000000 		.word	bytCOCAdjust
 4113 0668 00000000 		.word	bytGrabberAdjust
 4114 066c 10010000 		.word	.LC34
 4115 0670 00000000 		.word	PowerFlag
 4116 0674 00000000 		.word	bytStandByMode
 4117 0678 20010000 		.word	.LC35
 4118 067c 30010000 		.word	.LC36
 4119 0680 00000000 		.word	SelectModeType
 4120 0684 00000000 		.word	.LANCHOR13
 4121 0688 00000000 		.word	.LANCHOR14
 4122 068c 44010000 		.word	.LC37
 4123 0690 00000000 		.word	bytGaugeAdjust
 4124 0694 54010000 		.word	.LC38
 4125 0698 68010000 		.word	.LC39
 4126              	.LVL384:
 4127              	.L294:
1218:VS4210/keyremo.c **** 					ShowGrabberLinerOSD();
 4128              		.loc 1 1218 6 view .LVU1055
1218:VS4210/keyremo.c **** 					ShowGrabberLinerOSD();
 4129              		.loc 1 1218 23 is_stmt 0 view .LVU1056
 4130 069c 344B     		ldr	r3, .L312
 4131 069e 6122     		movs	r2, #97
 4132 06a0 1A70     		strb	r2, [r3]
1219:VS4210/keyremo.c **** 				}
 4133              		.loc 1 1219 6 is_stmt 1 view .LVU1057
 4134 06a2 FFF7FEFF 		bl	ShowGrabberLinerOSD
 4135              	.LVL385:
 728:VS4210/keyremo.c **** 	/*
 4136              		.loc 1 728 7 is_stmt 0 view .LVU1058
 4137 06a6 0125     		movs	r5, #1
 4138 06a8 4EE0     		b	.L193
 4139              	.L254:
1224:VS4210/keyremo.c **** 					CloseOSDMenu();
 4140              		.loc 1 1224 5 is_stmt 1 view .LVU1059
1224:VS4210/keyremo.c **** 					CloseOSDMenu();
 4141              		.loc 1 1224 9 is_stmt 0 view .LVU1060
 4142 06aa FFF7FEFF 		bl	GetDisplayedOSD
 4143              	.LVL386:
1224:VS4210/keyremo.c **** 					CloseOSDMenu();
 4144              		.loc 1 1224 8 view .LVU1061
 4145 06ae 10F0660F 		tst	r0, #102
 4146 06b2 03D1     		bne	.L303
 4147              	.L255:
1227:VS4210/keyremo.c **** 			}
 4148              		.loc 1 1227 5 is_stmt 1 view .LVU1062
 4149 06b4 FFF7FEFF 		bl	SetSelectMode
 4150              	.LVL387:
 728:VS4210/keyremo.c **** 	/*
 4151              		.loc 1 728 7 is_stmt 0 view .LVU1063
 4152 06b8 0125     		movs	r5, #1
 4153 06ba 45E0     		b	.L193
ARM GAS  C:\Users\ryanc.HS\AppData\Local\Temp\ccZ9UySd.s 			page 139


 4154              	.L303:
1225:VS4210/keyremo.c **** 
 4155              		.loc 1 1225 6 is_stmt 1 view .LVU1064
 4156 06bc FFF7FEFF 		bl	CloseOSDMenu
 4157              	.LVL388:
 4158 06c0 F8E7     		b	.L255
 4159              	.L233:
1235:VS4210/keyremo.c **** 			{
 4160              		.loc 1 1235 4 view .LVU1065
1235:VS4210/keyremo.c **** 			{
 4161              		.loc 1 1235 21 is_stmt 0 view .LVU1066
 4162 06c2 2C4B     		ldr	r3, .L312+4
 4163 06c4 1D78     		ldrb	r5, [r3]	@ zero_extendqisi2
1235:VS4210/keyremo.c **** 			{
 4164              		.loc 1 1235 7 view .LVU1067
 4165 06c6 012D     		cmp	r5, #1
 4166 06c8 06D0     		beq	.L304
1242:VS4210/keyremo.c **** 			{
 4167              		.loc 1 1242 9 is_stmt 1 view .LVU1068
1242:VS4210/keyremo.c **** 			{
 4168              		.loc 1 1242 13 is_stmt 0 view .LVU1069
 4169 06ca 294B     		ldr	r3, .L312
 4170 06cc 1B78     		ldrb	r3, [r3]	@ zero_extendqisi2
1242:VS4210/keyremo.c **** 			{
 4171              		.loc 1 1242 12 view .LVU1070
 4172 06ce BBB1     		cbz	r3, .L257
1244:VS4210/keyremo.c **** 				{
 4173              		.loc 1 1244 5 is_stmt 1 view .LVU1071
1244:VS4210/keyremo.c **** 				{
 4174              		.loc 1 1244 8 is_stmt 0 view .LVU1072
 4175 06d0 612B     		cmp	r3, #97
 4176 06d2 0ED0     		beq	.L305
 728:VS4210/keyremo.c **** 	/*
 4177              		.loc 1 728 7 view .LVU1073
 4178 06d4 0125     		movs	r5, #1
 4179 06d6 37E0     		b	.L193
 4180              	.L304:
1238:VS4210/keyremo.c **** 				SetCOCCom(_COCOSD_BOX_Sel, SelectModeType);
 4181              		.loc 1 1238 5 is_stmt 1 view .LVU1074
 4182 06d8 2748     		ldr	r0, .L312+8
 4183 06da FFF7FEFF 		bl	Printf
 4184              	.LVL389:
1239:VS4210/keyremo.c **** 				SetCOCCom(_COCOSD_LEFT, SelectModeType);
 4185              		.loc 1 1239 5 view .LVU1075
 4186 06de 274C     		ldr	r4, .L312+12
 4187              	.LVL390:
1239:VS4210/keyremo.c **** 				SetCOCCom(_COCOSD_LEFT, SelectModeType);
 4188              		.loc 1 1239 5 is_stmt 0 view .LVU1076
 4189 06e0 2178     		ldrb	r1, [r4]	@ zero_extendqisi2
 4190 06e2 1920     		movs	r0, #25
 4191 06e4 FFF7FEFF 		bl	SetCOCCom
 4192              	.LVL391:
1240:VS4210/keyremo.c **** 			}
 4193              		.loc 1 1240 5 is_stmt 1 view .LVU1077
 4194 06e8 2178     		ldrb	r1, [r4]	@ zero_extendqisi2
 4195 06ea 1120     		movs	r0, #17
 4196 06ec FFF7FEFF 		bl	SetCOCCom
ARM GAS  C:\Users\ryanc.HS\AppData\Local\Temp\ccZ9UySd.s 			page 140


 4197              	.LVL392:
 4198 06f0 2AE0     		b	.L193
 4199              	.LVL393:
 4200              	.L305:
1246:VS4210/keyremo.c **** 					ShowGrabberLinerOSD();
 4201              		.loc 1 1246 6 view .LVU1078
1246:VS4210/keyremo.c **** 					ShowGrabberLinerOSD();
 4202              		.loc 1 1246 23 is_stmt 0 view .LVU1079
 4203 06f2 1F4B     		ldr	r3, .L312
 4204 06f4 6222     		movs	r2, #98
 4205 06f6 1A70     		strb	r2, [r3]
1247:VS4210/keyremo.c **** 				}
 4206              		.loc 1 1247 6 is_stmt 1 view .LVU1080
 4207 06f8 FFF7FEFF 		bl	ShowGrabberLinerOSD
 4208              	.LVL394:
 728:VS4210/keyremo.c **** 	/*
 4209              		.loc 1 728 7 is_stmt 0 view .LVU1081
 4210 06fc 0125     		movs	r5, #1
 4211 06fe 23E0     		b	.L193
 4212              	.L257:
1250:VS4210/keyremo.c **** 			{
 4213              		.loc 1 1250 9 is_stmt 1 view .LVU1082
1250:VS4210/keyremo.c **** 			{
 4214              		.loc 1 1250 14 is_stmt 0 view .LVU1083
 4215 0700 FFF7FEFF 		bl	GetDisplayedOSD
 4216              	.LVL395:
1250:VS4210/keyremo.c **** 			{
 4217              		.loc 1 1250 12 view .LVU1084
 4218 0704 10F0200F 		tst	r0, #32
 4219 0708 01D0     		beq	.L306
 728:VS4210/keyremo.c **** 	/*
 4220              		.loc 1 728 7 view .LVU1085
 4221 070a 0125     		movs	r5, #1
 4222 070c 1CE0     		b	.L193
 4223              	.L306:
1252:VS4210/keyremo.c **** 					CloseOSDMenu();
 4224              		.loc 1 1252 5 is_stmt 1 view .LVU1086
1252:VS4210/keyremo.c **** 					CloseOSDMenu();
 4225              		.loc 1 1252 9 is_stmt 0 view .LVU1087
 4226 070e FFF7FEFF 		bl	GetDisplayedOSD
 4227              	.LVL396:
1252:VS4210/keyremo.c **** 					CloseOSDMenu();
 4228              		.loc 1 1252 8 view .LVU1088
 4229 0712 10F0460F 		tst	r0, #70
 4230 0716 0CD1     		bne	.L307
 4231              	.L258:
1255:VS4210/keyremo.c **** 					NowModeState = JumpMode;
 4232              		.loc 1 1255 5 is_stmt 1 view .LVU1089
1255:VS4210/keyremo.c **** 					NowModeState = JumpMode;
 4233              		.loc 1 1255 22 is_stmt 0 view .LVU1090
 4234 0718 194B     		ldr	r3, .L312+16
 4235 071a 1B78     		ldrb	r3, [r3]	@ zero_extendqisi2
1255:VS4210/keyremo.c **** 					NowModeState = JumpMode;
 4236              		.loc 1 1255 8 view .LVU1091
 4237 071c 63B9     		cbnz	r3, .L259
1256:VS4210/keyremo.c **** 				else
 4238              		.loc 1 1256 6 is_stmt 1 view .LVU1092
ARM GAS  C:\Users\ryanc.HS\AppData\Local\Temp\ccZ9UySd.s 			page 141


1256:VS4210/keyremo.c **** 				else
 4239              		.loc 1 1256 19 is_stmt 0 view .LVU1093
 4240 071e 184B     		ldr	r3, .L312+16
 4241 0720 0122     		movs	r2, #1
 4242 0722 1A70     		strb	r2, [r3]
 4243              	.L260:
1260:VS4210/keyremo.c **** 
 4244              		.loc 1 1260 5 is_stmt 1 view .LVU1094
 4245 0724 1420     		movs	r0, #20
 4246 0726 FFF7FEFF 		bl	MCUTimerCancelTimerEvent
 4247              	.LVL397:
1262:VS4210/keyremo.c **** 			}
 4248              		.loc 1 1262 5 view .LVU1095
 4249 072a FFF7FEFF 		bl	SetJumpMode
 4250              	.LVL398:
 728:VS4210/keyremo.c **** 	/*
 4251              		.loc 1 728 7 is_stmt 0 view .LVU1096
 4252 072e 0125     		movs	r5, #1
 4253 0730 0AE0     		b	.L193
 4254              	.L307:
1253:VS4210/keyremo.c **** 
 4255              		.loc 1 1253 6 is_stmt 1 view .LVU1097
 4256 0732 FFF7FEFF 		bl	CloseOSDMenu
 4257              	.LVL399:
 4258 0736 EFE7     		b	.L258
 4259              	.L259:
1258:VS4210/keyremo.c **** 
 4260              		.loc 1 1258 6 view .LVU1098
1258:VS4210/keyremo.c **** 
 4261              		.loc 1 1258 19 is_stmt 0 view .LVU1099
 4262 0738 114B     		ldr	r3, .L312+16
 4263 073a 0022     		movs	r2, #0
 4264 073c 1A70     		strb	r2, [r3]
 4265 073e F1E7     		b	.L260
 4266              	.L291:
1269:VS4210/keyremo.c **** 
 4267              		.loc 1 1269 5 is_stmt 1 view .LVU1100
 4268 0740 FFF7FEFF 		bl	CloseOSDMenu
 4269              	.LVL400:
 4270 0744 66E6     		b	.L261
 4271              	.LVL401:
 4272              	.L262:
 728:VS4210/keyremo.c **** 	/*
 4273              		.loc 1 728 7 is_stmt 0 view .LVU1101
 4274 0746 0125     		movs	r5, #1
 4275              	.LVL402:
 4276              	.L193:
1371:VS4210/keyremo.c **** 
 4277              		.loc 1 1371 1 view .LVU1102
 4278 0748 2846     		mov	r0, r5
 4279 074a 70BD     		pop	{r4, r5, r6, pc}
 4280              	.LVL403:
 4281              	.L263:
 807:VS4210/keyremo.c **** 		}
 4282              		.loc 1 807 11 view .LVU1103
 4283 074c 0125     		movs	r5, #1
 4284 074e FBE7     		b	.L193
ARM GAS  C:\Users\ryanc.HS\AppData\Local\Temp\ccZ9UySd.s 			page 142


 4285              	.L264:
 4286 0750 0125     		movs	r5, #1
 4287 0752 F9E7     		b	.L193
 4288              	.L265:
 4289 0754 0125     		movs	r5, #1
 4290 0756 F7E7     		b	.L193
 4291              	.L266:
 4292 0758 0125     		movs	r5, #1
 4293 075a F5E7     		b	.L193
 4294              	.L267:
 4295 075c 0125     		movs	r5, #1
 4296 075e F3E7     		b	.L193
 4297              	.LVL404:
 4298              	.L268:
1029:VS4210/keyremo.c **** 		{
 4299              		.loc 1 1029 3 view .LVU1104
 4300 0760 0125     		movs	r5, #1
 4301 0762 F1E7     		b	.L193
 4302              	.L269:
 4303 0764 0125     		movs	r5, #1
 4304 0766 EFE7     		b	.L193
 4305              	.L270:
 728:VS4210/keyremo.c **** 	/*
 4306              		.loc 1 728 7 view .LVU1105
 4307 0768 2546     		mov	r5, r4
 4308 076a EDE7     		b	.L193
 4309              	.L271:
 4310 076c 0125     		movs	r5, #1
 4311 076e EBE7     		b	.L193
 4312              	.L313:
 4313              		.align	2
 4314              	.L312:
 4315 0770 00000000 		.word	bytGrabberAdjust
 4316 0774 00000000 		.word	bytCOCAdjust
 4317 0778 7C010000 		.word	.LC40
 4318 077c 00000000 		.word	SelectModeType
 4319 0780 00000000 		.word	NowModeState
 4320              		.cfi_endproc
 4321              	.LFE74:
 4323              		.section	.rodata.CheckCAMDInputVideo.str1.4,"aMS",%progbits,1
 4324              		.align	2
 4325              	.LC41:
 4326 0000 280D0A28 		.ascii	"(\015\012(*CheckCAMDInputVideo=%d)\000"
 4326      2A436865 
 4326      636B4341 
 4326      4D44496E 
 4326      70757456 
 4327              		.section	.text.CheckCAMDInputVideo,"ax",%progbits
 4328              		.align	1
 4329              		.global	CheckCAMDInputVideo
 4330              		.syntax unified
 4331              		.thumb
 4332              		.thumb_func
 4333              		.fpu softvfp
 4335              	CheckCAMDInputVideo:
 4336              	.LVL405:
 4337              	.LFB84:
ARM GAS  C:\Users\ryanc.HS\AppData\Local\Temp\ccZ9UySd.s 			page 143


2541:VS4210/keyremo.c **** 	WORD usNum;
 4338              		.loc 1 2541 1 is_stmt 1 view -0
 4339              		.cfi_startproc
 4340              		@ args = 0, pretend = 0, frame = 0
 4341              		@ frame_needed = 0, uses_anonymous_args = 0
2541:VS4210/keyremo.c **** 	WORD usNum;
 4342              		.loc 1 2541 1 is_stmt 0 view .LVU1107
 4343 0000 10B5     		push	{r4, lr}
 4344              	.LCFI13:
 4345              		.cfi_def_cfa_offset 8
 4346              		.cfi_offset 4, -8
 4347              		.cfi_offset 14, -4
 4348 0002 0446     		mov	r4, r0
2542:VS4210/keyremo.c **** 
 4349              		.loc 1 2542 2 is_stmt 1 view .LVU1108
2544:VS4210/keyremo.c **** 	Printf("(\r\n(*CheckCAMDInputVideo=%d)", (WORD)index);
 4350              		.loc 1 2544 2 view .LVU1109
 4351 0004 FFF7FEFF 		bl	SetSelectCAMRD
 4352              	.LVL406:
2545:VS4210/keyremo.c **** //	usNum=100;
 4353              		.loc 1 2545 2 view .LVU1110
 4354 0008 2146     		mov	r1, r4
 4355 000a 0A48     		ldr	r0, .L319
 4356 000c FFF7FEFF 		bl	Printf
 4357              	.LVL407:
2548:VS4210/keyremo.c **** #else
 4358              		.loc 1 2548 2 view .LVU1111
2552:VS4210/keyremo.c **** 
 4359              		.loc 1 2552 2 view .LVU1112
2552:VS4210/keyremo.c **** 
 4360              		.loc 1 2552 21 is_stmt 0 view .LVU1113
 4361 0010 094B     		ldr	r3, .L319+4
 4362 0012 0022     		movs	r2, #0
 4363 0014 1A60     		str	r2, [r3]
2548:VS4210/keyremo.c **** #else
 4364              		.loc 1 2548 8 view .LVU1114
 4365 0016 3224     		movs	r4, #50
 4366              	.LVL408:
 4367              	.L315:
2554:VS4210/keyremo.c **** 	{
 4368              		.loc 1 2554 2 is_stmt 1 view .LVU1115
2556:VS4210/keyremo.c **** 		{
 4369              		.loc 1 2556 3 view .LVU1116
2556:VS4210/keyremo.c **** 		{
 4370              		.loc 1 2556 7 is_stmt 0 view .LVU1117
 4371 0018 074B     		ldr	r3, .L319+4
 4372 001a 1B68     		ldr	r3, [r3]
2556:VS4210/keyremo.c **** 		{
 4373              		.loc 1 2556 6 view .LVU1118
 4374 001c 002B     		cmp	r3, #0
 4375 001e FBD0     		beq	.L315
2558:VS4210/keyremo.c **** 
 4376              		.loc 1 2558 4 is_stmt 1 view .LVU1119
2558:VS4210/keyremo.c **** 
 4377              		.loc 1 2558 23 is_stmt 0 view .LVU1120
 4378 0020 054B     		ldr	r3, .L319+4
 4379 0022 0022     		movs	r2, #0
ARM GAS  C:\Users\ryanc.HS\AppData\Local\Temp\ccZ9UySd.s 			page 144


 4380 0024 1A60     		str	r2, [r3]
2560:VS4210/keyremo.c **** 			{
 4381              		.loc 1 2560 4 is_stmt 1 view .LVU1121
 4382              	.LVL409:
2560:VS4210/keyremo.c **** 			{
 4383              		.loc 1 2560 7 is_stmt 0 view .LVU1122
 4384 0026 013C     		subs	r4, r4, #1
 4385              	.LVL410:
2560:VS4210/keyremo.c **** 			{
 4386              		.loc 1 2560 7 view .LVU1123
 4387 0028 02D0     		beq	.L314
2562:VS4210/keyremo.c **** 			}
 4388              		.loc 1 2562 5 is_stmt 1 view .LVU1124
 4389 002a FFF7FEFF 		bl	EQ_Detect
 4390              	.LVL411:
 4391 002e F3E7     		b	.L315
 4392              	.L314:
2571:VS4210/keyremo.c **** 
 4393              		.loc 1 2571 1 is_stmt 0 view .LVU1125
 4394 0030 10BD     		pop	{r4, pc}
 4395              	.LVL412:
 4396              	.L320:
2571:VS4210/keyremo.c **** 
 4397              		.loc 1 2571 1 view .LVU1126
 4398 0032 00BF     		.align	2
 4399              	.L319:
 4400 0034 00000000 		.word	.LC41
 4401 0038 00000000 		.word	g_bNotifyTimer0Int
 4402              		.cfi_endproc
 4403              	.LFE84:
 4405              		.section	.text.CheckGarbberLiner,"ax",%progbits
 4406              		.align	1
 4407              		.global	CheckGarbberLiner
 4408              		.syntax unified
 4409              		.thumb
 4410              		.thumb_func
 4411              		.fpu softvfp
 4413              	CheckGarbberLiner:
 4414              	.LVL413:
 4415              	.LFB86:
2767:VS4210/keyremo.c **** 
2768:VS4210/keyremo.c **** void CheckGarbberLiner(BYTE index)
2769:VS4210/keyremo.c **** {
 4416              		.loc 1 2769 1 is_stmt 1 view -0
 4417              		.cfi_startproc
 4418              		@ args = 0, pretend = 0, frame = 0
 4419              		@ frame_needed = 0, uses_anonymous_args = 0
 4420              		.loc 1 2769 1 is_stmt 0 view .LVU1128
 4421 0000 08B5     		push	{r3, lr}
 4422              	.LCFI14:
 4423              		.cfi_def_cfa_offset 8
 4424              		.cfi_offset 3, -8
 4425              		.cfi_offset 14, -4
2770:VS4210/keyremo.c **** 
2771:VS4210/keyremo.c **** 	BYTE action = OFF;
 4426              		.loc 1 2771 2 is_stmt 1 view .LVU1129
 4427              	.LVL414:
ARM GAS  C:\Users\ryanc.HS\AppData\Local\Temp\ccZ9UySd.s 			page 145


2772:VS4210/keyremo.c **** 
2773:VS4210/keyremo.c **** 	switch (index)
 4428              		.loc 1 2773 2 view .LVU1130
 4429 0002 0238     		subs	r0, r0, #2
 4430              	.LVL415:
 4431              		.loc 1 2773 2 is_stmt 0 view .LVU1131
 4432 0004 1128     		cmp	r0, #17
 4433 0006 0ED8     		bhi	.L321
 4434 0008 DFE800F0 		tbb	[pc, r0]
 4435              	.L324:
 4436 000c 09       		.byte	(.L323-.L324)/2
 4437 000d 0D       		.byte	(.L321-.L324)/2
 4438 000e 0D       		.byte	(.L321-.L324)/2
 4439 000f 0D       		.byte	(.L321-.L324)/2
 4440 0010 0D       		.byte	(.L321-.L324)/2
 4441 0011 0D       		.byte	(.L321-.L324)/2
 4442 0012 0D       		.byte	(.L321-.L324)/2
 4443 0013 0D       		.byte	(.L321-.L324)/2
 4444 0014 0D       		.byte	(.L321-.L324)/2
 4445 0015 09       		.byte	(.L323-.L324)/2
 4446 0016 0D       		.byte	(.L321-.L324)/2
 4447 0017 0D       		.byte	(.L321-.L324)/2
 4448 0018 0D       		.byte	(.L321-.L324)/2
 4449 0019 09       		.byte	(.L323-.L324)/2
 4450 001a 0D       		.byte	(.L321-.L324)/2
 4451 001b 0D       		.byte	(.L321-.L324)/2
 4452 001c 0D       		.byte	(.L321-.L324)/2
 4453 001d 09       		.byte	(.L323-.L324)/2
 4454              		.p2align 1
 4455              	.L323:
2774:VS4210/keyremo.c **** 	{
2775:VS4210/keyremo.c **** 	case VS4210_LOOP_MODE0_w0:
2776:VS4210/keyremo.c **** 	case VS4210_LOOP_MODE0_w1:
2777:VS4210/keyremo.c **** 	case VS4210_LOOP_MODE0_w3:
2778:VS4210/keyremo.c **** 	case VS4210_LOOP_MODE0_w4:
2779:VS4210/keyremo.c **** 	case VS4210_LOOP_MODE1:
2780:VS4210/keyremo.c **** 	case VS4210_LOOP_MODE2:
2781:VS4210/keyremo.c **** 	case VS4210_LOOP_MODE10_123:
2782:VS4210/keyremo.c **** 	case VS4210_LOOP_MODE8:
2783:VS4210/keyremo.c **** 	case VS4210_LOOP_MODE9:
2784:VS4210/keyremo.c **** 	case VS4210_LOOP_MODE12_12:
2785:VS4210/keyremo.c **** 
2786:VS4210/keyremo.c **** 	case VS4210_LOOP_MODE12_14:
2787:VS4210/keyremo.c **** 	case VS4210_LOOP_MODE12_42:
2788:VS4210/keyremo.c **** 
2789:VS4210/keyremo.c **** 	case VS4210_LOOP_MODE12_21:
2790:VS4210/keyremo.c **** 	case VS4210_LOOP_MODE12_23:
2791:VS4210/keyremo.c **** 	case VS4210_LOOP_MODE12_24:
2792:VS4210/keyremo.c **** 
2793:VS4210/keyremo.c **** 	case VS4210_LOOP_MODE12_31:
2794:VS4210/keyremo.c **** 	case VS4210_LOOP_MODE12_32:
2795:VS4210/keyremo.c **** 	case VS4210_LOOP_MODE8_412:
2796:VS4210/keyremo.c **** 	case VS4210_LOOP_MODE8_123:
2797:VS4210/keyremo.c **** 	case VS4210_LOOP_MODE8_124:
2798:VS4210/keyremo.c **** 	case VS4210_LOOP_MODE8_134:
2799:VS4210/keyremo.c **** 	case VS4210_LOOP_MODE8_213:
2800:VS4210/keyremo.c **** 	case VS4210_LOOP_MODE8_214:
ARM GAS  C:\Users\ryanc.HS\AppData\Local\Temp\ccZ9UySd.s 			page 146


2801:VS4210/keyremo.c **** 	case VS4210_LOOP_MODE8_234:
2802:VS4210/keyremo.c **** 	case VS4210_LOOP_MODE8_312:
2803:VS4210/keyremo.c **** 	case VS4210_LOOP_MODE8_314:
2804:VS4210/keyremo.c **** 	case VS4210_LOOP_MODE8_324:
2805:VS4210/keyremo.c **** 	case VS4210_LOOP_MODE10_412:
2806:VS4210/keyremo.c **** 	case VS4210_LOOP_MODE10_413:
2807:VS4210/keyremo.c **** 	case VS4210_LOOP_MODE10_423:
2808:VS4210/keyremo.c **** 	case VS4210_LOOP_MODE8_413:
2809:VS4210/keyremo.c **** 	case VS4210_LOOP_MODE8_423:
2810:VS4210/keyremo.c **** 	case VS4210_LOOP_MODE14:
2811:VS4210/keyremo.c **** 	case VS4210_LOOP_MODE9_412:
2812:VS4210/keyremo.c **** 	case VS4210_LOOP_MODE9_123:
2813:VS4210/keyremo.c **** 	case VS4210_LOOP_MODE9_124:
2814:VS4210/keyremo.c **** 	case VS4210_LOOP_MODE9_134:
2815:VS4210/keyremo.c **** 	case VS4210_LOOP_MODE9_213:
2816:VS4210/keyremo.c **** 	case VS4210_LOOP_MODE9_214:
2817:VS4210/keyremo.c **** 	case VS4210_LOOP_MODE9_234:
2818:VS4210/keyremo.c **** 	case VS4210_LOOP_MODE9_312:
2819:VS4210/keyremo.c **** 	case VS4210_LOOP_MODE9_314:
2820:VS4210/keyremo.c **** 	case VS4210_LOOP_MODE9_324:
2821:VS4210/keyremo.c **** 	case VS4210_LOOP_MODE10_124:
2822:VS4210/keyremo.c **** 	case VS4210_LOOP_MODE10_134:
2823:VS4210/keyremo.c **** 	case VS4210_LOOP_MODE10_213:
2824:VS4210/keyremo.c **** 	case VS4210_LOOP_MODE10_214:
2825:VS4210/keyremo.c **** 	case VS4210_LOOP_MODE10_234:
2826:VS4210/keyremo.c **** 	case VS4210_LOOP_MODE10_312:
2827:VS4210/keyremo.c **** 	case VS4210_LOOP_MODE10_314:
2828:VS4210/keyremo.c **** 	case VS4210_LOOP_MODE10_324:
2829:VS4210/keyremo.c **** 
2830:VS4210/keyremo.c **** 		action = OFF;
2831:VS4210/keyremo.c **** 		break;
2832:VS4210/keyremo.c **** 
2833:VS4210/keyremo.c **** 	case VS4210_LOOP_MODE0_w2:
2834:VS4210/keyremo.c **** 	case VS4210_LOOP_MODE12_34:
2835:VS4210/keyremo.c **** 	case VS4210_LOOP_MODE12_43:
2836:VS4210/keyremo.c **** 	case VS4210_LOOP_MODE12_13:
2837:VS4210/keyremo.c **** 		action = ON;
 4456              		.loc 1 2837 3 is_stmt 1 view .LVU1132
 4457              	.LVL416:
2838:VS4210/keyremo.c **** 		break;
 4458              		.loc 1 2838 3 view .LVU1133
2839:VS4210/keyremo.c **** 	}
2840:VS4210/keyremo.c **** 
2841:VS4210/keyremo.c **** 	if ((action == ON) && (bytGarbberLiner == ON))
 4459              		.loc 1 2841 2 view .LVU1134
 4460              		.loc 1 2841 41 is_stmt 0 view .LVU1135
 4461 001e 044B     		ldr	r3, .L327
 4462 0020 1B78     		ldrb	r3, [r3]	@ zero_extendqisi2
 4463              		.loc 1 2841 21 view .LVU1136
 4464 0022 012B     		cmp	r3, #1
 4465 0024 00D0     		beq	.L326
 4466              	.LVL417:
 4467              	.L321:
2842:VS4210/keyremo.c **** 	{
2843:VS4210/keyremo.c **** 		ShowGrabberLinerOSD();
2844:VS4210/keyremo.c **** 
2845:VS4210/keyremo.c **** 		//#if(	_DEBUG_MESSAGE_Source_Change==ON)
ARM GAS  C:\Users\ryanc.HS\AppData\Local\Temp\ccZ9UySd.s 			page 147


2846:VS4210/keyremo.c **** 		//	GraphicsPrint(BLUE,"(ActionGarbberLine.)");
2847:VS4210/keyremo.c **** 		//	#endif
2848:VS4210/keyremo.c **** 	}
2849:VS4210/keyremo.c **** }
 4468              		.loc 1 2849 1 view .LVU1137
 4469 0026 08BD     		pop	{r3, pc}
 4470              	.LVL418:
 4471              	.L326:
2843:VS4210/keyremo.c **** 
 4472              		.loc 1 2843 3 is_stmt 1 view .LVU1138
 4473 0028 FFF7FEFF 		bl	ShowGrabberLinerOSD
 4474              	.LVL419:
 4475              		.loc 1 2849 1 is_stmt 0 view .LVU1139
 4476 002c FBE7     		b	.L321
 4477              	.L328:
 4478 002e 00BF     		.align	2
 4479              	.L327:
 4480 0030 00000000 		.word	bytGarbberLiner
 4481              		.cfi_endproc
 4482              	.LFE86:
 4484              		.section	.rodata.SetNowMode.str1.4,"aMS",%progbits,1
 4485              		.align	2
 4486              	.LC42:
 4487 0000 0D0A4E6F 		.ascii	"\015\012NowModeState=%02x\000"
 4487      774D6F64 
 4487      65537461 
 4487      74653D25 
 4487      30327800 
 4488              		.align	2
 4489              	.LC43:
 4490 0014 0D0A4D61 		.ascii	"\015\012MainSetSelectMode[SelectModeType]=%02x\015\012"
 4490      696E5365 
 4490      7453656C 
 4490      6563744D 
 4490      6F64655B 
 4491 003e 00       		.ascii	"\000"
 4492 003f 00       		.align	2
 4493              	.LC44:
 4494 0040 4A554D50 		.ascii	"JUMPModeState=%02x\000"
 4494      4D6F6465 
 4494      53746174 
 4494      653D2530 
 4494      327800
 4495              		.section	.text.SetNowMode,"ax",%progbits
 4496              		.align	1
 4497              		.global	SetNowMode
 4498              		.syntax unified
 4499              		.thumb
 4500              		.thumb_func
 4501              		.fpu softvfp
 4503              	SetNowMode:
 4504              	.LFB87:
2850:VS4210/keyremo.c **** 
2851:VS4210/keyremo.c **** void SetNowMode(void)
2852:VS4210/keyremo.c **** {
 4505              		.loc 1 2852 1 is_stmt 1 view -0
 4506              		.cfi_startproc
ARM GAS  C:\Users\ryanc.HS\AppData\Local\Temp\ccZ9UySd.s 			page 148


 4507              		@ args = 0, pretend = 0, frame = 0
 4508              		@ frame_needed = 0, uses_anonymous_args = 0
 4509 0000 38B5     		push	{r3, r4, r5, lr}
 4510              	.LCFI15:
 4511              		.cfi_def_cfa_offset 16
 4512              		.cfi_offset 3, -16
 4513              		.cfi_offset 4, -12
 4514              		.cfi_offset 5, -8
 4515              		.cfi_offset 14, -4
2853:VS4210/keyremo.c **** 
2854:VS4210/keyremo.c **** 	BYTE val;
 4516              		.loc 1 2854 2 view .LVU1141
2855:VS4210/keyremo.c **** 	//    Printf("\r\n[MSG]SetNowMode()=> NowModeState=%02x",(WORD)NowModeState);
2856:VS4210/keyremo.c **** 	//	LCDPowerOFF();
2857:VS4210/keyremo.c **** 	//	MCUTimerActiveTimerEvent(SEC(1),  _USER_TIMER_EVENT_PANEL_BACKLIGHT_ON);
2858:VS4210/keyremo.c **** 
2859:VS4210/keyremo.c **** 	if (NowModeState == SelectMode)
 4517              		.loc 1 2859 2 view .LVU1142
 4518              		.loc 1 2859 19 is_stmt 0 view .LVU1143
 4519 0002 4D4B     		ldr	r3, .L342
 4520 0004 1978     		ldrb	r1, [r3]	@ zero_extendqisi2
 4521              		.loc 1 2859 5 view .LVU1144
 4522 0006 0029     		cmp	r1, #0
 4523 0008 52D1     		bne	.L330
2860:VS4210/keyremo.c **** 	{
2861:VS4210/keyremo.c **** 
2862:VS4210/keyremo.c **** 		Printf("\r\nNowModeState=%02x", (WORD)NowModeState);
 4524              		.loc 1 2862 3 is_stmt 1 view .LVU1145
 4525 000a 4C48     		ldr	r0, .L342+4
 4526 000c FFF7FEFF 		bl	Printf
 4527              	.LVL420:
2863:VS4210/keyremo.c **** 		Printf("\r\nMainSetSelectMode[SelectModeType]=%02x\r\n", (WORD)MainSetSelectMode[SelectModeType])
 4528              		.loc 1 2863 3 view .LVU1146
 4529              		.loc 1 2863 83 is_stmt 0 view .LVU1147
 4530 0010 4B4B     		ldr	r3, .L342+8
 4531 0012 1B78     		ldrb	r3, [r3]	@ zero_extendqisi2
 4532 0014 4B4A     		ldr	r2, .L342+12
 4533 0016 D15C     		ldrb	r1, [r2, r3]	@ zero_extendqisi2
 4534              		.loc 1 2863 3 view .LVU1148
 4535 0018 4B48     		ldr	r0, .L342+16
 4536 001a FFF7FEFF 		bl	Printf
 4537              	.LVL421:
2864:VS4210/keyremo.c **** 
2865:VS4210/keyremo.c **** 		if ((TriggerStatus == 5) && (MainSetSelectMode[SelectModeType] == VS4210_LOOP_MODE0_w3)) // selec
 4538              		.loc 1 2865 3 is_stmt 1 view .LVU1149
 4539              		.loc 1 2865 22 is_stmt 0 view .LVU1150
 4540 001e 4B4B     		ldr	r3, .L342+20
 4541 0020 1B78     		ldrb	r3, [r3]	@ zero_extendqisi2
 4542              		.loc 1 2865 6 view .LVU1151
 4543 0022 052B     		cmp	r3, #5
 4544 0024 25D0     		beq	.L338
 4545              	.L331:
2866:VS4210/keyremo.c **** 		{
2867:VS4210/keyremo.c **** 			TriggerStatus = 0;
2868:VS4210/keyremo.c **** 			SetSelectCAMRD(MainSetSelectMode[SelectModeType]);
2869:VS4210/keyremo.c **** 			setloopoutmode(MainSetSelectMode[SelectModeType]);
2870:VS4210/keyremo.c **** 		}
ARM GAS  C:\Users\ryanc.HS\AppData\Local\Temp\ccZ9UySd.s 			page 149


2871:VS4210/keyremo.c **** 		else
2872:VS4210/keyremo.c **** 		{
2873:VS4210/keyremo.c **** 			if (BOOT_ISSUE == 1)
 4546              		.loc 1 2873 4 is_stmt 1 view .LVU1152
 4547              		.loc 1 2873 19 is_stmt 0 view .LVU1153
 4548 0026 4A4B     		ldr	r3, .L342+24
 4549 0028 1B78     		ldrb	r3, [r3]	@ zero_extendqisi2
 4550              		.loc 1 2873 7 view .LVU1154
 4551 002a 012B     		cmp	r3, #1
 4552 002c 35D0     		beq	.L339
2874:VS4210/keyremo.c **** 			{
2875:VS4210/keyremo.c **** 
2876:VS4210/keyremo.c **** 				SetSelectCAMRD(MainSetSelectMode[SelectModeType]);
2877:VS4210/keyremo.c **** 
2878:VS4210/keyremo.c **** 				setloopoutmode(MainSetSelectMode[SelectModeType]);
2879:VS4210/keyremo.c **** 			}
2880:VS4210/keyremo.c **** 			else
2881:VS4210/keyremo.c **** 			{
2882:VS4210/keyremo.c **** 				setloopoutmode(MainSetSelectMode[SelectModeType]);
 4553              		.loc 1 2882 5 is_stmt 1 view .LVU1155
 4554              		.loc 1 2882 37 is_stmt 0 view .LVU1156
 4555 002e 444D     		ldr	r5, .L342+8
 4556 0030 2B78     		ldrb	r3, [r5]	@ zero_extendqisi2
 4557 0032 444C     		ldr	r4, .L342+12
 4558 0034 E05C     		ldrb	r0, [r4, r3]	@ zero_extendqisi2
 4559              		.loc 1 2882 5 view .LVU1157
 4560 0036 FFF7FEFF 		bl	setloopoutmode
 4561              	.LVL422:
2883:VS4210/keyremo.c **** 				SetSelectCAMRD(MainSetSelectMode[SelectModeType]);
 4562              		.loc 1 2883 5 is_stmt 1 view .LVU1158
 4563 003a 2B78     		ldrb	r3, [r5]	@ zero_extendqisi2
 4564 003c E05C     		ldrb	r0, [r4, r3]	@ zero_extendqisi2
 4565 003e FFF7FEFF 		bl	SetSelectCAMRD
 4566              	.LVL423:
 4567              	.L332:
2884:VS4210/keyremo.c **** 			}
2885:VS4210/keyremo.c **** 		}
2886:VS4210/keyremo.c **** 
2887:VS4210/keyremo.c **** 		SEQFlag = 0;
 4568              		.loc 1 2887 3 view .LVU1159
 4569              		.loc 1 2887 11 is_stmt 0 view .LVU1160
 4570 0042 444B     		ldr	r3, .L342+28
 4571 0044 0022     		movs	r2, #0
 4572 0046 1A70     		strb	r2, [r3]
2888:VS4210/keyremo.c **** 
2889:VS4210/keyremo.c **** 		SetGarbberLinerMode(MainSetSelectMode[SelectModeType]);
 4573              		.loc 1 2889 3 is_stmt 1 view .LVU1161
 4574 0048 3D4C     		ldr	r4, .L342+8
 4575 004a 2378     		ldrb	r3, [r4]	@ zero_extendqisi2
 4576 004c 3D4A     		ldr	r2, .L342+12
 4577 004e D05C     		ldrb	r0, [r2, r3]	@ zero_extendqisi2
 4578 0050 FFF7FEFF 		bl	SetGarbberLinerMode
 4579              	.LVL424:
2890:VS4210/keyremo.c **** 
2891:VS4210/keyremo.c **** 		if ((SelectModeType < 4) && (Flisheye_CAM[SelectModeType] == TRUE))
 4580              		.loc 1 2891 3 view .LVU1162
 4581              		.loc 1 2891 23 is_stmt 0 view .LVU1163
ARM GAS  C:\Users\ryanc.HS\AppData\Local\Temp\ccZ9UySd.s 			page 150


 4582 0054 2178     		ldrb	r1, [r4]	@ zero_extendqisi2
 4583              		.loc 1 2891 6 view .LVU1164
 4584 0056 0329     		cmp	r1, #3
 4585 0058 3ED8     		bhi	.L334
 4586              		.loc 1 2891 44 discriminator 1 view .LVU1165
 4587 005a 3F4B     		ldr	r3, .L342+32
 4588 005c 5B5C     		ldrb	r3, [r3, r1]	@ zero_extendqisi2
 4589              		.loc 1 2891 28 discriminator 1 view .LVU1166
 4590 005e 012B     		cmp	r3, #1
 4591 0060 3AD1     		bne	.L334
2892:VS4210/keyremo.c **** 		{
2893:VS4210/keyremo.c **** 			SetCOCCom(_COCOSD_BOX_Sel, SelectModeType);
 4592              		.loc 1 2893 4 is_stmt 1 view .LVU1167
 4593 0062 1920     		movs	r0, #25
 4594 0064 FFF7FEFF 		bl	SetCOCCom
 4595              	.LVL425:
2894:VS4210/keyremo.c **** 			SetCOCCom(_COC_FLISHEYE_MODE1, Fisheye_no_save);
 4596              		.loc 1 2894 4 view .LVU1168
 4597 0068 0021     		movs	r1, #0
 4598 006a 1B20     		movs	r0, #27
 4599 006c FFF7FEFF 		bl	SetCOCCom
 4600              	.LVL426:
 4601 0070 32E0     		b	.L334
 4602              	.L338:
2865:VS4210/keyremo.c **** 		{
 4603              		.loc 1 2865 49 is_stmt 0 discriminator 1 view .LVU1169
 4604 0072 334B     		ldr	r3, .L342+8
 4605 0074 1A78     		ldrb	r2, [r3]	@ zero_extendqisi2
 4606 0076 334B     		ldr	r3, .L342+12
 4607 0078 9B5C     		ldrb	r3, [r3, r2]	@ zero_extendqisi2
 4608 007a DBB2     		uxtb	r3, r3
2865:VS4210/keyremo.c **** 		{
 4609              		.loc 1 2865 28 discriminator 1 view .LVU1170
 4610 007c 032B     		cmp	r3, #3
 4611 007e D2D1     		bne	.L331
2867:VS4210/keyremo.c **** 			SetSelectCAMRD(MainSetSelectMode[SelectModeType]);
 4612              		.loc 1 2867 4 is_stmt 1 view .LVU1171
2867:VS4210/keyremo.c **** 			SetSelectCAMRD(MainSetSelectMode[SelectModeType]);
 4613              		.loc 1 2867 18 is_stmt 0 view .LVU1172
 4614 0080 324B     		ldr	r3, .L342+20
 4615 0082 0021     		movs	r1, #0
 4616 0084 1970     		strb	r1, [r3]
2868:VS4210/keyremo.c **** 			setloopoutmode(MainSetSelectMode[SelectModeType]);
 4617              		.loc 1 2868 4 is_stmt 1 view .LVU1173
 4618 0086 2F4C     		ldr	r4, .L342+12
 4619 0088 A05C     		ldrb	r0, [r4, r2]	@ zero_extendqisi2
 4620 008a FFF7FEFF 		bl	SetSelectCAMRD
 4621              	.LVL427:
2869:VS4210/keyremo.c **** 		}
 4622              		.loc 1 2869 4 view .LVU1174
2869:VS4210/keyremo.c **** 		}
 4623              		.loc 1 2869 36 is_stmt 0 view .LVU1175
 4624 008e 2C4B     		ldr	r3, .L342+8
 4625 0090 1B78     		ldrb	r3, [r3]	@ zero_extendqisi2
 4626 0092 E05C     		ldrb	r0, [r4, r3]	@ zero_extendqisi2
2869:VS4210/keyremo.c **** 		}
 4627              		.loc 1 2869 4 view .LVU1176
ARM GAS  C:\Users\ryanc.HS\AppData\Local\Temp\ccZ9UySd.s 			page 151


 4628 0094 FFF7FEFF 		bl	setloopoutmode
 4629              	.LVL428:
 4630 0098 D3E7     		b	.L332
 4631              	.L339:
2876:VS4210/keyremo.c **** 
 4632              		.loc 1 2876 5 is_stmt 1 view .LVU1177
 4633 009a 294D     		ldr	r5, .L342+8
 4634 009c 2B78     		ldrb	r3, [r5]	@ zero_extendqisi2
 4635 009e 294C     		ldr	r4, .L342+12
 4636 00a0 E05C     		ldrb	r0, [r4, r3]	@ zero_extendqisi2
 4637 00a2 FFF7FEFF 		bl	SetSelectCAMRD
 4638              	.LVL429:
2878:VS4210/keyremo.c **** 			}
 4639              		.loc 1 2878 5 view .LVU1178
2878:VS4210/keyremo.c **** 			}
 4640              		.loc 1 2878 37 is_stmt 0 view .LVU1179
 4641 00a6 2B78     		ldrb	r3, [r5]	@ zero_extendqisi2
 4642 00a8 E05C     		ldrb	r0, [r4, r3]	@ zero_extendqisi2
2878:VS4210/keyremo.c **** 			}
 4643              		.loc 1 2878 5 view .LVU1180
 4644 00aa FFF7FEFF 		bl	setloopoutmode
 4645              	.LVL430:
 4646 00ae C8E7     		b	.L332
 4647              	.L330:
2895:VS4210/keyremo.c **** 		}
2896:VS4210/keyremo.c **** #if 0
2897:VS4210/keyremo.c **** 	if(bytSelectCAMRD!=SelectModeType)
2898:VS4210/keyremo.c **** 		{
2899:VS4210/keyremo.c **** 	bytSelectCAMRD=SelectModeType;
2900:VS4210/keyremo.c **** 	
2901:VS4210/keyremo.c **** 	CAM_R_SW(OFF);
2902:VS4210/keyremo.c **** 	CAM_D_SW(OFF);
2903:VS4210/keyremo.c **** 
2904:VS4210/keyremo.c **** 	SetSelectCAMRD(bytSelectCAMRD);
2905:VS4210/keyremo.c **** 		}
2906:VS4210/keyremo.c **** #endif
2907:VS4210/keyremo.c **** 	}
2908:VS4210/keyremo.c **** 	else // JUMP mode
2909:VS4210/keyremo.c **** 	{
2910:VS4210/keyremo.c **** 		val = ReadEEP(EEP_JUMPMode);
 4648              		.loc 1 2910 3 is_stmt 1 view .LVU1181
 4649              		.loc 1 2910 9 is_stmt 0 view .LVU1182
 4650 00b0 AE20     		movs	r0, #174
 4651 00b2 FFF7FEFF 		bl	ReadEEP
 4652              	.LVL431:
 4653 00b6 0446     		mov	r4, r0
 4654              	.LVL432:
2911:VS4210/keyremo.c **** 
2912:VS4210/keyremo.c **** 		Printf("JUMPModeState=%02x", (WORD)val);
 4655              		.loc 1 2912 3 is_stmt 1 view .LVU1183
 4656 00b8 0146     		mov	r1, r0
 4657 00ba 2848     		ldr	r0, .L342+36
 4658              	.LVL433:
 4659              		.loc 1 2912 3 is_stmt 0 view .LVU1184
 4660 00bc FFF7FEFF 		bl	Printf
 4661              	.LVL434:
2913:VS4210/keyremo.c **** 
ARM GAS  C:\Users\ryanc.HS\AppData\Local\Temp\ccZ9UySd.s 			page 152


2914:VS4210/keyremo.c **** 		if (val == 1)
 4662              		.loc 1 2914 3 is_stmt 1 view .LVU1185
 4663              		.loc 1 2914 6 is_stmt 0 view .LVU1186
 4664 00c0 012C     		cmp	r4, #1
 4665 00c2 0ED0     		beq	.L340
 4666              	.L335:
2915:VS4210/keyremo.c **** 		{
2916:VS4210/keyremo.c **** 			SEQFlag = ON;
2917:VS4210/keyremo.c **** 			SEQIndex = 0;
2918:VS4210/keyremo.c **** 			MCUTimerCancelTimerEvent(_USER_TIMER_EVENT_SEQ_CHECK);
2919:VS4210/keyremo.c **** 			if (!(GetDisplayedOSD() & MENU))
2920:VS4210/keyremo.c **** 				MCUTimerActiveTimerEvent(SEC(TimeStep), _USER_TIMER_EVENT_SEQ_CHECK);
2921:VS4210/keyremo.c **** 		}
2922:VS4210/keyremo.c **** 
2923:VS4210/keyremo.c **** 		SetSelectCAMRD(JumpTable[val]);
 4667              		.loc 1 2923 3 is_stmt 1 view .LVU1187
 4668 00c4 264D     		ldr	r5, .L342+40
 4669 00c6 285D     		ldrb	r0, [r5, r4]	@ zero_extendqisi2
 4670 00c8 FFF7FEFF 		bl	SetSelectCAMRD
 4671              	.LVL435:
2924:VS4210/keyremo.c **** 
2925:VS4210/keyremo.c **** 		setloopoutmode(JumpTable[val]);
 4672              		.loc 1 2925 3 view .LVU1188
 4673 00cc 285D     		ldrb	r0, [r5, r4]	@ zero_extendqisi2
 4674 00ce FFF7FEFF 		bl	setloopoutmode
 4675              	.LVL436:
2926:VS4210/keyremo.c **** 
2927:VS4210/keyremo.c **** 		SetGarbberLinerMode(JumpTable[val]);
 4676              		.loc 1 2927 3 view .LVU1189
 4677 00d2 285D     		ldrb	r0, [r5, r4]	@ zero_extendqisi2
 4678 00d4 FFF7FEFF 		bl	SetGarbberLinerMode
 4679              	.LVL437:
 4680              	.L334:
2928:VS4210/keyremo.c **** 	}
2929:VS4210/keyremo.c **** 
2930:VS4210/keyremo.c **** 	if (bytAutoSleeping == ON)
 4681              		.loc 1 2930 2 view .LVU1190
 4682              		.loc 1 2930 22 is_stmt 0 view .LVU1191
 4683 00d8 224B     		ldr	r3, .L342+44
 4684 00da 1B78     		ldrb	r3, [r3]	@ zero_extendqisi2
 4685              		.loc 1 2930 5 view .LVU1192
 4686 00dc 012B     		cmp	r3, #1
 4687 00de 18D0     		beq	.L341
 4688              	.L329:
2931:VS4210/keyremo.c **** 	{
2932:VS4210/keyremo.c **** 		MCUTimerCancelTimerEvent(_SYSTEM_TIMER_EVENT_AUTO_SLEEPING_TIMEOUT);
2933:VS4210/keyremo.c **** 		MCUTimerActiveTimerEvent(SEC(10 - (bytStandByModeToTriggerMode * 5)), _SYSTEM_TIMER_EVENT_AUTO_SL
2934:VS4210/keyremo.c **** 	}
2935:VS4210/keyremo.c **** 
2936:VS4210/keyremo.c **** 	// MCUTimerActiveTimerEvent(SEC(5),  _USER_TIMER_EVENT_PANEL_BACKLIGHT_ON);
2937:VS4210/keyremo.c **** }
 4689              		.loc 1 2937 1 view .LVU1193
 4690 00e0 38BD     		pop	{r3, r4, r5, pc}
 4691              	.L340:
2916:VS4210/keyremo.c **** 			SEQIndex = 0;
 4692              		.loc 1 2916 4 is_stmt 1 view .LVU1194
2916:VS4210/keyremo.c **** 			SEQIndex = 0;
ARM GAS  C:\Users\ryanc.HS\AppData\Local\Temp\ccZ9UySd.s 			page 153


 4693              		.loc 1 2916 12 is_stmt 0 view .LVU1195
 4694 00e2 1C4B     		ldr	r3, .L342+28
 4695 00e4 0122     		movs	r2, #1
 4696 00e6 1A70     		strb	r2, [r3]
2917:VS4210/keyremo.c **** 			MCUTimerCancelTimerEvent(_USER_TIMER_EVENT_SEQ_CHECK);
 4697              		.loc 1 2917 4 is_stmt 1 view .LVU1196
2917:VS4210/keyremo.c **** 			MCUTimerCancelTimerEvent(_USER_TIMER_EVENT_SEQ_CHECK);
 4698              		.loc 1 2917 13 is_stmt 0 view .LVU1197
 4699 00e8 1F4B     		ldr	r3, .L342+48
 4700 00ea 0022     		movs	r2, #0
 4701 00ec 1A70     		strb	r2, [r3]
2918:VS4210/keyremo.c **** 			if (!(GetDisplayedOSD() & MENU))
 4702              		.loc 1 2918 4 is_stmt 1 view .LVU1198
 4703 00ee 1420     		movs	r0, #20
 4704 00f0 FFF7FEFF 		bl	MCUTimerCancelTimerEvent
 4705              	.LVL438:
2919:VS4210/keyremo.c **** 				MCUTimerActiveTimerEvent(SEC(TimeStep), _USER_TIMER_EVENT_SEQ_CHECK);
 4706              		.loc 1 2919 4 view .LVU1199
2919:VS4210/keyremo.c **** 				MCUTimerActiveTimerEvent(SEC(TimeStep), _USER_TIMER_EVENT_SEQ_CHECK);
 4707              		.loc 1 2919 10 is_stmt 0 view .LVU1200
 4708 00f4 FFF7FEFF 		bl	GetDisplayedOSD
 4709              	.LVL439:
2919:VS4210/keyremo.c **** 				MCUTimerActiveTimerEvent(SEC(TimeStep), _USER_TIMER_EVENT_SEQ_CHECK);
 4710              		.loc 1 2919 7 view .LVU1201
 4711 00f8 10F0020F 		tst	r0, #2
 4712 00fc E2D1     		bne	.L335
2920:VS4210/keyremo.c **** 		}
 4713              		.loc 1 2920 5 is_stmt 1 view .LVU1202
2920:VS4210/keyremo.c **** 		}
 4714              		.loc 1 2920 30 is_stmt 0 view .LVU1203
 4715 00fe 1B4B     		ldr	r3, .L342+52
 4716 0100 1B78     		ldrb	r3, [r3]	@ zero_extendqisi2
2920:VS4210/keyremo.c **** 		}
 4717              		.loc 1 2920 5 view .LVU1204
 4718 0102 1421     		movs	r1, #20
 4719 0104 4FF47A70 		mov	r0, #1000
 4720 0108 00FB03F0 		mul	r0, r0, r3
 4721 010c FFF7FEFF 		bl	MCUTimerActiveTimerEvent
 4722              	.LVL440:
 4723 0110 D8E7     		b	.L335
 4724              	.L341:
2932:VS4210/keyremo.c **** 		MCUTimerActiveTimerEvent(SEC(10 - (bytStandByModeToTriggerMode * 5)), _SYSTEM_TIMER_EVENT_AUTO_SL
 4725              		.loc 1 2932 3 is_stmt 1 view .LVU1205
 4726 0112 4E20     		movs	r0, #78
 4727 0114 FFF7FEFF 		bl	MCUTimerCancelTimerEvent
 4728              	.LVL441:
2933:VS4210/keyremo.c **** 	}
 4729              		.loc 1 2933 3 view .LVU1206
2933:VS4210/keyremo.c **** 	}
 4730              		.loc 1 2933 28 is_stmt 0 view .LVU1207
 4731 0118 154B     		ldr	r3, .L342+56
 4732 011a 1878     		ldrb	r0, [r3]	@ zero_extendqisi2
 4733 011c C0EB8073 		rsb	r3, r0, r0, lsl #30
 4734 0120 C0EB8300 		rsb	r0, r0, r3, lsl #2
 4735 0124 0A30     		adds	r0, r0, #10
2933:VS4210/keyremo.c **** 	}
 4736              		.loc 1 2933 3 view .LVU1208
ARM GAS  C:\Users\ryanc.HS\AppData\Local\Temp\ccZ9UySd.s 			page 154


 4737 0126 4E21     		movs	r1, #78
 4738 0128 4FF47A73 		mov	r3, #1000
 4739 012c 03FB00F0 		mul	r0, r3, r0
 4740 0130 FFF7FEFF 		bl	MCUTimerActiveTimerEvent
 4741              	.LVL442:
 4742              		.loc 1 2937 1 view .LVU1209
 4743 0134 D4E7     		b	.L329
 4744              	.L343:
 4745 0136 00BF     		.align	2
 4746              	.L342:
 4747 0138 00000000 		.word	NowModeState
 4748 013c 00000000 		.word	.LC42
 4749 0140 00000000 		.word	SelectModeType
 4750 0144 00000000 		.word	.LANCHOR4
 4751 0148 14000000 		.word	.LC43
 4752 014c 00000000 		.word	.LANCHOR11
 4753 0150 00000000 		.word	BOOT_ISSUE
 4754 0154 00000000 		.word	.LANCHOR1
 4755 0158 00000000 		.word	Flisheye_CAM
 4756 015c 40000000 		.word	.LC44
 4757 0160 00000000 		.word	.LANCHOR10
 4758 0164 00000000 		.word	bytAutoSleeping
 4759 0168 00000000 		.word	SEQIndex
 4760 016c 00000000 		.word	TimeStep
 4761 0170 00000000 		.word	bytStandByModeToTriggerMode
 4762              		.cfi_endproc
 4763              	.LFE87:
 4765              		.section	.text.SetRearSource,"ax",%progbits
 4766              		.align	1
 4767              		.global	SetRearSource
 4768              		.syntax unified
 4769              		.thumb
 4770              		.thumb_func
 4771              		.fpu softvfp
 4773              	SetRearSource:
 4774              	.LFB88:
2938:VS4210/keyremo.c **** 
2939:VS4210/keyremo.c **** void SetRearSource(void)
2940:VS4210/keyremo.c **** {
 4775              		.loc 1 2940 1 is_stmt 1 view -0
 4776              		.cfi_startproc
 4777              		@ args = 0, pretend = 0, frame = 0
 4778              		@ frame_needed = 0, uses_anonymous_args = 0
 4779 0000 10B5     		push	{r4, lr}
 4780              	.LCFI16:
 4781              		.cfi_def_cfa_offset 8
 4782              		.cfi_offset 4, -8
 4783              		.cfi_offset 14, -4
2941:VS4210/keyremo.c **** 	BYTE index, ch;
 4784              		.loc 1 2941 2 view .LVU1211
2942:VS4210/keyremo.c **** 
2943:VS4210/keyremo.c **** 	if (GetDisplayedOSD() & (MENU | TVVOL))
 4785              		.loc 1 2943 2 view .LVU1212
 4786              		.loc 1 2943 6 is_stmt 0 view .LVU1213
 4787 0002 FFF7FEFF 		bl	GetDisplayedOSD
 4788              	.LVL443:
 4789              		.loc 1 2943 5 view .LVU1214
ARM GAS  C:\Users\ryanc.HS\AppData\Local\Temp\ccZ9UySd.s 			page 155


 4790 0006 10F0060F 		tst	r0, #6
 4791 000a 24D1     		bne	.L353
 4792              	.L345:
2944:VS4210/keyremo.c **** 		CloseOSDMenu();
2945:VS4210/keyremo.c **** 
2946:VS4210/keyremo.c **** 	if (BOOT_ISSUE == 0)
 4793              		.loc 1 2946 2 is_stmt 1 view .LVU1215
 4794              		.loc 1 2946 17 is_stmt 0 view .LVU1216
 4795 000c 1F4B     		ldr	r3, .L359
 4796 000e 1B78     		ldrb	r3, [r3]	@ zero_extendqisi2
 4797              		.loc 1 2946 5 view .LVU1217
 4798 0010 23B3     		cbz	r3, .L354
 4799              	.L346:
2947:VS4210/keyremo.c **** 		LCDPowerOFF();
2948:VS4210/keyremo.c **** 
2949:VS4210/keyremo.c **** 	if (Flisheye_CAM[FCH4] == TRUE)
 4800              		.loc 1 2949 2 is_stmt 1 view .LVU1218
 4801              		.loc 1 2949 18 is_stmt 0 view .LVU1219
 4802 0012 1F4B     		ldr	r3, .L359+4
 4803 0014 5B78     		ldrb	r3, [r3, #1]	@ zero_extendqisi2
 4804              		.loc 1 2949 5 view .LVU1220
 4805 0016 012B     		cmp	r3, #1
 4806 0018 23D0     		beq	.L355
 4807              	.L347:
2950:VS4210/keyremo.c **** 	{
2951:VS4210/keyremo.c **** 		SetCOCCom(_COCOSD_BOX_Sel, CH4);
2952:VS4210/keyremo.c **** 		SetCOCCom(_COC_FLISHEYE_MODE2, Fisheye_no_save);
2953:VS4210/keyremo.c **** 		Get_2824cIrq();
2954:VS4210/keyremo.c **** 	}
2955:VS4210/keyremo.c **** 
2956:VS4210/keyremo.c **** 	MCUTimerActiveTimerEvent(SEC(_BACKLIGHT_ON_Time_out), _USER_TIMER_EVENT_PANEL_BACKLIGHT_ON);
 4808              		.loc 1 2956 2 is_stmt 1 view .LVU1221
 4809 001a 1121     		movs	r1, #17
 4810 001c 4FF4FA70 		mov	r0, #500
 4811 0020 FFF7FEFF 		bl	MCUTimerActiveTimerEvent
 4812              	.LVL444:
2957:VS4210/keyremo.c **** 
2958:VS4210/keyremo.c **** 	ch = ReadEEP(EEP_RearMode);
 4813              		.loc 1 2958 2 view .LVU1222
 4814              		.loc 1 2958 7 is_stmt 0 view .LVU1223
 4815 0024 A220     		movs	r0, #162
 4816 0026 FFF7FEFF 		bl	ReadEEP
 4817              	.LVL445:
2959:VS4210/keyremo.c **** 
2960:VS4210/keyremo.c **** 	if (bytTripleScreenType == TripleScreenFlag9)
 4818              		.loc 1 2960 2 is_stmt 1 view .LVU1224
 4819              		.loc 1 2960 26 is_stmt 0 view .LVU1225
 4820 002a 1A4B     		ldr	r3, .L359+8
 4821 002c 1B78     		ldrb	r3, [r3]	@ zero_extendqisi2
 4822              		.loc 1 2960 5 view .LVU1226
 4823 002e 022B     		cmp	r3, #2
 4824 0030 22D0     		beq	.L356
2961:VS4210/keyremo.c **** 		index = RearTable9[ch];
2962:VS4210/keyremo.c **** 	else if (bytTripleScreenType == TripleScreenFlag10)
 4825              		.loc 1 2962 7 is_stmt 1 view .LVU1227
 4826              		.loc 1 2962 10 is_stmt 0 view .LVU1228
 4827 0032 032B     		cmp	r3, #3
ARM GAS  C:\Users\ryanc.HS\AppData\Local\Temp\ccZ9UySd.s 			page 156


 4828 0034 23D0     		beq	.L357
2963:VS4210/keyremo.c **** 		index = RearTable10[ch];
2964:VS4210/keyremo.c **** 	else
2965:VS4210/keyremo.c **** 		index = RearTable[ch];
 4829              		.loc 1 2965 3 is_stmt 1 view .LVU1229
 4830              		.loc 1 2965 9 is_stmt 0 view .LVU1230
 4831 0036 184B     		ldr	r3, .L359+12
 4832 0038 1C5C     		ldrb	r4, [r3, r0]	@ zero_extendqisi2
 4833              	.LVL446:
 4834              	.L349:
2966:VS4210/keyremo.c **** 
2967:VS4210/keyremo.c **** 	setloopoutmode(index);
 4835              		.loc 1 2967 2 is_stmt 1 view .LVU1231
 4836 003a 2046     		mov	r0, r4
 4837              	.LVL447:
 4838              		.loc 1 2967 2 is_stmt 0 view .LVU1232
 4839 003c FFF7FEFF 		bl	setloopoutmode
 4840              	.LVL448:
2968:VS4210/keyremo.c **** 
2969:VS4210/keyremo.c **** 	SetGarbberLinerMode(index);
 4841              		.loc 1 2969 2 is_stmt 1 view .LVU1233
 4842 0040 2046     		mov	r0, r4
 4843 0042 FFF7FEFF 		bl	SetGarbberLinerMode
 4844              	.LVL449:
2970:VS4210/keyremo.c **** 
2971:VS4210/keyremo.c **** 	// SetSelectCAMRD(SelectCameraR);
2972:VS4210/keyremo.c **** 
2973:VS4210/keyremo.c **** 	// setloopoutmode(CAM_R) ;
2974:VS4210/keyremo.c **** 	//		OSDStateFlg =1 ;
2975:VS4210/keyremo.c **** 	if (GetItemValue(GAUGEChoice) == _TRUE)
 4845              		.loc 1 2975 2 view .LVU1234
 4846              		.loc 1 2975 6 is_stmt 0 view .LVU1235
 4847 0046 BA20     		movs	r0, #186
 4848 0048 FFF7FEFF 		bl	GetItemValue
 4849              	.LVL450:
 4850              		.loc 1 2975 5 view .LVU1236
 4851 004c 0128     		cmp	r0, #1
 4852 004e 19D0     		beq	.L358
 4853              	.L351:
2976:VS4210/keyremo.c **** 		ShowGaugeOSD();
2977:VS4210/keyremo.c **** 
2978:VS4210/keyremo.c **** 	ShowTRIGOSD();
 4854              		.loc 1 2978 2 is_stmt 1 view .LVU1237
 4855 0050 FFF7FEFF 		bl	ShowTRIGOSD
 4856              	.LVL451:
2979:VS4210/keyremo.c **** 
2980:VS4210/keyremo.c **** #if 0
2981:VS4210/keyremo.c ****    BYTE rev;
2982:VS4210/keyremo.c **** #ifdef QUAD
2983:VS4210/keyremo.c ****    rev=ReadEEP(EEP_RearMode);
2984:VS4210/keyremo.c ****    SetSourceMode(RearTable[rev],0x02|(Attr_A&0x01),0x02|(Attr_B&0x01),0x02|(Attr_C&0x01),0x0E|(Attr
2985:VS4210/keyremo.c **** #else
2986:VS4210/keyremo.c **** 	ChangeInput(SOURCE_R);
2987:VS4210/keyremo.c **** #endif
2988:VS4210/keyremo.c **** 
2989:VS4210/keyremo.c **** //	Printf("\r\n[MSG]SetRearSource() => ReverseModeFlag=%bx ,RearTable[rev]=%bx",ReverseModeFlag,Rea
2990:VS4210/keyremo.c **** 
ARM GAS  C:\Users\ryanc.HS\AppData\Local\Temp\ccZ9UySd.s 			page 157


2991:VS4210/keyremo.c **** #ifdef AWT_ML072Q
2992:VS4210/keyremo.c **** 	if(ReverseModeFlag==1 && RearTable[rev]==CAM_R)
2993:VS4210/keyremo.c **** #else
2994:VS4210/keyremo.c **** #ifdef HTRV // Pinchi 20150827 change condition for HTRV
2995:VS4210/keyremo.c **** 	if (RearTable[rev] == CAM_R)
2996:VS4210/keyremo.c **** #else
2997:VS4210/keyremo.c **** 	if(ReverseModeFlag==1)
2998:VS4210/keyremo.c **** #endif
2999:VS4210/keyremo.c **** #endif
3000:VS4210/keyremo.c **** 	{
3001:VS4210/keyremo.c **** #ifdef QUAD						 // Pinchi 20150827 add
3002:VS4210/keyremo.c **** #ifdef HTRV_SUPPORT_4_3_SCREEN	 // Pinchi 20151209 add
3003:VS4210/keyremo.c **** #ifdef HTRV_REDUCE_SCREEN_CHANGE // Pinchi 20150828 add
3004:VS4210/keyremo.c **** 		if (ReadDecoder(0x66) == 0x00)
3005:VS4210/keyremo.c **** #endif
3006:VS4210/keyremo.c **** 	  	{
3007:VS4210/keyremo.c **** 			WriteDecoder(0x0a,0x13); 
3008:VS4210/keyremo.c **** 			WriteDecoder(0x61,0xa6);
3009:VS4210/keyremo.c **** 			WriteDecoder(0x66,0x60);//<William-960905>  
3010:VS4210/keyremo.c **** 		//	Printf("\r\n[MSG]SetRearSource() => Reverse trigger to 4:3 & ReadDecoder(0x0a)=%bx , ReadDecod
3011:VS4210/keyremo.c **** 		}
3012:VS4210/keyremo.c **** #endif
3013:VS4210/keyremo.c **** 
3014:VS4210/keyremo.c **** #ifdef AWT_SUPPORT_4_3_SCREEN // Pinchi 20151209 add
3015:VS4210/keyremo.c **** 		if (ReadDecoder(0x66) == 0x00)
3016:VS4210/keyremo.c **** 	  	{
3017:VS4210/keyremo.c **** 			WriteDecoder(0x0a,0x13); 
3018:VS4210/keyremo.c **** 			WriteDecoder(0x61,0xa6);
3019:VS4210/keyremo.c **** 			WriteDecoder(0x66,0x60);//<William-960905>  
3020:VS4210/keyremo.c **** 		//	Printf("\r\n[MSG]SetRearSource() => Reverse trigger to 4:3 & ReadDecoder(0x0a)=%bx , ReadDecod
3021:VS4210/keyremo.c **** 		}
3022:VS4210/keyremo.c **** #endif
3023:VS4210/keyremo.c **** 
3024:VS4210/keyremo.c **** 
3025:VS4210/keyremo.c **** 
3026:VS4210/keyremo.c **** 	  
3027:VS4210/keyremo.c **** 	  Printf("\r\n[MSG]SetRearSource() => Reverse trigger & keep 16:9 ,ReadDecoder(0x66)=%bx",ReadDeco
3028:VS4210/keyremo.c **** #else
3029:VS4210/keyremo.c **** 		WriteDecoder(0x0a,0x13); 
3030:VS4210/keyremo.c **** 		WriteDecoder(0x61,0xac);
3031:VS4210/keyremo.c **** 		WriteDecoder(0x66,0x60);//<William-960905>
3032:VS4210/keyremo.c **** #endif
3033:VS4210/keyremo.c **** 	}
3034:VS4210/keyremo.c **** 
3035:VS4210/keyremo.c **** 
3036:VS4210/keyremo.c **** 	if(ReverseModeFlag==1)///add by ryan@20180328 AV mode trigger R 4:3/16:9
3037:VS4210/keyremo.c **** 	{///4:3
3038:VS4210/keyremo.c **** 	WriteDecoder(0x0a,0x13); 
3039:VS4210/keyremo.c **** 	WriteDecoder(0x61,0xa6);
3040:VS4210/keyremo.c **** 	WriteDecoder(0x66,0x60);//<William-960905>  
3041:VS4210/keyremo.c **** 	}
3042:VS4210/keyremo.c **** 	else
3043:VS4210/keyremo.c **** 	{///16:9
3044:VS4210/keyremo.c **** 	WriteDecoder(0x0a,0x16); ///_FULLPANEL_20140313_xx
3045:VS4210/keyremo.c **** 	WriteDecoder(0x61,0x80);
3046:VS4210/keyremo.c **** 	WriteDecoder(0x66,0x00);
3047:VS4210/keyremo.c **** 	}
ARM GAS  C:\Users\ryanc.HS\AppData\Local\Temp\ccZ9UySd.s 			page 158


3048:VS4210/keyremo.c **** 
3049:VS4210/keyremo.c **** #if 1 // Pinchi add   
3050:VS4210/keyremo.c ****    if( ReadEEP(EEP_GAUGEMode)==0 && ReadEEP(EEP_RearMode)==0)
3051:VS4210/keyremo.c ****   	  DisplayGaugeOSD();
3052:VS4210/keyremo.c **** #endif
3053:VS4210/keyremo.c **** #endif
3054:VS4210/keyremo.c **** }
 4857              		.loc 1 3054 1 is_stmt 0 view .LVU1238
 4858 0054 10BD     		pop	{r4, pc}
 4859              	.LVL452:
 4860              	.L353:
2944:VS4210/keyremo.c **** 
 4861              		.loc 1 2944 3 is_stmt 1 view .LVU1239
 4862 0056 FFF7FEFF 		bl	CloseOSDMenu
 4863              	.LVL453:
 4864 005a D7E7     		b	.L345
 4865              	.L354:
2947:VS4210/keyremo.c **** 
 4866              		.loc 1 2947 3 view .LVU1240
 4867 005c FFF7FEFF 		bl	LCDPowerOFF
 4868              	.LVL454:
 4869 0060 D7E7     		b	.L346
 4870              	.L355:
2951:VS4210/keyremo.c **** 		SetCOCCom(_COC_FLISHEYE_MODE2, Fisheye_no_save);
 4871              		.loc 1 2951 3 view .LVU1241
 4872 0062 0321     		movs	r1, #3
 4873 0064 1920     		movs	r0, #25
 4874 0066 FFF7FEFF 		bl	SetCOCCom
 4875              	.LVL455:
2952:VS4210/keyremo.c **** 		Get_2824cIrq();
 4876              		.loc 1 2952 3 view .LVU1242
 4877 006a 0021     		movs	r1, #0
 4878 006c 1C20     		movs	r0, #28
 4879 006e FFF7FEFF 		bl	SetCOCCom
 4880              	.LVL456:
2953:VS4210/keyremo.c **** 	}
 4881              		.loc 1 2953 3 view .LVU1243
 4882 0072 FFF7FEFF 		bl	Get_2824cIrq
 4883              	.LVL457:
 4884 0076 D0E7     		b	.L347
 4885              	.LVL458:
 4886              	.L356:
2961:VS4210/keyremo.c **** 	else if (bytTripleScreenType == TripleScreenFlag10)
 4887              		.loc 1 2961 3 view .LVU1244
2961:VS4210/keyremo.c **** 	else if (bytTripleScreenType == TripleScreenFlag10)
 4888              		.loc 1 2961 9 is_stmt 0 view .LVU1245
 4889 0078 084B     		ldr	r3, .L359+16
 4890 007a 1C5C     		ldrb	r4, [r3, r0]	@ zero_extendqisi2
 4891              	.LVL459:
2961:VS4210/keyremo.c **** 	else if (bytTripleScreenType == TripleScreenFlag10)
 4892              		.loc 1 2961 9 view .LVU1246
 4893 007c DDE7     		b	.L349
 4894              	.LVL460:
 4895              	.L357:
2963:VS4210/keyremo.c **** 	else
 4896              		.loc 1 2963 3 is_stmt 1 view .LVU1247
2963:VS4210/keyremo.c **** 	else
ARM GAS  C:\Users\ryanc.HS\AppData\Local\Temp\ccZ9UySd.s 			page 159


 4897              		.loc 1 2963 9 is_stmt 0 view .LVU1248
 4898 007e 084B     		ldr	r3, .L359+20
 4899 0080 1C5C     		ldrb	r4, [r3, r0]	@ zero_extendqisi2
 4900              	.LVL461:
2963:VS4210/keyremo.c **** 	else
 4901              		.loc 1 2963 9 view .LVU1249
 4902 0082 DAE7     		b	.L349
 4903              	.LVL462:
 4904              	.L358:
2976:VS4210/keyremo.c **** 
 4905              		.loc 1 2976 3 is_stmt 1 view .LVU1250
 4906 0084 FFF7FEFF 		bl	ShowGaugeOSD
 4907              	.LVL463:
 4908 0088 E2E7     		b	.L351
 4909              	.L360:
 4910 008a 00BF     		.align	2
 4911              	.L359:
 4912 008c 00000000 		.word	BOOT_ISSUE
 4913 0090 00000000 		.word	Flisheye_CAM
 4914 0094 00000000 		.word	bytTripleScreenType
 4915 0098 00000000 		.word	.LANCHOR17
 4916 009c 00000000 		.word	.LANCHOR15
 4917 00a0 00000000 		.word	.LANCHOR16
 4918              		.cfi_endproc
 4919              	.LFE88:
 4921              		.section	.text.SetLeftSource,"ax",%progbits
 4922              		.align	1
 4923              		.global	SetLeftSource
 4924              		.syntax unified
 4925              		.thumb
 4926              		.thumb_func
 4927              		.fpu softvfp
 4929              	SetLeftSource:
 4930              	.LFB89:
3055:VS4210/keyremo.c **** 
3056:VS4210/keyremo.c **** void SetLeftSource(void)
3057:VS4210/keyremo.c **** {
 4931              		.loc 1 3057 1 view -0
 4932              		.cfi_startproc
 4933              		@ args = 0, pretend = 0, frame = 0
 4934              		@ frame_needed = 0, uses_anonymous_args = 0
 4935 0000 10B5     		push	{r4, lr}
 4936              	.LCFI17:
 4937              		.cfi_def_cfa_offset 8
 4938              		.cfi_offset 4, -8
 4939              		.cfi_offset 14, -4
3058:VS4210/keyremo.c **** 	BYTE index, ch;
 4940              		.loc 1 3058 2 view .LVU1252
3059:VS4210/keyremo.c **** 
3060:VS4210/keyremo.c **** 	if (GetDisplayedOSD() & (MENU | TVVOL))
 4941              		.loc 1 3060 2 view .LVU1253
 4942              		.loc 1 3060 6 is_stmt 0 view .LVU1254
 4943 0002 FFF7FEFF 		bl	GetDisplayedOSD
 4944              	.LVL464:
 4945              		.loc 1 3060 5 view .LVU1255
 4946 0006 10F0060F 		tst	r0, #6
 4947 000a 1FD1     		bne	.L369
ARM GAS  C:\Users\ryanc.HS\AppData\Local\Temp\ccZ9UySd.s 			page 160


 4948              	.L362:
3061:VS4210/keyremo.c **** 		CloseOSDMenu();
3062:VS4210/keyremo.c **** 
3063:VS4210/keyremo.c **** 	// setloopoutmode(CAM_A) ;
3064:VS4210/keyremo.c **** 	//			OSDStateFlg =1 ;
3065:VS4210/keyremo.c **** 	if (BOOT_ISSUE == 0)
 4949              		.loc 1 3065 2 is_stmt 1 view .LVU1256
 4950              		.loc 1 3065 17 is_stmt 0 view .LVU1257
 4951 000c 1B4B     		ldr	r3, .L374
 4952 000e 1B78     		ldrb	r3, [r3]	@ zero_extendqisi2
 4953              		.loc 1 3065 5 view .LVU1258
 4954 0010 FBB1     		cbz	r3, .L370
 4955              	.L363:
3066:VS4210/keyremo.c **** 		LCDPowerOFF();
3067:VS4210/keyremo.c **** 
3068:VS4210/keyremo.c **** 	if (Flisheye_CAM[FCH1] == TRUE)
 4956              		.loc 1 3068 2 is_stmt 1 view .LVU1259
 4957              		.loc 1 3068 18 is_stmt 0 view .LVU1260
 4958 0012 1B4B     		ldr	r3, .L374+4
 4959 0014 1B78     		ldrb	r3, [r3]	@ zero_extendqisi2
 4960              		.loc 1 3068 5 view .LVU1261
 4961 0016 012B     		cmp	r3, #1
 4962 0018 1ED0     		beq	.L371
 4963              	.L364:
3069:VS4210/keyremo.c **** 	{
3070:VS4210/keyremo.c **** 		SetCOCCom(_COCOSD_BOX_Sel, CH1);
3071:VS4210/keyremo.c **** 		SetCOCCom(_COC_FLISHEYE_MODE2, Fisheye_no_save);
3072:VS4210/keyremo.c **** 		Get_2824cIrq();
3073:VS4210/keyremo.c **** 	}
3074:VS4210/keyremo.c **** 
3075:VS4210/keyremo.c **** 	MCUTimerActiveTimerEvent(SEC(_BACKLIGHT_ON_Time_out), _USER_TIMER_EVENT_PANEL_BACKLIGHT_ON);
 4964              		.loc 1 3075 2 is_stmt 1 view .LVU1262
 4965 001a 1121     		movs	r1, #17
 4966 001c 4FF4FA70 		mov	r0, #500
 4967 0020 FFF7FEFF 		bl	MCUTimerActiveTimerEvent
 4968              	.LVL465:
3076:VS4210/keyremo.c **** 
3077:VS4210/keyremo.c **** 	ch = ReadEEP(EEP_IMAGE_A_Mode);
 4969              		.loc 1 3077 2 view .LVU1263
 4970              		.loc 1 3077 7 is_stmt 0 view .LVU1264
 4971 0024 BC20     		movs	r0, #188
 4972 0026 FFF7FEFF 		bl	ReadEEP
 4973              	.LVL466:
3078:VS4210/keyremo.c **** 
3079:VS4210/keyremo.c **** 	if (bytTripleScreenType == TripleScreenFlag9)
 4974              		.loc 1 3079 2 is_stmt 1 view .LVU1265
 4975              		.loc 1 3079 26 is_stmt 0 view .LVU1266
 4976 002a 164B     		ldr	r3, .L374+8
 4977 002c 1B78     		ldrb	r3, [r3]	@ zero_extendqisi2
 4978              		.loc 1 3079 5 view .LVU1267
 4979 002e 022B     		cmp	r3, #2
 4980 0030 1DD0     		beq	.L372
3080:VS4210/keyremo.c **** 		index = LeftTable9[ch];
3081:VS4210/keyremo.c **** 	else if (bytTripleScreenType == TripleScreenFlag10)
 4981              		.loc 1 3081 7 is_stmt 1 view .LVU1268
 4982              		.loc 1 3081 10 is_stmt 0 view .LVU1269
 4983 0032 032B     		cmp	r3, #3
ARM GAS  C:\Users\ryanc.HS\AppData\Local\Temp\ccZ9UySd.s 			page 161


 4984 0034 1ED0     		beq	.L373
3082:VS4210/keyremo.c **** 		index = LeftTable10[ch];
3083:VS4210/keyremo.c **** 	else
3084:VS4210/keyremo.c **** 		index = LeftTable[ch];
 4985              		.loc 1 3084 3 is_stmt 1 view .LVU1270
 4986              		.loc 1 3084 9 is_stmt 0 view .LVU1271
 4987 0036 144B     		ldr	r3, .L374+12
 4988 0038 1C5C     		ldrb	r4, [r3, r0]	@ zero_extendqisi2
 4989              	.LVL467:
 4990              	.L366:
3085:VS4210/keyremo.c **** 
3086:VS4210/keyremo.c **** 	setloopoutmode(index);
 4991              		.loc 1 3086 2 is_stmt 1 view .LVU1272
 4992 003a 2046     		mov	r0, r4
 4993              	.LVL468:
 4994              		.loc 1 3086 2 is_stmt 0 view .LVU1273
 4995 003c FFF7FEFF 		bl	setloopoutmode
 4996              	.LVL469:
3087:VS4210/keyremo.c **** 
3088:VS4210/keyremo.c **** 	SetGarbberLinerMode(index);
 4997              		.loc 1 3088 2 is_stmt 1 view .LVU1274
 4998 0040 2046     		mov	r0, r4
 4999 0042 FFF7FEFF 		bl	SetGarbberLinerMode
 5000              	.LVL470:
3089:VS4210/keyremo.c **** 
3090:VS4210/keyremo.c **** 	// Printf("(*Tri =%d)",(WORD )index);
3091:VS4210/keyremo.c **** 	/*
3092:VS4210/keyremo.c **** 	if(bytTripleScreenType==TripleScreenFlag9)
3093:VS4210/keyremo.c **** 			setloopoutmode(LeftTable9[ ReadEEP(EEP_IMAGE_A_Mode)]);
3094:VS4210/keyremo.c **** 			else if(bytTripleScreenType==TripleScreenFlag10)
3095:VS4210/keyremo.c **** 				setloopoutmode(LeftTable10[ ReadEEP(EEP_IMAGE_A_Mode)]);
3096:VS4210/keyremo.c **** 				else
3097:VS4210/keyremo.c **** 					setloopoutmode(LeftTable[ ReadEEP(EEP_IMAGE_A_Mode)]);
3098:VS4210/keyremo.c **** 	*/
3099:VS4210/keyremo.c **** 	ShowTRIGOSD();
 5001              		.loc 1 3099 2 view .LVU1275
 5002 0046 FFF7FEFF 		bl	ShowTRIGOSD
 5003              	.LVL471:
3100:VS4210/keyremo.c **** 
3101:VS4210/keyremo.c **** #if 0
3102:VS4210/keyremo.c **** #ifdef QUAD	
3103:VS4210/keyremo.c ****     BYTE rev;
3104:VS4210/keyremo.c **** 
3105:VS4210/keyremo.c **** #ifdef AWT_ML072Q
3106:VS4210/keyremo.c **** 	    rev=ReadEEP(EEP_IMAGE_A_Mode);
3107:VS4210/keyremo.c **** #else
3108:VS4210/keyremo.c **** 	    rev=ReadEEP(EEP_IMAGEMode);
3109:VS4210/keyremo.c **** #endif
3110:VS4210/keyremo.c **** 	    SetSourceMode(LeftTable[rev],0x06|(Attr_A&0x01),0x02|(Attr_B&0x01),0x02|(Attr_C&0x01),0x02|(At
3111:VS4210/keyremo.c **** #else
3112:VS4210/keyremo.c **** 	ChangeInput(SOURCE_A);
3113:VS4210/keyremo.c **** #endif
3114:VS4210/keyremo.c **** #endif
3115:VS4210/keyremo.c **** }
 5004              		.loc 1 3115 1 is_stmt 0 view .LVU1276
 5005 004a 10BD     		pop	{r4, pc}
 5006              	.LVL472:
ARM GAS  C:\Users\ryanc.HS\AppData\Local\Temp\ccZ9UySd.s 			page 162


 5007              	.L369:
3061:VS4210/keyremo.c **** 
 5008              		.loc 1 3061 3 is_stmt 1 view .LVU1277
 5009 004c FFF7FEFF 		bl	CloseOSDMenu
 5010              	.LVL473:
 5011 0050 DCE7     		b	.L362
 5012              	.L370:
3066:VS4210/keyremo.c **** 
 5013              		.loc 1 3066 3 view .LVU1278
 5014 0052 FFF7FEFF 		bl	LCDPowerOFF
 5015              	.LVL474:
 5016 0056 DCE7     		b	.L363
 5017              	.L371:
3070:VS4210/keyremo.c **** 		SetCOCCom(_COC_FLISHEYE_MODE2, Fisheye_no_save);
 5018              		.loc 1 3070 3 view .LVU1279
 5019 0058 0021     		movs	r1, #0
 5020 005a 1920     		movs	r0, #25
 5021 005c FFF7FEFF 		bl	SetCOCCom
 5022              	.LVL475:
3071:VS4210/keyremo.c **** 		Get_2824cIrq();
 5023              		.loc 1 3071 3 view .LVU1280
 5024 0060 0021     		movs	r1, #0
 5025 0062 1C20     		movs	r0, #28
 5026 0064 FFF7FEFF 		bl	SetCOCCom
 5027              	.LVL476:
3072:VS4210/keyremo.c **** 	}
 5028              		.loc 1 3072 3 view .LVU1281
 5029 0068 FFF7FEFF 		bl	Get_2824cIrq
 5030              	.LVL477:
 5031 006c D5E7     		b	.L364
 5032              	.LVL478:
 5033              	.L372:
3080:VS4210/keyremo.c **** 	else if (bytTripleScreenType == TripleScreenFlag10)
 5034              		.loc 1 3080 3 view .LVU1282
3080:VS4210/keyremo.c **** 	else if (bytTripleScreenType == TripleScreenFlag10)
 5035              		.loc 1 3080 9 is_stmt 0 view .LVU1283
 5036 006e 074B     		ldr	r3, .L374+16
 5037 0070 1C5C     		ldrb	r4, [r3, r0]	@ zero_extendqisi2
 5038              	.LVL479:
3080:VS4210/keyremo.c **** 	else if (bytTripleScreenType == TripleScreenFlag10)
 5039              		.loc 1 3080 9 view .LVU1284
 5040 0072 E2E7     		b	.L366
 5041              	.LVL480:
 5042              	.L373:
3082:VS4210/keyremo.c **** 	else
 5043              		.loc 1 3082 3 is_stmt 1 view .LVU1285
3082:VS4210/keyremo.c **** 	else
 5044              		.loc 1 3082 9 is_stmt 0 view .LVU1286
 5045 0074 064B     		ldr	r3, .L374+20
 5046 0076 1C5C     		ldrb	r4, [r3, r0]	@ zero_extendqisi2
 5047              	.LVL481:
3082:VS4210/keyremo.c **** 	else
 5048              		.loc 1 3082 9 view .LVU1287
 5049 0078 DFE7     		b	.L366
 5050              	.L375:
 5051 007a 00BF     		.align	2
 5052              	.L374:
ARM GAS  C:\Users\ryanc.HS\AppData\Local\Temp\ccZ9UySd.s 			page 163


 5053 007c 00000000 		.word	BOOT_ISSUE
 5054 0080 00000000 		.word	Flisheye_CAM
 5055 0084 00000000 		.word	bytTripleScreenType
 5056 0088 00000000 		.word	.LANCHOR20
 5057 008c 00000000 		.word	.LANCHOR18
 5058 0090 00000000 		.word	.LANCHOR19
 5059              		.cfi_endproc
 5060              	.LFE89:
 5062              		.section	.text.SetTriggerDSource,"ax",%progbits
 5063              		.align	1
 5064              		.global	SetTriggerDSource
 5065              		.syntax unified
 5066              		.thumb
 5067              		.thumb_func
 5068              		.fpu softvfp
 5070              	SetTriggerDSource:
 5071              	.LFB90:
3116:VS4210/keyremo.c **** 
3117:VS4210/keyremo.c **** void SetTriggerDSource(void)
3118:VS4210/keyremo.c **** {
 5072              		.loc 1 3118 1 is_stmt 1 view -0
 5073              		.cfi_startproc
 5074              		@ args = 0, pretend = 0, frame = 0
 5075              		@ frame_needed = 0, uses_anonymous_args = 0
 5076 0000 08B5     		push	{r3, lr}
 5077              	.LCFI18:
 5078              		.cfi_def_cfa_offset 8
 5079              		.cfi_offset 3, -8
 5080              		.cfi_offset 14, -4
3119:VS4210/keyremo.c **** 	if (GetDisplayedOSD() & (MENU | TVVOL))
 5081              		.loc 1 3119 2 view .LVU1289
 5082              		.loc 1 3119 6 is_stmt 0 view .LVU1290
 5083 0002 FFF7FEFF 		bl	GetDisplayedOSD
 5084              	.LVL482:
 5085              		.loc 1 3119 5 view .LVU1291
 5086 0006 10F0060F 		tst	r0, #6
 5087 000a 13D1     		bne	.L380
 5088              	.L377:
3120:VS4210/keyremo.c **** 		CloseOSDMenu();
3121:VS4210/keyremo.c **** 
3122:VS4210/keyremo.c **** 	if (BOOT_ISSUE == 0)
 5089              		.loc 1 3122 2 is_stmt 1 view .LVU1292
 5090              		.loc 1 3122 17 is_stmt 0 view .LVU1293
 5091 000c 0C4B     		ldr	r3, .L382
 5092 000e 1B78     		ldrb	r3, [r3]	@ zero_extendqisi2
 5093              		.loc 1 3122 5 view .LVU1294
 5094 0010 9BB1     		cbz	r3, .L381
 5095              	.L378:
3123:VS4210/keyremo.c **** 		LCDPowerOFF();
3124:VS4210/keyremo.c **** 	/*
3125:VS4210/keyremo.c **** 	if(Flisheye_CAM[CH3]==TRUE)
3126:VS4210/keyremo.c **** 	{
3127:VS4210/keyremo.c **** 		SetCOCCom(_COCOSD_BOX_Sel,CH3);
3128:VS4210/keyremo.c **** 		SetCOCCom(_COC_FLISHEYE_MODE2,Fisheye_no_save);
3129:VS4210/keyremo.c **** 		Get_2824cIrq();
3130:VS4210/keyremo.c **** 
3131:VS4210/keyremo.c **** 	}
ARM GAS  C:\Users\ryanc.HS\AppData\Local\Temp\ccZ9UySd.s 			page 164


3132:VS4210/keyremo.c **** 	*/
3133:VS4210/keyremo.c **** 	// if(CURRENT_CH==VS4210_LOOP_MODE0_w4)
3134:VS4210/keyremo.c **** 	MCUTimerActiveTimerEvent(SEC(_BACKLIGHT_ON_Time_out), _USER_TIMER_EVENT_PANEL_BACKLIGHT_ON);
 5096              		.loc 1 3134 2 is_stmt 1 view .LVU1295
 5097 0012 1121     		movs	r1, #17
 5098 0014 4FF4FA70 		mov	r0, #500
 5099 0018 FFF7FEFF 		bl	MCUTimerActiveTimerEvent
 5100              	.LVL483:
3135:VS4210/keyremo.c **** 	// else
3136:VS4210/keyremo.c **** 	// MCUTimerActiveTimerEvent(SEC(_BACKLIGHT_ON_Time_out+2.5),  _USER_TIMER_EVENT_PANEL_BACKLIGHT_ON
3137:VS4210/keyremo.c **** 
3138:VS4210/keyremo.c **** 	setloopoutmode(VS4210_LOOP_MODE0_w4); // display CAM D
 5101              		.loc 1 3138 2 view .LVU1296
 5102 001c 0420     		movs	r0, #4
 5103 001e FFF7FEFF 		bl	setloopoutmode
 5104              	.LVL484:
3139:VS4210/keyremo.c **** 
3140:VS4210/keyremo.c **** 	SetSelectCAMRD(SelectCameraD);
 5105              		.loc 1 3140 2 view .LVU1297
 5106 0022 0420     		movs	r0, #4
 5107 0024 FFF7FEFF 		bl	SetSelectCAMRD
 5108              	.LVL485:
3141:VS4210/keyremo.c **** 
3142:VS4210/keyremo.c **** 	SetGarbberLinerMode(VS4210_LOOP_MODE0_w4);
 5109              		.loc 1 3142 2 view .LVU1298
 5110 0028 0420     		movs	r0, #4
 5111 002a FFF7FEFF 		bl	SetGarbberLinerMode
 5112              	.LVL486:
3143:VS4210/keyremo.c **** 
3144:VS4210/keyremo.c **** 	// SetOsdPosition(_Bar0, 48+324,24+200+ 20);
3145:VS4210/keyremo.c **** 
3146:VS4210/keyremo.c **** 	/*
3147:VS4210/keyremo.c **** 	if(bytSelectCAMRD==SelectCameraR)
3148:VS4210/keyremo.c **** 	{
3149:VS4210/keyremo.c **** 	VideoSave[3] = ReadEEP(EEP_TP2824_SAVE4);
3150:VS4210/keyremo.c **** 	Boot_Trigger_Function(3);
3151:VS4210/keyremo.c **** 	bytSelectCAMRD=SelectCameraD;
3152:VS4210/keyremo.c **** 	}
3153:VS4210/keyremo.c **** 	*/
3154:VS4210/keyremo.c **** 	ShowTRIGOSD();
 5113              		.loc 1 3154 2 view .LVU1299
 5114 002e FFF7FEFF 		bl	ShowTRIGOSD
 5115              	.LVL487:
3155:VS4210/keyremo.c **** }
 5116              		.loc 1 3155 1 is_stmt 0 view .LVU1300
 5117 0032 08BD     		pop	{r3, pc}
 5118              	.L380:
3120:VS4210/keyremo.c **** 
 5119              		.loc 1 3120 3 is_stmt 1 view .LVU1301
 5120 0034 FFF7FEFF 		bl	CloseOSDMenu
 5121              	.LVL488:
 5122 0038 E8E7     		b	.L377
 5123              	.L381:
3123:VS4210/keyremo.c **** 	/*
 5124              		.loc 1 3123 3 view .LVU1302
 5125 003a FFF7FEFF 		bl	LCDPowerOFF
 5126              	.LVL489:
ARM GAS  C:\Users\ryanc.HS\AppData\Local\Temp\ccZ9UySd.s 			page 165


 5127 003e E8E7     		b	.L378
 5128              	.L383:
 5129              		.align	2
 5130              	.L382:
 5131 0040 00000000 		.word	BOOT_ISSUE
 5132              		.cfi_endproc
 5133              	.LFE90:
 5135              		.section	.text.SetTriggerCSource,"ax",%progbits
 5136              		.align	1
 5137              		.global	SetTriggerCSource
 5138              		.syntax unified
 5139              		.thumb
 5140              		.thumb_func
 5141              		.fpu softvfp
 5143              	SetTriggerCSource:
 5144              	.LFB91:
3156:VS4210/keyremo.c **** 
3157:VS4210/keyremo.c **** void SetTriggerCSource(void)
3158:VS4210/keyremo.c **** {
 5145              		.loc 1 3158 1 view -0
 5146              		.cfi_startproc
 5147              		@ args = 0, pretend = 0, frame = 0
 5148              		@ frame_needed = 0, uses_anonymous_args = 0
 5149 0000 10B5     		push	{r4, lr}
 5150              	.LCFI19:
 5151              		.cfi_def_cfa_offset 8
 5152              		.cfi_offset 4, -8
 5153              		.cfi_offset 14, -4
3159:VS4210/keyremo.c **** 	BYTE index, ch;
 5154              		.loc 1 3159 2 view .LVU1304
3160:VS4210/keyremo.c **** 
3161:VS4210/keyremo.c **** 	if (GetDisplayedOSD() & (MENU | TVVOL))
 5155              		.loc 1 3161 2 view .LVU1305
 5156              		.loc 1 3161 6 is_stmt 0 view .LVU1306
 5157 0002 FFF7FEFF 		bl	GetDisplayedOSD
 5158              	.LVL490:
 5159              		.loc 1 3161 5 view .LVU1307
 5160 0006 10F0060F 		tst	r0, #6
 5161 000a 22D1     		bne	.L392
 5162              	.L385:
3162:VS4210/keyremo.c **** 		CloseOSDMenu();
3163:VS4210/keyremo.c **** 
3164:VS4210/keyremo.c **** 	if (BOOT_ISSUE == 0)
 5163              		.loc 1 3164 2 is_stmt 1 view .LVU1308
 5164              		.loc 1 3164 17 is_stmt 0 view .LVU1309
 5165 000c 1C4B     		ldr	r3, .L397
 5166 000e 1B78     		ldrb	r3, [r3]	@ zero_extendqisi2
 5167              		.loc 1 3164 5 view .LVU1310
 5168 0010 13B3     		cbz	r3, .L393
 5169              	.L386:
3165:VS4210/keyremo.c **** 		LCDPowerOFF();
3166:VS4210/keyremo.c **** 
3167:VS4210/keyremo.c **** 	if (Flisheye_CAM[FCH3] == TRUE)
 5170              		.loc 1 3167 2 is_stmt 1 view .LVU1311
 5171              		.loc 1 3167 18 is_stmt 0 view .LVU1312
 5172 0012 1C4B     		ldr	r3, .L397+4
 5173 0014 DB78     		ldrb	r3, [r3, #3]	@ zero_extendqisi2
ARM GAS  C:\Users\ryanc.HS\AppData\Local\Temp\ccZ9UySd.s 			page 166


 5174              		.loc 1 3167 5 view .LVU1313
 5175 0016 012B     		cmp	r3, #1
 5176 0018 21D0     		beq	.L394
 5177              	.L387:
3168:VS4210/keyremo.c **** 	{
3169:VS4210/keyremo.c **** 		SetCOCCom(_COCOSD_BOX_Sel, CH3);
3170:VS4210/keyremo.c **** 		SetCOCCom(_COC_FLISHEYE_MODE2, Fisheye_no_save);
3171:VS4210/keyremo.c **** 		Get_2824cIrq();
3172:VS4210/keyremo.c **** 	}
3173:VS4210/keyremo.c **** 
3174:VS4210/keyremo.c **** 	MCUTimerActiveTimerEvent(SEC(_BACKLIGHT_ON_Time_out), _USER_TIMER_EVENT_PANEL_BACKLIGHT_ON);
 5178              		.loc 1 3174 2 is_stmt 1 view .LVU1314
 5179 001a 1121     		movs	r1, #17
 5180 001c 4FF4FA70 		mov	r0, #500
 5181 0020 FFF7FEFF 		bl	MCUTimerActiveTimerEvent
 5182              	.LVL491:
3175:VS4210/keyremo.c **** 
3176:VS4210/keyremo.c **** 	ch = ReadEEP(EEP_IMAGE_C_Mode);
 5183              		.loc 1 3176 2 view .LVU1315
 5184              		.loc 1 3176 7 is_stmt 0 view .LVU1316
 5185 0024 BE20     		movs	r0, #190
 5186 0026 FFF7FEFF 		bl	ReadEEP
 5187              	.LVL492:
3177:VS4210/keyremo.c **** 
3178:VS4210/keyremo.c **** 	if (bytTripleScreenType == TripleScreenFlag9)
 5188              		.loc 1 3178 2 is_stmt 1 view .LVU1317
 5189              		.loc 1 3178 26 is_stmt 0 view .LVU1318
 5190 002a 174B     		ldr	r3, .L397+8
 5191 002c 1B78     		ldrb	r3, [r3]	@ zero_extendqisi2
 5192              		.loc 1 3178 5 view .LVU1319
 5193 002e 022B     		cmp	r3, #2
 5194 0030 20D0     		beq	.L395
3179:VS4210/keyremo.c **** 		index = TriggerC_Table9[ch];
3180:VS4210/keyremo.c **** 	else if (bytTripleScreenType == TripleScreenFlag10)
 5195              		.loc 1 3180 7 is_stmt 1 view .LVU1320
 5196              		.loc 1 3180 10 is_stmt 0 view .LVU1321
 5197 0032 032B     		cmp	r3, #3
 5198 0034 21D0     		beq	.L396
3181:VS4210/keyremo.c **** 		index = TriggerC_Table10[ch];
3182:VS4210/keyremo.c **** 	else
3183:VS4210/keyremo.c **** 		index = TriggerC_Table[ch];
 5199              		.loc 1 3183 3 is_stmt 1 view .LVU1322
 5200              		.loc 1 3183 9 is_stmt 0 view .LVU1323
 5201 0036 154B     		ldr	r3, .L397+12
 5202 0038 1C5C     		ldrb	r4, [r3, r0]	@ zero_extendqisi2
 5203              	.LVL493:
 5204              	.L389:
3184:VS4210/keyremo.c **** 
3185:VS4210/keyremo.c **** 	setloopoutmode(index);
 5205              		.loc 1 3185 2 is_stmt 1 view .LVU1324
 5206 003a 2046     		mov	r0, r4
 5207              	.LVL494:
 5208              		.loc 1 3185 2 is_stmt 0 view .LVU1325
 5209 003c FFF7FEFF 		bl	setloopoutmode
 5210              	.LVL495:
3186:VS4210/keyremo.c **** 
3187:VS4210/keyremo.c **** 	SetGarbberLinerMode(index);
ARM GAS  C:\Users\ryanc.HS\AppData\Local\Temp\ccZ9UySd.s 			page 167


 5211              		.loc 1 3187 2 is_stmt 1 view .LVU1326
 5212 0040 2046     		mov	r0, r4
 5213 0042 FFF7FEFF 		bl	SetGarbberLinerMode
 5214              	.LVL496:
3188:VS4210/keyremo.c **** 
3189:VS4210/keyremo.c **** 	/*
3190:VS4210/keyremo.c **** 	if(bytTripleScreenType==TripleScreenFlag9)
3191:VS4210/keyremo.c **** 		setloopoutmode(TriggerC_Table9[ ReadEEP(EEP_IMAGE_C_Mode)]);
3192:VS4210/keyremo.c **** 		else if(bytTripleScreenType==TripleScreenFlag10)
3193:VS4210/keyremo.c **** 			setloopoutmode(TriggerC_Table10[ ReadEEP(EEP_IMAGE_C_Mode)]);
3194:VS4210/keyremo.c **** 			else
3195:VS4210/keyremo.c **** 				setloopoutmode(TriggerC_Table[ ReadEEP(EEP_IMAGE_C_Mode)]);
3196:VS4210/keyremo.c **** 	*/
3197:VS4210/keyremo.c **** 
3198:VS4210/keyremo.c **** 	SetSelectCAMRD(VS4210_LOOP_MODE0_w2 /*SelectCameraR*/);
 5215              		.loc 1 3198 2 view .LVU1327
 5216 0046 0220     		movs	r0, #2
 5217 0048 FFF7FEFF 		bl	SetSelectCAMRD
 5218              	.LVL497:
3199:VS4210/keyremo.c **** 
3200:VS4210/keyremo.c **** 	/*
3201:VS4210/keyremo.c **** 	Boot_Trigger_Function(3);
3202:VS4210/keyremo.c **** 
3203:VS4210/keyremo.c **** 	if(bytSelectCAMRD==SelectCameraD)
3204:VS4210/keyremo.c **** 	{
3205:VS4210/keyremo.c **** 	VideoSave[3] = ReadEEP(EEP_TP2824_SAVE3);
3206:VS4210/keyremo.c **** 	Boot_Trigger_Function(3);
3207:VS4210/keyremo.c **** 	bytSelectCAMRD=SelectCameraR;
3208:VS4210/keyremo.c **** 	}
3209:VS4210/keyremo.c **** 	*/
3210:VS4210/keyremo.c **** 	//			OSDStateFlg =1 ;
3211:VS4210/keyremo.c **** 	ShowTRIGOSD();
 5219              		.loc 1 3211 2 view .LVU1328
 5220 004c FFF7FEFF 		bl	ShowTRIGOSD
 5221              	.LVL498:
3212:VS4210/keyremo.c **** }
 5222              		.loc 1 3212 1 is_stmt 0 view .LVU1329
 5223 0050 10BD     		pop	{r4, pc}
 5224              	.LVL499:
 5225              	.L392:
3162:VS4210/keyremo.c **** 
 5226              		.loc 1 3162 3 is_stmt 1 view .LVU1330
 5227 0052 FFF7FEFF 		bl	CloseOSDMenu
 5228              	.LVL500:
 5229 0056 D9E7     		b	.L385
 5230              	.L393:
3165:VS4210/keyremo.c **** 
 5231              		.loc 1 3165 3 view .LVU1331
 5232 0058 FFF7FEFF 		bl	LCDPowerOFF
 5233              	.LVL501:
 5234 005c D9E7     		b	.L386
 5235              	.L394:
3169:VS4210/keyremo.c **** 		SetCOCCom(_COC_FLISHEYE_MODE2, Fisheye_no_save);
 5236              		.loc 1 3169 3 view .LVU1332
 5237 005e 0221     		movs	r1, #2
 5238 0060 1920     		movs	r0, #25
 5239 0062 FFF7FEFF 		bl	SetCOCCom
ARM GAS  C:\Users\ryanc.HS\AppData\Local\Temp\ccZ9UySd.s 			page 168


 5240              	.LVL502:
3170:VS4210/keyremo.c **** 		Get_2824cIrq();
 5241              		.loc 1 3170 3 view .LVU1333
 5242 0066 0021     		movs	r1, #0
 5243 0068 1C20     		movs	r0, #28
 5244 006a FFF7FEFF 		bl	SetCOCCom
 5245              	.LVL503:
3171:VS4210/keyremo.c **** 	}
 5246              		.loc 1 3171 3 view .LVU1334
 5247 006e FFF7FEFF 		bl	Get_2824cIrq
 5248              	.LVL504:
 5249 0072 D2E7     		b	.L387
 5250              	.LVL505:
 5251              	.L395:
3179:VS4210/keyremo.c **** 	else if (bytTripleScreenType == TripleScreenFlag10)
 5252              		.loc 1 3179 3 view .LVU1335
3179:VS4210/keyremo.c **** 	else if (bytTripleScreenType == TripleScreenFlag10)
 5253              		.loc 1 3179 9 is_stmt 0 view .LVU1336
 5254 0074 064B     		ldr	r3, .L397+16
 5255 0076 1C5C     		ldrb	r4, [r3, r0]	@ zero_extendqisi2
 5256              	.LVL506:
3179:VS4210/keyremo.c **** 	else if (bytTripleScreenType == TripleScreenFlag10)
 5257              		.loc 1 3179 9 view .LVU1337
 5258 0078 DFE7     		b	.L389
 5259              	.LVL507:
 5260              	.L396:
3181:VS4210/keyremo.c **** 	else
 5261              		.loc 1 3181 3 is_stmt 1 view .LVU1338
3181:VS4210/keyremo.c **** 	else
 5262              		.loc 1 3181 9 is_stmt 0 view .LVU1339
 5263 007a 064B     		ldr	r3, .L397+20
 5264 007c 1C5C     		ldrb	r4, [r3, r0]	@ zero_extendqisi2
 5265              	.LVL508:
3181:VS4210/keyremo.c **** 	else
 5266              		.loc 1 3181 9 view .LVU1340
 5267 007e DCE7     		b	.L389
 5268              	.L398:
 5269              		.align	2
 5270              	.L397:
 5271 0080 00000000 		.word	BOOT_ISSUE
 5272 0084 00000000 		.word	Flisheye_CAM
 5273 0088 00000000 		.word	bytTripleScreenType
 5274 008c 00000000 		.word	.LANCHOR23
 5275 0090 00000000 		.word	.LANCHOR21
 5276 0094 00000000 		.word	.LANCHOR22
 5277              		.cfi_endproc
 5278              	.LFE91:
 5280              		.section	.text.SetRightSource,"ax",%progbits
 5281              		.align	1
 5282              		.global	SetRightSource
 5283              		.syntax unified
 5284              		.thumb
 5285              		.thumb_func
 5286              		.fpu softvfp
 5288              	SetRightSource:
 5289              	.LFB92:
3213:VS4210/keyremo.c **** 
ARM GAS  C:\Users\ryanc.HS\AppData\Local\Temp\ccZ9UySd.s 			page 169


3214:VS4210/keyremo.c **** void SetRightSource(void)
3215:VS4210/keyremo.c **** {
 5290              		.loc 1 3215 1 is_stmt 1 view -0
 5291              		.cfi_startproc
 5292              		@ args = 0, pretend = 0, frame = 0
 5293              		@ frame_needed = 0, uses_anonymous_args = 0
 5294 0000 10B5     		push	{r4, lr}
 5295              	.LCFI20:
 5296              		.cfi_def_cfa_offset 8
 5297              		.cfi_offset 4, -8
 5298              		.cfi_offset 14, -4
3216:VS4210/keyremo.c **** 	BYTE index, ch;
 5299              		.loc 1 3216 2 view .LVU1342
3217:VS4210/keyremo.c **** 
3218:VS4210/keyremo.c **** 	if (GetDisplayedOSD() & (MENU | TVVOL))
 5300              		.loc 1 3218 2 view .LVU1343
 5301              		.loc 1 3218 6 is_stmt 0 view .LVU1344
 5302 0002 FFF7FEFF 		bl	GetDisplayedOSD
 5303              	.LVL509:
 5304              		.loc 1 3218 5 view .LVU1345
 5305 0006 10F0060F 		tst	r0, #6
 5306 000a 1FD1     		bne	.L407
 5307              	.L400:
3219:VS4210/keyremo.c **** 		CloseOSDMenu();
3220:VS4210/keyremo.c **** 
3221:VS4210/keyremo.c **** 	if (BOOT_ISSUE == 0)
 5308              		.loc 1 3221 2 is_stmt 1 view .LVU1346
 5309              		.loc 1 3221 17 is_stmt 0 view .LVU1347
 5310 000c 1B4B     		ldr	r3, .L412
 5311 000e 1B78     		ldrb	r3, [r3]	@ zero_extendqisi2
 5312              		.loc 1 3221 5 view .LVU1348
 5313 0010 FBB1     		cbz	r3, .L408
 5314              	.L401:
3222:VS4210/keyremo.c **** 		LCDPowerOFF();
3223:VS4210/keyremo.c **** 
3224:VS4210/keyremo.c **** 	if (Flisheye_CAM[FCH2] == TRUE)
 5315              		.loc 1 3224 2 is_stmt 1 view .LVU1349
 5316              		.loc 1 3224 18 is_stmt 0 view .LVU1350
 5317 0012 1B4B     		ldr	r3, .L412+4
 5318 0014 9B78     		ldrb	r3, [r3, #2]	@ zero_extendqisi2
 5319              		.loc 1 3224 5 view .LVU1351
 5320 0016 012B     		cmp	r3, #1
 5321 0018 1ED0     		beq	.L409
 5322              	.L402:
3225:VS4210/keyremo.c **** 	{
3226:VS4210/keyremo.c **** 		SetCOCCom(_COCOSD_BOX_Sel, CH2);
3227:VS4210/keyremo.c **** 		SetCOCCom(_COC_FLISHEYE_MODE2, Fisheye_no_save);
3228:VS4210/keyremo.c **** 		Get_2824cIrq();
3229:VS4210/keyremo.c **** 	}
3230:VS4210/keyremo.c **** 
3231:VS4210/keyremo.c **** 	MCUTimerActiveTimerEvent(SEC(_BACKLIGHT_ON_Time_out), _USER_TIMER_EVENT_PANEL_BACKLIGHT_ON);
 5323              		.loc 1 3231 2 is_stmt 1 view .LVU1352
 5324 001a 1121     		movs	r1, #17
 5325 001c 4FF4FA70 		mov	r0, #500
 5326 0020 FFF7FEFF 		bl	MCUTimerActiveTimerEvent
 5327              	.LVL510:
3232:VS4210/keyremo.c **** 
ARM GAS  C:\Users\ryanc.HS\AppData\Local\Temp\ccZ9UySd.s 			page 170


3233:VS4210/keyremo.c **** 	ch = ReadEEP(EEP_IMAGE_B_Mode);
 5328              		.loc 1 3233 2 view .LVU1353
 5329              		.loc 1 3233 7 is_stmt 0 view .LVU1354
 5330 0024 BD20     		movs	r0, #189
 5331 0026 FFF7FEFF 		bl	ReadEEP
 5332              	.LVL511:
3234:VS4210/keyremo.c **** 
3235:VS4210/keyremo.c **** 	if (bytTripleScreenType == TripleScreenFlag9)
 5333              		.loc 1 3235 2 is_stmt 1 view .LVU1355
 5334              		.loc 1 3235 26 is_stmt 0 view .LVU1356
 5335 002a 164B     		ldr	r3, .L412+8
 5336 002c 1B78     		ldrb	r3, [r3]	@ zero_extendqisi2
 5337              		.loc 1 3235 5 view .LVU1357
 5338 002e 022B     		cmp	r3, #2
 5339 0030 1DD0     		beq	.L410
3236:VS4210/keyremo.c **** 		index = RightTable9[ch];
3237:VS4210/keyremo.c **** 	else if (bytTripleScreenType == TripleScreenFlag10)
 5340              		.loc 1 3237 7 is_stmt 1 view .LVU1358
 5341              		.loc 1 3237 10 is_stmt 0 view .LVU1359
 5342 0032 032B     		cmp	r3, #3
 5343 0034 1ED0     		beq	.L411
3238:VS4210/keyremo.c **** 		index = RightTable10[ch];
3239:VS4210/keyremo.c **** 	else
3240:VS4210/keyremo.c **** 		index = RightTable[ch];
 5344              		.loc 1 3240 3 is_stmt 1 view .LVU1360
 5345              		.loc 1 3240 9 is_stmt 0 view .LVU1361
 5346 0036 144B     		ldr	r3, .L412+12
 5347 0038 1C5C     		ldrb	r4, [r3, r0]	@ zero_extendqisi2
 5348              	.LVL512:
 5349              	.L404:
3241:VS4210/keyremo.c **** 
3242:VS4210/keyremo.c **** 	setloopoutmode(index);
 5350              		.loc 1 3242 2 is_stmt 1 view .LVU1362
 5351 003a 2046     		mov	r0, r4
 5352              	.LVL513:
 5353              		.loc 1 3242 2 is_stmt 0 view .LVU1363
 5354 003c FFF7FEFF 		bl	setloopoutmode
 5355              	.LVL514:
3243:VS4210/keyremo.c **** 
3244:VS4210/keyremo.c **** 	SetGarbberLinerMode(index);
 5356              		.loc 1 3244 2 is_stmt 1 view .LVU1364
 5357 0040 2046     		mov	r0, r4
 5358 0042 FFF7FEFF 		bl	SetGarbberLinerMode
 5359              	.LVL515:
3245:VS4210/keyremo.c **** 
3246:VS4210/keyremo.c **** 	/*
3247:VS4210/keyremo.c **** 		if(bytTripleScreenType==TripleScreenFlag9)
3248:VS4210/keyremo.c **** 			setloopoutmode(RightTable9[ ReadEEP(EEP_IMAGE_B_Mode)]);
3249:VS4210/keyremo.c **** 			else if(bytTripleScreenType==TripleScreenFlag10)
3250:VS4210/keyremo.c **** 				setloopoutmode(RightTable10[ ReadEEP(EEP_IMAGE_B_Mode)]);
3251:VS4210/keyremo.c **** 				else
3252:VS4210/keyremo.c **** 					setloopoutmode(RightTable[ ReadEEP(EEP_IMAGE_B_Mode)]);
3253:VS4210/keyremo.c **** 	*/
3254:VS4210/keyremo.c **** 	// setloopoutmode(CAM_B) ;
3255:VS4210/keyremo.c **** 	//		OSDStateFlg =1 ;
3256:VS4210/keyremo.c **** 	ShowTRIGOSD();
 5360              		.loc 1 3256 2 view .LVU1365
ARM GAS  C:\Users\ryanc.HS\AppData\Local\Temp\ccZ9UySd.s 			page 171


 5361 0046 FFF7FEFF 		bl	ShowTRIGOSD
 5362              	.LVL516:
3257:VS4210/keyremo.c **** 
3258:VS4210/keyremo.c **** #if 0
3259:VS4210/keyremo.c **** #ifdef QUAD
3260:VS4210/keyremo.c ****     BYTE rev;
3261:VS4210/keyremo.c **** #ifdef AWT_ML072Q
3262:VS4210/keyremo.c ****    		rev=ReadEEP(EEP_IMAGE_B_Mode);
3263:VS4210/keyremo.c **** #else
3264:VS4210/keyremo.c ****     	rev=ReadEEP(EEP_IMAGEMode);
3265:VS4210/keyremo.c **** #endif
3266:VS4210/keyremo.c ****     	SetSourceMode(RightTable[rev],0x02|(Attr_A&0x01),0x0A|(Attr_B&0x01),0x02|(Attr_C&0x01),0x02|(A
3267:VS4210/keyremo.c **** #else
3268:VS4210/keyremo.c **** 	ChangeInput(SOURCE_B);
3269:VS4210/keyremo.c **** #endif
3270:VS4210/keyremo.c **** #endif
3271:VS4210/keyremo.c **** }
 5363              		.loc 1 3271 1 is_stmt 0 view .LVU1366
 5364 004a 10BD     		pop	{r4, pc}
 5365              	.LVL517:
 5366              	.L407:
3219:VS4210/keyremo.c **** 
 5367              		.loc 1 3219 3 is_stmt 1 view .LVU1367
 5368 004c FFF7FEFF 		bl	CloseOSDMenu
 5369              	.LVL518:
 5370 0050 DCE7     		b	.L400
 5371              	.L408:
3222:VS4210/keyremo.c **** 
 5372              		.loc 1 3222 3 view .LVU1368
 5373 0052 FFF7FEFF 		bl	LCDPowerOFF
 5374              	.LVL519:
 5375 0056 DCE7     		b	.L401
 5376              	.L409:
3226:VS4210/keyremo.c **** 		SetCOCCom(_COC_FLISHEYE_MODE2, Fisheye_no_save);
 5377              		.loc 1 3226 3 view .LVU1369
 5378 0058 0121     		movs	r1, #1
 5379 005a 1920     		movs	r0, #25
 5380 005c FFF7FEFF 		bl	SetCOCCom
 5381              	.LVL520:
3227:VS4210/keyremo.c **** 		Get_2824cIrq();
 5382              		.loc 1 3227 3 view .LVU1370
 5383 0060 0021     		movs	r1, #0
 5384 0062 1C20     		movs	r0, #28
 5385 0064 FFF7FEFF 		bl	SetCOCCom
 5386              	.LVL521:
3228:VS4210/keyremo.c **** 	}
 5387              		.loc 1 3228 3 view .LVU1371
 5388 0068 FFF7FEFF 		bl	Get_2824cIrq
 5389              	.LVL522:
 5390 006c D5E7     		b	.L402
 5391              	.LVL523:
 5392              	.L410:
3236:VS4210/keyremo.c **** 	else if (bytTripleScreenType == TripleScreenFlag10)
 5393              		.loc 1 3236 3 view .LVU1372
3236:VS4210/keyremo.c **** 	else if (bytTripleScreenType == TripleScreenFlag10)
 5394              		.loc 1 3236 9 is_stmt 0 view .LVU1373
 5395 006e 074B     		ldr	r3, .L412+16
ARM GAS  C:\Users\ryanc.HS\AppData\Local\Temp\ccZ9UySd.s 			page 172


 5396 0070 1C5C     		ldrb	r4, [r3, r0]	@ zero_extendqisi2
 5397              	.LVL524:
3236:VS4210/keyremo.c **** 	else if (bytTripleScreenType == TripleScreenFlag10)
 5398              		.loc 1 3236 9 view .LVU1374
 5399 0072 E2E7     		b	.L404
 5400              	.LVL525:
 5401              	.L411:
3238:VS4210/keyremo.c **** 	else
 5402              		.loc 1 3238 3 is_stmt 1 view .LVU1375
3238:VS4210/keyremo.c **** 	else
 5403              		.loc 1 3238 9 is_stmt 0 view .LVU1376
 5404 0074 064B     		ldr	r3, .L412+20
 5405 0076 1C5C     		ldrb	r4, [r3, r0]	@ zero_extendqisi2
 5406              	.LVL526:
3238:VS4210/keyremo.c **** 	else
 5407              		.loc 1 3238 9 view .LVU1377
 5408 0078 DFE7     		b	.L404
 5409              	.L413:
 5410 007a 00BF     		.align	2
 5411              	.L412:
 5412 007c 00000000 		.word	BOOT_ISSUE
 5413 0080 00000000 		.word	Flisheye_CAM
 5414 0084 00000000 		.word	bytTripleScreenType
 5415 0088 00000000 		.word	.LANCHOR26
 5416 008c 00000000 		.word	.LANCHOR24
 5417 0090 00000000 		.word	.LANCHOR25
 5418              		.cfi_endproc
 5419              	.LFE92:
 5421              		.section	.rodata.CheckTrigger.str1.4,"aMS",%progbits,1
 5422              		.align	2
 5423              	.LC45:
 5424 0000 0D0A5472 		.ascii	"\015\012TriggerFlag=%02x  TriggerFlagtemp=%02x  CPO"
 5424      69676765 
 5424      72466C61 
 5424      673D2530 
 5424      32782020 
 5425 002d 4E3D2530 		.ascii	"N=%02x\000"
 5425      327800
 5426              		.align	2
 5427              	.LC46:
 5428 0034 0D0A2850 		.ascii	"\015\012(PT=0)\000"
 5428      543D3029 
 5428      00
 5429 003d 000000   		.align	2
 5430              	.LC47:
 5431 0040 0D0A2854 		.ascii	"\015\012(T_CLR)\000"
 5431      5F434C52 
 5431      2900
 5432 004a 0000     		.align	2
 5433              	.LC48:
 5434 004c 0D0A2845 		.ascii	"\015\012(E2)\000"
 5434      322900
 5435 0053 00       		.align	2
 5436              	.LC49:
 5437 0054 0D0A2844 		.ascii	"\015\012(D2)\000"
 5437      322900
 5438 005b 00       		.align	2
ARM GAS  C:\Users\ryanc.HS\AppData\Local\Temp\ccZ9UySd.s 			page 173


 5439              	.LC50:
 5440 005c 0D0A2843 		.ascii	"\015\012(C2)\000"
 5440      322900
 5441 0063 00       		.align	2
 5442              	.LC51:
 5443 0064 0D0A2842 		.ascii	"\015\012(B2)\000"
 5443      322900
 5444 006b 00       		.align	2
 5445              	.LC52:
 5446 006c 0D0A2841 		.ascii	"\015\012(A2)\000"
 5446      322900
 5447 0073 00       		.align	2
 5448              	.LC53:
 5449 0074 0D0A2841 		.ascii	"\015\012(A)\000"
 5449      2900
 5450 007a 0000     		.align	2
 5451              	.LC54:
 5452 007c 0D0A2842 		.ascii	"\015\012(B)\000"
 5452      2900
 5453 0082 0000     		.align	2
 5454              	.LC55:
 5455 0084 0D0A2843 		.ascii	"\015\012(C)\000"
 5455      2900
 5456 008a 0000     		.align	2
 5457              	.LC56:
 5458 008c 0D0A2844 		.ascii	"\015\012(D)\000"
 5458      2900
 5459 0092 0000     		.align	2
 5460              	.LC57:
 5461 0094 0D0A2845 		.ascii	"\015\012(E)\000"
 5461      2900
 5462 009a 0000     		.align	2
 5463              	.LC58:
 5464 009c 0D0A5472 		.ascii	"\015\012TriggerFlag=%02x  TriggerFlagtemp=%02x  PT="
 5464      69676765 
 5464      72466C61 
 5464      673D2530 
 5464      32782020 
 5465 00c9 25303278 		.ascii	"%02x Priority=%02x\000"
 5465      20507269 
 5465      6F726974 
 5465      793D2530 
 5465      327800
 5466              		.section	.text.CheckTrigger,"ax",%progbits
 5467              		.align	1
 5468              		.global	CheckTrigger
 5469              		.syntax unified
 5470              		.thumb
 5471              		.thumb_func
 5472              		.fpu softvfp
 5474              	CheckTrigger:
 5475              	.LFB93:
3272:VS4210/keyremo.c **** #if 0
3273:VS4210/keyremo.c **** #ifdef AWT_ML072Q // Pinchi 20150826 add
3274:VS4210/keyremo.c **** void SetTriggerCSource(void)
3275:VS4210/keyremo.c **** {
3276:VS4210/keyremo.c ****     BYTE rev;
ARM GAS  C:\Users\ryanc.HS\AppData\Local\Temp\ccZ9UySd.s 			page 174


3277:VS4210/keyremo.c **** 	rev=ReadEEP(EEP_IMAGE_C_Mode);
3278:VS4210/keyremo.c **** #ifdef AWT_ML072Q
3279:VS4210/keyremo.c **** 
3280:VS4210/keyremo.c **** 	  Wait_ms(500);/// ryan@20171019
3281:VS4210/keyremo.c **** 
3282:VS4210/keyremo.c **** //  #if 1  //Pinchi 20140925 modify for trigger C setting of AWT ML072Q
3283:VS4210/keyremo.c **** #ifdef AWT_TW2835_DRAW_T_ICON // Pinchi 20150415 add to draw T icon by TW2835 when CAM C trigger
3284:VS4210/keyremo.c ****  //   SetSourceMode(TriggerC_Table[rev],0x02|(Attr_A&0x01),0x0A|(Attr_B&0x01),0x02|(Attr_C&0x01),0x
3285:VS4210/keyremo.c ****     SetSourceMode(TriggerC_Table[rev],0x02|(Attr_A&0x01),0x02|(Attr_B&0x01),0x22|(Attr_C&0x01),0x02
3286:VS4210/keyremo.c **** #else
3287:VS4210/keyremo.c ****     SetSourceMode(TriggerC_Table[rev],0x02|(Attr_A&0x01),0x02|(Attr_B&0x01),0x02|(Attr_C&0x01),0x02
3288:VS4210/keyremo.c **** 
3289:VS4210/keyremo.c **** 	//Pinchi 20140925 add for trigger C display char of AWT ML072Q 
3290:VS4210/keyremo.c **** 	ClearOSDInfo();
3291:VS4210/keyremo.c **** 	InitOSDWindow(Init_Osd_DisplayInput_M);
3292:VS4210/keyremo.c **** 
3293:VS4210/keyremo.c **** 	ClearDataCnt(INPUTINFO_ADDR , 4); // Total 42 Char.
3294:VS4210/keyremo.c **** 	SetDisplayedOSD(INPUTINFO);
3295:VS4210/keyremo.c **** 	DrawAttrCnt(INPUTINFO_ADDR , Trigger_COLOR , 4 );  
3296:VS4210/keyremo.c **** 	WriteStringToAddr(INPUTINFO_ADDR ,"T" , 1); 
3297:VS4210/keyremo.c **** 
3298:VS4210/keyremo.c ****     ShowOSDWindow(INPUTINFO_OSDWIN-1 , TRUE);
3299:VS4210/keyremo.c ****     ShowOSDWindowAll(1);  //0x09c  4bit : OSD ON, 1: OSD OFF
3300:VS4210/keyremo.c ****     WriteTW88(TW88_WINBLENDING,0x08);
3301:VS4210/keyremo.c **** #endif
3302:VS4210/keyremo.c **** #else
3303:VS4210/keyremo.c ****     SetSourceMode(CAM_C,Attr_A,Attr_B,Attr_C,Attr_R);
3304:VS4210/keyremo.c **** #endif
3305:VS4210/keyremo.c **** }
3306:VS4210/keyremo.c **** #endif
3307:VS4210/keyremo.c **** #endif
3308:VS4210/keyremo.c **** 
3309:VS4210/keyremo.c **** #if (_DEBUG_CheckKeyIn == ON)
3310:VS4210/keyremo.c **** #define Trigger_debug 1
3311:VS4210/keyremo.c **** #endif
3312:VS4210/keyremo.c **** 
3313:VS4210/keyremo.c **** BYTE CheckTrigger(void)
3314:VS4210/keyremo.c **** {
 5476              		.loc 1 3314 1 is_stmt 1 view -0
 5477              		.cfi_startproc
 5478              		@ args = 0, pretend = 0, frame = 0
 5479              		@ frame_needed = 0, uses_anonymous_args = 0
 5480 0000 70B5     		push	{r4, r5, r6, lr}
 5481              	.LCFI21:
 5482              		.cfi_def_cfa_offset 16
 5483              		.cfi_offset 4, -16
 5484              		.cfi_offset 5, -12
 5485              		.cfi_offset 6, -8
 5486              		.cfi_offset 14, -4
 5487 0002 82B0     		sub	sp, sp, #8
 5488              	.LCFI22:
 5489              		.cfi_def_cfa_offset 24
3315:VS4210/keyremo.c **** 
3316:VS4210/keyremo.c **** 	BYTE TriggerFlagtemp;
 5490              		.loc 1 3316 2 view .LVU1379
3317:VS4210/keyremo.c **** 
3318:VS4210/keyremo.c **** 	static BYTE PT = 0, POT = 0, POTF = 0, CPON = 0, PPON = 0, BT[5] = {0, 0, 0, 0, 0};
ARM GAS  C:\Users\ryanc.HS\AppData\Local\Temp\ccZ9UySd.s 			page 175


 5491              		.loc 1 3318 2 view .LVU1380
3319:VS4210/keyremo.c **** 	BYTE x, temp;
 5492              		.loc 1 3319 2 view .LVU1381
3320:VS4210/keyremo.c **** 
3321:VS4210/keyremo.c **** 	//#ifdef AWT_ADD_TRIGGER_DELAY_FUN  //Pinchi 20150210 add
3322:VS4210/keyremo.c **** 	//   BYTE j , num;
3323:VS4210/keyremo.c **** 	//#endif
3324:VS4210/keyremo.c **** 
3325:VS4210/keyremo.c **** 	//#ifdef AWT_ML720Q_NEW_TRIGGER_FUN  //Pinchi 20141031 add for AWT request each trigger can work b
3326:VS4210/keyremo.c **** 	//	CheckNewTriggerFunc();
3327:VS4210/keyremo.c **** 	//#endif
3328:VS4210/keyremo.c **** 
3329:VS4210/keyremo.c **** 	temp = ~(GET_PCA9554PW(PCA9554PW_reg0)) & (LEFT_T | Right_T | PARK_T | REVERSE_T | CAM_D_T);
 5493              		.loc 1 3329 2 view .LVU1382
 5494              		.loc 1 3329 11 is_stmt 0 view .LVU1383
 5495 0004 0020     		movs	r0, #0
 5496 0006 FFF7FEFF 		bl	GET_PCA9554PW
 5497              	.LVL527:
 5498              		.loc 1 3329 42 view .LVU1384
 5499 000a C043     		mvns	r0, r0
 5500 000c C5B2     		uxtb	r5, r0
 5501              		.loc 1 3329 7 view .LVU1385
 5502 000e 00F08F06 		and	r6, r0, #143
 5503              	.LVL528:
3330:VS4210/keyremo.c **** 
3331:VS4210/keyremo.c **** 	TriggerFlagtemp = TriggerFlag;
 5504              		.loc 1 3331 2 is_stmt 1 view .LVU1386
 5505              		.loc 1 3331 18 is_stmt 0 view .LVU1387
 5506 0012 A24B     		ldr	r3, .L504
 5507 0014 1C78     		ldrb	r4, [r3]	@ zero_extendqisi2
 5508              	.LVL529:
3332:VS4210/keyremo.c **** 	TriggerFlag = 0x00;
 5509              		.loc 1 3332 2 is_stmt 1 view .LVU1388
 5510              		.loc 1 3332 14 is_stmt 0 view .LVU1389
 5511 0016 0022     		movs	r2, #0
 5512 0018 1A70     		strb	r2, [r3]
3333:VS4210/keyremo.c **** 
3334:VS4210/keyremo.c **** 	// LEFT_T=1;
3335:VS4210/keyremo.c **** 	if ((temp & LEFT_T) == LEFT_T)
 5513              		.loc 1 3335 2 is_stmt 1 view .LVU1390
 5514              		.loc 1 3335 5 is_stmt 0 view .LVU1391
 5515 001a 10F0010F 		tst	r0, #1
 5516 001e 3ED1     		bne	.L477
 5517              	.L415:
3336:VS4210/keyremo.c **** 	{
3337:VS4210/keyremo.c **** 
3338:VS4210/keyremo.c **** 		Wait_ms(2);
3339:VS4210/keyremo.c **** 		if ((temp & LEFT_T) == LEFT_T)
3340:VS4210/keyremo.c **** 			TriggerFlag = TriggerFlag | LEFT_T;
3341:VS4210/keyremo.c **** 	}
3342:VS4210/keyremo.c **** 
3343:VS4210/keyremo.c **** 	// Right_T=1;
3344:VS4210/keyremo.c **** 	if ((temp & Right_T) == Right_T)
 5518              		.loc 1 3344 2 is_stmt 1 view .LVU1392
 5519              		.loc 1 3344 5 is_stmt 0 view .LVU1393
 5520 0020 15F0020F 		tst	r5, #2
 5521 0024 44D1     		bne	.L478
ARM GAS  C:\Users\ryanc.HS\AppData\Local\Temp\ccZ9UySd.s 			page 176


 5522              	.L416:
3345:VS4210/keyremo.c **** 	{
3346:VS4210/keyremo.c **** 		Wait_ms(2);
3347:VS4210/keyremo.c **** 		if ((temp & Right_T) == Right_T)
3348:VS4210/keyremo.c **** 			TriggerFlag = TriggerFlag | Right_T;
3349:VS4210/keyremo.c **** 	}
3350:VS4210/keyremo.c **** 
3351:VS4210/keyremo.c **** 	if ((temp & PARK_T) == PARK_T)
 5523              		.loc 1 3351 2 is_stmt 1 view .LVU1394
 5524              		.loc 1 3351 5 is_stmt 0 view .LVU1395
 5525 0026 15F0040F 		tst	r5, #4
 5526 002a 4AD1     		bne	.L479
 5527              	.L417:
3352:VS4210/keyremo.c **** 	{
3353:VS4210/keyremo.c **** 		Wait_ms(2);
3354:VS4210/keyremo.c **** 		if ((temp & PARK_T) == PARK_T)
3355:VS4210/keyremo.c **** 			TriggerFlag = TriggerFlag | PARK_T;
3356:VS4210/keyremo.c **** 	}
3357:VS4210/keyremo.c **** 
3358:VS4210/keyremo.c **** 	if ((temp & REVERSE_T) == REVERSE_T)
 5528              		.loc 1 3358 2 is_stmt 1 view .LVU1396
 5529              		.loc 1 3358 5 is_stmt 0 view .LVU1397
 5530 002c 15F0080F 		tst	r5, #8
 5531 0030 50D1     		bne	.L480
 5532              	.L418:
3359:VS4210/keyremo.c **** 	{
3360:VS4210/keyremo.c **** 		Wait_ms(2);
3361:VS4210/keyremo.c **** 		if ((temp & REVERSE_T) == REVERSE_T)
3362:VS4210/keyremo.c **** 			TriggerFlag = TriggerFlag | REVERSE_T;
3363:VS4210/keyremo.c **** 	}
3364:VS4210/keyremo.c **** 
3365:VS4210/keyremo.c **** 	if ((temp & CAM_D_T) == CAM_D_T)
 5533              		.loc 1 3365 2 is_stmt 1 view .LVU1398
 5534              		.loc 1 3365 5 is_stmt 0 view .LVU1399
 5535 0032 16F0800F 		tst	r6, #128
 5536 0036 56D1     		bne	.L481
 5537              	.L419:
3366:VS4210/keyremo.c **** 	{
3367:VS4210/keyremo.c **** 		Wait_ms(2);
3368:VS4210/keyremo.c **** 		if ((temp & CAM_D_T) == CAM_D_T)
3369:VS4210/keyremo.c **** 			TriggerFlag = TriggerFlag | CAM_D_T;
3370:VS4210/keyremo.c **** 	}
3371:VS4210/keyremo.c **** 
3372:VS4210/keyremo.c **** #if 0
3373:VS4210/keyremo.c ****    VGA_T=1;
3374:VS4210/keyremo.c ****    if(VGA_T==0)
3375:VS4210/keyremo.c ****    {
3376:VS4210/keyremo.c ****       Wait_ms(10);
3377:VS4210/keyremo.c **** 	  if(VGA_T==0)
3378:VS4210/keyremo.c **** 	  	TriggerFlag=TriggerFlag|0x08;  
3379:VS4210/keyremo.c ****    }
3380:VS4210/keyremo.c **** 
3381:VS4210/keyremo.c ****     CAMD_T=1;
3382:VS4210/keyremo.c ****    if(CAMD_T==0)
3383:VS4210/keyremo.c ****    {
3384:VS4210/keyremo.c ****       Wait_ms(10);
3385:VS4210/keyremo.c **** 	  if(CAMD_T==0)
ARM GAS  C:\Users\ryanc.HS\AppData\Local\Temp\ccZ9UySd.s 			page 177


3386:VS4210/keyremo.c **** 	  	TriggerFlag=TriggerFlag|0x04;  
3387:VS4210/keyremo.c ****    }
3388:VS4210/keyremo.c **** #endif
3389:VS4210/keyremo.c **** 
3390:VS4210/keyremo.c **** #if 0
3391:VS4210/keyremo.c **** 
3392:VS4210/keyremo.c **** return TriggerFlag;
3393:VS4210/keyremo.c **** 
3394:VS4210/keyremo.c **** #else
3395:VS4210/keyremo.c **** 	//#ifndef QUAD
3396:VS4210/keyremo.c **** 	/*
3397:VS4210/keyremo.c **** 	#if 0///ef AWT_ML072Q  //Pinchi 20140902 add to change condition for AWT ML072Q
3398:VS4210/keyremo.c **** 	   CAMC_T=1;
3399:VS4210/keyremo.c **** 	   if(CAMC_T==0)
3400:VS4210/keyremo.c **** 	   {
3401:VS4210/keyremo.c **** 		  Wait_ms(2);
3402:VS4210/keyremo.c **** 		  if(CAMC_T==0)
3403:VS4210/keyremo.c **** 			TriggerFlag=TriggerFlag|0x08;
3404:VS4210/keyremo.c **** 	   }
3405:VS4210/keyremo.c **** 	#endif
3406:VS4210/keyremo.c **** 	*/
3407:VS4210/keyremo.c **** 
3408:VS4210/keyremo.c **** #if 0 /// def AWT_ADD_TRIGGER_DELAY_FUN  //Pinchi 20150206 add for AWT request each trigger can set
3409:VS4210/keyremo.c **** 	      if (Priority == 0)
3410:VS4210/keyremo.c **** 	      {
3411:VS4210/keyremo.c ****               bLastTrigger = 3;
3412:VS4210/keyremo.c **** 	      }
3413:VS4210/keyremo.c **** #endif
3414:VS4210/keyremo.c **** 	//	if((TriggerFlag==CAM_D_T)&&(Priority==OFF)&&(PowerFlag==OFF))
3415:VS4210/keyremo.c **** 	//		return TriggerFlag;
3416:VS4210/keyremo.c **** 	// 	else if(TriggerFlag!=TriggerFlagtemp)
3417:VS4210/keyremo.c **** 	if (TriggerFlag != TriggerFlagtemp)
 5538              		.loc 1 3417 2 is_stmt 1 view .LVU1400
 5539              		.loc 1 3417 18 is_stmt 0 view .LVU1401
 5540 0038 984B     		ldr	r3, .L504
 5541 003a 1978     		ldrb	r1, [r3]	@ zero_extendqisi2
 5542              		.loc 1 3417 5 view .LVU1402
 5543 003c A142     		cmp	r1, r4
 5544 003e 00F01181 		beq	.L420
3418:VS4210/keyremo.c **** 	{
3419:VS4210/keyremo.c **** 
3420:VS4210/keyremo.c **** 		// if(Priority==0)
3421:VS4210/keyremo.c **** 		if (Priority == ON)
 5545              		.loc 1 3421 3 is_stmt 1 view .LVU1403
 5546              		.loc 1 3421 16 is_stmt 0 view .LVU1404
 5547 0042 974B     		ldr	r3, .L504+4
 5548 0044 1B78     		ldrb	r3, [r3]	@ zero_extendqisi2
 5549              		.loc 1 3421 6 view .LVU1405
 5550 0046 012B     		cmp	r3, #1
 5551 0048 56D0     		beq	.L482
3422:VS4210/keyremo.c **** 		{ /// priority on
3423:VS4210/keyremo.c **** 
3424:VS4210/keyremo.c **** #if 1 // def Trigger_debug
3425:VS4210/keyremo.c **** #if (_DEBUG_CheckKeyIn == ON)
3426:VS4210/keyremo.c **** 			Printf("\r\nTriggerFlag=%02x  TriggerFlagtemp=%02x  CPON=%02x", (WORD)TriggerFlag, (WORD)Trigger
3427:VS4210/keyremo.c **** #endif
3428:VS4210/keyremo.c **** #else
ARM GAS  C:\Users\ryanc.HS\AppData\Local\Temp\ccZ9UySd.s 			page 178


3429:VS4210/keyremo.c **** 		  //	Printf("\r\nTriggerFlag=%02x",(WORD)TriggerFlag);
3430:VS4210/keyremo.c **** #endif
3431:VS4210/keyremo.c **** 			////Ctrigger
3432:VS4210/keyremo.c **** 
3433:VS4210/keyremo.c **** 			if ((TriggerFlag != CPON)) // got left trigger
3434:VS4210/keyremo.c **** 			{
3435:VS4210/keyremo.c **** 				Wait_ms(50);
3436:VS4210/keyremo.c **** 
3437:VS4210/keyremo.c **** 				temp = ~(GET_PCA9554PW(PCA9554PW_reg0)) & (LEFT_T | Right_T | PARK_T | REVERSE_T | CAM_D_T);
3438:VS4210/keyremo.c **** 				TriggerFlag = 0x00;
3439:VS4210/keyremo.c **** 
3440:VS4210/keyremo.c **** 				// LEFT_T=1;
3441:VS4210/keyremo.c **** 				if ((temp & LEFT_T) == LEFT_T)
3442:VS4210/keyremo.c **** 				{
3443:VS4210/keyremo.c **** 
3444:VS4210/keyremo.c **** 					Wait_ms(2);
3445:VS4210/keyremo.c **** 					if ((temp & LEFT_T) == LEFT_T)
3446:VS4210/keyremo.c **** 						TriggerFlag = TriggerFlag | LEFT_T;
3447:VS4210/keyremo.c **** 				}
3448:VS4210/keyremo.c **** 
3449:VS4210/keyremo.c **** 				// Right_T=1;
3450:VS4210/keyremo.c **** 				if ((temp & Right_T) == Right_T)
3451:VS4210/keyremo.c **** 				{
3452:VS4210/keyremo.c **** 					Wait_ms(2);
3453:VS4210/keyremo.c **** 					if ((temp & Right_T) == Right_T)
3454:VS4210/keyremo.c **** 						TriggerFlag = TriggerFlag | Right_T;
3455:VS4210/keyremo.c **** 				}
3456:VS4210/keyremo.c **** 
3457:VS4210/keyremo.c **** 				if ((temp & PARK_T) == PARK_T)
3458:VS4210/keyremo.c **** 				{
3459:VS4210/keyremo.c **** 					Wait_ms(2);
3460:VS4210/keyremo.c **** 					if ((temp & PARK_T) == PARK_T)
3461:VS4210/keyremo.c **** 						TriggerFlag = TriggerFlag | PARK_T;
3462:VS4210/keyremo.c **** 				}
3463:VS4210/keyremo.c **** 
3464:VS4210/keyremo.c **** 				if ((temp & REVERSE_T) == REVERSE_T)
3465:VS4210/keyremo.c **** 				{
3466:VS4210/keyremo.c **** 					Wait_ms(2);
3467:VS4210/keyremo.c **** 					if ((temp & REVERSE_T) == REVERSE_T)
3468:VS4210/keyremo.c **** 						TriggerFlag = TriggerFlag | REVERSE_T;
3469:VS4210/keyremo.c **** 				}
3470:VS4210/keyremo.c **** 
3471:VS4210/keyremo.c **** 				if ((temp & CAM_D_T) == CAM_D_T)
3472:VS4210/keyremo.c **** 				{
3473:VS4210/keyremo.c **** 					Wait_ms(2);
3474:VS4210/keyremo.c **** 					if ((temp & CAM_D_T) == CAM_D_T)
3475:VS4210/keyremo.c **** 						TriggerFlag = TriggerFlag | CAM_D_T;
3476:VS4210/keyremo.c **** 				}
3477:VS4210/keyremo.c **** 
3478:VS4210/keyremo.c **** 				if (TriggerFlag & (LEFT_T | Right_T | PARK_T | REVERSE_T))
3479:VS4210/keyremo.c **** 					TriggerFlag &= (LEFT_T | Right_T | PARK_T | REVERSE_T); /// clean CAM D trigger
3480:VS4210/keyremo.c **** 			}
3481:VS4210/keyremo.c **** 			else
3482:VS4210/keyremo.c **** 			{
3483:VS4210/keyremo.c **** 				TriggerFlag = PPON;
3484:VS4210/keyremo.c **** 				return PPON;
3485:VS4210/keyremo.c **** 			}
ARM GAS  C:\Users\ryanc.HS\AppData\Local\Temp\ccZ9UySd.s 			page 179


3486:VS4210/keyremo.c **** 
3487:VS4210/keyremo.c **** 			CPON = TriggerFlag;
3488:VS4210/keyremo.c **** 
3489:VS4210/keyremo.c **** 			x = (TriggerFlag & (LEFT_T | Right_T | PARK_T));
3490:VS4210/keyremo.c **** 
3491:VS4210/keyremo.c **** 			if (TriggerFlag & REVERSE_T) // rear
3492:VS4210/keyremo.c **** 			{
3493:VS4210/keyremo.c **** 				;
3494:VS4210/keyremo.c **** 			}
3495:VS4210/keyremo.c **** 			else if (((x == (LEFT_T | PARK_T)) || (x == (Right_T | PARK_T)) || (x == (LEFT_T | Right_T | PAR
3496:VS4210/keyremo.c **** 			{
3497:VS4210/keyremo.c **** 				PPON = 0x00;
3498:VS4210/keyremo.c **** 				TriggerFlag = 0x00;
3499:VS4210/keyremo.c **** 				return 0x00;
3500:VS4210/keyremo.c **** 			}
3501:VS4210/keyremo.c **** 			else if ((x == (LEFT_T | PARK_T)) || (x == (Right_T | PARK_T)) || (x == (LEFT_T | Right_T | PARK
3502:VS4210/keyremo.c **** 			{
3503:VS4210/keyremo.c **** 				TriggerFlag = TriggerFlagtemp;
3504:VS4210/keyremo.c **** 				PPON = TriggerFlagtemp;
3505:VS4210/keyremo.c **** 			}
3506:VS4210/keyremo.c **** 		}
3507:VS4210/keyremo.c **** 		else
3508:VS4210/keyremo.c **** 		{
3509:VS4210/keyremo.c **** 			/// priority off
3510:VS4210/keyremo.c **** 
3511:VS4210/keyremo.c **** 			PT = TriggerFlag & (~TriggerFlagtemp);
 5552              		.loc 1 3511 4 is_stmt 1 view .LVU1406
 5553              		.loc 1 3511 21 is_stmt 0 view .LVU1407
 5554 004a 21EA0401 		bic	r1, r1, r4
 5555              		.loc 1 3511 7 view .LVU1408
 5556 004e 954B     		ldr	r3, .L504+8
 5557 0050 1970     		strb	r1, [r3]
3512:VS4210/keyremo.c **** 
3513:VS4210/keyremo.c **** 			if (PT == 0)
 5558              		.loc 1 3513 4 is_stmt 1 view .LVU1409
 5559              		.loc 1 3513 7 is_stmt 0 view .LVU1410
 5560 0052 0029     		cmp	r1, #0
 5561 0054 00F0CE80 		beq	.L483
 5562              	.L432:
3514:VS4210/keyremo.c **** 			{
3515:VS4210/keyremo.c **** #ifdef Trigger_debug
3516:VS4210/keyremo.c **** 				Printf("\r\n(PT=0)");
3517:VS4210/keyremo.c **** #endif
3518:VS4210/keyremo.c **** 				PT = TriggerFlag;
3519:VS4210/keyremo.c **** 			}
3520:VS4210/keyremo.c **** 
3521:VS4210/keyremo.c **** 			if (PT == 0)
 5563              		.loc 1 3521 4 is_stmt 1 view .LVU1411
 5564              		.loc 1 3521 11 is_stmt 0 view .LVU1412
 5565 0058 924B     		ldr	r3, .L504+8
 5566 005a 1B78     		ldrb	r3, [r3]	@ zero_extendqisi2
 5567              		.loc 1 3521 7 view .LVU1413
 5568 005c 002B     		cmp	r3, #0
 5569 005e 00F0D180 		beq	.L484
3522:VS4210/keyremo.c **** 			{
3523:VS4210/keyremo.c **** 				BT[0] = 0;
3524:VS4210/keyremo.c **** 				BT[1] = 0;
ARM GAS  C:\Users\ryanc.HS\AppData\Local\Temp\ccZ9UySd.s 			page 180


3525:VS4210/keyremo.c **** 				BT[2] = 0;
3526:VS4210/keyremo.c **** 				BT[3] = 0;
3527:VS4210/keyremo.c **** 				BT[4] = 0;
3528:VS4210/keyremo.c **** #ifdef Trigger_debug
3529:VS4210/keyremo.c **** 				Printf("\r\n(T_CLR)");
3530:VS4210/keyremo.c **** #endif
3531:VS4210/keyremo.c **** 			}
3532:VS4210/keyremo.c **** 			else
3533:VS4210/keyremo.c **** 			{
3534:VS4210/keyremo.c **** 				if (BT[4] & PT)
 5570              		.loc 1 3534 5 is_stmt 1 view .LVU1414
 5571              		.loc 1 3534 11 is_stmt 0 view .LVU1415
 5572 0062 914A     		ldr	r2, .L504+12
 5573 0064 1279     		ldrb	r2, [r2, #4]	@ zero_extendqisi2
 5574              		.loc 1 3534 8 view .LVU1416
 5575 0066 1340     		ands	r3, r3, r2
 5576 0068 40F00E81 		bne	.L485
 5577              	.L435:
3535:VS4210/keyremo.c **** 				{
3536:VS4210/keyremo.c **** 					PT = PT & BT[4];
3537:VS4210/keyremo.c **** #ifdef Trigger_debug
3538:VS4210/keyremo.c **** 					Printf("\r\n(E2)");
3539:VS4210/keyremo.c **** #endif
3540:VS4210/keyremo.c **** 				}
3541:VS4210/keyremo.c **** 				if (BT[3] & PT)
 5578              		.loc 1 3541 5 is_stmt 1 view .LVU1417
 5579              		.loc 1 3541 11 is_stmt 0 view .LVU1418
 5580 006c 8E4B     		ldr	r3, .L504+12
 5581 006e DA78     		ldrb	r2, [r3, #3]	@ zero_extendqisi2
 5582              		.loc 1 3541 9 view .LVU1419
 5583 0070 8C4B     		ldr	r3, .L504+8
 5584 0072 1B78     		ldrb	r3, [r3]	@ zero_extendqisi2
 5585              		.loc 1 3541 8 view .LVU1420
 5586 0074 12EA0301 		ands	r1, r2, r3
 5587 0078 00F02E81 		beq	.L436
3542:VS4210/keyremo.c **** 				{
3543:VS4210/keyremo.c **** 					PT = PT & BT[3];
 5588              		.loc 1 3543 6 is_stmt 1 view .LVU1421
 5589              		.loc 1 3543 9 is_stmt 0 view .LVU1422
 5590 007c 894B     		ldr	r3, .L504+8
 5591 007e 1970     		strb	r1, [r3]
3544:VS4210/keyremo.c **** 
3545:VS4210/keyremo.c **** 					if ((BT[4] & TriggerFlag))
 5592              		.loc 1 3545 6 is_stmt 1 view .LVU1423
 5593              		.loc 1 3545 13 is_stmt 0 view .LVU1424
 5594 0080 894B     		ldr	r3, .L504+12
 5595 0082 1B79     		ldrb	r3, [r3, #4]	@ zero_extendqisi2
 5596              		.loc 1 3545 10 view .LVU1425
 5597 0084 854A     		ldr	r2, .L504
 5598 0086 1278     		ldrb	r2, [r2]	@ zero_extendqisi2
 5599              		.loc 1 3545 9 view .LVU1426
 5600 0088 1342     		tst	r3, r2
 5601 008a 00F00381 		beq	.L437
3546:VS4210/keyremo.c **** 					{
3547:VS4210/keyremo.c **** 						BT[3] = BT[4];
 5602              		.loc 1 3547 7 is_stmt 1 view .LVU1427
 5603              		.loc 1 3547 13 is_stmt 0 view .LVU1428
ARM GAS  C:\Users\ryanc.HS\AppData\Local\Temp\ccZ9UySd.s 			page 181


 5604 008e 864A     		ldr	r2, .L504+12
 5605 0090 D370     		strb	r3, [r2, #3]
3548:VS4210/keyremo.c **** 						BT[4] = PT;
 5606              		.loc 1 3548 7 is_stmt 1 view .LVU1429
 5607              		.loc 1 3548 13 is_stmt 0 view .LVU1430
 5608 0092 1171     		strb	r1, [r2, #4]
 5609              	.L438:
3549:VS4210/keyremo.c **** 					}
3550:VS4210/keyremo.c **** 					else
3551:VS4210/keyremo.c **** 					{
3552:VS4210/keyremo.c **** 						BT[4] = 0;
3553:VS4210/keyremo.c **** 					}
3554:VS4210/keyremo.c **** 
3555:VS4210/keyremo.c **** #ifdef Trigger_debug
3556:VS4210/keyremo.c **** 					Printf("\r\n(D2)");
 5610              		.loc 1 3556 6 is_stmt 1 view .LVU1431
 5611 0094 8548     		ldr	r0, .L504+16
 5612 0096 FFF7FEFF 		bl	Printf
 5613              	.LVL530:
 5614              	.L439:
3314:VS4210/keyremo.c **** 
 5615              		.loc 1 3314 1 is_stmt 0 discriminator 1 view .LVU1432
 5616 009a 0023     		movs	r3, #0
 5617 009c E0E1     		b	.L463
 5618              	.LVL531:
 5619              	.L477:
3338:VS4210/keyremo.c **** 		if ((temp & LEFT_T) == LEFT_T)
 5620              		.loc 1 3338 3 is_stmt 1 view .LVU1433
 5621 009e 0220     		movs	r0, #2
 5622 00a0 FFF7FEFF 		bl	msleep
 5623              	.LVL532:
3339:VS4210/keyremo.c **** 			TriggerFlag = TriggerFlag | LEFT_T;
 5624              		.loc 1 3339 3 view .LVU1434
3340:VS4210/keyremo.c **** 	}
 5625              		.loc 1 3340 4 view .LVU1435
3340:VS4210/keyremo.c **** 	}
 5626              		.loc 1 3340 16 is_stmt 0 view .LVU1436
 5627 00a4 7D4A     		ldr	r2, .L504
 5628 00a6 1378     		ldrb	r3, [r2]	@ zero_extendqisi2
 5629 00a8 43F00103 		orr	r3, r3, #1
 5630 00ac 1370     		strb	r3, [r2]
 5631 00ae B7E7     		b	.L415
 5632              	.L478:
3346:VS4210/keyremo.c **** 		if ((temp & Right_T) == Right_T)
 5633              		.loc 1 3346 3 is_stmt 1 view .LVU1437
 5634 00b0 0220     		movs	r0, #2
 5635 00b2 FFF7FEFF 		bl	msleep
 5636              	.LVL533:
3347:VS4210/keyremo.c **** 			TriggerFlag = TriggerFlag | Right_T;
 5637              		.loc 1 3347 3 view .LVU1438
3348:VS4210/keyremo.c **** 	}
 5638              		.loc 1 3348 4 view .LVU1439
3348:VS4210/keyremo.c **** 	}
 5639              		.loc 1 3348 16 is_stmt 0 view .LVU1440
 5640 00b6 794A     		ldr	r2, .L504
 5641 00b8 1378     		ldrb	r3, [r2]	@ zero_extendqisi2
 5642 00ba 43F00203 		orr	r3, r3, #2
ARM GAS  C:\Users\ryanc.HS\AppData\Local\Temp\ccZ9UySd.s 			page 182


 5643 00be 1370     		strb	r3, [r2]
 5644 00c0 B1E7     		b	.L416
 5645              	.L479:
3353:VS4210/keyremo.c **** 		if ((temp & PARK_T) == PARK_T)
 5646              		.loc 1 3353 3 is_stmt 1 view .LVU1441
 5647 00c2 0220     		movs	r0, #2
 5648 00c4 FFF7FEFF 		bl	msleep
 5649              	.LVL534:
3354:VS4210/keyremo.c **** 			TriggerFlag = TriggerFlag | PARK_T;
 5650              		.loc 1 3354 3 view .LVU1442
3355:VS4210/keyremo.c **** 	}
 5651              		.loc 1 3355 4 view .LVU1443
3355:VS4210/keyremo.c **** 	}
 5652              		.loc 1 3355 16 is_stmt 0 view .LVU1444
 5653 00c8 744A     		ldr	r2, .L504
 5654 00ca 1378     		ldrb	r3, [r2]	@ zero_extendqisi2
 5655 00cc 43F00403 		orr	r3, r3, #4
 5656 00d0 1370     		strb	r3, [r2]
 5657 00d2 ABE7     		b	.L417
 5658              	.L480:
3360:VS4210/keyremo.c **** 		if ((temp & REVERSE_T) == REVERSE_T)
 5659              		.loc 1 3360 3 is_stmt 1 view .LVU1445
 5660 00d4 0220     		movs	r0, #2
 5661 00d6 FFF7FEFF 		bl	msleep
 5662              	.LVL535:
3361:VS4210/keyremo.c **** 			TriggerFlag = TriggerFlag | REVERSE_T;
 5663              		.loc 1 3361 3 view .LVU1446
3362:VS4210/keyremo.c **** 	}
 5664              		.loc 1 3362 4 view .LVU1447
3362:VS4210/keyremo.c **** 	}
 5665              		.loc 1 3362 16 is_stmt 0 view .LVU1448
 5666 00da 704A     		ldr	r2, .L504
 5667 00dc 1378     		ldrb	r3, [r2]	@ zero_extendqisi2
 5668 00de 43F00803 		orr	r3, r3, #8
 5669 00e2 1370     		strb	r3, [r2]
 5670 00e4 A5E7     		b	.L418
 5671              	.L481:
3367:VS4210/keyremo.c **** 		if ((temp & CAM_D_T) == CAM_D_T)
 5672              		.loc 1 3367 3 is_stmt 1 view .LVU1449
 5673 00e6 0220     		movs	r0, #2
 5674 00e8 FFF7FEFF 		bl	msleep
 5675              	.LVL536:
3368:VS4210/keyremo.c **** 			TriggerFlag = TriggerFlag | CAM_D_T;
 5676              		.loc 1 3368 3 view .LVU1450
3369:VS4210/keyremo.c **** 	}
 5677              		.loc 1 3369 4 view .LVU1451
3369:VS4210/keyremo.c **** 	}
 5678              		.loc 1 3369 16 is_stmt 0 view .LVU1452
 5679 00ec 6B4A     		ldr	r2, .L504
 5680 00ee 1378     		ldrb	r3, [r2]	@ zero_extendqisi2
 5681 00f0 63F07F03 		orn	r3, r3, #127
 5682 00f4 1370     		strb	r3, [r2]
 5683 00f6 9FE7     		b	.L419
 5684              	.L482:
3426:VS4210/keyremo.c **** #endif
 5685              		.loc 1 3426 4 is_stmt 1 view .LVU1453
 5686 00f8 6D4D     		ldr	r5, .L504+20
ARM GAS  C:\Users\ryanc.HS\AppData\Local\Temp\ccZ9UySd.s 			page 183


 5687 00fa 2B78     		ldrb	r3, [r5]	@ zero_extendqisi2
 5688 00fc 2246     		mov	r2, r4
 5689 00fe 6D48     		ldr	r0, .L504+24
 5690 0100 FFF7FEFF 		bl	Printf
 5691              	.LVL537:
3433:VS4210/keyremo.c **** 			{
 5692              		.loc 1 3433 4 view .LVU1454
3433:VS4210/keyremo.c **** 			{
 5693              		.loc 1 3433 21 is_stmt 0 view .LVU1455
 5694 0104 654B     		ldr	r3, .L504
 5695 0106 1A78     		ldrb	r2, [r3]	@ zero_extendqisi2
 5696 0108 2B78     		ldrb	r3, [r5]	@ zero_extendqisi2
3433:VS4210/keyremo.c **** 			{
 5697              		.loc 1 3433 7 view .LVU1456
 5698 010a 9A42     		cmp	r2, r3
 5699 010c 67D0     		beq	.L422
3435:VS4210/keyremo.c **** 
 5700              		.loc 1 3435 5 is_stmt 1 view .LVU1457
 5701 010e 3220     		movs	r0, #50
 5702 0110 FFF7FEFF 		bl	msleep
 5703              	.LVL538:
3437:VS4210/keyremo.c **** 				TriggerFlag = 0x00;
 5704              		.loc 1 3437 5 view .LVU1458
3437:VS4210/keyremo.c **** 				TriggerFlag = 0x00;
 5705              		.loc 1 3437 14 is_stmt 0 view .LVU1459
 5706 0114 0020     		movs	r0, #0
 5707 0116 FFF7FEFF 		bl	GET_PCA9554PW
 5708              	.LVL539:
3437:VS4210/keyremo.c **** 				TriggerFlag = 0x00;
 5709              		.loc 1 3437 45 view .LVU1460
 5710 011a C043     		mvns	r0, r0
 5711 011c C5B2     		uxtb	r5, r0
3437:VS4210/keyremo.c **** 				TriggerFlag = 0x00;
 5712              		.loc 1 3437 10 view .LVU1461
 5713 011e 00F08F06 		and	r6, r0, #143
 5714              	.LVL540:
3438:VS4210/keyremo.c **** 
 5715              		.loc 1 3438 5 is_stmt 1 view .LVU1462
3438:VS4210/keyremo.c **** 
 5716              		.loc 1 3438 17 is_stmt 0 view .LVU1463
 5717 0122 5E4B     		ldr	r3, .L504
 5718 0124 0022     		movs	r2, #0
 5719 0126 1A70     		strb	r2, [r3]
3441:VS4210/keyremo.c **** 				{
 5720              		.loc 1 3441 5 is_stmt 1 view .LVU1464
3441:VS4210/keyremo.c **** 				{
 5721              		.loc 1 3441 8 is_stmt 0 view .LVU1465
 5722 0128 10F0010F 		tst	r0, #1
 5723 012c 2AD1     		bne	.L486
 5724              	.L423:
3450:VS4210/keyremo.c **** 				{
 5725              		.loc 1 3450 5 is_stmt 1 view .LVU1466
3450:VS4210/keyremo.c **** 				{
 5726              		.loc 1 3450 8 is_stmt 0 view .LVU1467
 5727 012e 15F0020F 		tst	r5, #2
 5728 0132 30D1     		bne	.L487
 5729              	.L424:
ARM GAS  C:\Users\ryanc.HS\AppData\Local\Temp\ccZ9UySd.s 			page 184


3457:VS4210/keyremo.c **** 				{
 5730              		.loc 1 3457 5 is_stmt 1 view .LVU1468
3457:VS4210/keyremo.c **** 				{
 5731              		.loc 1 3457 8 is_stmt 0 view .LVU1469
 5732 0134 15F0040F 		tst	r5, #4
 5733 0138 36D1     		bne	.L488
 5734              	.L425:
3464:VS4210/keyremo.c **** 				{
 5735              		.loc 1 3464 5 is_stmt 1 view .LVU1470
3464:VS4210/keyremo.c **** 				{
 5736              		.loc 1 3464 8 is_stmt 0 view .LVU1471
 5737 013a 15F0080F 		tst	r5, #8
 5738 013e 3CD1     		bne	.L489
 5739              	.L426:
3471:VS4210/keyremo.c **** 				{
 5740              		.loc 1 3471 5 is_stmt 1 view .LVU1472
3471:VS4210/keyremo.c **** 				{
 5741              		.loc 1 3471 8 is_stmt 0 view .LVU1473
 5742 0140 16F0800F 		tst	r6, #128
 5743 0144 42D1     		bne	.L490
 5744              	.L427:
3478:VS4210/keyremo.c **** 					TriggerFlag &= (LEFT_T | Right_T | PARK_T | REVERSE_T); /// clean CAM D trigger
 5745              		.loc 1 3478 5 is_stmt 1 view .LVU1474
3478:VS4210/keyremo.c **** 					TriggerFlag &= (LEFT_T | Right_T | PARK_T | REVERSE_T); /// clean CAM D trigger
 5746              		.loc 1 3478 21 is_stmt 0 view .LVU1475
 5747 0146 554B     		ldr	r3, .L504
 5748 0148 1B78     		ldrb	r3, [r3]	@ zero_extendqisi2
3478:VS4210/keyremo.c **** 					TriggerFlag &= (LEFT_T | Right_T | PARK_T | REVERSE_T); /// clean CAM D trigger
 5749              		.loc 1 3478 8 view .LVU1476
 5750 014a 13F00F03 		ands	r3, r3, #15
 5751 014e 01D0     		beq	.L428
3479:VS4210/keyremo.c **** 			}
 5752              		.loc 1 3479 6 is_stmt 1 view .LVU1477
3479:VS4210/keyremo.c **** 			}
 5753              		.loc 1 3479 18 is_stmt 0 view .LVU1478
 5754 0150 524A     		ldr	r2, .L504
 5755 0152 1370     		strb	r3, [r2]
 5756              	.L428:
3487:VS4210/keyremo.c **** 
 5757              		.loc 1 3487 4 is_stmt 1 view .LVU1479
3487:VS4210/keyremo.c **** 
 5758              		.loc 1 3487 9 is_stmt 0 view .LVU1480
 5759 0154 514B     		ldr	r3, .L504
 5760 0156 1B78     		ldrb	r3, [r3]	@ zero_extendqisi2
 5761 0158 554A     		ldr	r2, .L504+20
 5762 015a 1370     		strb	r3, [r2]
3489:VS4210/keyremo.c **** 
 5763              		.loc 1 3489 4 is_stmt 1 view .LVU1481
3489:VS4210/keyremo.c **** 
 5764              		.loc 1 3489 6 is_stmt 0 view .LVU1482
 5765 015c 03F00702 		and	r2, r3, #7
 5766              	.LVL541:
3491:VS4210/keyremo.c **** 			{
 5767              		.loc 1 3491 4 is_stmt 1 view .LVU1483
3491:VS4210/keyremo.c **** 			{
 5768              		.loc 1 3491 7 is_stmt 0 view .LVU1484
 5769 0160 13F0080F 		tst	r3, #8
ARM GAS  C:\Users\ryanc.HS\AppData\Local\Temp\ccZ9UySd.s 			page 185


 5770 0164 7ED1     		bne	.L420
3495:VS4210/keyremo.c **** 			{
 5771              		.loc 1 3495 9 is_stmt 1 view .LVU1485
3495:VS4210/keyremo.c **** 			{
 5772              		.loc 1 3495 106 is_stmt 0 view .LVU1486
 5773 0166 531F     		subs	r3, r2, #5
 5774 0168 DBB2     		uxtb	r3, r3
3495:VS4210/keyremo.c **** 			{
 5775              		.loc 1 3495 12 view .LVU1487
 5776 016a 022B     		cmp	r3, #2
 5777 016c 01D8     		bhi	.L430
3495:VS4210/keyremo.c **** 			{
 5778              		.loc 1 3495 145 discriminator 1 view .LVU1488
 5779 016e 002C     		cmp	r4, #0
 5780 0170 3AD0     		beq	.L491
 5781              	.L430:
3501:VS4210/keyremo.c **** 			{
 5782              		.loc 1 3501 9 is_stmt 1 view .LVU1489
3501:VS4210/keyremo.c **** 			{
 5783              		.loc 1 3501 12 is_stmt 0 view .LVU1490
 5784 0172 022B     		cmp	r3, #2
 5785 0174 01D9     		bls	.L431
3501:VS4210/keyremo.c **** 			{
 5786              		.loc 1 3501 105 discriminator 1 view .LVU1491
 5787 0176 032A     		cmp	r2, #3
 5788 0178 74D1     		bne	.L420
 5789              	.L431:
3503:VS4210/keyremo.c **** 				PPON = TriggerFlagtemp;
 5790              		.loc 1 3503 5 is_stmt 1 view .LVU1492
3503:VS4210/keyremo.c **** 				PPON = TriggerFlagtemp;
 5791              		.loc 1 3503 17 is_stmt 0 view .LVU1493
 5792 017a 484B     		ldr	r3, .L504
 5793 017c 1C70     		strb	r4, [r3]
3504:VS4210/keyremo.c **** 			}
 5794              		.loc 1 3504 5 is_stmt 1 view .LVU1494
3504:VS4210/keyremo.c **** 			}
 5795              		.loc 1 3504 10 is_stmt 0 view .LVU1495
 5796 017e 4E4B     		ldr	r3, .L504+28
 5797 0180 1C70     		strb	r4, [r3]
 5798 0182 6FE0     		b	.L420
 5799              	.LVL542:
 5800              	.L486:
3444:VS4210/keyremo.c **** 					if ((temp & LEFT_T) == LEFT_T)
 5801              		.loc 1 3444 6 is_stmt 1 view .LVU1496
 5802 0184 0220     		movs	r0, #2
 5803 0186 FFF7FEFF 		bl	msleep
 5804              	.LVL543:
3445:VS4210/keyremo.c **** 						TriggerFlag = TriggerFlag | LEFT_T;
 5805              		.loc 1 3445 6 view .LVU1497
3446:VS4210/keyremo.c **** 				}
 5806              		.loc 1 3446 7 view .LVU1498
3446:VS4210/keyremo.c **** 				}
 5807              		.loc 1 3446 19 is_stmt 0 view .LVU1499
 5808 018a 444A     		ldr	r2, .L504
 5809 018c 1378     		ldrb	r3, [r2]	@ zero_extendqisi2
 5810 018e 43F00103 		orr	r3, r3, #1
 5811 0192 1370     		strb	r3, [r2]
ARM GAS  C:\Users\ryanc.HS\AppData\Local\Temp\ccZ9UySd.s 			page 186


 5812 0194 CBE7     		b	.L423
 5813              	.L487:
3452:VS4210/keyremo.c **** 					if ((temp & Right_T) == Right_T)
 5814              		.loc 1 3452 6 is_stmt 1 view .LVU1500
 5815 0196 0220     		movs	r0, #2
 5816 0198 FFF7FEFF 		bl	msleep
 5817              	.LVL544:
3453:VS4210/keyremo.c **** 						TriggerFlag = TriggerFlag | Right_T;
 5818              		.loc 1 3453 6 view .LVU1501
3454:VS4210/keyremo.c **** 				}
 5819              		.loc 1 3454 7 view .LVU1502
3454:VS4210/keyremo.c **** 				}
 5820              		.loc 1 3454 19 is_stmt 0 view .LVU1503
 5821 019c 3F4A     		ldr	r2, .L504
 5822 019e 1378     		ldrb	r3, [r2]	@ zero_extendqisi2
 5823 01a0 43F00203 		orr	r3, r3, #2
 5824 01a4 1370     		strb	r3, [r2]
 5825 01a6 C5E7     		b	.L424
 5826              	.L488:
3459:VS4210/keyremo.c **** 					if ((temp & PARK_T) == PARK_T)
 5827              		.loc 1 3459 6 is_stmt 1 view .LVU1504
 5828 01a8 0220     		movs	r0, #2
 5829 01aa FFF7FEFF 		bl	msleep
 5830              	.LVL545:
3460:VS4210/keyremo.c **** 						TriggerFlag = TriggerFlag | PARK_T;
 5831              		.loc 1 3460 6 view .LVU1505
3461:VS4210/keyremo.c **** 				}
 5832              		.loc 1 3461 7 view .LVU1506
3461:VS4210/keyremo.c **** 				}
 5833              		.loc 1 3461 19 is_stmt 0 view .LVU1507
 5834 01ae 3B4A     		ldr	r2, .L504
 5835 01b0 1378     		ldrb	r3, [r2]	@ zero_extendqisi2
 5836 01b2 43F00403 		orr	r3, r3, #4
 5837 01b6 1370     		strb	r3, [r2]
 5838 01b8 BFE7     		b	.L425
 5839              	.L489:
3466:VS4210/keyremo.c **** 					if ((temp & REVERSE_T) == REVERSE_T)
 5840              		.loc 1 3466 6 is_stmt 1 view .LVU1508
 5841 01ba 0220     		movs	r0, #2
 5842 01bc FFF7FEFF 		bl	msleep
 5843              	.LVL546:
3467:VS4210/keyremo.c **** 						TriggerFlag = TriggerFlag | REVERSE_T;
 5844              		.loc 1 3467 6 view .LVU1509
3468:VS4210/keyremo.c **** 				}
 5845              		.loc 1 3468 7 view .LVU1510
3468:VS4210/keyremo.c **** 				}
 5846              		.loc 1 3468 19 is_stmt 0 view .LVU1511
 5847 01c0 364A     		ldr	r2, .L504
 5848 01c2 1378     		ldrb	r3, [r2]	@ zero_extendqisi2
 5849 01c4 43F00803 		orr	r3, r3, #8
 5850 01c8 1370     		strb	r3, [r2]
 5851 01ca B9E7     		b	.L426
 5852              	.L490:
3473:VS4210/keyremo.c **** 					if ((temp & CAM_D_T) == CAM_D_T)
 5853              		.loc 1 3473 6 is_stmt 1 view .LVU1512
 5854 01cc 0220     		movs	r0, #2
 5855 01ce FFF7FEFF 		bl	msleep
ARM GAS  C:\Users\ryanc.HS\AppData\Local\Temp\ccZ9UySd.s 			page 187


 5856              	.LVL547:
3474:VS4210/keyremo.c **** 						TriggerFlag = TriggerFlag | CAM_D_T;
 5857              		.loc 1 3474 6 view .LVU1513
3475:VS4210/keyremo.c **** 				}
 5858              		.loc 1 3475 7 view .LVU1514
3475:VS4210/keyremo.c **** 				}
 5859              		.loc 1 3475 19 is_stmt 0 view .LVU1515
 5860 01d2 324A     		ldr	r2, .L504
 5861 01d4 1378     		ldrb	r3, [r2]	@ zero_extendqisi2
 5862 01d6 63F07F03 		orn	r3, r3, #127
 5863 01da 1370     		strb	r3, [r2]
 5864 01dc B3E7     		b	.L427
 5865              	.L422:
3483:VS4210/keyremo.c **** 				return PPON;
 5866              		.loc 1 3483 5 is_stmt 1 view .LVU1516
3483:VS4210/keyremo.c **** 				return PPON;
 5867              		.loc 1 3483 17 is_stmt 0 view .LVU1517
 5868 01de 364B     		ldr	r3, .L504+28
 5869 01e0 1C78     		ldrb	r4, [r3]	@ zero_extendqisi2
 5870              	.LVL548:
3483:VS4210/keyremo.c **** 				return PPON;
 5871              		.loc 1 3483 17 view .LVU1518
 5872 01e2 2E4B     		ldr	r3, .L504
 5873 01e4 1C70     		strb	r4, [r3]
3484:VS4210/keyremo.c **** 			}
 5874              		.loc 1 3484 5 is_stmt 1 view .LVU1519
3484:VS4210/keyremo.c **** 			}
 5875              		.loc 1 3484 12 is_stmt 0 view .LVU1520
 5876 01e6 C2E1     		b	.L429
 5877              	.LVL549:
 5878              	.L491:
3497:VS4210/keyremo.c **** 				TriggerFlag = 0x00;
 5879              		.loc 1 3497 5 is_stmt 1 view .LVU1521
3497:VS4210/keyremo.c **** 				TriggerFlag = 0x00;
 5880              		.loc 1 3497 10 is_stmt 0 view .LVU1522
 5881 01e8 0023     		movs	r3, #0
 5882 01ea 334A     		ldr	r2, .L504+28
 5883              	.LVL550:
3497:VS4210/keyremo.c **** 				TriggerFlag = 0x00;
 5884              		.loc 1 3497 10 view .LVU1523
 5885 01ec 1370     		strb	r3, [r2]
3498:VS4210/keyremo.c **** 				return 0x00;
 5886              		.loc 1 3498 5 is_stmt 1 view .LVU1524
3498:VS4210/keyremo.c **** 				return 0x00;
 5887              		.loc 1 3498 17 is_stmt 0 view .LVU1525
 5888 01ee 2B4A     		ldr	r2, .L504
 5889 01f0 1370     		strb	r3, [r2]
 5890              	.LVL551:
3499:VS4210/keyremo.c **** 			}
 5891              		.loc 1 3499 5 is_stmt 1 view .LVU1526
3499:VS4210/keyremo.c **** 			}
 5892              		.loc 1 3499 12 is_stmt 0 view .LVU1527
 5893 01f2 BCE1     		b	.L429
 5894              	.L483:
3516:VS4210/keyremo.c **** #endif
 5895              		.loc 1 3516 5 is_stmt 1 view .LVU1528
 5896 01f4 3148     		ldr	r0, .L504+32
ARM GAS  C:\Users\ryanc.HS\AppData\Local\Temp\ccZ9UySd.s 			page 188


 5897 01f6 FFF7FEFF 		bl	Printf
 5898              	.LVL552:
3518:VS4210/keyremo.c **** 			}
 5899              		.loc 1 3518 5 view .LVU1529
3518:VS4210/keyremo.c **** 			}
 5900              		.loc 1 3518 8 is_stmt 0 view .LVU1530
 5901 01fa 284B     		ldr	r3, .L504
 5902 01fc 1A78     		ldrb	r2, [r3]	@ zero_extendqisi2
 5903 01fe 294B     		ldr	r3, .L504+8
 5904 0200 1A70     		strb	r2, [r3]
 5905 0202 29E7     		b	.L432
 5906              	.L484:
3523:VS4210/keyremo.c **** 				BT[1] = 0;
 5907              		.loc 1 3523 5 is_stmt 1 view .LVU1531
3523:VS4210/keyremo.c **** 				BT[1] = 0;
 5908              		.loc 1 3523 11 is_stmt 0 view .LVU1532
 5909 0204 284B     		ldr	r3, .L504+12
 5910 0206 0022     		movs	r2, #0
 5911 0208 1A70     		strb	r2, [r3]
3524:VS4210/keyremo.c **** 				BT[2] = 0;
 5912              		.loc 1 3524 5 is_stmt 1 view .LVU1533
3524:VS4210/keyremo.c **** 				BT[2] = 0;
 5913              		.loc 1 3524 11 is_stmt 0 view .LVU1534
 5914 020a 5A70     		strb	r2, [r3, #1]
3525:VS4210/keyremo.c **** 				BT[3] = 0;
 5915              		.loc 1 3525 5 is_stmt 1 view .LVU1535
3525:VS4210/keyremo.c **** 				BT[3] = 0;
 5916              		.loc 1 3525 11 is_stmt 0 view .LVU1536
 5917 020c 9A70     		strb	r2, [r3, #2]
3526:VS4210/keyremo.c **** 				BT[4] = 0;
 5918              		.loc 1 3526 5 is_stmt 1 view .LVU1537
3526:VS4210/keyremo.c **** 				BT[4] = 0;
 5919              		.loc 1 3526 11 is_stmt 0 view .LVU1538
 5920 020e DA70     		strb	r2, [r3, #3]
3527:VS4210/keyremo.c **** #ifdef Trigger_debug
 5921              		.loc 1 3527 5 is_stmt 1 view .LVU1539
3527:VS4210/keyremo.c **** #ifdef Trigger_debug
 5922              		.loc 1 3527 11 is_stmt 0 view .LVU1540
 5923 0210 1A71     		strb	r2, [r3, #4]
3529:VS4210/keyremo.c **** #endif
 5924              		.loc 1 3529 5 is_stmt 1 view .LVU1541
 5925 0212 2B48     		ldr	r0, .L504+36
 5926 0214 FFF7FEFF 		bl	Printf
 5927              	.LVL553:
 5928              	.L434:
3557:VS4210/keyremo.c **** #endif
3558:VS4210/keyremo.c **** 				}
3559:VS4210/keyremo.c **** 				else if (BT[2] & PT)
3560:VS4210/keyremo.c **** 				{
3561:VS4210/keyremo.c **** 					PT = PT & BT[2];
3562:VS4210/keyremo.c **** 					if ((BT[4] & TriggerFlag))
3563:VS4210/keyremo.c **** 					{
3564:VS4210/keyremo.c **** 						BT[3] = BT[4];
3565:VS4210/keyremo.c **** 						BT[2] = BT[3];
3566:VS4210/keyremo.c **** 						BT[4] = PT;
3567:VS4210/keyremo.c **** 					}
3568:VS4210/keyremo.c **** 					if ((BT[3] & TriggerFlag))
ARM GAS  C:\Users\ryanc.HS\AppData\Local\Temp\ccZ9UySd.s 			page 189


3569:VS4210/keyremo.c **** 					{
3570:VS4210/keyremo.c **** 						BT[2] = BT[3];
3571:VS4210/keyremo.c **** 						BT[3] = PT;
3572:VS4210/keyremo.c **** 						BT[4] = 0;
3573:VS4210/keyremo.c **** 					}
3574:VS4210/keyremo.c **** 					else
3575:VS4210/keyremo.c **** 					{
3576:VS4210/keyremo.c **** 						BT[3] = 0;
3577:VS4210/keyremo.c **** 						BT[4] = 0;
3578:VS4210/keyremo.c **** 					}
3579:VS4210/keyremo.c **** 
3580:VS4210/keyremo.c **** #ifdef Trigger_debug
3581:VS4210/keyremo.c **** 					Printf("\r\n(C2)");
3582:VS4210/keyremo.c **** #endif
3583:VS4210/keyremo.c **** 				}
3584:VS4210/keyremo.c **** 				else if (BT[1] & PT)
3585:VS4210/keyremo.c **** 				{
3586:VS4210/keyremo.c **** 					PT = PT & BT[1];
3587:VS4210/keyremo.c **** 
3588:VS4210/keyremo.c **** 					if ((BT[4] & TriggerFlag))
3589:VS4210/keyremo.c **** 					{
3590:VS4210/keyremo.c **** 						BT[3] = BT[4];
3591:VS4210/keyremo.c **** 						BT[2] = BT[3];
3592:VS4210/keyremo.c **** 						BT[1] = BT[2];
3593:VS4210/keyremo.c **** 						BT[4] = PT;
3594:VS4210/keyremo.c **** 					}
3595:VS4210/keyremo.c **** 					if ((BT[3] & TriggerFlag))
3596:VS4210/keyremo.c **** 					{
3597:VS4210/keyremo.c **** 						BT[2] = BT[3];
3598:VS4210/keyremo.c **** 						BT[1] = BT[2];
3599:VS4210/keyremo.c **** 						BT[3] = PT;
3600:VS4210/keyremo.c **** 
3601:VS4210/keyremo.c **** 						BT[4] = 0;
3602:VS4210/keyremo.c **** 					}
3603:VS4210/keyremo.c **** 					else if ((BT[2] & TriggerFlag))
3604:VS4210/keyremo.c **** 					{
3605:VS4210/keyremo.c **** 						BT[1] = BT[2];
3606:VS4210/keyremo.c **** 						BT[2] = PT;
3607:VS4210/keyremo.c **** 
3608:VS4210/keyremo.c **** 						BT[3] = 0;
3609:VS4210/keyremo.c **** 						BT[4] = 0;
3610:VS4210/keyremo.c **** 					}
3611:VS4210/keyremo.c **** 					else
3612:VS4210/keyremo.c **** 					{
3613:VS4210/keyremo.c **** 						BT[3] = 0;
3614:VS4210/keyremo.c **** 						BT[2] = 0;
3615:VS4210/keyremo.c **** 						BT[4] = 0;
3616:VS4210/keyremo.c **** 					}
3617:VS4210/keyremo.c **** 
3618:VS4210/keyremo.c **** #ifdef Trigger_debug
3619:VS4210/keyremo.c **** 					Printf("\r\n(B2)");
3620:VS4210/keyremo.c **** #endif
3621:VS4210/keyremo.c **** 				}
3622:VS4210/keyremo.c **** 				else if (BT[0] & PT)
3623:VS4210/keyremo.c **** 				{
3624:VS4210/keyremo.c **** 					PT = PT & BT[0];
3625:VS4210/keyremo.c **** 					if ((BT[4] & TriggerFlag))
ARM GAS  C:\Users\ryanc.HS\AppData\Local\Temp\ccZ9UySd.s 			page 190


3626:VS4210/keyremo.c **** 					{
3627:VS4210/keyremo.c **** 						BT[3] = BT[4];
3628:VS4210/keyremo.c **** 						BT[2] = BT[3];
3629:VS4210/keyremo.c **** 						BT[1] = BT[2];
3630:VS4210/keyremo.c **** 						BT[0] = BT[1];
3631:VS4210/keyremo.c **** 						BT[4] = PT;
3632:VS4210/keyremo.c **** 					}
3633:VS4210/keyremo.c **** 					if ((BT[3] & TriggerFlag))
3634:VS4210/keyremo.c **** 					{
3635:VS4210/keyremo.c **** 						BT[2] = BT[3];
3636:VS4210/keyremo.c **** 						BT[1] = BT[2];
3637:VS4210/keyremo.c **** 						BT[0] = BT[1];
3638:VS4210/keyremo.c **** 						BT[3] = PT;
3639:VS4210/keyremo.c **** 
3640:VS4210/keyremo.c **** 						BT[4] = 0;
3641:VS4210/keyremo.c **** 					}
3642:VS4210/keyremo.c **** 					else if ((BT[2] & TriggerFlag))
3643:VS4210/keyremo.c **** 					{
3644:VS4210/keyremo.c **** 						BT[1] = BT[2];
3645:VS4210/keyremo.c **** 						BT[0] = BT[1];
3646:VS4210/keyremo.c **** 						BT[2] = PT;
3647:VS4210/keyremo.c **** 
3648:VS4210/keyremo.c **** 						BT[3] = 0;
3649:VS4210/keyremo.c **** 						BT[4] = 0;
3650:VS4210/keyremo.c **** 					}
3651:VS4210/keyremo.c **** 					else if ((BT[1] & TriggerFlag))
3652:VS4210/keyremo.c **** 					{
3653:VS4210/keyremo.c **** 
3654:VS4210/keyremo.c **** 						BT[0] = BT[1];
3655:VS4210/keyremo.c **** 						BT[1] = PT;
3656:VS4210/keyremo.c **** 
3657:VS4210/keyremo.c **** 						BT[2] = 0;
3658:VS4210/keyremo.c **** 						BT[3] = 0;
3659:VS4210/keyremo.c **** 						BT[4] = 0;
3660:VS4210/keyremo.c **** 					}
3661:VS4210/keyremo.c **** 					else
3662:VS4210/keyremo.c **** 					{
3663:VS4210/keyremo.c **** 						BT[4] = 0;
3664:VS4210/keyremo.c **** 						BT[3] = 0;
3665:VS4210/keyremo.c **** 						BT[2] = 0;
3666:VS4210/keyremo.c **** 						BT[1] = 0;
3667:VS4210/keyremo.c **** 					}
3668:VS4210/keyremo.c **** 
3669:VS4210/keyremo.c **** #ifdef Trigger_debug
3670:VS4210/keyremo.c **** 					Printf("\r\n(A2)");
3671:VS4210/keyremo.c **** #endif
3672:VS4210/keyremo.c **** 				}
3673:VS4210/keyremo.c **** 				else if (BT[0] == 0)
3674:VS4210/keyremo.c **** 				{
3675:VS4210/keyremo.c **** 					BT[0] = PT;
3676:VS4210/keyremo.c **** #ifdef Trigger_debug
3677:VS4210/keyremo.c **** 					Printf("\r\n(A)");
3678:VS4210/keyremo.c **** #endif
3679:VS4210/keyremo.c **** 				}
3680:VS4210/keyremo.c **** 				else if (BT[1] == 0)
3681:VS4210/keyremo.c **** 				{
3682:VS4210/keyremo.c **** 					BT[1] = PT;
ARM GAS  C:\Users\ryanc.HS\AppData\Local\Temp\ccZ9UySd.s 			page 191


3683:VS4210/keyremo.c **** #ifdef Trigger_debug
3684:VS4210/keyremo.c **** 					Printf("\r\n(B)");
3685:VS4210/keyremo.c **** #endif
3686:VS4210/keyremo.c **** 				}
3687:VS4210/keyremo.c **** 				else if (BT[2] == 0)
3688:VS4210/keyremo.c **** 				{
3689:VS4210/keyremo.c **** 					BT[2] = PT;
3690:VS4210/keyremo.c **** #ifdef Trigger_debug
3691:VS4210/keyremo.c **** 					Printf("\r\n(C)");
3692:VS4210/keyremo.c **** #endif
3693:VS4210/keyremo.c **** 				}
3694:VS4210/keyremo.c **** 				else if (BT[3] == 0)
3695:VS4210/keyremo.c **** 				{
3696:VS4210/keyremo.c **** 					BT[3] = PT;
3697:VS4210/keyremo.c **** #ifdef Trigger_debug
3698:VS4210/keyremo.c **** 					Printf("\r\n(D)");
3699:VS4210/keyremo.c **** #endif
3700:VS4210/keyremo.c **** 				}
3701:VS4210/keyremo.c **** 				else if (BT[4] == 0)
3702:VS4210/keyremo.c **** 				{
3703:VS4210/keyremo.c **** 					BT[4] = PT;
3704:VS4210/keyremo.c **** #ifdef Trigger_debug
3705:VS4210/keyremo.c **** 					Printf("\r\n(E)");
3706:VS4210/keyremo.c **** #endif
3707:VS4210/keyremo.c **** 				}
3708:VS4210/keyremo.c **** 
3709:VS4210/keyremo.c **** 				for (x = 0; x < 5; x++) // clear no trigger
3710:VS4210/keyremo.c **** 					if ((BT[x] & TriggerFlag) == 0)
3711:VS4210/keyremo.c **** 					{
3712:VS4210/keyremo.c **** 						BT[x] = 0;
3713:VS4210/keyremo.c **** 
3714:VS4210/keyremo.c **** 						if (x == 0)
3715:VS4210/keyremo.c **** 						{
3716:VS4210/keyremo.c **** 							BT[0] = BT[1];
3717:VS4210/keyremo.c **** 							BT[1] = BT[2];
3718:VS4210/keyremo.c **** 							BT[2] = BT[3];
3719:VS4210/keyremo.c **** 							BT[3] = BT[4];
3720:VS4210/keyremo.c **** 							BT[4] = 0;
3721:VS4210/keyremo.c **** 						}
3722:VS4210/keyremo.c **** 						else if (x == 1)
3723:VS4210/keyremo.c **** 						{
3724:VS4210/keyremo.c **** 							BT[1] = BT[2];
3725:VS4210/keyremo.c **** 							BT[2] = BT[3];
3726:VS4210/keyremo.c **** 							BT[3] = BT[4];
3727:VS4210/keyremo.c **** 							BT[4] = 0;
3728:VS4210/keyremo.c **** 						}
3729:VS4210/keyremo.c **** 						else if (x == 2)
3730:VS4210/keyremo.c **** 						{
3731:VS4210/keyremo.c **** 							BT[2] = BT[3];
3732:VS4210/keyremo.c **** 							BT[3] = BT[4];
3733:VS4210/keyremo.c **** 							BT[4] = 0;
3734:VS4210/keyremo.c **** 						}
3735:VS4210/keyremo.c **** 						else if (x == 3)
3736:VS4210/keyremo.c **** 						{
3737:VS4210/keyremo.c **** 							BT[3] = BT[4];
3738:VS4210/keyremo.c **** 							BT[4] = 0;
3739:VS4210/keyremo.c **** 						}
ARM GAS  C:\Users\ryanc.HS\AppData\Local\Temp\ccZ9UySd.s 			page 192


3740:VS4210/keyremo.c **** 					}
3741:VS4210/keyremo.c **** 			}
3742:VS4210/keyremo.c **** 
3743:VS4210/keyremo.c **** 			if (PowerFlag == OFF) /// power off
 5929              		.loc 1 3743 4 view .LVU1542
 5930              		.loc 1 3743 18 is_stmt 0 view .LVU1543
 5931 0218 2A4B     		ldr	r3, .L504+40
 5932 021a 1B78     		ldrb	r3, [r3]	@ zero_extendqisi2
 5933              		.loc 1 3743 7 view .LVU1544
 5934 021c BBB9     		cbnz	r3, .L465
3744:VS4210/keyremo.c **** 			{
3745:VS4210/keyremo.c **** 				////CDtrigger
3746:VS4210/keyremo.c **** 				if (TriggerFlag & REVERSE_T)
 5935              		.loc 1 3746 5 is_stmt 1 view .LVU1545
 5936              		.loc 1 3746 21 is_stmt 0 view .LVU1546
 5937 021e 1F4B     		ldr	r3, .L504
 5938 0220 1B78     		ldrb	r3, [r3]	@ zero_extendqisi2
 5939              		.loc 1 3746 8 view .LVU1547
 5940 0222 13F0080F 		tst	r3, #8
 5941 0226 03D1     		bne	.L466
3747:VS4210/keyremo.c **** 					;
3748:VS4210/keyremo.c **** 				else if (TriggerFlag & (LEFT_T | Right_T | PARK_T | CAM_D_T)) // got left trigger
 5942              		.loc 1 3748 10 is_stmt 1 view .LVU1548
 5943              		.loc 1 3748 13 is_stmt 0 view .LVU1549
 5944 0228 13F0870F 		tst	r3, #135
 5945 022c 40F04481 		bne	.L492
 5946              	.L466:
3749:VS4210/keyremo.c **** 				{
3750:VS4210/keyremo.c **** 					Wait_ms(50);
3751:VS4210/keyremo.c **** 					temp = ~(GET_PCA9554PW(PCA9554PW_reg0)) & (LEFT_T | Right_T | PARK_T | REVERSE_T | CAM_D_T);
3752:VS4210/keyremo.c **** 
3753:VS4210/keyremo.c **** 					TriggerFlag = 0x00;
3754:VS4210/keyremo.c **** 
3755:VS4210/keyremo.c **** 					// LEFT_T=1;
3756:VS4210/keyremo.c **** 					if ((temp & LEFT_T) == LEFT_T)
3757:VS4210/keyremo.c **** 					{
3758:VS4210/keyremo.c **** 
3759:VS4210/keyremo.c **** 						Wait_ms(2);
3760:VS4210/keyremo.c **** 						if ((temp & LEFT_T) == LEFT_T)
3761:VS4210/keyremo.c **** 							TriggerFlag = TriggerFlag | LEFT_T;
3762:VS4210/keyremo.c **** 					}
3763:VS4210/keyremo.c **** 
3764:VS4210/keyremo.c **** 					// Right_T=1;
3765:VS4210/keyremo.c **** 					if ((temp & Right_T) == Right_T)
3766:VS4210/keyremo.c **** 					{
3767:VS4210/keyremo.c **** 						Wait_ms(2);
3768:VS4210/keyremo.c **** 						if ((temp & Right_T) == Right_T)
3769:VS4210/keyremo.c **** 							TriggerFlag = TriggerFlag | Right_T;
3770:VS4210/keyremo.c **** 					}
3771:VS4210/keyremo.c **** 
3772:VS4210/keyremo.c **** 					if ((temp & PARK_T) == PARK_T)
3773:VS4210/keyremo.c **** 					{
3774:VS4210/keyremo.c **** 						Wait_ms(2);
3775:VS4210/keyremo.c **** 						if ((temp & PARK_T) == PARK_T)
3776:VS4210/keyremo.c **** 							TriggerFlag = TriggerFlag | PARK_T;
3777:VS4210/keyremo.c **** 					}
3778:VS4210/keyremo.c **** 
ARM GAS  C:\Users\ryanc.HS\AppData\Local\Temp\ccZ9UySd.s 			page 193


3779:VS4210/keyremo.c **** 					//	}
3780:VS4210/keyremo.c **** 					if ((temp & CAM_D_T) == CAM_D_T)
3781:VS4210/keyremo.c **** 					{
3782:VS4210/keyremo.c **** 						Wait_ms(2);
3783:VS4210/keyremo.c **** 						if ((temp & CAM_D_T) == CAM_D_T)
3784:VS4210/keyremo.c **** 							TriggerFlag = TriggerFlag | CAM_D_T;
3785:VS4210/keyremo.c **** 					}
3786:VS4210/keyremo.c **** 
3787:VS4210/keyremo.c **** 					//	if(TriggerFlag&(LEFT_T|Right_T|PARK_T|REVERSE_T))
3788:VS4210/keyremo.c **** 					//	TriggerFlag&=(LEFT_T|Right_T|PARK_T|REVERSE_T); ///clean CAM D trigger
3789:VS4210/keyremo.c **** 				}
3790:VS4210/keyremo.c **** 
3791:VS4210/keyremo.c **** 				x = (TriggerFlag & (LEFT_T | Right_T | PARK_T | REVERSE_T | CAM_D_T));
 5947              		.loc 1 3791 5 is_stmt 1 view .LVU1550
 5948              		.loc 1 3791 22 is_stmt 0 view .LVU1551
 5949 0230 1A4B     		ldr	r3, .L504
 5950 0232 1B78     		ldrb	r3, [r3]	@ zero_extendqisi2
 5951              	.LVL554:
3792:VS4210/keyremo.c **** 
3793:VS4210/keyremo.c **** 				// Printf("\r\n(EE x=%02x POTF=%02x)",(WORD)x,(WORD)POTF);
3794:VS4210/keyremo.c **** 
3795:VS4210/keyremo.c **** 				if (x == 0)
 5952              		.loc 1 3795 5 is_stmt 1 view .LVU1552
 5953              		.loc 1 3795 8 is_stmt 0 view .LVU1553
 5954 0234 13F08F02 		ands	r2, r3, #143
 5955 0238 02D1     		bne	.L470
3796:VS4210/keyremo.c **** 					POTF = 0;
 5956              		.loc 1 3796 6 is_stmt 1 view .LVU1554
 5957              		.loc 1 3796 11 is_stmt 0 view .LVU1555
 5958 023a 2349     		ldr	r1, .L504+44
 5959 023c 0020     		movs	r0, #0
 5960 023e 0870     		strb	r0, [r1]
 5961              	.L470:
3797:VS4210/keyremo.c **** 
3798:VS4210/keyremo.c **** 				if (TriggerFlag & REVERSE_T)
 5962              		.loc 1 3798 5 is_stmt 1 view .LVU1556
 5963              		.loc 1 3798 8 is_stmt 0 view .LVU1557
 5964 0240 13F0080F 		tst	r3, #8
 5965 0244 00F07681 		beq	.L471
3799:VS4210/keyremo.c **** 				{
3800:VS4210/keyremo.c **** 					//	if(x&0xc8)
3801:VS4210/keyremo.c **** 					POT = REVERSE_T;
 5966              		.loc 1 3801 6 is_stmt 1 view .LVU1558
 5967              		.loc 1 3801 10 is_stmt 0 view .LVU1559
 5968 0248 204B     		ldr	r3, .L504+48
 5969              	.LVL555:
 5970              		.loc 1 3801 10 view .LVU1560
 5971 024a 0822     		movs	r2, #8
 5972 024c 1A70     		strb	r2, [r3]
 5973              	.LVL556:
 5974              	.L465:
3802:VS4210/keyremo.c **** 				}
3803:VS4210/keyremo.c **** 				else if (POTF == 1)
3804:VS4210/keyremo.c **** 				{
3805:VS4210/keyremo.c **** 					;
3806:VS4210/keyremo.c **** 				}
3807:VS4210/keyremo.c **** 				else if ((x == (LEFT_T | PARK_T)) || (x == (Right_T | PARK_T)) || (x == (LEFT_T | Right_T | PAR
ARM GAS  C:\Users\ryanc.HS\AppData\Local\Temp\ccZ9UySd.s 			page 194


3808:VS4210/keyremo.c **** 				{
3809:VS4210/keyremo.c **** 					POT = 0x00;
3810:VS4210/keyremo.c **** 				}
3811:VS4210/keyremo.c **** 				else
3812:VS4210/keyremo.c **** 				{
3813:VS4210/keyremo.c **** 					POTF = 1;
3814:VS4210/keyremo.c **** 					POT = PT;
3815:VS4210/keyremo.c **** 				}
3816:VS4210/keyremo.c **** 			}
3817:VS4210/keyremo.c **** 
3818:VS4210/keyremo.c **** #ifdef Trigger_debug
3819:VS4210/keyremo.c **** 			Printf("\r\nTriggerFlag=%02x  TriggerFlagtemp=%02x  PT=%02x Priority=%02x", (WORD)TriggerFlag, (
 5975              		.loc 1 3819 4 is_stmt 1 view .LVU1561
 5976 024e 144B     		ldr	r3, .L504+4
 5977 0250 1B78     		ldrb	r3, [r3]	@ zero_extendqisi2
 5978 0252 0093     		str	r3, [sp]
 5979 0254 134B     		ldr	r3, .L504+8
 5980 0256 1B78     		ldrb	r3, [r3]	@ zero_extendqisi2
 5981 0258 2246     		mov	r2, r4
 5982 025a 1049     		ldr	r1, .L504
 5983 025c 0978     		ldrb	r1, [r1]	@ zero_extendqisi2
 5984 025e 1C48     		ldr	r0, .L504+52
 5985 0260 FFF7FEFF 		bl	Printf
 5986              	.LVL557:
 5987              	.L420:
3820:VS4210/keyremo.c **** // Printf("\r\nBT[0]=%02x  BT[1]=%02x  BT[2]=%02x BT[3]=%02x",(WORD)BT[0],(WORD)BT[1],(WORD)BT[2],(
3821:VS4210/keyremo.c **** #else
3822:VS4210/keyremo.c **** // Printf("\r\nTriggerFlag=%02x",(WORD)TriggerFlag);
3823:VS4210/keyremo.c **** #endif
3824:VS4210/keyremo.c **** 		}
3825:VS4210/keyremo.c **** 	}
3826:VS4210/keyremo.c **** 
3827:VS4210/keyremo.c **** 	if (Priority == ON)
 5988              		.loc 1 3827 2 view .LVU1562
 5989              		.loc 1 3827 15 is_stmt 0 view .LVU1563
 5990 0264 0E4B     		ldr	r3, .L504+4
 5991 0266 1B78     		ldrb	r3, [r3]	@ zero_extendqisi2
 5992              		.loc 1 3827 5 view .LVU1564
 5993 0268 012B     		cmp	r3, #1
 5994 026a 00F07B81 		beq	.L493
3828:VS4210/keyremo.c **** 	{ /// priority on
3829:VS4210/keyremo.c **** 		return TriggerFlag;
3830:VS4210/keyremo.c **** 	}
3831:VS4210/keyremo.c **** 	else if ((PowerFlag == OFF) && (POTF == 0))
 5995              		.loc 1 3831 7 is_stmt 1 view .LVU1565
 5996              		.loc 1 3831 22 is_stmt 0 view .LVU1566
 5997 026e 154B     		ldr	r3, .L504+40
 5998 0270 1B78     		ldrb	r3, [r3]	@ zero_extendqisi2
 5999              		.loc 1 3831 10 view .LVU1567
 6000 0272 002B     		cmp	r3, #0
 6001 0274 40F07981 		bne	.L475
 6002              		.loc 1 3831 39 discriminator 1 view .LVU1568
 6003 0278 134B     		ldr	r3, .L504+44
 6004 027a 1B78     		ldrb	r3, [r3]	@ zero_extendqisi2
 6005              		.loc 1 3831 30 discriminator 1 view .LVU1569
 6006 027c 002B     		cmp	r3, #0
 6007 027e 40F07481 		bne	.L475
ARM GAS  C:\Users\ryanc.HS\AppData\Local\Temp\ccZ9UySd.s 			page 195


3832:VS4210/keyremo.c **** 		return POT;
 6008              		.loc 1 3832 3 is_stmt 1 view .LVU1570
 6009              		.loc 1 3832 10 is_stmt 0 view .LVU1571
 6010 0282 124B     		ldr	r3, .L504+48
 6011 0284 1C78     		ldrb	r4, [r3]	@ zero_extendqisi2
 6012              	.LVL558:
 6013              		.loc 1 3832 10 view .LVU1572
 6014 0286 72E1     		b	.L429
 6015              	.LVL559:
 6016              	.L485:
3536:VS4210/keyremo.c **** #ifdef Trigger_debug
 6017              		.loc 1 3536 6 is_stmt 1 view .LVU1573
3536:VS4210/keyremo.c **** #ifdef Trigger_debug
 6018              		.loc 1 3536 9 is_stmt 0 view .LVU1574
 6019 0288 064A     		ldr	r2, .L504+8
 6020 028a 1370     		strb	r3, [r2]
3538:VS4210/keyremo.c **** #endif
 6021              		.loc 1 3538 6 is_stmt 1 view .LVU1575
 6022 028c 1148     		ldr	r0, .L504+56
 6023 028e FFF7FEFF 		bl	Printf
 6024              	.LVL560:
 6025 0292 EBE6     		b	.L435
 6026              	.L437:
3552:VS4210/keyremo.c **** 					}
 6027              		.loc 1 3552 7 view .LVU1576
3552:VS4210/keyremo.c **** 					}
 6028              		.loc 1 3552 13 is_stmt 0 view .LVU1577
 6029 0294 044B     		ldr	r3, .L504+12
 6030 0296 0022     		movs	r2, #0
 6031 0298 1A71     		strb	r2, [r3, #4]
 6032 029a FBE6     		b	.L438
 6033              	.L505:
 6034              		.align	2
 6035              	.L504:
 6036 029c 00000000 		.word	.LANCHOR8
 6037 02a0 00000000 		.word	Priority
 6038 02a4 00000000 		.word	.LANCHOR29
 6039 02a8 00000000 		.word	.LANCHOR30
 6040 02ac 54000000 		.word	.LC49
 6041 02b0 00000000 		.word	.LANCHOR27
 6042 02b4 00000000 		.word	.LC45
 6043 02b8 00000000 		.word	.LANCHOR28
 6044 02bc 34000000 		.word	.LC46
 6045 02c0 40000000 		.word	.LC47
 6046 02c4 00000000 		.word	PowerFlag
 6047 02c8 00000000 		.word	.LANCHOR31
 6048 02cc 00000000 		.word	.LANCHOR32
 6049 02d0 9C000000 		.word	.LC58
 6050 02d4 4C000000 		.word	.LC48
 6051              	.L436:
3559:VS4210/keyremo.c **** 				{
 6052              		.loc 1 3559 10 is_stmt 1 view .LVU1578
3559:VS4210/keyremo.c **** 				{
 6053              		.loc 1 3559 16 is_stmt 0 view .LVU1579
 6054 02d8 A649     		ldr	r1, .L506
 6055 02da 8978     		ldrb	r1, [r1, #2]	@ zero_extendqisi2
3559:VS4210/keyremo.c **** 				{
ARM GAS  C:\Users\ryanc.HS\AppData\Local\Temp\ccZ9UySd.s 			page 196


 6056              		.loc 1 3559 13 view .LVU1580
 6057 02dc 13EA0100 		ands	r0, r3, r1
 6058 02e0 1CD0     		beq	.L440
3561:VS4210/keyremo.c **** 					if ((BT[4] & TriggerFlag))
 6059              		.loc 1 3561 6 is_stmt 1 view .LVU1581
3561:VS4210/keyremo.c **** 					if ((BT[4] & TriggerFlag))
 6060              		.loc 1 3561 9 is_stmt 0 view .LVU1582
 6061 02e2 A54B     		ldr	r3, .L506+4
 6062 02e4 1870     		strb	r0, [r3]
3562:VS4210/keyremo.c **** 					{
 6063              		.loc 1 3562 6 is_stmt 1 view .LVU1583
3562:VS4210/keyremo.c **** 					{
 6064              		.loc 1 3562 13 is_stmt 0 view .LVU1584
 6065 02e6 A34B     		ldr	r3, .L506
 6066 02e8 1A79     		ldrb	r2, [r3, #4]	@ zero_extendqisi2
3562:VS4210/keyremo.c **** 					{
 6067              		.loc 1 3562 10 view .LVU1585
 6068 02ea A44B     		ldr	r3, .L506+8
 6069 02ec 1B78     		ldrb	r3, [r3]	@ zero_extendqisi2
3562:VS4210/keyremo.c **** 					{
 6070              		.loc 1 3562 9 view .LVU1586
 6071 02ee 1A42     		tst	r2, r3
 6072 02f0 02D0     		beq	.L441
3564:VS4210/keyremo.c **** 						BT[2] = BT[3];
 6073              		.loc 1 3564 7 is_stmt 1 view .LVU1587
3564:VS4210/keyremo.c **** 						BT[2] = BT[3];
 6074              		.loc 1 3564 13 is_stmt 0 view .LVU1588
 6075 02f2 A049     		ldr	r1, .L506
 6076 02f4 CA70     		strb	r2, [r1, #3]
3565:VS4210/keyremo.c **** 						BT[4] = PT;
 6077              		.loc 1 3565 7 is_stmt 1 view .LVU1589
3565:VS4210/keyremo.c **** 						BT[4] = PT;
 6078              		.loc 1 3565 13 is_stmt 0 view .LVU1590
 6079 02f6 8A70     		strb	r2, [r1, #2]
3566:VS4210/keyremo.c **** 					}
 6080              		.loc 1 3566 7 is_stmt 1 view .LVU1591
 6081              	.L441:
3568:VS4210/keyremo.c **** 					{
 6082              		.loc 1 3568 6 view .LVU1592
3568:VS4210/keyremo.c **** 					{
 6083              		.loc 1 3568 13 is_stmt 0 view .LVU1593
 6084 02f8 9E4A     		ldr	r2, .L506
 6085 02fa D278     		ldrb	r2, [r2, #3]	@ zero_extendqisi2
3568:VS4210/keyremo.c **** 					{
 6086              		.loc 1 3568 9 view .LVU1594
 6087 02fc 1342     		tst	r3, r2
 6088 02fe 08D0     		beq	.L442
3570:VS4210/keyremo.c **** 						BT[3] = PT;
 6089              		.loc 1 3570 7 is_stmt 1 view .LVU1595
3570:VS4210/keyremo.c **** 						BT[3] = PT;
 6090              		.loc 1 3570 13 is_stmt 0 view .LVU1596
 6091 0300 9C4B     		ldr	r3, .L506
 6092 0302 9A70     		strb	r2, [r3, #2]
3571:VS4210/keyremo.c **** 						BT[4] = 0;
 6093              		.loc 1 3571 7 is_stmt 1 view .LVU1597
3571:VS4210/keyremo.c **** 						BT[4] = 0;
 6094              		.loc 1 3571 13 is_stmt 0 view .LVU1598
ARM GAS  C:\Users\ryanc.HS\AppData\Local\Temp\ccZ9UySd.s 			page 197


 6095 0304 D870     		strb	r0, [r3, #3]
3572:VS4210/keyremo.c **** 					}
 6096              		.loc 1 3572 7 is_stmt 1 view .LVU1599
3572:VS4210/keyremo.c **** 					}
 6097              		.loc 1 3572 13 is_stmt 0 view .LVU1600
 6098 0306 0022     		movs	r2, #0
 6099 0308 1A71     		strb	r2, [r3, #4]
 6100              	.L443:
3581:VS4210/keyremo.c **** #endif
 6101              		.loc 1 3581 6 is_stmt 1 view .LVU1601
 6102 030a 9D48     		ldr	r0, .L506+12
 6103 030c FFF7FEFF 		bl	Printf
 6104              	.LVL561:
 6105 0310 C3E6     		b	.L439
 6106              	.L442:
3576:VS4210/keyremo.c **** 						BT[4] = 0;
 6107              		.loc 1 3576 7 view .LVU1602
3576:VS4210/keyremo.c **** 						BT[4] = 0;
 6108              		.loc 1 3576 13 is_stmt 0 view .LVU1603
 6109 0312 984B     		ldr	r3, .L506
 6110 0314 0022     		movs	r2, #0
 6111 0316 DA70     		strb	r2, [r3, #3]
3577:VS4210/keyremo.c **** 					}
 6112              		.loc 1 3577 7 is_stmt 1 view .LVU1604
3577:VS4210/keyremo.c **** 					}
 6113              		.loc 1 3577 13 is_stmt 0 view .LVU1605
 6114 0318 1A71     		strb	r2, [r3, #4]
 6115 031a F6E7     		b	.L443
 6116              	.L440:
3584:VS4210/keyremo.c **** 				{
 6117              		.loc 1 3584 10 is_stmt 1 view .LVU1606
3584:VS4210/keyremo.c **** 				{
 6118              		.loc 1 3584 16 is_stmt 0 view .LVU1607
 6119 031c 9548     		ldr	r0, .L506
 6120 031e 4078     		ldrb	r0, [r0, #1]	@ zero_extendqisi2
3584:VS4210/keyremo.c **** 				{
 6121              		.loc 1 3584 13 view .LVU1608
 6122 0320 13EA0005 		ands	r5, r3, r0
 6123 0324 2AD0     		beq	.L444
3586:VS4210/keyremo.c **** 
 6124              		.loc 1 3586 6 is_stmt 1 view .LVU1609
3586:VS4210/keyremo.c **** 
 6125              		.loc 1 3586 9 is_stmt 0 view .LVU1610
 6126 0326 944B     		ldr	r3, .L506+4
 6127 0328 1D70     		strb	r5, [r3]
3588:VS4210/keyremo.c **** 					{
 6128              		.loc 1 3588 6 is_stmt 1 view .LVU1611
3588:VS4210/keyremo.c **** 					{
 6129              		.loc 1 3588 13 is_stmt 0 view .LVU1612
 6130 032a 924B     		ldr	r3, .L506
 6131 032c 1A79     		ldrb	r2, [r3, #4]	@ zero_extendqisi2
3588:VS4210/keyremo.c **** 					{
 6132              		.loc 1 3588 10 view .LVU1613
 6133 032e 934B     		ldr	r3, .L506+8
 6134 0330 1B78     		ldrb	r3, [r3]	@ zero_extendqisi2
3588:VS4210/keyremo.c **** 					{
 6135              		.loc 1 3588 9 view .LVU1614
ARM GAS  C:\Users\ryanc.HS\AppData\Local\Temp\ccZ9UySd.s 			page 198


 6136 0332 1A42     		tst	r2, r3
 6137 0334 03D0     		beq	.L445
3590:VS4210/keyremo.c **** 						BT[2] = BT[3];
 6138              		.loc 1 3590 7 is_stmt 1 view .LVU1615
3590:VS4210/keyremo.c **** 						BT[2] = BT[3];
 6139              		.loc 1 3590 13 is_stmt 0 view .LVU1616
 6140 0336 8F49     		ldr	r1, .L506
 6141 0338 CA70     		strb	r2, [r1, #3]
3591:VS4210/keyremo.c **** 						BT[1] = BT[2];
 6142              		.loc 1 3591 7 is_stmt 1 view .LVU1617
3591:VS4210/keyremo.c **** 						BT[1] = BT[2];
 6143              		.loc 1 3591 13 is_stmt 0 view .LVU1618
 6144 033a 8A70     		strb	r2, [r1, #2]
3592:VS4210/keyremo.c **** 						BT[4] = PT;
 6145              		.loc 1 3592 7 is_stmt 1 view .LVU1619
3592:VS4210/keyremo.c **** 						BT[4] = PT;
 6146              		.loc 1 3592 13 is_stmt 0 view .LVU1620
 6147 033c 4A70     		strb	r2, [r1, #1]
3593:VS4210/keyremo.c **** 					}
 6148              		.loc 1 3593 7 is_stmt 1 view .LVU1621
 6149              	.L445:
3595:VS4210/keyremo.c **** 					{
 6150              		.loc 1 3595 6 view .LVU1622
3595:VS4210/keyremo.c **** 					{
 6151              		.loc 1 3595 13 is_stmt 0 view .LVU1623
 6152 033e 8D4A     		ldr	r2, .L506
 6153 0340 D278     		ldrb	r2, [r2, #3]	@ zero_extendqisi2
3595:VS4210/keyremo.c **** 					{
 6154              		.loc 1 3595 9 view .LVU1624
 6155 0342 1342     		tst	r3, r2
 6156 0344 09D0     		beq	.L446
3597:VS4210/keyremo.c **** 						BT[1] = BT[2];
 6157              		.loc 1 3597 7 is_stmt 1 view .LVU1625
3597:VS4210/keyremo.c **** 						BT[1] = BT[2];
 6158              		.loc 1 3597 13 is_stmt 0 view .LVU1626
 6159 0346 8B4B     		ldr	r3, .L506
 6160 0348 9A70     		strb	r2, [r3, #2]
3598:VS4210/keyremo.c **** 						BT[3] = PT;
 6161              		.loc 1 3598 7 is_stmt 1 view .LVU1627
3598:VS4210/keyremo.c **** 						BT[3] = PT;
 6162              		.loc 1 3598 13 is_stmt 0 view .LVU1628
 6163 034a 5A70     		strb	r2, [r3, #1]
3599:VS4210/keyremo.c **** 
 6164              		.loc 1 3599 7 is_stmt 1 view .LVU1629
3599:VS4210/keyremo.c **** 
 6165              		.loc 1 3599 13 is_stmt 0 view .LVU1630
 6166 034c DD70     		strb	r5, [r3, #3]
3601:VS4210/keyremo.c **** 					}
 6167              		.loc 1 3601 7 is_stmt 1 view .LVU1631
3601:VS4210/keyremo.c **** 					}
 6168              		.loc 1 3601 13 is_stmt 0 view .LVU1632
 6169 034e 0022     		movs	r2, #0
 6170 0350 1A71     		strb	r2, [r3, #4]
 6171              	.L447:
3619:VS4210/keyremo.c **** #endif
 6172              		.loc 1 3619 6 is_stmt 1 view .LVU1633
 6173 0352 8C48     		ldr	r0, .L506+16
ARM GAS  C:\Users\ryanc.HS\AppData\Local\Temp\ccZ9UySd.s 			page 199


 6174 0354 FFF7FEFF 		bl	Printf
 6175              	.LVL562:
 6176 0358 9FE6     		b	.L439
 6177              	.L446:
3603:VS4210/keyremo.c **** 					{
 6178              		.loc 1 3603 11 view .LVU1634
3603:VS4210/keyremo.c **** 					{
 6179              		.loc 1 3603 18 is_stmt 0 view .LVU1635
 6180 035a 864A     		ldr	r2, .L506
 6181 035c 9278     		ldrb	r2, [r2, #2]	@ zero_extendqisi2
3603:VS4210/keyremo.c **** 					{
 6182              		.loc 1 3603 14 view .LVU1636
 6183 035e 1342     		tst	r3, r2
 6184 0360 06D0     		beq	.L448
3605:VS4210/keyremo.c **** 						BT[2] = PT;
 6185              		.loc 1 3605 7 is_stmt 1 view .LVU1637
3605:VS4210/keyremo.c **** 						BT[2] = PT;
 6186              		.loc 1 3605 13 is_stmt 0 view .LVU1638
 6187 0362 844B     		ldr	r3, .L506
 6188 0364 5A70     		strb	r2, [r3, #1]
3606:VS4210/keyremo.c **** 
 6189              		.loc 1 3606 7 is_stmt 1 view .LVU1639
3606:VS4210/keyremo.c **** 
 6190              		.loc 1 3606 13 is_stmt 0 view .LVU1640
 6191 0366 9D70     		strb	r5, [r3, #2]
3608:VS4210/keyremo.c **** 						BT[4] = 0;
 6192              		.loc 1 3608 7 is_stmt 1 view .LVU1641
3608:VS4210/keyremo.c **** 						BT[4] = 0;
 6193              		.loc 1 3608 13 is_stmt 0 view .LVU1642
 6194 0368 0022     		movs	r2, #0
 6195 036a DA70     		strb	r2, [r3, #3]
3609:VS4210/keyremo.c **** 					}
 6196              		.loc 1 3609 7 is_stmt 1 view .LVU1643
3609:VS4210/keyremo.c **** 					}
 6197              		.loc 1 3609 13 is_stmt 0 view .LVU1644
 6198 036c 1A71     		strb	r2, [r3, #4]
 6199 036e F0E7     		b	.L447
 6200              	.L448:
3613:VS4210/keyremo.c **** 						BT[2] = 0;
 6201              		.loc 1 3613 7 is_stmt 1 view .LVU1645
3613:VS4210/keyremo.c **** 						BT[2] = 0;
 6202              		.loc 1 3613 13 is_stmt 0 view .LVU1646
 6203 0370 804B     		ldr	r3, .L506
 6204 0372 0022     		movs	r2, #0
 6205 0374 DA70     		strb	r2, [r3, #3]
3614:VS4210/keyremo.c **** 						BT[4] = 0;
 6206              		.loc 1 3614 7 is_stmt 1 view .LVU1647
3614:VS4210/keyremo.c **** 						BT[4] = 0;
 6207              		.loc 1 3614 13 is_stmt 0 view .LVU1648
 6208 0376 9A70     		strb	r2, [r3, #2]
3615:VS4210/keyremo.c **** 					}
 6209              		.loc 1 3615 7 is_stmt 1 view .LVU1649
3615:VS4210/keyremo.c **** 					}
 6210              		.loc 1 3615 13 is_stmt 0 view .LVU1650
 6211 0378 1A71     		strb	r2, [r3, #4]
 6212 037a EAE7     		b	.L447
 6213              	.L444:
ARM GAS  C:\Users\ryanc.HS\AppData\Local\Temp\ccZ9UySd.s 			page 200


3622:VS4210/keyremo.c **** 				{
 6214              		.loc 1 3622 10 is_stmt 1 view .LVU1651
3622:VS4210/keyremo.c **** 				{
 6215              		.loc 1 3622 16 is_stmt 0 view .LVU1652
 6216 037c 7D4D     		ldr	r5, .L506
 6217 037e 2D78     		ldrb	r5, [r5]	@ zero_extendqisi2
3622:VS4210/keyremo.c **** 				{
 6218              		.loc 1 3622 13 view .LVU1653
 6219 0380 13EA0506 		ands	r6, r3, r5
 6220              	.LVL563:
3622:VS4210/keyremo.c **** 				{
 6221              		.loc 1 3622 13 view .LVU1654
 6222 0384 39D0     		beq	.L449
3624:VS4210/keyremo.c **** 					if ((BT[4] & TriggerFlag))
 6223              		.loc 1 3624 6 is_stmt 1 view .LVU1655
3624:VS4210/keyremo.c **** 					if ((BT[4] & TriggerFlag))
 6224              		.loc 1 3624 9 is_stmt 0 view .LVU1656
 6225 0386 7C4B     		ldr	r3, .L506+4
 6226 0388 1E70     		strb	r6, [r3]
3625:VS4210/keyremo.c **** 					{
 6227              		.loc 1 3625 6 is_stmt 1 view .LVU1657
3625:VS4210/keyremo.c **** 					{
 6228              		.loc 1 3625 13 is_stmt 0 view .LVU1658
 6229 038a 7A4B     		ldr	r3, .L506
 6230 038c 1B79     		ldrb	r3, [r3, #4]	@ zero_extendqisi2
3625:VS4210/keyremo.c **** 					{
 6231              		.loc 1 3625 10 view .LVU1659
 6232 038e 7B4A     		ldr	r2, .L506+8
 6233 0390 1278     		ldrb	r2, [r2]	@ zero_extendqisi2
3625:VS4210/keyremo.c **** 					{
 6234              		.loc 1 3625 9 view .LVU1660
 6235 0392 1342     		tst	r3, r2
 6236 0394 04D0     		beq	.L450
3627:VS4210/keyremo.c **** 						BT[2] = BT[3];
 6237              		.loc 1 3627 7 is_stmt 1 view .LVU1661
3627:VS4210/keyremo.c **** 						BT[2] = BT[3];
 6238              		.loc 1 3627 13 is_stmt 0 view .LVU1662
 6239 0396 7749     		ldr	r1, .L506
 6240 0398 CB70     		strb	r3, [r1, #3]
3628:VS4210/keyremo.c **** 						BT[1] = BT[2];
 6241              		.loc 1 3628 7 is_stmt 1 view .LVU1663
3628:VS4210/keyremo.c **** 						BT[1] = BT[2];
 6242              		.loc 1 3628 13 is_stmt 0 view .LVU1664
 6243 039a 8B70     		strb	r3, [r1, #2]
3629:VS4210/keyremo.c **** 						BT[0] = BT[1];
 6244              		.loc 1 3629 7 is_stmt 1 view .LVU1665
3629:VS4210/keyremo.c **** 						BT[0] = BT[1];
 6245              		.loc 1 3629 13 is_stmt 0 view .LVU1666
 6246 039c 4B70     		strb	r3, [r1, #1]
3630:VS4210/keyremo.c **** 						BT[4] = PT;
 6247              		.loc 1 3630 7 is_stmt 1 view .LVU1667
3630:VS4210/keyremo.c **** 						BT[4] = PT;
 6248              		.loc 1 3630 13 is_stmt 0 view .LVU1668
 6249 039e 0B70     		strb	r3, [r1]
3631:VS4210/keyremo.c **** 					}
 6250              		.loc 1 3631 7 is_stmt 1 view .LVU1669
 6251              	.L450:
ARM GAS  C:\Users\ryanc.HS\AppData\Local\Temp\ccZ9UySd.s 			page 201


3633:VS4210/keyremo.c **** 					{
 6252              		.loc 1 3633 6 view .LVU1670
3633:VS4210/keyremo.c **** 					{
 6253              		.loc 1 3633 13 is_stmt 0 view .LVU1671
 6254 03a0 744B     		ldr	r3, .L506
 6255 03a2 DB78     		ldrb	r3, [r3, #3]	@ zero_extendqisi2
3633:VS4210/keyremo.c **** 					{
 6256              		.loc 1 3633 9 view .LVU1672
 6257 03a4 1A42     		tst	r2, r3
 6258 03a6 0AD0     		beq	.L451
3635:VS4210/keyremo.c **** 						BT[1] = BT[2];
 6259              		.loc 1 3635 7 is_stmt 1 view .LVU1673
3635:VS4210/keyremo.c **** 						BT[1] = BT[2];
 6260              		.loc 1 3635 13 is_stmt 0 view .LVU1674
 6261 03a8 724A     		ldr	r2, .L506
 6262 03aa 9370     		strb	r3, [r2, #2]
3636:VS4210/keyremo.c **** 						BT[0] = BT[1];
 6263              		.loc 1 3636 7 is_stmt 1 view .LVU1675
3636:VS4210/keyremo.c **** 						BT[0] = BT[1];
 6264              		.loc 1 3636 13 is_stmt 0 view .LVU1676
 6265 03ac 5370     		strb	r3, [r2, #1]
3637:VS4210/keyremo.c **** 						BT[3] = PT;
 6266              		.loc 1 3637 7 is_stmt 1 view .LVU1677
3637:VS4210/keyremo.c **** 						BT[3] = PT;
 6267              		.loc 1 3637 13 is_stmt 0 view .LVU1678
 6268 03ae 1370     		strb	r3, [r2]
3638:VS4210/keyremo.c **** 
 6269              		.loc 1 3638 7 is_stmt 1 view .LVU1679
3638:VS4210/keyremo.c **** 
 6270              		.loc 1 3638 13 is_stmt 0 view .LVU1680
 6271 03b0 D670     		strb	r6, [r2, #3]
3640:VS4210/keyremo.c **** 					}
 6272              		.loc 1 3640 7 is_stmt 1 view .LVU1681
3640:VS4210/keyremo.c **** 					}
 6273              		.loc 1 3640 13 is_stmt 0 view .LVU1682
 6274 03b2 0023     		movs	r3, #0
 6275 03b4 1371     		strb	r3, [r2, #4]
 6276              	.L452:
3670:VS4210/keyremo.c **** #endif
 6277              		.loc 1 3670 6 is_stmt 1 view .LVU1683
 6278 03b6 7448     		ldr	r0, .L506+20
 6279 03b8 FFF7FEFF 		bl	Printf
 6280              	.LVL564:
 6281 03bc 6DE6     		b	.L439
 6282              	.L451:
3642:VS4210/keyremo.c **** 					{
 6283              		.loc 1 3642 11 view .LVU1684
3642:VS4210/keyremo.c **** 					{
 6284              		.loc 1 3642 18 is_stmt 0 view .LVU1685
 6285 03be 6D4B     		ldr	r3, .L506
 6286 03c0 9B78     		ldrb	r3, [r3, #2]	@ zero_extendqisi2
3642:VS4210/keyremo.c **** 					{
 6287              		.loc 1 3642 14 view .LVU1686
 6288 03c2 1A42     		tst	r2, r3
 6289 03c4 07D0     		beq	.L453
3644:VS4210/keyremo.c **** 						BT[0] = BT[1];
 6290              		.loc 1 3644 7 is_stmt 1 view .LVU1687
ARM GAS  C:\Users\ryanc.HS\AppData\Local\Temp\ccZ9UySd.s 			page 202


3644:VS4210/keyremo.c **** 						BT[0] = BT[1];
 6291              		.loc 1 3644 13 is_stmt 0 view .LVU1688
 6292 03c6 6B4A     		ldr	r2, .L506
 6293 03c8 5370     		strb	r3, [r2, #1]
3645:VS4210/keyremo.c **** 						BT[2] = PT;
 6294              		.loc 1 3645 7 is_stmt 1 view .LVU1689
3645:VS4210/keyremo.c **** 						BT[2] = PT;
 6295              		.loc 1 3645 13 is_stmt 0 view .LVU1690
 6296 03ca 1370     		strb	r3, [r2]
3646:VS4210/keyremo.c **** 
 6297              		.loc 1 3646 7 is_stmt 1 view .LVU1691
3646:VS4210/keyremo.c **** 
 6298              		.loc 1 3646 13 is_stmt 0 view .LVU1692
 6299 03cc 9670     		strb	r6, [r2, #2]
3648:VS4210/keyremo.c **** 						BT[4] = 0;
 6300              		.loc 1 3648 7 is_stmt 1 view .LVU1693
3648:VS4210/keyremo.c **** 						BT[4] = 0;
 6301              		.loc 1 3648 13 is_stmt 0 view .LVU1694
 6302 03ce 0023     		movs	r3, #0
 6303 03d0 D370     		strb	r3, [r2, #3]
3649:VS4210/keyremo.c **** 					}
 6304              		.loc 1 3649 7 is_stmt 1 view .LVU1695
3649:VS4210/keyremo.c **** 					}
 6305              		.loc 1 3649 13 is_stmt 0 view .LVU1696
 6306 03d2 1371     		strb	r3, [r2, #4]
 6307 03d4 EFE7     		b	.L452
 6308              	.L453:
3651:VS4210/keyremo.c **** 					{
 6309              		.loc 1 3651 11 is_stmt 1 view .LVU1697
3651:VS4210/keyremo.c **** 					{
 6310              		.loc 1 3651 18 is_stmt 0 view .LVU1698
 6311 03d6 674B     		ldr	r3, .L506
 6312 03d8 5978     		ldrb	r1, [r3, #1]	@ zero_extendqisi2
3651:VS4210/keyremo.c **** 					{
 6313              		.loc 1 3651 14 view .LVU1699
 6314 03da 0A42     		tst	r2, r1
 6315 03dc 06D0     		beq	.L454
3654:VS4210/keyremo.c **** 						BT[1] = PT;
 6316              		.loc 1 3654 7 is_stmt 1 view .LVU1700
3654:VS4210/keyremo.c **** 						BT[1] = PT;
 6317              		.loc 1 3654 13 is_stmt 0 view .LVU1701
 6318 03de 1970     		strb	r1, [r3]
3655:VS4210/keyremo.c **** 
 6319              		.loc 1 3655 7 is_stmt 1 view .LVU1702
3655:VS4210/keyremo.c **** 
 6320              		.loc 1 3655 13 is_stmt 0 view .LVU1703
 6321 03e0 5E70     		strb	r6, [r3, #1]
3657:VS4210/keyremo.c **** 						BT[3] = 0;
 6322              		.loc 1 3657 7 is_stmt 1 view .LVU1704
3657:VS4210/keyremo.c **** 						BT[3] = 0;
 6323              		.loc 1 3657 13 is_stmt 0 view .LVU1705
 6324 03e2 0022     		movs	r2, #0
 6325 03e4 9A70     		strb	r2, [r3, #2]
3658:VS4210/keyremo.c **** 						BT[4] = 0;
 6326              		.loc 1 3658 7 is_stmt 1 view .LVU1706
3658:VS4210/keyremo.c **** 						BT[4] = 0;
 6327              		.loc 1 3658 13 is_stmt 0 view .LVU1707
ARM GAS  C:\Users\ryanc.HS\AppData\Local\Temp\ccZ9UySd.s 			page 203


 6328 03e6 DA70     		strb	r2, [r3, #3]
3659:VS4210/keyremo.c **** 					}
 6329              		.loc 1 3659 7 is_stmt 1 view .LVU1708
3659:VS4210/keyremo.c **** 					}
 6330              		.loc 1 3659 13 is_stmt 0 view .LVU1709
 6331 03e8 1A71     		strb	r2, [r3, #4]
 6332 03ea E4E7     		b	.L452
 6333              	.L454:
3663:VS4210/keyremo.c **** 						BT[3] = 0;
 6334              		.loc 1 3663 7 is_stmt 1 view .LVU1710
3663:VS4210/keyremo.c **** 						BT[3] = 0;
 6335              		.loc 1 3663 13 is_stmt 0 view .LVU1711
 6336 03ec 614B     		ldr	r3, .L506
 6337 03ee 0022     		movs	r2, #0
 6338 03f0 1A71     		strb	r2, [r3, #4]
3664:VS4210/keyremo.c **** 						BT[2] = 0;
 6339              		.loc 1 3664 7 is_stmt 1 view .LVU1712
3664:VS4210/keyremo.c **** 						BT[2] = 0;
 6340              		.loc 1 3664 13 is_stmt 0 view .LVU1713
 6341 03f2 DA70     		strb	r2, [r3, #3]
3665:VS4210/keyremo.c **** 						BT[1] = 0;
 6342              		.loc 1 3665 7 is_stmt 1 view .LVU1714
3665:VS4210/keyremo.c **** 						BT[1] = 0;
 6343              		.loc 1 3665 13 is_stmt 0 view .LVU1715
 6344 03f4 9A70     		strb	r2, [r3, #2]
3666:VS4210/keyremo.c **** 					}
 6345              		.loc 1 3666 7 is_stmt 1 view .LVU1716
3666:VS4210/keyremo.c **** 					}
 6346              		.loc 1 3666 13 is_stmt 0 view .LVU1717
 6347 03f6 5A70     		strb	r2, [r3, #1]
 6348 03f8 DDE7     		b	.L452
 6349              	.L449:
3673:VS4210/keyremo.c **** 				{
 6350              		.loc 1 3673 10 is_stmt 1 view .LVU1718
3673:VS4210/keyremo.c **** 				{
 6351              		.loc 1 3673 13 is_stmt 0 view .LVU1719
 6352 03fa 6DB1     		cbz	r5, .L494
3680:VS4210/keyremo.c **** 				{
 6353              		.loc 1 3680 10 is_stmt 1 view .LVU1720
3680:VS4210/keyremo.c **** 				{
 6354              		.loc 1 3680 13 is_stmt 0 view .LVU1721
 6355 03fc 90B1     		cbz	r0, .L495
3687:VS4210/keyremo.c **** 				{
 6356              		.loc 1 3687 10 is_stmt 1 view .LVU1722
3687:VS4210/keyremo.c **** 				{
 6357              		.loc 1 3687 13 is_stmt 0 view .LVU1723
 6358 03fe B9B1     		cbz	r1, .L496
3694:VS4210/keyremo.c **** 				{
 6359              		.loc 1 3694 10 is_stmt 1 view .LVU1724
3694:VS4210/keyremo.c **** 				{
 6360              		.loc 1 3694 13 is_stmt 0 view .LVU1725
 6361 0400 E2B1     		cbz	r2, .L497
3701:VS4210/keyremo.c **** 				{
 6362              		.loc 1 3701 10 is_stmt 1 view .LVU1726
3701:VS4210/keyremo.c **** 				{
 6363              		.loc 1 3701 16 is_stmt 0 view .LVU1727
 6364 0402 5C4A     		ldr	r2, .L506
ARM GAS  C:\Users\ryanc.HS\AppData\Local\Temp\ccZ9UySd.s 			page 204


 6365 0404 1279     		ldrb	r2, [r2, #4]	@ zero_extendqisi2
3701:VS4210/keyremo.c **** 				{
 6366              		.loc 1 3701 13 view .LVU1728
 6367 0406 002A     		cmp	r2, #0
 6368 0408 7FF447AE 		bne	.L439
3703:VS4210/keyremo.c **** #ifdef Trigger_debug
 6369              		.loc 1 3703 6 is_stmt 1 view .LVU1729
3703:VS4210/keyremo.c **** #ifdef Trigger_debug
 6370              		.loc 1 3703 12 is_stmt 0 view .LVU1730
 6371 040c 594A     		ldr	r2, .L506
 6372 040e 1371     		strb	r3, [r2, #4]
3705:VS4210/keyremo.c **** #endif
 6373              		.loc 1 3705 6 is_stmt 1 view .LVU1731
 6374 0410 5E48     		ldr	r0, .L506+24
 6375 0412 FFF7FEFF 		bl	Printf
 6376              	.LVL565:
 6377 0416 40E6     		b	.L439
 6378              	.L494:
3675:VS4210/keyremo.c **** #ifdef Trigger_debug
 6379              		.loc 1 3675 6 view .LVU1732
3675:VS4210/keyremo.c **** #ifdef Trigger_debug
 6380              		.loc 1 3675 12 is_stmt 0 view .LVU1733
 6381 0418 564A     		ldr	r2, .L506
 6382 041a 1370     		strb	r3, [r2]
3677:VS4210/keyremo.c **** #endif
 6383              		.loc 1 3677 6 is_stmt 1 view .LVU1734
 6384 041c 5C48     		ldr	r0, .L506+28
 6385 041e FFF7FEFF 		bl	Printf
 6386              	.LVL566:
 6387 0422 3AE6     		b	.L439
 6388              	.L495:
3682:VS4210/keyremo.c **** #ifdef Trigger_debug
 6389              		.loc 1 3682 6 view .LVU1735
3682:VS4210/keyremo.c **** #ifdef Trigger_debug
 6390              		.loc 1 3682 12 is_stmt 0 view .LVU1736
 6391 0424 534A     		ldr	r2, .L506
 6392 0426 5370     		strb	r3, [r2, #1]
3684:VS4210/keyremo.c **** #endif
 6393              		.loc 1 3684 6 is_stmt 1 view .LVU1737
 6394 0428 5A48     		ldr	r0, .L506+32
 6395 042a FFF7FEFF 		bl	Printf
 6396              	.LVL567:
 6397 042e 34E6     		b	.L439
 6398              	.L496:
3689:VS4210/keyremo.c **** #ifdef Trigger_debug
 6399              		.loc 1 3689 6 view .LVU1738
3689:VS4210/keyremo.c **** #ifdef Trigger_debug
 6400              		.loc 1 3689 12 is_stmt 0 view .LVU1739
 6401 0430 504A     		ldr	r2, .L506
 6402 0432 9370     		strb	r3, [r2, #2]
3691:VS4210/keyremo.c **** #endif
 6403              		.loc 1 3691 6 is_stmt 1 view .LVU1740
 6404 0434 5848     		ldr	r0, .L506+36
 6405 0436 FFF7FEFF 		bl	Printf
 6406              	.LVL568:
 6407 043a 2EE6     		b	.L439
 6408              	.L497:
ARM GAS  C:\Users\ryanc.HS\AppData\Local\Temp\ccZ9UySd.s 			page 205


3696:VS4210/keyremo.c **** #ifdef Trigger_debug
 6409              		.loc 1 3696 6 view .LVU1741
3696:VS4210/keyremo.c **** #ifdef Trigger_debug
 6410              		.loc 1 3696 12 is_stmt 0 view .LVU1742
 6411 043c 4D4A     		ldr	r2, .L506
 6412 043e D370     		strb	r3, [r2, #3]
3698:VS4210/keyremo.c **** #endif
 6413              		.loc 1 3698 6 is_stmt 1 view .LVU1743
 6414 0440 5648     		ldr	r0, .L506+40
 6415 0442 FFF7FEFF 		bl	Printf
 6416              	.LVL569:
 6417 0446 28E6     		b	.L439
 6418              	.LVL570:
 6419              	.L498:
3716:VS4210/keyremo.c **** 							BT[1] = BT[2];
 6420              		.loc 1 3716 8 view .LVU1744
3716:VS4210/keyremo.c **** 							BT[1] = BT[2];
 6421              		.loc 1 3716 18 is_stmt 0 view .LVU1745
 6422 0448 5178     		ldrb	r1, [r2, #1]	@ zero_extendqisi2
3716:VS4210/keyremo.c **** 							BT[1] = BT[2];
 6423              		.loc 1 3716 14 view .LVU1746
 6424 044a 1170     		strb	r1, [r2]
3717:VS4210/keyremo.c **** 							BT[2] = BT[3];
 6425              		.loc 1 3717 8 is_stmt 1 view .LVU1747
3717:VS4210/keyremo.c **** 							BT[2] = BT[3];
 6426              		.loc 1 3717 18 is_stmt 0 view .LVU1748
 6427 044c 9178     		ldrb	r1, [r2, #2]	@ zero_extendqisi2
3717:VS4210/keyremo.c **** 							BT[2] = BT[3];
 6428              		.loc 1 3717 14 view .LVU1749
 6429 044e 5170     		strb	r1, [r2, #1]
3718:VS4210/keyremo.c **** 							BT[3] = BT[4];
 6430              		.loc 1 3718 8 is_stmt 1 view .LVU1750
3718:VS4210/keyremo.c **** 							BT[3] = BT[4];
 6431              		.loc 1 3718 18 is_stmt 0 view .LVU1751
 6432 0450 D178     		ldrb	r1, [r2, #3]	@ zero_extendqisi2
3718:VS4210/keyremo.c **** 							BT[3] = BT[4];
 6433              		.loc 1 3718 14 view .LVU1752
 6434 0452 9170     		strb	r1, [r2, #2]
3719:VS4210/keyremo.c **** 							BT[4] = 0;
 6435              		.loc 1 3719 8 is_stmt 1 view .LVU1753
3719:VS4210/keyremo.c **** 							BT[4] = 0;
 6436              		.loc 1 3719 18 is_stmt 0 view .LVU1754
 6437 0454 1179     		ldrb	r1, [r2, #4]	@ zero_extendqisi2
3719:VS4210/keyremo.c **** 							BT[4] = 0;
 6438              		.loc 1 3719 14 view .LVU1755
 6439 0456 D170     		strb	r1, [r2, #3]
3720:VS4210/keyremo.c **** 						}
 6440              		.loc 1 3720 8 is_stmt 1 view .LVU1756
3720:VS4210/keyremo.c **** 						}
 6441              		.loc 1 3720 14 is_stmt 0 view .LVU1757
 6442 0458 0021     		movs	r1, #0
 6443 045a 1171     		strb	r1, [r2, #4]
 6444              	.L459:
3709:VS4210/keyremo.c **** 					if ((BT[x] & TriggerFlag) == 0)
 6445              		.loc 1 3709 24 is_stmt 1 discriminator 2 view .LVU1758
3709:VS4210/keyremo.c **** 					if ((BT[x] & TriggerFlag) == 0)
 6446              		.loc 1 3709 25 is_stmt 0 discriminator 2 view .LVU1759
ARM GAS  C:\Users\ryanc.HS\AppData\Local\Temp\ccZ9UySd.s 			page 206


 6447 045c 0133     		adds	r3, r3, #1
 6448              	.LVL571:
3709:VS4210/keyremo.c **** 					if ((BT[x] & TriggerFlag) == 0)
 6449              		.loc 1 3709 25 discriminator 2 view .LVU1760
 6450 045e DBB2     		uxtb	r3, r3
 6451              	.LVL572:
 6452              	.L463:
3709:VS4210/keyremo.c **** 					if ((BT[x] & TriggerFlag) == 0)
 6453              		.loc 1 3709 17 is_stmt 1 discriminator 1 view .LVU1761
3709:VS4210/keyremo.c **** 					if ((BT[x] & TriggerFlag) == 0)
 6454              		.loc 1 3709 5 is_stmt 0 discriminator 1 view .LVU1762
 6455 0460 042B     		cmp	r3, #4
 6456 0462 3FF6D9AE 		bhi	.L434
3710:VS4210/keyremo.c **** 					{
 6457              		.loc 1 3710 6 is_stmt 1 view .LVU1763
3710:VS4210/keyremo.c **** 					{
 6458              		.loc 1 3710 13 is_stmt 0 view .LVU1764
 6459 0466 434A     		ldr	r2, .L506
 6460 0468 D15C     		ldrb	r1, [r2, r3]	@ zero_extendqisi2
3710:VS4210/keyremo.c **** 					{
 6461              		.loc 1 3710 32 view .LVU1765
 6462 046a 444A     		ldr	r2, .L506+8
 6463 046c 1278     		ldrb	r2, [r2]	@ zero_extendqisi2
3710:VS4210/keyremo.c **** 					{
 6464              		.loc 1 3710 9 view .LVU1766
 6465 046e 1142     		tst	r1, r2
 6466 0470 F4D1     		bne	.L459
3712:VS4210/keyremo.c **** 
 6467              		.loc 1 3712 7 is_stmt 1 view .LVU1767
3712:VS4210/keyremo.c **** 
 6468              		.loc 1 3712 13 is_stmt 0 view .LVU1768
 6469 0472 404A     		ldr	r2, .L506
 6470 0474 0021     		movs	r1, #0
 6471 0476 D154     		strb	r1, [r2, r3]
3714:VS4210/keyremo.c **** 						{
 6472              		.loc 1 3714 7 is_stmt 1 view .LVU1769
3714:VS4210/keyremo.c **** 						{
 6473              		.loc 1 3714 10 is_stmt 0 view .LVU1770
 6474 0478 002B     		cmp	r3, #0
 6475 047a E5D0     		beq	.L498
3722:VS4210/keyremo.c **** 						{
 6476              		.loc 1 3722 12 is_stmt 1 view .LVU1771
3722:VS4210/keyremo.c **** 						{
 6477              		.loc 1 3722 15 is_stmt 0 view .LVU1772
 6478 047c 012B     		cmp	r3, #1
 6479 047e 09D0     		beq	.L499
3729:VS4210/keyremo.c **** 						{
 6480              		.loc 1 3729 12 is_stmt 1 view .LVU1773
3729:VS4210/keyremo.c **** 						{
 6481              		.loc 1 3729 15 is_stmt 0 view .LVU1774
 6482 0480 022B     		cmp	r3, #2
 6483 0482 11D0     		beq	.L500
3735:VS4210/keyremo.c **** 						{
 6484              		.loc 1 3735 12 is_stmt 1 view .LVU1775
3735:VS4210/keyremo.c **** 						{
 6485              		.loc 1 3735 15 is_stmt 0 view .LVU1776
 6486 0484 032B     		cmp	r3, #3
ARM GAS  C:\Users\ryanc.HS\AppData\Local\Temp\ccZ9UySd.s 			page 207


 6487 0486 E9D1     		bne	.L459
3737:VS4210/keyremo.c **** 							BT[4] = 0;
 6488              		.loc 1 3737 8 is_stmt 1 view .LVU1777
3737:VS4210/keyremo.c **** 							BT[4] = 0;
 6489              		.loc 1 3737 18 is_stmt 0 view .LVU1778
 6490 0488 3A4A     		ldr	r2, .L506
 6491 048a 1179     		ldrb	r1, [r2, #4]	@ zero_extendqisi2
3737:VS4210/keyremo.c **** 							BT[4] = 0;
 6492              		.loc 1 3737 14 view .LVU1779
 6493 048c D170     		strb	r1, [r2, #3]
3738:VS4210/keyremo.c **** 						}
 6494              		.loc 1 3738 8 is_stmt 1 view .LVU1780
3738:VS4210/keyremo.c **** 						}
 6495              		.loc 1 3738 14 is_stmt 0 view .LVU1781
 6496 048e 0021     		movs	r1, #0
 6497 0490 1171     		strb	r1, [r2, #4]
 6498 0492 E3E7     		b	.L459
 6499              	.L499:
3724:VS4210/keyremo.c **** 							BT[2] = BT[3];
 6500              		.loc 1 3724 8 is_stmt 1 view .LVU1782
3724:VS4210/keyremo.c **** 							BT[2] = BT[3];
 6501              		.loc 1 3724 18 is_stmt 0 view .LVU1783
 6502 0494 374A     		ldr	r2, .L506
 6503 0496 9178     		ldrb	r1, [r2, #2]	@ zero_extendqisi2
3724:VS4210/keyremo.c **** 							BT[2] = BT[3];
 6504              		.loc 1 3724 14 view .LVU1784
 6505 0498 5170     		strb	r1, [r2, #1]
3725:VS4210/keyremo.c **** 							BT[3] = BT[4];
 6506              		.loc 1 3725 8 is_stmt 1 view .LVU1785
3725:VS4210/keyremo.c **** 							BT[3] = BT[4];
 6507              		.loc 1 3725 18 is_stmt 0 view .LVU1786
 6508 049a D178     		ldrb	r1, [r2, #3]	@ zero_extendqisi2
3725:VS4210/keyremo.c **** 							BT[3] = BT[4];
 6509              		.loc 1 3725 14 view .LVU1787
 6510 049c 9170     		strb	r1, [r2, #2]
3726:VS4210/keyremo.c **** 							BT[4] = 0;
 6511              		.loc 1 3726 8 is_stmt 1 view .LVU1788
3726:VS4210/keyremo.c **** 							BT[4] = 0;
 6512              		.loc 1 3726 18 is_stmt 0 view .LVU1789
 6513 049e 1179     		ldrb	r1, [r2, #4]	@ zero_extendqisi2
3726:VS4210/keyremo.c **** 							BT[4] = 0;
 6514              		.loc 1 3726 14 view .LVU1790
 6515 04a0 D170     		strb	r1, [r2, #3]
3727:VS4210/keyremo.c **** 						}
 6516              		.loc 1 3727 8 is_stmt 1 view .LVU1791
3727:VS4210/keyremo.c **** 						}
 6517              		.loc 1 3727 14 is_stmt 0 view .LVU1792
 6518 04a2 0021     		movs	r1, #0
 6519 04a4 1171     		strb	r1, [r2, #4]
 6520 04a6 D9E7     		b	.L459
 6521              	.L500:
3731:VS4210/keyremo.c **** 							BT[3] = BT[4];
 6522              		.loc 1 3731 8 is_stmt 1 view .LVU1793
3731:VS4210/keyremo.c **** 							BT[3] = BT[4];
 6523              		.loc 1 3731 18 is_stmt 0 view .LVU1794
 6524 04a8 324A     		ldr	r2, .L506
 6525 04aa D178     		ldrb	r1, [r2, #3]	@ zero_extendqisi2
ARM GAS  C:\Users\ryanc.HS\AppData\Local\Temp\ccZ9UySd.s 			page 208


3731:VS4210/keyremo.c **** 							BT[3] = BT[4];
 6526              		.loc 1 3731 14 view .LVU1795
 6527 04ac 9170     		strb	r1, [r2, #2]
3732:VS4210/keyremo.c **** 							BT[4] = 0;
 6528              		.loc 1 3732 8 is_stmt 1 view .LVU1796
3732:VS4210/keyremo.c **** 							BT[4] = 0;
 6529              		.loc 1 3732 18 is_stmt 0 view .LVU1797
 6530 04ae 1179     		ldrb	r1, [r2, #4]	@ zero_extendqisi2
3732:VS4210/keyremo.c **** 							BT[4] = 0;
 6531              		.loc 1 3732 14 view .LVU1798
 6532 04b0 D170     		strb	r1, [r2, #3]
3733:VS4210/keyremo.c **** 						}
 6533              		.loc 1 3733 8 is_stmt 1 view .LVU1799
3733:VS4210/keyremo.c **** 						}
 6534              		.loc 1 3733 14 is_stmt 0 view .LVU1800
 6535 04b2 0021     		movs	r1, #0
 6536 04b4 1171     		strb	r1, [r2, #4]
 6537 04b6 D1E7     		b	.L459
 6538              	.LVL573:
 6539              	.L492:
3750:VS4210/keyremo.c **** 					temp = ~(GET_PCA9554PW(PCA9554PW_reg0)) & (LEFT_T | Right_T | PARK_T | REVERSE_T | CAM_D_T);
 6540              		.loc 1 3750 6 is_stmt 1 view .LVU1801
 6541 04b8 3220     		movs	r0, #50
 6542 04ba FFF7FEFF 		bl	msleep
 6543              	.LVL574:
3751:VS4210/keyremo.c **** 
 6544              		.loc 1 3751 6 view .LVU1802
3751:VS4210/keyremo.c **** 
 6545              		.loc 1 3751 15 is_stmt 0 view .LVU1803
 6546 04be 0020     		movs	r0, #0
 6547 04c0 FFF7FEFF 		bl	GET_PCA9554PW
 6548              	.LVL575:
3751:VS4210/keyremo.c **** 
 6549              		.loc 1 3751 46 view .LVU1804
 6550 04c4 C043     		mvns	r0, r0
 6551 04c6 C5B2     		uxtb	r5, r0
3751:VS4210/keyremo.c **** 
 6552              		.loc 1 3751 11 view .LVU1805
 6553 04c8 00F08F06 		and	r6, r0, #143
 6554              	.LVL576:
3753:VS4210/keyremo.c **** 
 6555              		.loc 1 3753 6 is_stmt 1 view .LVU1806
3753:VS4210/keyremo.c **** 
 6556              		.loc 1 3753 18 is_stmt 0 view .LVU1807
 6557 04cc 2B4B     		ldr	r3, .L506+8
 6558 04ce 0022     		movs	r2, #0
 6559 04d0 1A70     		strb	r2, [r3]
3756:VS4210/keyremo.c **** 					{
 6560              		.loc 1 3756 6 is_stmt 1 view .LVU1808
3756:VS4210/keyremo.c **** 					{
 6561              		.loc 1 3756 9 is_stmt 0 view .LVU1809
 6562 04d2 10F0010F 		tst	r0, #1
 6563 04d6 12D1     		bne	.L501
 6564              	.L467:
3765:VS4210/keyremo.c **** 					{
 6565              		.loc 1 3765 6 is_stmt 1 view .LVU1810
3765:VS4210/keyremo.c **** 					{
ARM GAS  C:\Users\ryanc.HS\AppData\Local\Temp\ccZ9UySd.s 			page 209


 6566              		.loc 1 3765 9 is_stmt 0 view .LVU1811
 6567 04d8 15F0020F 		tst	r5, #2
 6568 04dc 18D1     		bne	.L502
 6569              	.L468:
3772:VS4210/keyremo.c **** 					{
 6570              		.loc 1 3772 6 is_stmt 1 view .LVU1812
3772:VS4210/keyremo.c **** 					{
 6571              		.loc 1 3772 9 is_stmt 0 view .LVU1813
 6572 04de 15F0040F 		tst	r5, #4
 6573 04e2 1ED1     		bne	.L503
 6574              	.L469:
3780:VS4210/keyremo.c **** 					{
 6575              		.loc 1 3780 6 is_stmt 1 view .LVU1814
3780:VS4210/keyremo.c **** 					{
 6576              		.loc 1 3780 9 is_stmt 0 view .LVU1815
 6577 04e4 16F0800F 		tst	r6, #128
 6578 04e8 3FF4A2AE 		beq	.L466
3782:VS4210/keyremo.c **** 						if ((temp & CAM_D_T) == CAM_D_T)
 6579              		.loc 1 3782 7 is_stmt 1 view .LVU1816
 6580 04ec 0220     		movs	r0, #2
 6581 04ee FFF7FEFF 		bl	msleep
 6582              	.LVL577:
3783:VS4210/keyremo.c **** 							TriggerFlag = TriggerFlag | CAM_D_T;
 6583              		.loc 1 3783 7 view .LVU1817
3784:VS4210/keyremo.c **** 					}
 6584              		.loc 1 3784 8 view .LVU1818
3784:VS4210/keyremo.c **** 					}
 6585              		.loc 1 3784 20 is_stmt 0 view .LVU1819
 6586 04f2 224A     		ldr	r2, .L506+8
 6587 04f4 1378     		ldrb	r3, [r2]	@ zero_extendqisi2
 6588 04f6 63F07F03 		orn	r3, r3, #127
 6589 04fa 1370     		strb	r3, [r2]
 6590 04fc 98E6     		b	.L466
 6591              	.L501:
3759:VS4210/keyremo.c **** 						if ((temp & LEFT_T) == LEFT_T)
 6592              		.loc 1 3759 7 is_stmt 1 view .LVU1820
 6593 04fe 0220     		movs	r0, #2
 6594 0500 FFF7FEFF 		bl	msleep
 6595              	.LVL578:
3760:VS4210/keyremo.c **** 							TriggerFlag = TriggerFlag | LEFT_T;
 6596              		.loc 1 3760 7 view .LVU1821
3761:VS4210/keyremo.c **** 					}
 6597              		.loc 1 3761 8 view .LVU1822
3761:VS4210/keyremo.c **** 					}
 6598              		.loc 1 3761 20 is_stmt 0 view .LVU1823
 6599 0504 1D4A     		ldr	r2, .L506+8
 6600 0506 1378     		ldrb	r3, [r2]	@ zero_extendqisi2
 6601 0508 43F00103 		orr	r3, r3, #1
 6602 050c 1370     		strb	r3, [r2]
 6603 050e E3E7     		b	.L467
 6604              	.L502:
3767:VS4210/keyremo.c **** 						if ((temp & Right_T) == Right_T)
 6605              		.loc 1 3767 7 is_stmt 1 view .LVU1824
 6606 0510 0220     		movs	r0, #2
 6607 0512 FFF7FEFF 		bl	msleep
 6608              	.LVL579:
3768:VS4210/keyremo.c **** 							TriggerFlag = TriggerFlag | Right_T;
ARM GAS  C:\Users\ryanc.HS\AppData\Local\Temp\ccZ9UySd.s 			page 210


 6609              		.loc 1 3768 7 view .LVU1825
3769:VS4210/keyremo.c **** 					}
 6610              		.loc 1 3769 8 view .LVU1826
3769:VS4210/keyremo.c **** 					}
 6611              		.loc 1 3769 20 is_stmt 0 view .LVU1827
 6612 0516 194A     		ldr	r2, .L506+8
 6613 0518 1378     		ldrb	r3, [r2]	@ zero_extendqisi2
 6614 051a 43F00203 		orr	r3, r3, #2
 6615 051e 1370     		strb	r3, [r2]
 6616 0520 DDE7     		b	.L468
 6617              	.L503:
3774:VS4210/keyremo.c **** 						if ((temp & PARK_T) == PARK_T)
 6618              		.loc 1 3774 7 is_stmt 1 view .LVU1828
 6619 0522 0220     		movs	r0, #2
 6620 0524 FFF7FEFF 		bl	msleep
 6621              	.LVL580:
3775:VS4210/keyremo.c **** 							TriggerFlag = TriggerFlag | PARK_T;
 6622              		.loc 1 3775 7 view .LVU1829
3776:VS4210/keyremo.c **** 					}
 6623              		.loc 1 3776 8 view .LVU1830
3776:VS4210/keyremo.c **** 					}
 6624              		.loc 1 3776 20 is_stmt 0 view .LVU1831
 6625 0528 144A     		ldr	r2, .L506+8
 6626 052a 1378     		ldrb	r3, [r2]	@ zero_extendqisi2
 6627 052c 43F00403 		orr	r3, r3, #4
 6628 0530 1370     		strb	r3, [r2]
 6629 0532 D7E7     		b	.L469
 6630              	.LVL581:
 6631              	.L471:
3803:VS4210/keyremo.c **** 				{
 6632              		.loc 1 3803 10 is_stmt 1 view .LVU1832
3803:VS4210/keyremo.c **** 				{
 6633              		.loc 1 3803 19 is_stmt 0 view .LVU1833
 6634 0534 1A4B     		ldr	r3, .L506+44
 6635              	.LVL582:
3803:VS4210/keyremo.c **** 				{
 6636              		.loc 1 3803 19 view .LVU1834
 6637 0536 1B78     		ldrb	r3, [r3]	@ zero_extendqisi2
3803:VS4210/keyremo.c **** 				{
 6638              		.loc 1 3803 13 view .LVU1835
 6639 0538 012B     		cmp	r3, #1
 6640 053a 3FF488AE 		beq	.L465
3807:VS4210/keyremo.c **** 				{
 6641              		.loc 1 3807 10 is_stmt 1 view .LVU1836
3807:VS4210/keyremo.c **** 				{
 6642              		.loc 1 3807 68 is_stmt 0 view .LVU1837
 6643 053e 531F     		subs	r3, r2, #5
 6644 0540 DBB2     		uxtb	r3, r3
3807:VS4210/keyremo.c **** 				{
 6645              		.loc 1 3807 13 view .LVU1838
 6646 0542 022B     		cmp	r3, #2
 6647 0544 02D9     		bls	.L472
3807:VS4210/keyremo.c **** 				{
 6648              		.loc 1 3807 106 discriminator 1 view .LVU1839
 6649 0546 032A     		cmp	r2, #3
 6650 0548 00D0     		beq	.L472
3807:VS4210/keyremo.c **** 				{
ARM GAS  C:\Users\ryanc.HS\AppData\Local\Temp\ccZ9UySd.s 			page 211


 6651              		.loc 1 3807 135 discriminator 2 view .LVU1840
 6652 054a 1AB9     		cbnz	r2, .L473
 6653              	.L472:
3809:VS4210/keyremo.c **** 				}
 6654              		.loc 1 3809 6 is_stmt 1 view .LVU1841
3809:VS4210/keyremo.c **** 				}
 6655              		.loc 1 3809 10 is_stmt 0 view .LVU1842
 6656 054c 154B     		ldr	r3, .L506+48
 6657 054e 0022     		movs	r2, #0
 6658 0550 1A70     		strb	r2, [r3]
 6659 0552 7CE6     		b	.L465
 6660              	.L473:
3813:VS4210/keyremo.c **** 					POT = PT;
 6661              		.loc 1 3813 6 is_stmt 1 view .LVU1843
3813:VS4210/keyremo.c **** 					POT = PT;
 6662              		.loc 1 3813 11 is_stmt 0 view .LVU1844
 6663 0554 124B     		ldr	r3, .L506+44
 6664 0556 0122     		movs	r2, #1
 6665 0558 1A70     		strb	r2, [r3]
3814:VS4210/keyremo.c **** 				}
 6666              		.loc 1 3814 6 is_stmt 1 view .LVU1845
3814:VS4210/keyremo.c **** 				}
 6667              		.loc 1 3814 10 is_stmt 0 view .LVU1846
 6668 055a 074B     		ldr	r3, .L506+4
 6669 055c 1A78     		ldrb	r2, [r3]	@ zero_extendqisi2
 6670 055e 114B     		ldr	r3, .L506+48
 6671 0560 1A70     		strb	r2, [r3]
 6672 0562 74E6     		b	.L465
 6673              	.LVL583:
 6674              	.L493:
3829:VS4210/keyremo.c **** 	}
 6675              		.loc 1 3829 3 is_stmt 1 view .LVU1847
3829:VS4210/keyremo.c **** 	}
 6676              		.loc 1 3829 10 is_stmt 0 view .LVU1848
 6677 0564 054B     		ldr	r3, .L506+8
 6678 0566 1C78     		ldrb	r4, [r3]	@ zero_extendqisi2
 6679              	.LVL584:
3829:VS4210/keyremo.c **** 	}
 6680              		.loc 1 3829 10 view .LVU1849
 6681 0568 01E0     		b	.L429
 6682              	.LVL585:
 6683              	.L475:
3833:VS4210/keyremo.c **** 	else
3834:VS4210/keyremo.c **** 	{
3835:VS4210/keyremo.c **** 		// if(POT==0x20)
3836:VS4210/keyremo.c **** 		//	{
3837:VS4210/keyremo.c **** 		//	POT=0;
3838:VS4210/keyremo.c **** 		//	return 0x20;
3839:VS4210/keyremo.c **** 		//	}
3840:VS4210/keyremo.c **** 		// else
3841:VS4210/keyremo.c **** 		return PT;
 6684              		.loc 1 3841 3 is_stmt 1 view .LVU1850
 6685              		.loc 1 3841 10 is_stmt 0 view .LVU1851
 6686 056a 034B     		ldr	r3, .L506+4
 6687 056c 1C78     		ldrb	r4, [r3]	@ zero_extendqisi2
 6688              	.LVL586:
 6689              	.L429:
ARM GAS  C:\Users\ryanc.HS\AppData\Local\Temp\ccZ9UySd.s 			page 212


3842:VS4210/keyremo.c **** 	}
3843:VS4210/keyremo.c **** 
3844:VS4210/keyremo.c **** #endif
3845:VS4210/keyremo.c **** }
 6690              		.loc 1 3845 1 view .LVU1852
 6691 056e 2046     		mov	r0, r4
 6692 0570 02B0     		add	sp, sp, #8
 6693              	.LCFI23:
 6694              		.cfi_def_cfa_offset 16
 6695              		@ sp needed
 6696 0572 70BD     		pop	{r4, r5, r6, pc}
 6697              	.L507:
 6698              		.align	2
 6699              	.L506:
 6700 0574 00000000 		.word	.LANCHOR30
 6701 0578 00000000 		.word	.LANCHOR29
 6702 057c 00000000 		.word	.LANCHOR8
 6703 0580 5C000000 		.word	.LC50
 6704 0584 64000000 		.word	.LC51
 6705 0588 6C000000 		.word	.LC52
 6706 058c 94000000 		.word	.LC57
 6707 0590 74000000 		.word	.LC53
 6708 0594 7C000000 		.word	.LC54
 6709 0598 84000000 		.word	.LC55
 6710 059c 8C000000 		.word	.LC56
 6711 05a0 00000000 		.word	.LANCHOR31
 6712 05a4 00000000 		.word	.LANCHOR32
 6713              		.cfi_endproc
 6714              	.LFE93:
 6716              		.section	.rodata.TriggerHandler.str1.4,"aMS",%progbits,1
 6717              		.align	2
 6718              	.LC59:
 6719 0000 0D0A5245 		.ascii	"\015\012REVERSE_TRIG\000"
 6719      56455253 
 6719      455F5452 
 6719      494700
 6720 000f 00       		.align	2
 6721              	.LC60:
 6722 0010 0D0A4C45 		.ascii	"\015\012LEFT_TRIG\000"
 6722      46545F54 
 6722      52494700 
 6723              		.align	2
 6724              	.LC61:
 6725 001c 0D0A5249 		.ascii	"\015\012RIGHT_TRIG\000"
 6725      4748545F 
 6725      54524947 
 6725      00
 6726 0029 000000   		.align	2
 6727              	.LC62:
 6728 002c 0D0A4341 		.ascii	"\015\012CAMC_TRIG\000"
 6728      4D435F54 
 6728      52494700 
 6729              		.align	2
 6730              	.LC63:
 6731 0038 0D0A4341 		.ascii	"\015\012CAMD_TRIG\000"
 6731      4D445F54 
 6731      52494700 
ARM GAS  C:\Users\ryanc.HS\AppData\Local\Temp\ccZ9UySd.s 			page 213


 6732              		.align	2
 6733              	.LC64:
 6734 0044 0D0A4E6F 		.ascii	"\015\012No_TRIG\015\012\000"
 6734      5F545249 
 6734      470D0A00 
 6735              		.section	.text.TriggerHandler,"ax",%progbits
 6736              		.align	1
 6737              		.global	TriggerHandler
 6738              		.syntax unified
 6739              		.thumb
 6740              		.thumb_func
 6741              		.fpu softvfp
 6743              	TriggerHandler:
 6744              	.LVL587:
 6745              	.LFB94:
3846:VS4210/keyremo.c **** 
3847:VS4210/keyremo.c **** void TriggerHandler(BYTE T_Flag)
3848:VS4210/keyremo.c **** {
 6746              		.loc 1 3848 1 is_stmt 1 view -0
 6747              		.cfi_startproc
 6748              		@ args = 0, pretend = 0, frame = 0
 6749              		@ frame_needed = 0, uses_anonymous_args = 0
 6750              		.loc 1 3848 1 is_stmt 0 view .LVU1854
 6751 0000 10B5     		push	{r4, lr}
 6752              	.LCFI24:
 6753              		.cfi_def_cfa_offset 8
 6754              		.cfi_offset 4, -8
 6755              		.cfi_offset 14, -4
3849:VS4210/keyremo.c **** 
3850:VS4210/keyremo.c **** 	BYTE ReverseMask, LeftMask, RightMask, CamCMask;
 6756              		.loc 1 3850 2 is_stmt 1 view .LVU1855
3851:VS4210/keyremo.c **** 	BYTE delay;
 6757              		.loc 1 3851 2 view .LVU1856
3852:VS4210/keyremo.c **** 
3853:VS4210/keyremo.c **** 	ReverseMask = 0x00;
 6758              		.loc 1 3853 2 view .LVU1857
 6759              	.LVL588:
3854:VS4210/keyremo.c **** 	LeftMask = 0x00;
 6760              		.loc 1 3854 2 view .LVU1858
3855:VS4210/keyremo.c **** 	RightMask = 0x00;
 6761              		.loc 1 3855 2 view .LVU1859
3856:VS4210/keyremo.c **** 	CamCMask = 0x00; // 0xEA;
 6762              		.loc 1 3856 2 view .LVU1860
3857:VS4210/keyremo.c **** 	// CamDMask=0xE8;//0xEC;
3858:VS4210/keyremo.c **** 	//	VGAMask=0x20;//0xE6;
3859:VS4210/keyremo.c **** 
3860:VS4210/keyremo.c **** 	/*
3861:VS4210/keyremo.c **** 	#if (defined AWT_ML072Q) || (defined AWT_ML072S) || (defined SUPPORT_ML84TQ_TRIGGER_DELAY)  //Pinc
3862:VS4210/keyremo.c **** 		BYTE i;
3863:VS4210/keyremo.c **** 	#endif
3864:VS4210/keyremo.c **** 		BYTE ReverseMask,LeftMask,RightMask,CamCMask,CamDMask,VGAMask;
3865:VS4210/keyremo.c **** 	//#ifdef HTRV  //Pinchi 20150908 change condition for HTRV  //Pinchi 20140918 add for AWT ML072Q
3866:VS4210/keyremo.c **** 	#ifdef  SUPPORT_ML84TQ_TRIGGER_DELAY  //Pinchi 20150825 add for function define
3867:VS4210/keyremo.c **** 		BYTE delaytrigger,j;
3868:VS4210/keyremo.c **** 	#endif
3869:VS4210/keyremo.c **** 
3870:VS4210/keyremo.c **** 	#ifdef  AWT_ADD_TRIGGER_DELAY_FUN  //ryan@20170907
ARM GAS  C:\Users\ryanc.HS\AppData\Local\Temp\ccZ9UySd.s 			page 214


3871:VS4210/keyremo.c **** 		BYTE delaytrigger,j;
3872:VS4210/keyremo.c **** 	#endif
3873:VS4210/keyremo.c **** 	*/
3874:VS4210/keyremo.c **** 
3875:VS4210/keyremo.c **** 	/*
3876:VS4210/keyremo.c **** 	#ifdef TW8816
3877:VS4210/keyremo.c **** 
3878:VS4210/keyremo.c **** 		if(Priority==0)
3879:VS4210/keyremo.c **** 		{///priority on
3880:VS4210/keyremo.c **** 			ReverseMask=0x00;
3881:VS4210/keyremo.c **** 			LeftMask=0x00;
3882:VS4210/keyremo.c **** 			RightMask=0x00;
3883:VS4210/keyremo.c **** 			CamCMask=0x00;//0xEA;
3884:VS4210/keyremo.c **** 			CamDMask=0xE8;//0xEC;
3885:VS4210/keyremo.c **** 			VGAMask=0x20;//0xE6;
3886:VS4210/keyremo.c **** 		}
3887:VS4210/keyremo.c **** 		else
3888:VS4210/keyremo.c **** 		{
3889:VS4210/keyremo.c **** 			///priority off
3890:VS4210/keyremo.c **** 			ReverseMask=0x00;
3891:VS4210/keyremo.c **** 			LeftMask=0x00;
3892:VS4210/keyremo.c **** 			RightMask=0x00;
3893:VS4210/keyremo.c **** 			CamCMask=0x00;//0xCA;
3894:VS4210/keyremo.c **** 
3895:VS4210/keyremo.c **** 			CamDMask=0xC4;//0xCC;
3896:VS4210/keyremo.c **** 			VGAMask=0xC6;
3897:VS4210/keyremo.c **** 		}
3898:VS4210/keyremo.c **** 	#else
3899:VS4210/keyremo.c **** 		if(Priority==0)
3900:VS4210/keyremo.c **** 		{
3901:VS4210/keyremo.c **** 			ReverseMask=0x00;
3902:VS4210/keyremo.c **** 			LeftMask=0x66;
3903:VS4210/keyremo.c **** 			RightMask=0xA6;
3904:VS4210/keyremo.c **** 			CamCMask=0xE4;//0xEA;
3905:VS4210/keyremo.c **** 			CamDMask=0xE8;//0xEC;
3906:VS4210/keyremo.c **** 			VGAMask=0x20;//0xE6;
3907:VS4210/keyremo.c **** 		}
3908:VS4210/keyremo.c **** 		else
3909:VS4210/keyremo.c **** 		{
3910:VS4210/keyremo.c **** 			ReverseMask=0xC0;
3911:VS4210/keyremo.c **** 			LeftMask=0x40;
3912:VS4210/keyremo.c **** 			RightMask=0x80;
3913:VS4210/keyremo.c **** 			CamCMask=0xC2;//0xCA;
3914:VS4210/keyremo.c **** 			CamDMask=0xC4;//0xCC;
3915:VS4210/keyremo.c **** 			VGAMask=0xC6;
3916:VS4210/keyremo.c **** 		}
3917:VS4210/keyremo.c **** 	#endif
3918:VS4210/keyremo.c **** 	*/
3919:VS4210/keyremo.c **** 
3920:VS4210/keyremo.c **** 	if ((T_Flag & REVERSE_T) != 0 && (T_Flag & ReverseMask) == 0) // RearMode
 6763              		.loc 1 3920 2 view .LVU1861
 6764              		.loc 1 3920 5 is_stmt 0 view .LVU1862
 6765 0002 10F0080F 		tst	r0, #8
 6766 0006 22D1     		bne	.L533
3921:VS4210/keyremo.c **** 	{
3922:VS4210/keyremo.c **** 		if (TriggerMode != REVERSE_TRIG)
3923:VS4210/keyremo.c **** 		{
ARM GAS  C:\Users\ryanc.HS\AppData\Local\Temp\ccZ9UySd.s 			page 215


3924:VS4210/keyremo.c **** #if 0 // def SUPPORT_TRIGGER_EXIT_MENU  //Pinchi 20150827 add
3925:VS4210/keyremo.c **** #if 0 // Pinchi 20151209 disable //def HTRV  //Pinchi 20150831 add
3926:VS4210/keyremo.c ****             if (GaugeSetup || (GetDisplayedOSD() & MENU))
3927:VS4210/keyremo.c **** #else
3928:VS4210/keyremo.c ****             if (GetDisplayedOSD() & MENU)
3929:VS4210/keyremo.c **** #endif
3930:VS4210/keyremo.c ****             {
3931:VS4210/keyremo.c ****                 ClearOSDInfo();
3932:VS4210/keyremo.c ****                 InitOSDMenu();
3933:VS4210/keyremo.c ****                 Change_OSDColorLookup();
3934:VS4210/keyremo.c **** #if 0 // Pinchi 20151209 disable //def HTRV  //Pinchi 20150831 add
3935:VS4210/keyremo.c ****                 GaugeSetup = 0;
3936:VS4210/keyremo.c **** #endif
3937:VS4210/keyremo.c ****             }
3938:VS4210/keyremo.c **** #endif
3939:VS4210/keyremo.c **** #if 0 /// def SUPPORT_AC_ON_REDUCE_TIME  //Pinchi 20150903 add
3940:VS4210/keyremo.c **** 			if (IsFirstRunfromAC == 1)
3941:VS4210/keyremo.c **** 			{
3942:VS4210/keyremo.c **** 				IsFirstRunfromAC = 0;
3943:VS4210/keyremo.c **** 			//	Printf("\r\n[MSG]TriggerHandler() => AC On 1st time do CAM Trigger"); //pinchi test
3944:VS4210/keyremo.c **** 			}
3945:VS4210/keyremo.c **** #endif
3946:VS4210/keyremo.c **** 			TriggerStatus = 4;
3947:VS4210/keyremo.c **** 			Printf("\r\nREVERSE_TRIG", 0);
3948:VS4210/keyremo.c **** 			TriggerMode = REVERSE_TRIG;
3949:VS4210/keyremo.c **** 			if (GetDisplayedOSD() & (MENU | TVVOL))
3950:VS4210/keyremo.c **** 				CloseOSDMenu();
3951:VS4210/keyremo.c **** 			MCUTimerCancelTimerEvent(_USER_TIMER_EVENT_OSD_DISABLE);
3952:VS4210/keyremo.c **** 
3953:VS4210/keyremo.c **** 			SetRearSource();
3954:VS4210/keyremo.c **** 
3955:VS4210/keyremo.c **** 			MCUTimerCancelTimerEvent(_SYSTEM_TIMER_EVENT_TRIGGER_DELAY_RELEASE);
3956:VS4210/keyremo.c **** 			MCUTimerCancelTimerEvent(_SYSTEM_TIMER_EVENT_AUTO_SLEEPING_TIMEOUT);
3957:VS4210/keyremo.c **** 			MCUTimerCancelTimerEvent(_USER_TIMER_EVENT_SEQ_CHECK);
3958:VS4210/keyremo.c **** 			MCUTimerCancelTimerEvent(_USER_TIMER_EVENT_DISPLAY_DISABLE);
3959:VS4210/keyremo.c **** 		}
3960:VS4210/keyremo.c **** 
3961:VS4210/keyremo.c **** 		return;
3962:VS4210/keyremo.c **** 	}
3963:VS4210/keyremo.c **** 
3964:VS4210/keyremo.c **** 	if ((T_Flag & LEFT_T) != 0 && (T_Flag & LeftMask) == 0)
 6767              		.loc 1 3964 2 is_stmt 1 view .LVU1863
 6768              		.loc 1 3964 5 is_stmt 0 view .LVU1864
 6769 0008 10F0010F 		tst	r0, #1
 6770 000c 48D1     		bne	.L534
3965:VS4210/keyremo.c **** 	{
3966:VS4210/keyremo.c **** 		if (TriggerMode != LEFT_TRIG)
3967:VS4210/keyremo.c **** 		{
3968:VS4210/keyremo.c **** #if 0 /// def SUPPORT_TRIGGER_EXIT_MENU  //Pinchi 20150827 add
3969:VS4210/keyremo.c **** #if 0 // Pinchi 20151209 disable //def HTRV  //Pinchi 20150831 add
3970:VS4210/keyremo.c ****             if (GaugeSetup || (GetDisplayedOSD() & MENU))
3971:VS4210/keyremo.c **** #else
3972:VS4210/keyremo.c ****             if (GetDisplayedOSD() & MENU)
3973:VS4210/keyremo.c **** #endif
3974:VS4210/keyremo.c ****             {
3975:VS4210/keyremo.c ****                 ClearOSDInfo();
3976:VS4210/keyremo.c ****                 InitOSDMenu();
ARM GAS  C:\Users\ryanc.HS\AppData\Local\Temp\ccZ9UySd.s 			page 216


3977:VS4210/keyremo.c ****                 Change_OSDColorLookup();
3978:VS4210/keyremo.c **** #if 0 // Pinchi 20151209 disable //def HTRV  //Pinchi 20150831 add
3979:VS4210/keyremo.c ****                 GaugeSetup = 0;
3980:VS4210/keyremo.c **** #endif
3981:VS4210/keyremo.c ****             }
3982:VS4210/keyremo.c **** #endif
3983:VS4210/keyremo.c **** 
3984:VS4210/keyremo.c **** #if 0 /// def SUPPORT_AC_ON_REDUCE_TIME  //Pinchi 20150903 add
3985:VS4210/keyremo.c **** 			if (IsFirstRunfromAC == 1)
3986:VS4210/keyremo.c **** 			{
3987:VS4210/keyremo.c **** 				IsFirstRunfromAC = 0;
3988:VS4210/keyremo.c **** 			//	Printf("\r\n[MSG]TriggerHandler() => AC On 1st time do CAM Trigger"); //pinchi test
3989:VS4210/keyremo.c **** 			}
3990:VS4210/keyremo.c **** #endif
3991:VS4210/keyremo.c **** 
3992:VS4210/keyremo.c **** 			Printf("\r\nLEFT_TRIG", 0);
3993:VS4210/keyremo.c **** 			//   ClearGAUGEINFO();
3994:VS4210/keyremo.c **** 			TriggerMode = LEFT_TRIG;
3995:VS4210/keyremo.c **** 			TriggerStatus = 1;
3996:VS4210/keyremo.c **** 			if (GetDisplayedOSD() & (MENU | TVVOL))
3997:VS4210/keyremo.c **** 				CloseOSDMenu();
3998:VS4210/keyremo.c **** 			MCUTimerCancelTimerEvent(_USER_TIMER_EVENT_OSD_DISABLE);
3999:VS4210/keyremo.c **** 
4000:VS4210/keyremo.c **** 			SetLeftSource();
4001:VS4210/keyremo.c **** 
4002:VS4210/keyremo.c **** 			MCUTimerCancelTimerEvent(_SYSTEM_TIMER_EVENT_TRIGGER_DELAY_RELEASE);
4003:VS4210/keyremo.c **** 			MCUTimerCancelTimerEvent(_SYSTEM_TIMER_EVENT_AUTO_SLEEPING_TIMEOUT);
4004:VS4210/keyremo.c **** 			MCUTimerCancelTimerEvent(_USER_TIMER_EVENT_SEQ_CHECK);
4005:VS4210/keyremo.c **** 			MCUTimerCancelTimerEvent(_USER_TIMER_EVENT_DISPLAY_DISABLE);
4006:VS4210/keyremo.c **** 		}
4007:VS4210/keyremo.c **** 		return;
4008:VS4210/keyremo.c **** 	}
4009:VS4210/keyremo.c **** 
4010:VS4210/keyremo.c **** 	if ((T_Flag & Right_T) != 0 && (T_Flag & RightMask) == 0)
 6771              		.loc 1 4010 2 is_stmt 1 view .LVU1865
 6772              		.loc 1 4010 5 is_stmt 0 view .LVU1866
 6773 000e 10F0020F 		tst	r0, #2
 6774 0012 6DD1     		bne	.L535
4011:VS4210/keyremo.c **** 	{
4012:VS4210/keyremo.c **** 		if (TriggerMode != RIGHT_TRIG)
4013:VS4210/keyremo.c **** 		{
4014:VS4210/keyremo.c **** #if 0 /// def SUPPORT_TRIGGER_EXIT_MENU  //Pinchi 20150827 add
4015:VS4210/keyremo.c **** #if 0 // Pinchi 20151209 disable //def HTRV  //Pinchi 20150831 add
4016:VS4210/keyremo.c ****             if (GaugeSetup || (GetDisplayedOSD() & MENU))
4017:VS4210/keyremo.c **** #else
4018:VS4210/keyremo.c ****             if (GetDisplayedOSD() & MENU)
4019:VS4210/keyremo.c **** #endif
4020:VS4210/keyremo.c ****             {
4021:VS4210/keyremo.c ****                 ClearOSDInfo();
4022:VS4210/keyremo.c ****                 InitOSDMenu();
4023:VS4210/keyremo.c ****                 Change_OSDColorLookup();
4024:VS4210/keyremo.c **** #if 0 // Pinchi 20151209 disable //def HTRV  //Pinchi 20150831 add
4025:VS4210/keyremo.c ****                 GaugeSetup = 0;
4026:VS4210/keyremo.c **** #endif
4027:VS4210/keyremo.c ****             }
4028:VS4210/keyremo.c **** #endif
4029:VS4210/keyremo.c **** #if 0 /// def SUPPORT_AC_ON_REDUCE_TIME  //Pinchi 20150903 add
ARM GAS  C:\Users\ryanc.HS\AppData\Local\Temp\ccZ9UySd.s 			page 217


4030:VS4210/keyremo.c **** 			if (IsFirstRunfromAC == 1)
4031:VS4210/keyremo.c **** 			{
4032:VS4210/keyremo.c **** 				IsFirstRunfromAC = 0;
4033:VS4210/keyremo.c **** 			//	Printf("\r\n[MSG]TriggerHandler() => AC On 1st time do CAM Trigger"); //pinchi test
4034:VS4210/keyremo.c **** 			}
4035:VS4210/keyremo.c **** #endif
4036:VS4210/keyremo.c **** 
4037:VS4210/keyremo.c **** 			Printf("\r\nRIGHT_TRIG", 0);
4038:VS4210/keyremo.c **** 			//  ClearGAUGEINFO();
4039:VS4210/keyremo.c **** 			TriggerStatus = 2;
4040:VS4210/keyremo.c **** 			TriggerMode = RIGHT_TRIG;
4041:VS4210/keyremo.c **** 			if (GetDisplayedOSD() & (MENU | TVVOL))
4042:VS4210/keyremo.c **** 				CloseOSDMenu();
4043:VS4210/keyremo.c **** 			MCUTimerCancelTimerEvent(_USER_TIMER_EVENT_OSD_DISABLE);
4044:VS4210/keyremo.c **** 
4045:VS4210/keyremo.c **** 			SetRightSource();
4046:VS4210/keyremo.c **** 
4047:VS4210/keyremo.c **** 			MCUTimerCancelTimerEvent(_SYSTEM_TIMER_EVENT_TRIGGER_DELAY_RELEASE);
4048:VS4210/keyremo.c **** 			MCUTimerCancelTimerEvent(_SYSTEM_TIMER_EVENT_AUTO_SLEEPING_TIMEOUT);
4049:VS4210/keyremo.c **** 			MCUTimerCancelTimerEvent(_USER_TIMER_EVENT_SEQ_CHECK);
4050:VS4210/keyremo.c **** 			MCUTimerCancelTimerEvent(_USER_TIMER_EVENT_DISPLAY_DISABLE);
4051:VS4210/keyremo.c **** 		}
4052:VS4210/keyremo.c **** 		return;
4053:VS4210/keyremo.c **** 	}
4054:VS4210/keyremo.c **** 
4055:VS4210/keyremo.c **** 	//#ifdef AWT_ML072Q  //Pinchi 20150826 add
4056:VS4210/keyremo.c **** 	if ((T_Flag & PARK_T) != 0 && (T_Flag & CamCMask) == 0)
 6775              		.loc 1 4056 2 is_stmt 1 view .LVU1867
 6776              		.loc 1 4056 5 is_stmt 0 view .LVU1868
 6777 0014 10F00404 		ands	r4, r0, #4
 6778 0018 40F09280 		bne	.L536
4057:VS4210/keyremo.c **** 	{
4058:VS4210/keyremo.c **** 		if (TriggerMode != CAMC_TRIG)
4059:VS4210/keyremo.c **** 		{
4060:VS4210/keyremo.c **** #if 0 /// def SUPPORT_TRIGGER_EXIT_MENU  //Pinchi 20150827 add
4061:VS4210/keyremo.c ****             if (GetDisplayedOSD() & MENU)
4062:VS4210/keyremo.c ****             {
4063:VS4210/keyremo.c ****                 ClearOSDInfo();
4064:VS4210/keyremo.c ****                 InitOSDMenu();
4065:VS4210/keyremo.c ****                 Change_OSDColorLookup();
4066:VS4210/keyremo.c ****             }
4067:VS4210/keyremo.c **** #endif
4068:VS4210/keyremo.c **** #if 0 /// def SUPPORT_AC_ON_REDUCE_TIME  //Pinchi 20150903 add
4069:VS4210/keyremo.c **** 			if (IsFirstRunfromAC == 1)
4070:VS4210/keyremo.c **** 			{
4071:VS4210/keyremo.c **** 				IsFirstRunfromAC = 0;
4072:VS4210/keyremo.c **** 			//	Printf("\r\n[MSG]TriggerHandler() => AC On 1st time do CAM Trigger"); //pinchi test
4073:VS4210/keyremo.c **** 			}
4074:VS4210/keyremo.c **** #endif
4075:VS4210/keyremo.c **** 
4076:VS4210/keyremo.c **** 			Printf("\r\nCAMC_TRIG", 0);
4077:VS4210/keyremo.c **** 			// ClearGAUGEINFO();
4078:VS4210/keyremo.c **** 			TriggerStatus = 3;
4079:VS4210/keyremo.c **** 			TriggerMode = CAMC_TRIG;
4080:VS4210/keyremo.c **** 			//  TW2835Cmd("\n\rmode 0\n\r");
4081:VS4210/keyremo.c **** 			if (GetDisplayedOSD() & (MENU | TVVOL))
4082:VS4210/keyremo.c **** 				CloseOSDMenu();
ARM GAS  C:\Users\ryanc.HS\AppData\Local\Temp\ccZ9UySd.s 			page 218


4083:VS4210/keyremo.c **** 			MCUTimerCancelTimerEvent(_USER_TIMER_EVENT_OSD_DISABLE);
4084:VS4210/keyremo.c **** 
4085:VS4210/keyremo.c **** 			SetTriggerCSource();
4086:VS4210/keyremo.c **** 			// SetSourceMode(CAM_C,Attr_A,Attr_B,Attr_C,Attr_R);
4087:VS4210/keyremo.c **** 
4088:VS4210/keyremo.c **** 			MCUTimerCancelTimerEvent(_SYSTEM_TIMER_EVENT_TRIGGER_DELAY_RELEASE);
4089:VS4210/keyremo.c **** 			MCUTimerCancelTimerEvent(_SYSTEM_TIMER_EVENT_AUTO_SLEEPING_TIMEOUT);
4090:VS4210/keyremo.c **** 			MCUTimerCancelTimerEvent(_USER_TIMER_EVENT_SEQ_CHECK);
4091:VS4210/keyremo.c **** 			MCUTimerCancelTimerEvent(_USER_TIMER_EVENT_DISPLAY_DISABLE);
4092:VS4210/keyremo.c **** 		}
4093:VS4210/keyremo.c **** 		return;
4094:VS4210/keyremo.c **** 	}
4095:VS4210/keyremo.c **** 	//#endif
4096:VS4210/keyremo.c **** 
4097:VS4210/keyremo.c **** 	if ((T_Flag & CAM_D_T) != 0 && (T_Flag & CamCMask) == 0)
 6779              		.loc 1 4097 2 is_stmt 1 view .LVU1869
 6780              		.loc 1 4097 5 is_stmt 0 view .LVU1870
 6781 001c 10F0800F 		tst	r0, #128
 6782 0020 40F0B680 		bne	.L537
4098:VS4210/keyremo.c **** 	{
4099:VS4210/keyremo.c **** 		if (TriggerMode != CAMD_TRIG)
4100:VS4210/keyremo.c **** 		{
4101:VS4210/keyremo.c **** 			Printf("\r\nCAMD_TRIG", 0);
4102:VS4210/keyremo.c **** 			TriggerStatus = 5;
4103:VS4210/keyremo.c **** 			TriggerMode = CAMD_TRIG;
4104:VS4210/keyremo.c **** 			if (GetDisplayedOSD() & (MENU | TVVOL))
4105:VS4210/keyremo.c **** 				CloseOSDMenu();
4106:VS4210/keyremo.c **** 			MCUTimerCancelTimerEvent(_USER_TIMER_EVENT_OSD_DISABLE);
4107:VS4210/keyremo.c **** 
4108:VS4210/keyremo.c **** 			SetTriggerDSource();
4109:VS4210/keyremo.c **** 
4110:VS4210/keyremo.c **** 			MCUTimerCancelTimerEvent(_SYSTEM_TIMER_EVENT_TRIGGER_DELAY_RELEASE);
4111:VS4210/keyremo.c **** 			MCUTimerCancelTimerEvent(_SYSTEM_TIMER_EVENT_AUTO_SLEEPING_TIMEOUT);
4112:VS4210/keyremo.c **** 			MCUTimerCancelTimerEvent(_USER_TIMER_EVENT_SEQ_CHECK);
4113:VS4210/keyremo.c **** 			MCUTimerCancelTimerEvent(_USER_TIMER_EVENT_DISPLAY_DISABLE);
4114:VS4210/keyremo.c **** 		}
4115:VS4210/keyremo.c **** 		return;
4116:VS4210/keyremo.c **** 	}
4117:VS4210/keyremo.c **** 
4118:VS4210/keyremo.c **** #if 0 // def USE_CAMD	  
4119:VS4210/keyremo.c **** 	   if((T_Flag&0x04)!=0 && (T_Flag&CamDMask)==0)
4120:VS4210/keyremo.c **** 	   {
4121:VS4210/keyremo.c ****            if(TriggerMode!=CAMD_TRIG)
4122:VS4210/keyremo.c ****            {
4123:VS4210/keyremo.c ****                Printf("\r\nCAMD_TRIG\n",0);
4124:VS4210/keyremo.c ****                ClearGAUGEINFO();
4125:VS4210/keyremo.c ****                TriggerMode=CAMD_TRIG;
4126:VS4210/keyremo.c **** 			   SetSourceMode(CAM_D,Attr_A,Attr_B,Attr_C,Attr_R);
4127:VS4210/keyremo.c **** 		   }
4128:VS4210/keyremo.c ****             return;
4129:VS4210/keyremo.c **** 	   }
4130:VS4210/keyremo.c **** #endif
4131:VS4210/keyremo.c **** 
4132:VS4210/keyremo.c **** #if 0
4133:VS4210/keyremo.c **** 	if(ReadEEP(EEP_TriggerVGA)==0)
4134:VS4210/keyremo.c **** 		{
4135:VS4210/keyremo.c **** 		     if((T_Flag&0x08)!=0 && (T_Flag&VGAMask)==0)
ARM GAS  C:\Users\ryanc.HS\AppData\Local\Temp\ccZ9UySd.s 			page 219


4136:VS4210/keyremo.c **** 		   	   {
4137:VS4210/keyremo.c **** 	            if(TriggerMode!=VGA_TRIG)
4138:VS4210/keyremo.c **** 	              {
4139:VS4210/keyremo.c **** 	               Printf("\r\nTriggerVGA");
4140:VS4210/keyremo.c **** 	               ClearGAUGEINFO();
4141:VS4210/keyremo.c **** 	               TriggerMode=VGA_TRIG;
4142:VS4210/keyremo.c **** 			 SelectModeType=VGAMode;	   			//WILLIAM-AWT1.2-20110107
4143:VS4210/keyremo.c **** 				   SetSourceMode(SelectModeType,Attr_A,Attr_B,Attr_C,Attr_R);
4144:VS4210/keyremo.c **** 			      }
4145:VS4210/keyremo.c **** 	             return;   
4146:VS4210/keyremo.c **** 		       }
4147:VS4210/keyremo.c **** 		}
4148:VS4210/keyremo.c **** #endif
4149:VS4210/keyremo.c **** 
4150:VS4210/keyremo.c **** #if 1 // Pinchi 20140904 move from above by compare with ML074Q
4151:VS4210/keyremo.c **** 	if (TriggerMode != No_TRIG)
 6783              		.loc 1 4151 2 is_stmt 1 view .LVU1871
 6784              		.loc 1 4151 18 is_stmt 0 view .LVU1872
 6785 0024 804B     		ldr	r3, .L544
 6786 0026 1B78     		ldrb	r3, [r3]	@ zero_extendqisi2
 6787              		.loc 1 4151 5 view .LVU1873
 6788 0028 082B     		cmp	r3, #8
 6789 002a 14D0     		beq	.L508
4152:VS4210/keyremo.c **** 	{
4153:VS4210/keyremo.c **** 
4154:VS4210/keyremo.c **** 		Printf("\r\nNo_TRIG\r\n", 0);
 6790              		.loc 1 4154 3 is_stmt 1 view .LVU1874
 6791 002c 0021     		movs	r1, #0
 6792 002e 7F48     		ldr	r0, .L544+4
 6793              	.LVL589:
 6794              		.loc 1 4154 3 is_stmt 0 view .LVU1875
 6795 0030 FFF7FEFF 		bl	Printf
 6796              	.LVL590:
4155:VS4210/keyremo.c **** 		switch (TriggerStatus)
 6797              		.loc 1 4155 3 is_stmt 1 view .LVU1876
 6798 0034 7E4B     		ldr	r3, .L544+8
 6799 0036 1B78     		ldrb	r3, [r3]	@ zero_extendqisi2
 6800 0038 013B     		subs	r3, r3, #1
 6801 003a 042B     		cmp	r3, #4
 6802 003c 00F2D480 		bhi	.L525
 6803 0040 DFE813F0 		tbh	[pc, r3, lsl #1]
 6804              	.L527:
 6805 0044 CE00     		.2byte	(.L531-.L527)/2
 6806 0046 DD00     		.2byte	(.L530-.L527)/2
 6807 0048 E200     		.2byte	(.L529-.L527)/2
 6808 004a E700     		.2byte	(.L528-.L527)/2
 6809 004c EC00     		.2byte	(.L526-.L527)/2
 6810              	.LVL591:
 6811              		.p2align 1
 6812              	.L533:
3922:VS4210/keyremo.c **** 		{
 6813              		.loc 1 3922 3 view .LVU1877
3922:VS4210/keyremo.c **** 		{
 6814              		.loc 1 3922 19 is_stmt 0 view .LVU1878
 6815 004e 764B     		ldr	r3, .L544
 6816 0050 1B78     		ldrb	r3, [r3]	@ zero_extendqisi2
3922:VS4210/keyremo.c **** 		{
ARM GAS  C:\Users\ryanc.HS\AppData\Local\Temp\ccZ9UySd.s 			page 220


 6817              		.loc 1 3922 6 view .LVU1879
 6818 0052 012B     		cmp	r3, #1
 6819 0054 00D1     		bne	.L538
 6820              	.LVL592:
 6821              	.L508:
4156:VS4210/keyremo.c **** 		{
4157:VS4210/keyremo.c **** 		case 1:
4158:VS4210/keyremo.c **** 			delay = ReadEEP(EEP_DELAYCAMA);
4159:VS4210/keyremo.c **** 			break;
4160:VS4210/keyremo.c **** 		case 2:
4161:VS4210/keyremo.c **** 			delay = ReadEEP(EEP_DELAYCAMB);
4162:VS4210/keyremo.c **** 			break;
4163:VS4210/keyremo.c **** 		case 3:
4164:VS4210/keyremo.c **** 			delay = ReadEEP(EEP_DELAYCAMC);
4165:VS4210/keyremo.c **** 			break;
4166:VS4210/keyremo.c **** 		case 4:
4167:VS4210/keyremo.c **** 			delay = ReadEEP(EEP_DELAYCAMR);
4168:VS4210/keyremo.c **** 			break;
4169:VS4210/keyremo.c **** 		case 5:
4170:VS4210/keyremo.c **** 			delay = ReadEEP(EEP_DELAYCAMD);
4171:VS4210/keyremo.c **** 			break;
4172:VS4210/keyremo.c **** 
4173:VS4210/keyremo.c **** 		default:
4174:VS4210/keyremo.c **** 			delay = 0;
4175:VS4210/keyremo.c **** 			break;
4176:VS4210/keyremo.c **** 		}
4177:VS4210/keyremo.c **** 
4178:VS4210/keyremo.c **** 		MCUTimerActiveTimerEvent(SEC(delay), _SYSTEM_TIMER_EVENT_TRIGGER_DELAY_RELEASE);
4179:VS4210/keyremo.c **** 		// setloopoutmode(SelectModeType) ;
4180:VS4210/keyremo.c **** 		// OSDStateFlg =1 ;
4181:VS4210/keyremo.c **** 
4182:VS4210/keyremo.c **** 		// CloseOSDMenu();
4183:VS4210/keyremo.c **** 
4184:VS4210/keyremo.c **** //	if (PowerFlag)  //Pinchi 20140918 disable for AWT ML072Q
4185:VS4210/keyremo.c **** #if 0
4186:VS4210/keyremo.c **** 		{
4187:VS4210/keyremo.c **** #if (defined AWT_ML072Q) || (defined AWT_ML072S) // Pinchi 20150908 add for AWT ML072Q/ML072S  //Pi
4188:VS4210/keyremo.c **** 		//#ifndef  SUPPORT_ML84TQ_TRIGGER_DELAY  //Pinchi 20150825 add for function define
4189:VS4210/keyremo.c **** #ifdef SUPPORT_AC_ON_REDUCE_TIME				 // Pinchi 20150903 add
4190:VS4210/keyremo.c **** 			if (IsFirstRunfromAC == 1)
4191:VS4210/keyremo.c **** 			{
4192:VS4210/keyremo.c **** 				IsFirstRunfromAC = 0;
4193:VS4210/keyremo.c **** 			//	Printf("\r\n[MSG]TriggerHandler() => AC On 1st No Trigger & skip delay time"); //pinchi test
4194:VS4210/keyremo.c **** 			}
4195:VS4210/keyremo.c **** 			else
4196:VS4210/keyremo.c **** #endif
4197:VS4210/keyremo.c **** 		  	{
4198:VS4210/keyremo.c **** #ifdef AWT_ADD_TRIGGER_DELAY_FUN // ryan@20170907
4199:VS4210/keyremo.c **** 
4200:VS4210/keyremo.c **** 						  			switch(TriggerMode)
4201:VS4210/keyremo.c **** 									{
4202:VS4210/keyremo.c **** 										case REVERSE_TRIG:	
4203:VS4210/keyremo.c **** 											delaytrigger=ReadEEP(EEP_CamRDelay);
4204:VS4210/keyremo.c **** 										break;
4205:VS4210/keyremo.c **** 
4206:VS4210/keyremo.c **** 										case LEFT_TRIG:	
4207:VS4210/keyremo.c **** 											delaytrigger=ReadEEP(EEP_CamADelay);
ARM GAS  C:\Users\ryanc.HS\AppData\Local\Temp\ccZ9UySd.s 			page 221


4208:VS4210/keyremo.c **** 										break;
4209:VS4210/keyremo.c **** 
4210:VS4210/keyremo.c **** 										case RIGHT_TRIG:	
4211:VS4210/keyremo.c **** 											delaytrigger=ReadEEP(EEP_CamBDelay);
4212:VS4210/keyremo.c **** 										break;
4213:VS4210/keyremo.c **** 
4214:VS4210/keyremo.c **** #ifdef AWT_ML072Q // Pinchi 20150908 add
4215:VS4210/keyremo.c **** 										case CAMC_TRIG:	
4216:VS4210/keyremo.c **** 											delaytrigger=ReadEEP(EEP_CamCDelay);
4217:VS4210/keyremo.c **** 										break;
4218:VS4210/keyremo.c **** #endif
4219:VS4210/keyremo.c **** #ifdef USE_CAMD
4220:VS4210/keyremo.c **** 										case CAMD_TRIG:	
4221:VS4210/keyremo.c **** 											delaytrigger=ReadEEP(EEP_DELAYCAMD);
4222:VS4210/keyremo.c **** 										break;
4223:VS4210/keyremo.c **** #endif	
4224:VS4210/keyremo.c **** 										
4225:VS4210/keyremo.c **** 										case No_TRIG:
4226:VS4210/keyremo.c **** 										case PARK_TRIG:	
4227:VS4210/keyremo.c **** 										case VGA_TRIG:	
4228:VS4210/keyremo.c **** 										default:	
4229:VS4210/keyremo.c **** 											delaytrigger=0;
4230:VS4210/keyremo.c **** 										break;	
4231:VS4210/keyremo.c **** 									}
4232:VS4210/keyremo.c **** 
4233:VS4210/keyremo.c **** 									for(j=0;j<delaytrigger;j++) 
4234:VS4210/keyremo.c **** 									{
4235:VS4210/keyremo.c **** 										for(i=0;i<100;i++) 
4236:VS4210/keyremo.c **** 										{
4237:VS4210/keyremo.c **** 											CheckTrigger();
4238:VS4210/keyremo.c **** 											if(TriggerFlag!=0)//andy HTRV 980625
4239:VS4210/keyremo.c **** 											   return;
4240:VS4210/keyremo.c **** 											Wait_ms(7);	//william-v1.44a-970923
4241:VS4210/keyremo.c **** 										}
4242:VS4210/keyremo.c **** 									}
4243:VS4210/keyremo.c **** #else
4244:VS4210/keyremo.c **** 				for (i=0 ; i<100 ; i++) 
4245:VS4210/keyremo.c **** 				{
4246:VS4210/keyremo.c **** 					CheckTrigger();
4247:VS4210/keyremo.c **** 					if (TriggerFlag != 0)
4248:VS4210/keyremo.c **** 						return;
4249:VS4210/keyremo.c **** 
4250:VS4210/keyremo.c **** 					Wait_ms(14);
4251:VS4210/keyremo.c **** 				}
4252:VS4210/keyremo.c **** #endif
4253:VS4210/keyremo.c **** 		  	}
4254:VS4210/keyremo.c **** #else
4255:VS4210/keyremo.c **** #ifdef SUPPORT_ML84TQ_TRIGGER_DELAY // Pinchi 20160126 add
4256:VS4210/keyremo.c **** 			switch(TriggerMode)
4257:VS4210/keyremo.c **** 			{
4258:VS4210/keyremo.c **** 				case REVERSE_TRIG:	
4259:VS4210/keyremo.c **** 					delaytrigger=ReadEEP(EEP_DELAYCAMR);
4260:VS4210/keyremo.c **** 				break;
4261:VS4210/keyremo.c **** 
4262:VS4210/keyremo.c **** 				case LEFT_TRIG:	
4263:VS4210/keyremo.c **** 					delaytrigger=ReadEEP(EEP_DELAYCAMA);
4264:VS4210/keyremo.c **** 				break;
ARM GAS  C:\Users\ryanc.HS\AppData\Local\Temp\ccZ9UySd.s 			page 222


4265:VS4210/keyremo.c **** 
4266:VS4210/keyremo.c **** 				case RIGHT_TRIG:	
4267:VS4210/keyremo.c **** 					delaytrigger=ReadEEP(EEP_DELAYCAMB);
4268:VS4210/keyremo.c **** 				break;
4269:VS4210/keyremo.c **** 
4270:VS4210/keyremo.c **** #ifdef AWT_ML072Q // Pinchi 20150908 add
4271:VS4210/keyremo.c **** 				case CAMC_TRIG:	
4272:VS4210/keyremo.c **** 					delaytrigger=ReadEEP(EEP_DELAYCAMC);
4273:VS4210/keyremo.c **** 				break;
4274:VS4210/keyremo.c **** #endif
4275:VS4210/keyremo.c **** #ifdef USE_CAMD
4276:VS4210/keyremo.c **** 				case CAMD_TRIG:	
4277:VS4210/keyremo.c **** 					delaytrigger=ReadEEP(EEP_DELAYCAMD);
4278:VS4210/keyremo.c **** 				break;
4279:VS4210/keyremo.c **** #endif	
4280:VS4210/keyremo.c **** 				
4281:VS4210/keyremo.c **** 				case No_TRIG:
4282:VS4210/keyremo.c **** 				case PARK_TRIG:	
4283:VS4210/keyremo.c **** 				case VGA_TRIG:	
4284:VS4210/keyremo.c **** 				default:	
4285:VS4210/keyremo.c **** 					delaytrigger=0;
4286:VS4210/keyremo.c **** 				break;	
4287:VS4210/keyremo.c **** 			}
4288:VS4210/keyremo.c **** 
4289:VS4210/keyremo.c **** 			for(j=0;j<delaytrigger;j++) 
4290:VS4210/keyremo.c **** 			{
4291:VS4210/keyremo.c **** 				for(i=0;i<100;i++) 
4292:VS4210/keyremo.c **** 				{
4293:VS4210/keyremo.c **** 					CheckTrigger();
4294:VS4210/keyremo.c **** 					if(TriggerFlag!=0)//andy HTRV 980625
4295:VS4210/keyremo.c **** 					   return;
4296:VS4210/keyremo.c **** 					Wait_ms(4);	//william-v1.44a-970923
4297:VS4210/keyremo.c **** 				}
4298:VS4210/keyremo.c **** 			}
4299:VS4210/keyremo.c **** #endif
4300:VS4210/keyremo.c **** #endif
4301:VS4210/keyremo.c ****      	}
4302:VS4210/keyremo.c **** #endif
4303:VS4210/keyremo.c **** 		TriggerMode = No_TRIG;
4304:VS4210/keyremo.c **** /*
4305:VS4210/keyremo.c **** ClearGAUGEINFO();
4306:VS4210/keyremo.c **** 
4307:VS4210/keyremo.c **** #ifdef QUAD  //Pinchi 20150903 change condition for common use when enter Standby mode no action  /
4308:VS4210/keyremo.c **** if (PowerFlag)
4309:VS4210/keyremo.c **** #endif
4310:VS4210/keyremo.c **** {
4311:VS4210/keyremo.c **** #ifdef HTRV  //Pinchi 20151209 add
4312:VS4210/keyremo.c **** 	if (GaugeSetup == 1)
4313:VS4210/keyremo.c **** 	{
4314:VS4210/keyremo.c **** 		GaugeSetup = 0;
4315:VS4210/keyremo.c **** 		GaugeInfoOSD = 0;  //Pinchi 20151209 add to clear GaugeSetup
4316:VS4210/keyremo.c **** 		SelectModeType = ReadEEP(EEP_SelectMode);  //Pinchi 20151209 add to restore original cam
4317:VS4210/keyremo.c **** 	}
4318:VS4210/keyremo.c **** #endif
4319:VS4210/keyremo.c **** 
4320:VS4210/keyremo.c **** 	DisplayInput();		//william-20100420
4321:VS4210/keyremo.c **** 	*/
ARM GAS  C:\Users\ryanc.HS\AppData\Local\Temp\ccZ9UySd.s 			page 223


4322:VS4210/keyremo.c **** #if 0
4323:VS4210/keyremo.c **** 		  if(SelectModeType==VGAMode)				//william-awt1.2 20110107
4324:VS4210/keyremo.c **** 		  	SelectModeType=ReadEEP(EEP_SelectMode);
4325:VS4210/keyremo.c **** #endif
4326:VS4210/keyremo.c **** 
4327:VS4210/keyremo.c **** 		/*
4328:VS4210/keyremo.c **** 	if(RELEASE_TR_JUMP_Flag==1)
4329:VS4210/keyremo.c **** 	{
4330:VS4210/keyremo.c **** 		TR_JUMP_Flag=0;
4331:VS4210/keyremo.c **** 		NowModeState=TR_JUMP_HOLD;
4332:VS4210/keyremo.c **** 		RELEASE_TR_JUMP_Flag=0;
4333:VS4210/keyremo.c **** 		Printf("\r\n(SelectModeType=%02x    NowModeState=%02x)",(WORD)SelectModeType,(WORD)NowModeState);
4334:VS4210/keyremo.c **** 	}
4335:VS4210/keyremo.c **** 
4336:VS4210/keyremo.c **** 				IsDrawNoVideoSignal=0;//ryan@20170921
4337:VS4210/keyremo.c **** 				SetNowMode();
4338:VS4210/keyremo.c **** 
4339:VS4210/keyremo.c **** 			#if 1  //Pinchi 20150901 add to setup 2s for Display OFF
4340:VS4210/keyremo.c **** 				if (ReadEEP(EEP_COSDMode) == 1)
4341:VS4210/keyremo.c **** 					displayhold_flag = 3;
4342:VS4210/keyremo.c **** 			#endif
4343:VS4210/keyremo.c **** 			}
4344:VS4210/keyremo.c **** 	*/
4345:VS4210/keyremo.c **** 
4346:VS4210/keyremo.c **** #if 0 // Pinchi 20150827 disable for wrong action
4347:VS4210/keyremo.c **** #ifdef AWT_ML072Q
4348:VS4210/keyremo.c **** 		if(ReadDecoder(0x0a)==0x13)
4349:VS4210/keyremo.c **** 		{
4350:VS4210/keyremo.c **** 			WriteDecoder(0x0a,0x1b);
4351:VS4210/keyremo.c **** 			WriteDecoder(0x61,0x80);
4352:VS4210/keyremo.c **** 			WriteDecoder(0x66,0x00);
4353:VS4210/keyremo.c **** 			Printf("\r\n[MSG]TriggerHandler() => TriggerMode=No_TRIG 4:3 to 16:9 !!");  //pinchi test
4354:VS4210/keyremo.c **** 		}
4355:VS4210/keyremo.c **** #else
4356:VS4210/keyremo.c **** 		if(ReadDecoder(0x0a)==0x13)
4357:VS4210/keyremo.c **** 	    {
4358:VS4210/keyremo.c **** 			WriteDecoder(0x0a,0x0f); 
4359:VS4210/keyremo.c **** 			WriteDecoder(0x61,0x88);
4360:VS4210/keyremo.c **** 			WriteDecoder(0x66,0x00);//<William-960905>  
4361:VS4210/keyremo.c **** 	    }
4362:VS4210/keyremo.c **** #endif
4363:VS4210/keyremo.c **** #endif
4364:VS4210/keyremo.c **** 	}
4365:VS4210/keyremo.c **** #endif
4366:VS4210/keyremo.c **** 
4367:VS4210/keyremo.c **** #if 0 // ndef AWT_ML072Q			//william @20130813
4368:VS4210/keyremo.c **** 	if(ParkFlag==0)
4369:VS4210/keyremo.c **** 	{
4370:VS4210/keyremo.c **** 		AVFlag=0;
4371:VS4210/keyremo.c **** #ifdef QUAD	
4372:VS4210/keyremo.c **** 		if(SelectModeType==AVMode)
4373:VS4210/keyremo.c **** #else
4374:VS4210/keyremo.c **** 		if(SelectModeType==SOURCE_AV)
4375:VS4210/keyremo.c **** #endif
4376:VS4210/keyremo.c **** 		{
4377:VS4210/keyremo.c **** 			SelectModeType=ReadEEP(EEP_SelectMode);
4378:VS4210/keyremo.c **** 			SetNowMode();
ARM GAS  C:\Users\ryanc.HS\AppData\Local\Temp\ccZ9UySd.s 			page 224


4379:VS4210/keyremo.c **** 		} 
4380:VS4210/keyremo.c **** 	}
4381:VS4210/keyremo.c **** #endif
4382:VS4210/keyremo.c **** }
 6822              		.loc 1 4382 1 view .LVU1880
 6823 0056 10BD     		pop	{r4, pc}
 6824              	.LVL593:
 6825              	.L538:
3946:VS4210/keyremo.c **** 			Printf("\r\nREVERSE_TRIG", 0);
 6826              		.loc 1 3946 4 is_stmt 1 view .LVU1881
3946:VS4210/keyremo.c **** 			Printf("\r\nREVERSE_TRIG", 0);
 6827              		.loc 1 3946 18 is_stmt 0 view .LVU1882
 6828 0058 754B     		ldr	r3, .L544+8
 6829 005a 0422     		movs	r2, #4
 6830 005c 1A70     		strb	r2, [r3]
3947:VS4210/keyremo.c **** 			TriggerMode = REVERSE_TRIG;
 6831              		.loc 1 3947 4 is_stmt 1 view .LVU1883
 6832 005e 0021     		movs	r1, #0
 6833 0060 7448     		ldr	r0, .L544+12
 6834              	.LVL594:
3947:VS4210/keyremo.c **** 			TriggerMode = REVERSE_TRIG;
 6835              		.loc 1 3947 4 is_stmt 0 view .LVU1884
 6836 0062 FFF7FEFF 		bl	Printf
 6837              	.LVL595:
3948:VS4210/keyremo.c **** 			if (GetDisplayedOSD() & (MENU | TVVOL))
 6838              		.loc 1 3948 4 is_stmt 1 view .LVU1885
3948:VS4210/keyremo.c **** 			if (GetDisplayedOSD() & (MENU | TVVOL))
 6839              		.loc 1 3948 16 is_stmt 0 view .LVU1886
 6840 0066 704B     		ldr	r3, .L544
 6841 0068 0122     		movs	r2, #1
 6842 006a 1A70     		strb	r2, [r3]
3949:VS4210/keyremo.c **** 				CloseOSDMenu();
 6843              		.loc 1 3949 4 is_stmt 1 view .LVU1887
3949:VS4210/keyremo.c **** 				CloseOSDMenu();
 6844              		.loc 1 3949 8 is_stmt 0 view .LVU1888
 6845 006c FFF7FEFF 		bl	GetDisplayedOSD
 6846              	.LVL596:
3949:VS4210/keyremo.c **** 				CloseOSDMenu();
 6847              		.loc 1 3949 7 view .LVU1889
 6848 0070 10F0060F 		tst	r0, #6
 6849 0074 11D1     		bne	.L539
 6850              	.L511:
3951:VS4210/keyremo.c **** 
 6851              		.loc 1 3951 4 is_stmt 1 view .LVU1890
 6852 0076 0E20     		movs	r0, #14
 6853 0078 FFF7FEFF 		bl	MCUTimerCancelTimerEvent
 6854              	.LVL597:
3953:VS4210/keyremo.c **** 
 6855              		.loc 1 3953 4 view .LVU1891
 6856 007c FFF7FEFF 		bl	SetRearSource
 6857              	.LVL598:
3955:VS4210/keyremo.c **** 			MCUTimerCancelTimerEvent(_SYSTEM_TIMER_EVENT_AUTO_SLEEPING_TIMEOUT);
 6858              		.loc 1 3955 4 view .LVU1892
 6859 0080 3B20     		movs	r0, #59
 6860 0082 FFF7FEFF 		bl	MCUTimerCancelTimerEvent
 6861              	.LVL599:
3956:VS4210/keyremo.c **** 			MCUTimerCancelTimerEvent(_USER_TIMER_EVENT_SEQ_CHECK);
ARM GAS  C:\Users\ryanc.HS\AppData\Local\Temp\ccZ9UySd.s 			page 225


 6862              		.loc 1 3956 4 view .LVU1893
 6863 0086 4E20     		movs	r0, #78
 6864 0088 FFF7FEFF 		bl	MCUTimerCancelTimerEvent
 6865              	.LVL600:
3957:VS4210/keyremo.c **** 			MCUTimerCancelTimerEvent(_USER_TIMER_EVENT_DISPLAY_DISABLE);
 6866              		.loc 1 3957 4 view .LVU1894
 6867 008c 1420     		movs	r0, #20
 6868 008e FFF7FEFF 		bl	MCUTimerCancelTimerEvent
 6869              	.LVL601:
3958:VS4210/keyremo.c **** 		}
 6870              		.loc 1 3958 4 view .LVU1895
 6871 0092 0F20     		movs	r0, #15
 6872 0094 FFF7FEFF 		bl	MCUTimerCancelTimerEvent
 6873              	.LVL602:
3961:VS4210/keyremo.c **** 	}
 6874              		.loc 1 3961 3 view .LVU1896
 6875 0098 DDE7     		b	.L508
 6876              	.L539:
3950:VS4210/keyremo.c **** 			MCUTimerCancelTimerEvent(_USER_TIMER_EVENT_OSD_DISABLE);
 6877              		.loc 1 3950 5 view .LVU1897
 6878 009a FFF7FEFF 		bl	CloseOSDMenu
 6879              	.LVL603:
 6880 009e EAE7     		b	.L511
 6881              	.LVL604:
 6882              	.L534:
3966:VS4210/keyremo.c **** 		{
 6883              		.loc 1 3966 3 view .LVU1898
3966:VS4210/keyremo.c **** 		{
 6884              		.loc 1 3966 19 is_stmt 0 view .LVU1899
 6885 00a0 614B     		ldr	r3, .L544
 6886 00a2 1B78     		ldrb	r3, [r3]	@ zero_extendqisi2
3966:VS4210/keyremo.c **** 		{
 6887              		.loc 1 3966 6 view .LVU1900
 6888 00a4 022B     		cmp	r3, #2
 6889 00a6 D6D0     		beq	.L508
3992:VS4210/keyremo.c **** 			//   ClearGAUGEINFO();
 6890              		.loc 1 3992 4 is_stmt 1 view .LVU1901
 6891 00a8 0021     		movs	r1, #0
 6892 00aa 6348     		ldr	r0, .L544+16
 6893              	.LVL605:
3992:VS4210/keyremo.c **** 			//   ClearGAUGEINFO();
 6894              		.loc 1 3992 4 is_stmt 0 view .LVU1902
 6895 00ac FFF7FEFF 		bl	Printf
 6896              	.LVL606:
3994:VS4210/keyremo.c **** 			TriggerStatus = 1;
 6897              		.loc 1 3994 4 is_stmt 1 view .LVU1903
3994:VS4210/keyremo.c **** 			TriggerStatus = 1;
 6898              		.loc 1 3994 16 is_stmt 0 view .LVU1904
 6899 00b0 5D4B     		ldr	r3, .L544
 6900 00b2 0222     		movs	r2, #2
 6901 00b4 1A70     		strb	r2, [r3]
3995:VS4210/keyremo.c **** 			if (GetDisplayedOSD() & (MENU | TVVOL))
 6902              		.loc 1 3995 4 is_stmt 1 view .LVU1905
3995:VS4210/keyremo.c **** 			if (GetDisplayedOSD() & (MENU | TVVOL))
 6903              		.loc 1 3995 18 is_stmt 0 view .LVU1906
 6904 00b6 5E4B     		ldr	r3, .L544+8
 6905 00b8 0122     		movs	r2, #1
ARM GAS  C:\Users\ryanc.HS\AppData\Local\Temp\ccZ9UySd.s 			page 226


 6906 00ba 1A70     		strb	r2, [r3]
3996:VS4210/keyremo.c **** 				CloseOSDMenu();
 6907              		.loc 1 3996 4 is_stmt 1 view .LVU1907
3996:VS4210/keyremo.c **** 				CloseOSDMenu();
 6908              		.loc 1 3996 8 is_stmt 0 view .LVU1908
 6909 00bc FFF7FEFF 		bl	GetDisplayedOSD
 6910              	.LVL607:
3996:VS4210/keyremo.c **** 				CloseOSDMenu();
 6911              		.loc 1 3996 7 view .LVU1909
 6912 00c0 10F0060F 		tst	r0, #6
 6913 00c4 11D1     		bne	.L540
 6914              	.L515:
3998:VS4210/keyremo.c **** 
 6915              		.loc 1 3998 4 is_stmt 1 view .LVU1910
 6916 00c6 0E20     		movs	r0, #14
 6917 00c8 FFF7FEFF 		bl	MCUTimerCancelTimerEvent
 6918              	.LVL608:
4000:VS4210/keyremo.c **** 
 6919              		.loc 1 4000 4 view .LVU1911
 6920 00cc FFF7FEFF 		bl	SetLeftSource
 6921              	.LVL609:
4002:VS4210/keyremo.c **** 			MCUTimerCancelTimerEvent(_SYSTEM_TIMER_EVENT_AUTO_SLEEPING_TIMEOUT);
 6922              		.loc 1 4002 4 view .LVU1912
 6923 00d0 3B20     		movs	r0, #59
 6924 00d2 FFF7FEFF 		bl	MCUTimerCancelTimerEvent
 6925              	.LVL610:
4003:VS4210/keyremo.c **** 			MCUTimerCancelTimerEvent(_USER_TIMER_EVENT_SEQ_CHECK);
 6926              		.loc 1 4003 4 view .LVU1913
 6927 00d6 4E20     		movs	r0, #78
 6928 00d8 FFF7FEFF 		bl	MCUTimerCancelTimerEvent
 6929              	.LVL611:
4004:VS4210/keyremo.c **** 			MCUTimerCancelTimerEvent(_USER_TIMER_EVENT_DISPLAY_DISABLE);
 6930              		.loc 1 4004 4 view .LVU1914
 6931 00dc 1420     		movs	r0, #20
 6932 00de FFF7FEFF 		bl	MCUTimerCancelTimerEvent
 6933              	.LVL612:
4005:VS4210/keyremo.c **** 		}
 6934              		.loc 1 4005 4 view .LVU1915
 6935 00e2 0F20     		movs	r0, #15
 6936 00e4 FFF7FEFF 		bl	MCUTimerCancelTimerEvent
 6937              	.LVL613:
4007:VS4210/keyremo.c **** 	}
 6938              		.loc 1 4007 3 view .LVU1916
 6939 00e8 B5E7     		b	.L508
 6940              	.L540:
3997:VS4210/keyremo.c **** 			MCUTimerCancelTimerEvent(_USER_TIMER_EVENT_OSD_DISABLE);
 6941              		.loc 1 3997 5 view .LVU1917
 6942 00ea FFF7FEFF 		bl	CloseOSDMenu
 6943              	.LVL614:
 6944 00ee EAE7     		b	.L515
 6945              	.LVL615:
 6946              	.L535:
4012:VS4210/keyremo.c **** 		{
 6947              		.loc 1 4012 3 view .LVU1918
4012:VS4210/keyremo.c **** 		{
 6948              		.loc 1 4012 19 is_stmt 0 view .LVU1919
 6949 00f0 4D4B     		ldr	r3, .L544
ARM GAS  C:\Users\ryanc.HS\AppData\Local\Temp\ccZ9UySd.s 			page 227


 6950 00f2 1B78     		ldrb	r3, [r3]	@ zero_extendqisi2
4012:VS4210/keyremo.c **** 		{
 6951              		.loc 1 4012 6 view .LVU1920
 6952 00f4 032B     		cmp	r3, #3
 6953 00f6 AED0     		beq	.L508
4037:VS4210/keyremo.c **** 			//  ClearGAUGEINFO();
 6954              		.loc 1 4037 4 is_stmt 1 view .LVU1921
 6955 00f8 0021     		movs	r1, #0
 6956 00fa 5048     		ldr	r0, .L544+20
 6957              	.LVL616:
4037:VS4210/keyremo.c **** 			//  ClearGAUGEINFO();
 6958              		.loc 1 4037 4 is_stmt 0 view .LVU1922
 6959 00fc FFF7FEFF 		bl	Printf
 6960              	.LVL617:
4039:VS4210/keyremo.c **** 			TriggerMode = RIGHT_TRIG;
 6961              		.loc 1 4039 4 is_stmt 1 view .LVU1923
4039:VS4210/keyremo.c **** 			TriggerMode = RIGHT_TRIG;
 6962              		.loc 1 4039 18 is_stmt 0 view .LVU1924
 6963 0100 4B4B     		ldr	r3, .L544+8
 6964 0102 0222     		movs	r2, #2
 6965 0104 1A70     		strb	r2, [r3]
4040:VS4210/keyremo.c **** 			if (GetDisplayedOSD() & (MENU | TVVOL))
 6966              		.loc 1 4040 4 is_stmt 1 view .LVU1925
4040:VS4210/keyremo.c **** 			if (GetDisplayedOSD() & (MENU | TVVOL))
 6967              		.loc 1 4040 16 is_stmt 0 view .LVU1926
 6968 0106 484B     		ldr	r3, .L544
 6969 0108 0322     		movs	r2, #3
 6970 010a 1A70     		strb	r2, [r3]
4041:VS4210/keyremo.c **** 				CloseOSDMenu();
 6971              		.loc 1 4041 4 is_stmt 1 view .LVU1927
4041:VS4210/keyremo.c **** 				CloseOSDMenu();
 6972              		.loc 1 4041 8 is_stmt 0 view .LVU1928
 6973 010c FFF7FEFF 		bl	GetDisplayedOSD
 6974              	.LVL618:
4041:VS4210/keyremo.c **** 				CloseOSDMenu();
 6975              		.loc 1 4041 7 view .LVU1929
 6976 0110 10F0060F 		tst	r0, #6
 6977 0114 11D1     		bne	.L541
 6978              	.L518:
4043:VS4210/keyremo.c **** 
 6979              		.loc 1 4043 4 is_stmt 1 view .LVU1930
 6980 0116 0E20     		movs	r0, #14
 6981 0118 FFF7FEFF 		bl	MCUTimerCancelTimerEvent
 6982              	.LVL619:
4045:VS4210/keyremo.c **** 
 6983              		.loc 1 4045 4 view .LVU1931
 6984 011c FFF7FEFF 		bl	SetRightSource
 6985              	.LVL620:
4047:VS4210/keyremo.c **** 			MCUTimerCancelTimerEvent(_SYSTEM_TIMER_EVENT_AUTO_SLEEPING_TIMEOUT);
 6986              		.loc 1 4047 4 view .LVU1932
 6987 0120 3B20     		movs	r0, #59
 6988 0122 FFF7FEFF 		bl	MCUTimerCancelTimerEvent
 6989              	.LVL621:
4048:VS4210/keyremo.c **** 			MCUTimerCancelTimerEvent(_USER_TIMER_EVENT_SEQ_CHECK);
 6990              		.loc 1 4048 4 view .LVU1933
 6991 0126 4E20     		movs	r0, #78
 6992 0128 FFF7FEFF 		bl	MCUTimerCancelTimerEvent
ARM GAS  C:\Users\ryanc.HS\AppData\Local\Temp\ccZ9UySd.s 			page 228


 6993              	.LVL622:
4049:VS4210/keyremo.c **** 			MCUTimerCancelTimerEvent(_USER_TIMER_EVENT_DISPLAY_DISABLE);
 6994              		.loc 1 4049 4 view .LVU1934
 6995 012c 1420     		movs	r0, #20
 6996 012e FFF7FEFF 		bl	MCUTimerCancelTimerEvent
 6997              	.LVL623:
4050:VS4210/keyremo.c **** 		}
 6998              		.loc 1 4050 4 view .LVU1935
 6999 0132 0F20     		movs	r0, #15
 7000 0134 FFF7FEFF 		bl	MCUTimerCancelTimerEvent
 7001              	.LVL624:
4052:VS4210/keyremo.c **** 	}
 7002              		.loc 1 4052 3 view .LVU1936
 7003 0138 8DE7     		b	.L508
 7004              	.L541:
4042:VS4210/keyremo.c **** 			MCUTimerCancelTimerEvent(_USER_TIMER_EVENT_OSD_DISABLE);
 7005              		.loc 1 4042 5 view .LVU1937
 7006 013a FFF7FEFF 		bl	CloseOSDMenu
 7007              	.LVL625:
 7008 013e EAE7     		b	.L518
 7009              	.LVL626:
 7010              	.L536:
4058:VS4210/keyremo.c **** 		{
 7011              		.loc 1 4058 3 view .LVU1938
4058:VS4210/keyremo.c **** 		{
 7012              		.loc 1 4058 19 is_stmt 0 view .LVU1939
 7013 0140 394B     		ldr	r3, .L544
 7014 0142 1B78     		ldrb	r3, [r3]	@ zero_extendqisi2
4058:VS4210/keyremo.c **** 		{
 7015              		.loc 1 4058 6 view .LVU1940
 7016 0144 042B     		cmp	r3, #4
 7017 0146 86D0     		beq	.L508
4076:VS4210/keyremo.c **** 			// ClearGAUGEINFO();
 7018              		.loc 1 4076 4 is_stmt 1 view .LVU1941
 7019 0148 0021     		movs	r1, #0
 7020 014a 3D48     		ldr	r0, .L544+24
 7021              	.LVL627:
4076:VS4210/keyremo.c **** 			// ClearGAUGEINFO();
 7022              		.loc 1 4076 4 is_stmt 0 view .LVU1942
 7023 014c FFF7FEFF 		bl	Printf
 7024              	.LVL628:
4078:VS4210/keyremo.c **** 			TriggerMode = CAMC_TRIG;
 7025              		.loc 1 4078 4 is_stmt 1 view .LVU1943
4078:VS4210/keyremo.c **** 			TriggerMode = CAMC_TRIG;
 7026              		.loc 1 4078 18 is_stmt 0 view .LVU1944
 7027 0150 374B     		ldr	r3, .L544+8
 7028 0152 0322     		movs	r2, #3
 7029 0154 1A70     		strb	r2, [r3]
4079:VS4210/keyremo.c **** 			//  TW2835Cmd("\n\rmode 0\n\r");
 7030              		.loc 1 4079 4 is_stmt 1 view .LVU1945
4079:VS4210/keyremo.c **** 			//  TW2835Cmd("\n\rmode 0\n\r");
 7031              		.loc 1 4079 16 is_stmt 0 view .LVU1946
 7032 0156 344B     		ldr	r3, .L544
 7033 0158 0422     		movs	r2, #4
 7034 015a 1A70     		strb	r2, [r3]
4081:VS4210/keyremo.c **** 				CloseOSDMenu();
 7035              		.loc 1 4081 4 is_stmt 1 view .LVU1947
ARM GAS  C:\Users\ryanc.HS\AppData\Local\Temp\ccZ9UySd.s 			page 229


4081:VS4210/keyremo.c **** 				CloseOSDMenu();
 7036              		.loc 1 4081 8 is_stmt 0 view .LVU1948
 7037 015c FFF7FEFF 		bl	GetDisplayedOSD
 7038              	.LVL629:
4081:VS4210/keyremo.c **** 				CloseOSDMenu();
 7039              		.loc 1 4081 7 view .LVU1949
 7040 0160 10F0060F 		tst	r0, #6
 7041 0164 11D1     		bne	.L542
 7042              	.L521:
4083:VS4210/keyremo.c **** 
 7043              		.loc 1 4083 4 is_stmt 1 view .LVU1950
 7044 0166 0E20     		movs	r0, #14
 7045 0168 FFF7FEFF 		bl	MCUTimerCancelTimerEvent
 7046              	.LVL630:
4085:VS4210/keyremo.c **** 			// SetSourceMode(CAM_C,Attr_A,Attr_B,Attr_C,Attr_R);
 7047              		.loc 1 4085 4 view .LVU1951
 7048 016c FFF7FEFF 		bl	SetTriggerCSource
 7049              	.LVL631:
4088:VS4210/keyremo.c **** 			MCUTimerCancelTimerEvent(_SYSTEM_TIMER_EVENT_AUTO_SLEEPING_TIMEOUT);
 7050              		.loc 1 4088 4 view .LVU1952
 7051 0170 3B20     		movs	r0, #59
 7052 0172 FFF7FEFF 		bl	MCUTimerCancelTimerEvent
 7053              	.LVL632:
4089:VS4210/keyremo.c **** 			MCUTimerCancelTimerEvent(_USER_TIMER_EVENT_SEQ_CHECK);
 7054              		.loc 1 4089 4 view .LVU1953
 7055 0176 4E20     		movs	r0, #78
 7056 0178 FFF7FEFF 		bl	MCUTimerCancelTimerEvent
 7057              	.LVL633:
4090:VS4210/keyremo.c **** 			MCUTimerCancelTimerEvent(_USER_TIMER_EVENT_DISPLAY_DISABLE);
 7058              		.loc 1 4090 4 view .LVU1954
 7059 017c 1420     		movs	r0, #20
 7060 017e FFF7FEFF 		bl	MCUTimerCancelTimerEvent
 7061              	.LVL634:
4091:VS4210/keyremo.c **** 		}
 7062              		.loc 1 4091 4 view .LVU1955
 7063 0182 0F20     		movs	r0, #15
 7064 0184 FFF7FEFF 		bl	MCUTimerCancelTimerEvent
 7065              	.LVL635:
4093:VS4210/keyremo.c **** 	}
 7066              		.loc 1 4093 3 view .LVU1956
 7067 0188 65E7     		b	.L508
 7068              	.L542:
4082:VS4210/keyremo.c **** 			MCUTimerCancelTimerEvent(_USER_TIMER_EVENT_OSD_DISABLE);
 7069              		.loc 1 4082 5 view .LVU1957
 7070 018a FFF7FEFF 		bl	CloseOSDMenu
 7071              	.LVL636:
 7072 018e EAE7     		b	.L521
 7073              	.LVL637:
 7074              	.L537:
4099:VS4210/keyremo.c **** 		{
 7075              		.loc 1 4099 3 view .LVU1958
4099:VS4210/keyremo.c **** 		{
 7076              		.loc 1 4099 19 is_stmt 0 view .LVU1959
 7077 0190 254B     		ldr	r3, .L544
 7078 0192 1B78     		ldrb	r3, [r3]	@ zero_extendqisi2
4099:VS4210/keyremo.c **** 		{
 7079              		.loc 1 4099 6 view .LVU1960
ARM GAS  C:\Users\ryanc.HS\AppData\Local\Temp\ccZ9UySd.s 			page 230


 7080 0194 052B     		cmp	r3, #5
 7081 0196 3FF45EAF 		beq	.L508
4101:VS4210/keyremo.c **** 			TriggerStatus = 5;
 7082              		.loc 1 4101 4 is_stmt 1 view .LVU1961
 7083 019a 0021     		movs	r1, #0
 7084 019c 2948     		ldr	r0, .L544+28
 7085              	.LVL638:
4101:VS4210/keyremo.c **** 			TriggerStatus = 5;
 7086              		.loc 1 4101 4 is_stmt 0 view .LVU1962
 7087 019e FFF7FEFF 		bl	Printf
 7088              	.LVL639:
4102:VS4210/keyremo.c **** 			TriggerMode = CAMD_TRIG;
 7089              		.loc 1 4102 4 is_stmt 1 view .LVU1963
4102:VS4210/keyremo.c **** 			TriggerMode = CAMD_TRIG;
 7090              		.loc 1 4102 18 is_stmt 0 view .LVU1964
 7091 01a2 0523     		movs	r3, #5
 7092 01a4 224A     		ldr	r2, .L544+8
 7093 01a6 1370     		strb	r3, [r2]
4103:VS4210/keyremo.c **** 			if (GetDisplayedOSD() & (MENU | TVVOL))
 7094              		.loc 1 4103 4 is_stmt 1 view .LVU1965
4103:VS4210/keyremo.c **** 			if (GetDisplayedOSD() & (MENU | TVVOL))
 7095              		.loc 1 4103 16 is_stmt 0 view .LVU1966
 7096 01a8 1F4A     		ldr	r2, .L544
 7097 01aa 1370     		strb	r3, [r2]
4104:VS4210/keyremo.c **** 				CloseOSDMenu();
 7098              		.loc 1 4104 4 is_stmt 1 view .LVU1967
4104:VS4210/keyremo.c **** 				CloseOSDMenu();
 7099              		.loc 1 4104 8 is_stmt 0 view .LVU1968
 7100 01ac FFF7FEFF 		bl	GetDisplayedOSD
 7101              	.LVL640:
4104:VS4210/keyremo.c **** 				CloseOSDMenu();
 7102              		.loc 1 4104 7 view .LVU1969
 7103 01b0 10F0060F 		tst	r0, #6
 7104 01b4 11D1     		bne	.L543
 7105              	.L524:
4106:VS4210/keyremo.c **** 
 7106              		.loc 1 4106 4 is_stmt 1 view .LVU1970
 7107 01b6 0E20     		movs	r0, #14
 7108 01b8 FFF7FEFF 		bl	MCUTimerCancelTimerEvent
 7109              	.LVL641:
4108:VS4210/keyremo.c **** 
 7110              		.loc 1 4108 4 view .LVU1971
 7111 01bc FFF7FEFF 		bl	SetTriggerDSource
 7112              	.LVL642:
4110:VS4210/keyremo.c **** 			MCUTimerCancelTimerEvent(_SYSTEM_TIMER_EVENT_AUTO_SLEEPING_TIMEOUT);
 7113              		.loc 1 4110 4 view .LVU1972
 7114 01c0 3B20     		movs	r0, #59
 7115 01c2 FFF7FEFF 		bl	MCUTimerCancelTimerEvent
 7116              	.LVL643:
4111:VS4210/keyremo.c **** 			MCUTimerCancelTimerEvent(_USER_TIMER_EVENT_SEQ_CHECK);
 7117              		.loc 1 4111 4 view .LVU1973
 7118 01c6 4E20     		movs	r0, #78
 7119 01c8 FFF7FEFF 		bl	MCUTimerCancelTimerEvent
 7120              	.LVL644:
4112:VS4210/keyremo.c **** 			MCUTimerCancelTimerEvent(_USER_TIMER_EVENT_DISPLAY_DISABLE);
 7121              		.loc 1 4112 4 view .LVU1974
 7122 01cc 1420     		movs	r0, #20
ARM GAS  C:\Users\ryanc.HS\AppData\Local\Temp\ccZ9UySd.s 			page 231


 7123 01ce FFF7FEFF 		bl	MCUTimerCancelTimerEvent
 7124              	.LVL645:
4113:VS4210/keyremo.c **** 		}
 7125              		.loc 1 4113 4 view .LVU1975
 7126 01d2 0F20     		movs	r0, #15
 7127 01d4 FFF7FEFF 		bl	MCUTimerCancelTimerEvent
 7128              	.LVL646:
4115:VS4210/keyremo.c **** 	}
 7129              		.loc 1 4115 3 view .LVU1976
 7130 01d8 3DE7     		b	.L508
 7131              	.L543:
4105:VS4210/keyremo.c **** 			MCUTimerCancelTimerEvent(_USER_TIMER_EVENT_OSD_DISABLE);
 7132              		.loc 1 4105 5 view .LVU1977
 7133 01da FFF7FEFF 		bl	CloseOSDMenu
 7134              	.LVL647:
 7135 01de EAE7     		b	.L524
 7136              	.L531:
4158:VS4210/keyremo.c **** 			break;
 7137              		.loc 1 4158 4 view .LVU1978
4158:VS4210/keyremo.c **** 			break;
 7138              		.loc 1 4158 12 is_stmt 0 view .LVU1979
 7139 01e0 C020     		movs	r0, #192
 7140 01e2 FFF7FEFF 		bl	ReadEEP
 7141              	.LVL648:
 7142 01e6 0446     		mov	r4, r0
 7143              	.LVL649:
4159:VS4210/keyremo.c **** 		case 2:
 7144              		.loc 1 4159 4 is_stmt 1 view .LVU1980
 7145              	.L525:
4178:VS4210/keyremo.c **** 		// setloopoutmode(SelectModeType) ;
 7146              		.loc 1 4178 3 view .LVU1981
 7147 01e8 3B21     		movs	r1, #59
 7148 01ea 4FF47A70 		mov	r0, #1000
 7149 01ee 00FB04F0 		mul	r0, r0, r4
 7150 01f2 FFF7FEFF 		bl	MCUTimerActiveTimerEvent
 7151              	.LVL650:
4303:VS4210/keyremo.c **** /*
 7152              		.loc 1 4303 3 view .LVU1982
4303:VS4210/keyremo.c **** /*
 7153              		.loc 1 4303 15 is_stmt 0 view .LVU1983
 7154 01f6 0C4B     		ldr	r3, .L544
 7155 01f8 0822     		movs	r2, #8
 7156 01fa 1A70     		strb	r2, [r3]
 7157 01fc 2BE7     		b	.L508
 7158              	.LVL651:
 7159              	.L530:
4161:VS4210/keyremo.c **** 			break;
 7160              		.loc 1 4161 4 is_stmt 1 view .LVU1984
4161:VS4210/keyremo.c **** 			break;
 7161              		.loc 1 4161 12 is_stmt 0 view .LVU1985
 7162 01fe C120     		movs	r0, #193
 7163 0200 FFF7FEFF 		bl	ReadEEP
 7164              	.LVL652:
 7165 0204 0446     		mov	r4, r0
 7166              	.LVL653:
4162:VS4210/keyremo.c **** 		case 3:
 7167              		.loc 1 4162 4 is_stmt 1 view .LVU1986
ARM GAS  C:\Users\ryanc.HS\AppData\Local\Temp\ccZ9UySd.s 			page 232


 7168 0206 EFE7     		b	.L525
 7169              	.LVL654:
 7170              	.L529:
4164:VS4210/keyremo.c **** 			break;
 7171              		.loc 1 4164 4 view .LVU1987
4164:VS4210/keyremo.c **** 			break;
 7172              		.loc 1 4164 12 is_stmt 0 view .LVU1988
 7173 0208 C220     		movs	r0, #194
 7174 020a FFF7FEFF 		bl	ReadEEP
 7175              	.LVL655:
 7176 020e 0446     		mov	r4, r0
 7177              	.LVL656:
4165:VS4210/keyremo.c **** 		case 4:
 7178              		.loc 1 4165 4 is_stmt 1 view .LVU1989
 7179 0210 EAE7     		b	.L525
 7180              	.LVL657:
 7181              	.L528:
4167:VS4210/keyremo.c **** 			break;
 7182              		.loc 1 4167 4 view .LVU1990
4167:VS4210/keyremo.c **** 			break;
 7183              		.loc 1 4167 12 is_stmt 0 view .LVU1991
 7184 0212 C320     		movs	r0, #195
 7185 0214 FFF7FEFF 		bl	ReadEEP
 7186              	.LVL658:
 7187 0218 0446     		mov	r4, r0
 7188              	.LVL659:
4168:VS4210/keyremo.c **** 		case 5:
 7189              		.loc 1 4168 4 is_stmt 1 view .LVU1992
 7190 021a E5E7     		b	.L525
 7191              	.LVL660:
 7192              	.L526:
4170:VS4210/keyremo.c **** 			break;
 7193              		.loc 1 4170 4 view .LVU1993
4170:VS4210/keyremo.c **** 			break;
 7194              		.loc 1 4170 12 is_stmt 0 view .LVU1994
 7195 021c C420     		movs	r0, #196
 7196 021e FFF7FEFF 		bl	ReadEEP
 7197              	.LVL661:
 7198 0222 0446     		mov	r4, r0
 7199              	.LVL662:
4171:VS4210/keyremo.c **** 
 7200              		.loc 1 4171 4 is_stmt 1 view .LVU1995
 7201 0224 E0E7     		b	.L525
 7202              	.L545:
 7203 0226 00BF     		.align	2
 7204              	.L544:
 7205 0228 00000000 		.word	TriggerMode
 7206 022c 44000000 		.word	.LC64
 7207 0230 00000000 		.word	.LANCHOR11
 7208 0234 00000000 		.word	.LC59
 7209 0238 10000000 		.word	.LC60
 7210 023c 1C000000 		.word	.LC61
 7211 0240 2C000000 		.word	.LC62
 7212 0244 38000000 		.word	.LC63
 7213              		.cfi_endproc
 7214              	.LFE94:
 7216              		.section	.rodata.CheckTouchScreen.str1.4,"aMS",%progbits,1
ARM GAS  C:\Users\ryanc.HS\AppData\Local\Temp\ccZ9UySd.s 			page 233


 7217              		.align	2
 7218              	.LC65:
 7219 0000 0D0A285F 		.ascii	"\015\012(_MENU_ENTER)\000"
 7219      4D454E55 
 7219      5F454E54 
 7219      45522900 
 7220              		.align	2
 7221              	.LC66:
 7222 0010 0D0A285F 		.ascii	"\015\012(_COCOSD_UP)\000"
 7222      434F434F 
 7222      53445F55 
 7222      502900
 7223 001f 00       		.align	2
 7224              	.LC67:
 7225 0020 0D0A285F 		.ascii	"\015\012(_COCOSD_DOWN)\000"
 7225      434F434F 
 7225      53445F44 
 7225      4F574E29 
 7225      00
 7226 0031 000000   		.align	2
 7227              	.LC68:
 7228 0034 0D0A285F 		.ascii	"\015\012(_COCOSD_LEFT)\000"
 7228      434F434F 
 7228      53445F4C 
 7228      45465429 
 7228      00
 7229 0045 000000   		.align	2
 7230              	.LC69:
 7231 0048 0D0A285F 		.ascii	"\015\012(_COCOSD_RIGHT)\000"
 7231      434F434F 
 7231      53445F52 
 7231      49474854 
 7231      2900
 7232 005a 0000     		.align	2
 7233              	.LC70:
 7234 005c 0D0A285F 		.ascii	"\015\012(_COCOSD_ENTER)\000"
 7234      434F434F 
 7234      53445F45 
 7234      4E544552 
 7234      2900
 7235              		.section	.text.CheckTouchScreen,"ax",%progbits
 7236              		.align	1
 7237              		.global	CheckTouchScreen
 7238              		.syntax unified
 7239              		.thumb
 7240              		.thumb_func
 7241              		.fpu softvfp
 7243              	CheckTouchScreen:
 7244              	.LVL663:
 7245              	.LFB95:
4383:VS4210/keyremo.c **** 
4384:VS4210/keyremo.c **** BYTE CheckTouchScreen(BYTE Action, WORD index)
4385:VS4210/keyremo.c **** {
 7246              		.loc 1 4385 1 view -0
 7247              		.cfi_startproc
 7248              		@ args = 0, pretend = 0, frame = 0
 7249              		@ frame_needed = 0, uses_anonymous_args = 0
ARM GAS  C:\Users\ryanc.HS\AppData\Local\Temp\ccZ9UySd.s 			page 234


 7250              		.loc 1 4385 1 is_stmt 0 view .LVU1997
 7251 0000 38B5     		push	{r3, r4, r5, lr}
 7252              	.LCFI25:
 7253              		.cfi_def_cfa_offset 16
 7254              		.cfi_offset 3, -16
 7255              		.cfi_offset 4, -12
 7256              		.cfi_offset 5, -8
 7257              		.cfi_offset 14, -4
 7258 0002 0446     		mov	r4, r0
4386:VS4210/keyremo.c **** 	BYTE ret = 0;
 7259              		.loc 1 4386 2 is_stmt 1 view .LVU1998
 7260              	.LVL664:
4387:VS4210/keyremo.c **** 
4388:VS4210/keyremo.c **** 	OneTouchPosition = index;
 7261              		.loc 1 4388 2 view .LVU1999
 7262              		.loc 1 4388 19 is_stmt 0 view .LVU2000
 7263 0004 A94B     		ldr	r3, .L573
 7264 0006 1960     		str	r1, [r3]
4389:VS4210/keyremo.c **** // Printf("\r\nCheckTouchScreen");
4390:VS4210/keyremo.c **** #if 0 //// (_DEBUG_MESSAGE_GT911==ON)	
4391:VS4210/keyremo.c **** 				switch (TouchP) 
4392:VS4210/keyremo.c **** 				{
4393:VS4210/keyremo.c **** 					case _TOUCH_COUNT_1: Printf("\r\nTOUCH_COUNT_1"); 				
4394:VS4210/keyremo.c **** 					/*
4395:VS4210/keyremo.c **** 					if(  GetDisplayedOSD() & (MENU |TVVOL) ) 
4396:VS4210/keyremo.c **** 					 CloseOSDMenu();
4397:VS4210/keyremo.c **** 					 SetSelectMode();
4398:VS4210/keyremo.c **** 					 */
4399:VS4210/keyremo.c **** 											break;
4400:VS4210/keyremo.c **** 					case _TOUCH_COUNT_2: 
4401:VS4210/keyremo.c **** 											Printf("\r\nTOUCH_COUNT_2"); 
4402:VS4210/keyremo.c **** 											break;
4403:VS4210/keyremo.c **** 					case _TOUCH_COUNT_3: Printf("\r\nTOUCH_COUNT_3"); break;
4404:VS4210/keyremo.c **** 					case _TOUCH_COUNT_4: Printf("\r\nTOUCH_COUNT_4"); break;
4405:VS4210/keyremo.c **** 					case _TOUCH_COUNT_5: Printf("\r\nTOUCH_COUNT_5"); break;
4406:VS4210/keyremo.c **** 					default: Printf("\r\n_TOUCH_COUNT_OVER 5"); break;
4407:VS4210/keyremo.c **** 				}				
4408:VS4210/keyremo.c **** 			
4409:VS4210/keyremo.c **** 			TouchP=0;
4410:VS4210/keyremo.c **** #endif
4411:VS4210/keyremo.c **** 
4412:VS4210/keyremo.c **** 	switch (Action)
 7265              		.loc 1 4412 2 is_stmt 1 view .LVU2001
 7266 0008 1D28     		cmp	r0, #29
 7267 000a 21D8     		bhi	.L547
 7268 000c DFE810F0 		tbh	[pc, r0, lsl #1]
 7269              	.L549:
 7270 0010 2200     		.2byte	(.L563-.L549)/2
 7271 0012 3C00     		.2byte	(.L562-.L549)/2
 7272 0014 7400     		.2byte	(.L561-.L549)/2
 7273 0016 8600     		.2byte	(.L560-.L549)/2
 7274 0018 2000     		.2byte	(.L547-.L549)/2
 7275 001a 7100     		.2byte	(.L559-.L549)/2
 7276 001c 2000     		.2byte	(.L547-.L549)/2
 7277 001e 2000     		.2byte	(.L547-.L549)/2
 7278 0020 2000     		.2byte	(.L547-.L549)/2
 7279 0022 2000     		.2byte	(.L547-.L549)/2
ARM GAS  C:\Users\ryanc.HS\AppData\Local\Temp\ccZ9UySd.s 			page 235


 7280 0024 1E00     		.2byte	(.L558-.L549)/2
 7281 0026 9800     		.2byte	(.L557-.L549)/2
 7282 0028 A600     		.2byte	(.L556-.L549)/2
 7283 002a 2000     		.2byte	(.L547-.L549)/2
 7284 002c B400     		.2byte	(.L555-.L549)/2
 7285 002e C700     		.2byte	(.L554-.L549)/2
 7286 0030 E200     		.2byte	(.L553-.L549)/2
 7287 0032 FD00     		.2byte	(.L552-.L549)/2
 7288 0034 1801     		.2byte	(.L551-.L549)/2
 7289 0036 3301     		.2byte	(.L550-.L549)/2
 7290 0038 2000     		.2byte	(.L547-.L549)/2
 7291 003a 2000     		.2byte	(.L547-.L549)/2
 7292 003c 2000     		.2byte	(.L547-.L549)/2
 7293 003e 2000     		.2byte	(.L547-.L549)/2
 7294 0040 2000     		.2byte	(.L547-.L549)/2
 7295 0042 2000     		.2byte	(.L547-.L549)/2
 7296 0044 2000     		.2byte	(.L547-.L549)/2
 7297 0046 2000     		.2byte	(.L547-.L549)/2
 7298 0048 2000     		.2byte	(.L547-.L549)/2
 7299 004a 3600     		.2byte	(.L548-.L549)/2
 7300              		.p2align 1
 7301              	.L558:
4413:VS4210/keyremo.c **** 	{
4414:VS4210/keyremo.c **** 	case _VOLUME_OPEN:
4415:VS4210/keyremo.c **** 		DisplayVol();
 7302              		.loc 1 4415 3 view .LVU2002
 7303 004c FFF7FEFF 		bl	DisplayVol
 7304              	.LVL665:
4416:VS4210/keyremo.c **** 		break;
 7305              		.loc 1 4416 3 view .LVU2003
 7306              	.L547:
4417:VS4210/keyremo.c **** 	case _MENU_OPEN:
4418:VS4210/keyremo.c **** 		if (GetDisplayedOSD() & TVVOL)
4419:VS4210/keyremo.c **** 			CloseOSDMenu();
4420:VS4210/keyremo.c **** 
4421:VS4210/keyremo.c **** 		MCUTimerCancelTimerEvent(_USER_TIMER_EVENT_OSD_DISABLE);
4422:VS4210/keyremo.c **** 		MCUTimerActiveTimerEvent(SEC(Menu_Osd_Time_Out), _USER_TIMER_EVENT_OSD_DISABLE);
4423:VS4210/keyremo.c **** 		// MenuTouchMode=1;
4424:VS4210/keyremo.c **** 		OpenOSDMenu(0);
4425:VS4210/keyremo.c **** 
4426:VS4210/keyremo.c **** 		break;
4427:VS4210/keyremo.c **** 	case _CLOSE_OSD:
4428:VS4210/keyremo.c **** 		MCUTimerCancelTimerEvent(_USER_TIMER_EVENT_OSD_DISABLE);
4429:VS4210/keyremo.c **** 		CloseOSDMenu();
4430:VS4210/keyremo.c **** 		break;
4431:VS4210/keyremo.c **** 	case _MENU_ENTER:
4432:VS4210/keyremo.c **** 		MenuTouchMode = 1;
4433:VS4210/keyremo.c **** #if 1
4434:VS4210/keyremo.c **** 		if (OnChangingValue)
4435:VS4210/keyremo.c **** 		{
4436:VS4210/keyremo.c **** 			OnChangingValue = 0;
4437:VS4210/keyremo.c **** 			DisplayCursor();
4438:VS4210/keyremo.c **** 
4439:VS4210/keyremo.c **** 			if (cursor_item != cursor_change)
4440:VS4210/keyremo.c **** 				OSDSelect();
4441:VS4210/keyremo.c **** 		}
4442:VS4210/keyremo.c **** 		else
ARM GAS  C:\Users\ryanc.HS\AppData\Local\Temp\ccZ9UySd.s 			page 236


4443:VS4210/keyremo.c **** 		{
4444:VS4210/keyremo.c **** 			OSDSelect();
4445:VS4210/keyremo.c **** 
4446:VS4210/keyremo.c **** 			// TouchDisplayCursor(_MENU_ITEM_ON_CHANGE);
4447:VS4210/keyremo.c **** 			// Printf("(M2)");
4448:VS4210/keyremo.c **** 		}
4449:VS4210/keyremo.c **** 
4450:VS4210/keyremo.c **** #else
4451:VS4210/keyremo.c **** 		if (OnChangingValue)
4452:VS4210/keyremo.c **** 		{
4453:VS4210/keyremo.c **** 			OnChangingValue = 0;
4454:VS4210/keyremo.c **** 			DisplayCursor();
4455:VS4210/keyremo.c **** 			// Printf("(M1)");
4456:VS4210/keyremo.c **** 		}
4457:VS4210/keyremo.c **** 		else
4458:VS4210/keyremo.c **** 		{
4459:VS4210/keyremo.c **** 			OSDSelect();
4460:VS4210/keyremo.c **** 			// TouchDisplayCursor(_MENU_ITEM_ON_CHANGE);
4461:VS4210/keyremo.c **** 			// Printf("(M2)");
4462:VS4210/keyremo.c **** 		}
4463:VS4210/keyremo.c **** #endif
4464:VS4210/keyremo.c **** 		MCUTimerCancelTimerEvent(_USER_TIMER_EVENT_OSD_DISABLE);
4465:VS4210/keyremo.c **** 
4466:VS4210/keyremo.c **** 		if ((GetDisplayedOSD() & MENU) == MENU)
4467:VS4210/keyremo.c **** 		{
4468:VS4210/keyremo.c **** 			MCUTimerActiveTimerEvent(SEC(Menu_Osd_Time_Out), _USER_TIMER_EVENT_OSD_DISABLE);
4469:VS4210/keyremo.c **** 		}
4470:VS4210/keyremo.c **** 		else if ((GetDisplayedOSD() & TVVOL) == TVVOL)
4471:VS4210/keyremo.c **** 		{
4472:VS4210/keyremo.c **** 			TouchDisplayCursor(_VOLUME_RELEASE);
4473:VS4210/keyremo.c **** 			MCUTimerActiveTimerEvent(SEC(Volume_Osd_Time_Out), _USER_TIMER_EVENT_OSD_DISABLE);
4474:VS4210/keyremo.c **** 		}
4475:VS4210/keyremo.c **** 
4476:VS4210/keyremo.c **** #if (_DEBUG_MESSAGE_GT911 == ON)
4477:VS4210/keyremo.c **** 		Printf("\r\n(_MENU_ENTER)");
4478:VS4210/keyremo.c **** #endif
4479:VS4210/keyremo.c **** 		break;
4480:VS4210/keyremo.c **** 	case _MENU_CURSOR:
4481:VS4210/keyremo.c **** 		// if( OnChangingValue==0 )
4482:VS4210/keyremo.c **** 		TouchDisplayCursor(Action);
4483:VS4210/keyremo.c **** 		break;
4484:VS4210/keyremo.c **** 	case _MENU_UP:
4485:VS4210/keyremo.c **** 		// if( OnChangingValue )
4486:VS4210/keyremo.c **** 		OSDValueUpDn(UP);
4487:VS4210/keyremo.c **** 		// else
4488:VS4210/keyremo.c **** 		//{
4489:VS4210/keyremo.c **** 		// OSDCursorMove(UP);
4490:VS4210/keyremo.c **** 		// }
4491:VS4210/keyremo.c **** 		TouchDisplayCursor(Action);
4492:VS4210/keyremo.c **** 		OneTouchCursorPosition = 1;
4493:VS4210/keyremo.c **** 		MCUTimerCancelTimerEvent(_USER_TIMER_EVENT_OSD_DISABLE);
4494:VS4210/keyremo.c **** 		MCUTimerActiveTimerEvent(SEC(Menu_Osd_Time_Out), _USER_TIMER_EVENT_OSD_DISABLE);
4495:VS4210/keyremo.c **** 		break;
4496:VS4210/keyremo.c **** 	case _MENU_DOWN:
4497:VS4210/keyremo.c **** 		// if( OnChangingValue )
4498:VS4210/keyremo.c **** 		OSDValueUpDn(DN);
4499:VS4210/keyremo.c **** 		// else
ARM GAS  C:\Users\ryanc.HS\AppData\Local\Temp\ccZ9UySd.s 			page 237


4500:VS4210/keyremo.c **** 		//{
4501:VS4210/keyremo.c **** 		// OSDCursorMove( DN);
4502:VS4210/keyremo.c **** 		// }
4503:VS4210/keyremo.c **** 		TouchDisplayCursor(Action);
4504:VS4210/keyremo.c **** 		OneTouchCursorPosition = 1;
4505:VS4210/keyremo.c **** 		MCUTimerCancelTimerEvent(_USER_TIMER_EVENT_OSD_DISABLE);
4506:VS4210/keyremo.c **** 		MCUTimerActiveTimerEvent(SEC(Menu_Osd_Time_Out), _USER_TIMER_EVENT_OSD_DISABLE);
4507:VS4210/keyremo.c **** 		break;
4508:VS4210/keyremo.c **** 	case _VOLUME_UP:
4509:VS4210/keyremo.c **** 		MenuTouchMode = 1;
4510:VS4210/keyremo.c **** 		ChangeVol(UP);
4511:VS4210/keyremo.c **** 		DisplayVol();
4512:VS4210/keyremo.c **** 		TouchDisplayCursor(Action);
4513:VS4210/keyremo.c **** 		OneTouchCursorPosition = 1;
4514:VS4210/keyremo.c **** 		break;
4515:VS4210/keyremo.c **** 	case _VOLUME_DOWN:
4516:VS4210/keyremo.c **** 		MenuTouchMode = 1;
4517:VS4210/keyremo.c **** 		ChangeVol(DN);
4518:VS4210/keyremo.c **** 		DisplayVol();
4519:VS4210/keyremo.c **** 		TouchDisplayCursor(Action);
4520:VS4210/keyremo.c **** 		OneTouchCursorPosition = 1;
4521:VS4210/keyremo.c **** 		break;
4522:VS4210/keyremo.c **** 	case _COCOSD_OPEN:
4523:VS4210/keyremo.c **** 		if (GetDisplayedOSD() & TVVOL)
4524:VS4210/keyremo.c **** 			CloseOSDMenu();
4525:VS4210/keyremo.c **** 
4526:VS4210/keyremo.c **** 		MCUTimerCancelTimerEvent(_USER_TIMER_EVENT_OSD_DISABLE);
4527:VS4210/keyremo.c **** 		MCUTimerActiveTimerEvent(SEC(Menu_Osd_Time_Out), _USER_TIMER_EVENT_OSD_DISABLE);
4528:VS4210/keyremo.c **** 		// COCSelectModeType=5;
4529:VS4210/keyremo.c **** 		// SetCOCCom(_COCOSD_BOXONLINE,0);
4530:VS4210/keyremo.c **** 		// Get_2824cIrq();
4531:VS4210/keyremo.c **** 		ShowCOCOSD();
4532:VS4210/keyremo.c **** 		// SetCOCCom(_COCOSD_BOX_Channel_Sel,COCSelectModeType);
4533:VS4210/keyremo.c **** 		//  Get_2824cIrq();
4534:VS4210/keyremo.c **** 		break;
4535:VS4210/keyremo.c **** 	case _COCOSD_UP:
4536:VS4210/keyremo.c **** #if (_DEBUG_MESSAGE_GT911 == ON)
4537:VS4210/keyremo.c **** 		Printf("\r\n(_COCOSD_UP)");
4538:VS4210/keyremo.c **** #endif
4539:VS4210/keyremo.c **** 		coc_cursor = 2;
4540:VS4210/keyremo.c **** 		SetCOCCom(_COCOSD_BOX_Sel, SelectModeType);
4541:VS4210/keyremo.c **** 		TouchDisplayCursor(Action);
4542:VS4210/keyremo.c **** 		SetCOCCom(Action, 0);
4543:VS4210/keyremo.c **** 		MCUTimerCancelTimerEvent(_USER_TIMER_EVENT_OSD_DISABLE);
4544:VS4210/keyremo.c **** 		MCUTimerActiveTimerEvent(SEC(Menu_Osd_Time_Out), _USER_TIMER_EVENT_OSD_DISABLE);
4545:VS4210/keyremo.c **** 		break;
4546:VS4210/keyremo.c **** 	case _COCOSD_DOWN:
4547:VS4210/keyremo.c **** #if (_DEBUG_MESSAGE_GT911 == ON)
4548:VS4210/keyremo.c **** 		Printf("\r\n(_COCOSD_DOWN)");
4549:VS4210/keyremo.c **** #endif
4550:VS4210/keyremo.c **** 		coc_cursor = 3;
4551:VS4210/keyremo.c **** 		SetCOCCom(_COCOSD_BOX_Sel, SelectModeType);
4552:VS4210/keyremo.c **** 		TouchDisplayCursor(Action);
4553:VS4210/keyremo.c **** 		SetCOCCom(Action, 0);
4554:VS4210/keyremo.c **** 		MCUTimerCancelTimerEvent(_USER_TIMER_EVENT_OSD_DISABLE);
4555:VS4210/keyremo.c **** 		MCUTimerActiveTimerEvent(SEC(Menu_Osd_Time_Out), _USER_TIMER_EVENT_OSD_DISABLE);
4556:VS4210/keyremo.c **** 
ARM GAS  C:\Users\ryanc.HS\AppData\Local\Temp\ccZ9UySd.s 			page 238


4557:VS4210/keyremo.c **** 		break;
4558:VS4210/keyremo.c **** 	case _COCOSD_LEFT:
4559:VS4210/keyremo.c **** #if (_DEBUG_MESSAGE_GT911 == ON)
4560:VS4210/keyremo.c **** 		Printf("\r\n(_COCOSD_LEFT)");
4561:VS4210/keyremo.c **** #endif
4562:VS4210/keyremo.c **** 		coc_cursor = 0;
4563:VS4210/keyremo.c **** 		SetCOCCom(_COCOSD_BOX_Sel, SelectModeType);
4564:VS4210/keyremo.c **** 		TouchDisplayCursor(Action);
4565:VS4210/keyremo.c **** 		SetCOCCom(Action, 0);
4566:VS4210/keyremo.c **** 		MCUTimerCancelTimerEvent(_USER_TIMER_EVENT_OSD_DISABLE);
4567:VS4210/keyremo.c **** 		MCUTimerActiveTimerEvent(SEC(Menu_Osd_Time_Out), _USER_TIMER_EVENT_OSD_DISABLE);
4568:VS4210/keyremo.c **** 
4569:VS4210/keyremo.c **** 		break;
4570:VS4210/keyremo.c **** 	case _COCOSD_RIGHT:
4571:VS4210/keyremo.c **** #if (_DEBUG_MESSAGE_GT911 == ON)
4572:VS4210/keyremo.c **** 		Printf("\r\n(_COCOSD_RIGHT)");
4573:VS4210/keyremo.c **** #endif
4574:VS4210/keyremo.c **** 		coc_cursor = 1;
4575:VS4210/keyremo.c **** 		SetCOCCom(_COCOSD_BOX_Sel, SelectModeType);
4576:VS4210/keyremo.c **** 		TouchDisplayCursor(Action);
4577:VS4210/keyremo.c **** 		SetCOCCom(Action, 0);
4578:VS4210/keyremo.c **** 		MCUTimerCancelTimerEvent(_USER_TIMER_EVENT_OSD_DISABLE);
4579:VS4210/keyremo.c **** 		MCUTimerActiveTimerEvent(SEC(Menu_Osd_Time_Out), _USER_TIMER_EVENT_OSD_DISABLE);
4580:VS4210/keyremo.c **** 
4581:VS4210/keyremo.c **** 		break;
4582:VS4210/keyremo.c **** 	case _COCOSD_ENTER:
4583:VS4210/keyremo.c **** #if (_DEBUG_MESSAGE_GT911 == ON)
4584:VS4210/keyremo.c **** 		Printf("\r\n(_COCOSD_ENTER)");
4585:VS4210/keyremo.c **** #endif
4586:VS4210/keyremo.c **** 		coc_cursor = 4;
4587:VS4210/keyremo.c **** 		SetCOCCom(_COCOSD_BOX_Sel, SelectModeType);
4588:VS4210/keyremo.c **** 		TouchDisplayCursor(Action);
4589:VS4210/keyremo.c **** 		SetCOCCom(Action, 0);
4590:VS4210/keyremo.c **** 		MCUTimerCancelTimerEvent(_USER_TIMER_EVENT_OSD_DISABLE);
4591:VS4210/keyremo.c **** 		MCUTimerActiveTimerEvent(SEC(Menu_Osd_Time_Out), _USER_TIMER_EVENT_OSD_DISABLE);
4592:VS4210/keyremo.c **** 
4593:VS4210/keyremo.c **** 		break;
4594:VS4210/keyremo.c **** 	}
4595:VS4210/keyremo.c **** 
4596:VS4210/keyremo.c **** 	return ret;
 7307              		.loc 1 4596 2 view .LVU2004
4597:VS4210/keyremo.c **** }
 7308              		.loc 1 4597 1 is_stmt 0 view .LVU2005
 7309 0050 0020     		movs	r0, #0
 7310 0052 38BD     		pop	{r3, r4, r5, pc}
 7311              	.LVL666:
 7312              	.L563:
4418:VS4210/keyremo.c **** 			CloseOSDMenu();
 7313              		.loc 1 4418 3 is_stmt 1 view .LVU2006
4418:VS4210/keyremo.c **** 			CloseOSDMenu();
 7314              		.loc 1 4418 7 is_stmt 0 view .LVU2007
 7315 0054 FFF7FEFF 		bl	GetDisplayedOSD
 7316              	.LVL667:
4418:VS4210/keyremo.c **** 			CloseOSDMenu();
 7317              		.loc 1 4418 6 view .LVU2008
 7318 0058 10F0040F 		tst	r0, #4
 7319 005c 0BD1     		bne	.L571
ARM GAS  C:\Users\ryanc.HS\AppData\Local\Temp\ccZ9UySd.s 			page 239


 7320              	.L564:
4421:VS4210/keyremo.c **** 		MCUTimerActiveTimerEvent(SEC(Menu_Osd_Time_Out), _USER_TIMER_EVENT_OSD_DISABLE);
 7321              		.loc 1 4421 3 is_stmt 1 view .LVU2009
 7322 005e 0E20     		movs	r0, #14
 7323 0060 FFF7FEFF 		bl	MCUTimerCancelTimerEvent
 7324              	.LVL668:
4422:VS4210/keyremo.c **** 		// MenuTouchMode=1;
 7325              		.loc 1 4422 3 view .LVU2010
 7326 0064 0E21     		movs	r1, #14
 7327 0066 43F69820 		movw	r0, #15000
 7328 006a FFF7FEFF 		bl	MCUTimerActiveTimerEvent
 7329              	.LVL669:
4424:VS4210/keyremo.c **** 
 7330              		.loc 1 4424 3 view .LVU2011
 7331 006e 0020     		movs	r0, #0
 7332 0070 FFF7FEFF 		bl	OpenOSDMenu
 7333              	.LVL670:
4426:VS4210/keyremo.c **** 	case _CLOSE_OSD:
 7334              		.loc 1 4426 3 view .LVU2012
 7335 0074 ECE7     		b	.L547
 7336              	.L571:
4419:VS4210/keyremo.c **** 
 7337              		.loc 1 4419 4 view .LVU2013
 7338 0076 FFF7FEFF 		bl	CloseOSDMenu
 7339              	.LVL671:
 7340 007a F0E7     		b	.L564
 7341              	.LVL672:
 7342              	.L548:
4428:VS4210/keyremo.c **** 		CloseOSDMenu();
 7343              		.loc 1 4428 3 view .LVU2014
 7344 007c 0E20     		movs	r0, #14
 7345              	.LVL673:
4428:VS4210/keyremo.c **** 		CloseOSDMenu();
 7346              		.loc 1 4428 3 is_stmt 0 view .LVU2015
 7347 007e FFF7FEFF 		bl	MCUTimerCancelTimerEvent
 7348              	.LVL674:
4429:VS4210/keyremo.c **** 		break;
 7349              		.loc 1 4429 3 is_stmt 1 view .LVU2016
 7350 0082 FFF7FEFF 		bl	CloseOSDMenu
 7351              	.LVL675:
4430:VS4210/keyremo.c **** 	case _MENU_ENTER:
 7352              		.loc 1 4430 3 view .LVU2017
 7353 0086 E3E7     		b	.L547
 7354              	.LVL676:
 7355              	.L562:
4432:VS4210/keyremo.c **** #if 1
 7356              		.loc 1 4432 3 view .LVU2018
4432:VS4210/keyremo.c **** #if 1
 7357              		.loc 1 4432 17 is_stmt 0 view .LVU2019
 7358 0088 894B     		ldr	r3, .L573+4
 7359 008a 0122     		movs	r2, #1
 7360 008c 1A70     		strb	r2, [r3]
4434:VS4210/keyremo.c **** 		{
 7361              		.loc 1 4434 3 is_stmt 1 view .LVU2020
4434:VS4210/keyremo.c **** 		{
 7362              		.loc 1 4434 7 is_stmt 0 view .LVU2021
 7363 008e 894B     		ldr	r3, .L573+8
ARM GAS  C:\Users\ryanc.HS\AppData\Local\Temp\ccZ9UySd.s 			page 240


 7364 0090 1B68     		ldr	r3, [r3]
4434:VS4210/keyremo.c **** 		{
 7365              		.loc 1 4434 6 view .LVU2022
 7366 0092 6BB1     		cbz	r3, .L565
4436:VS4210/keyremo.c **** 			DisplayCursor();
 7367              		.loc 1 4436 4 is_stmt 1 view .LVU2023
4436:VS4210/keyremo.c **** 			DisplayCursor();
 7368              		.loc 1 4436 20 is_stmt 0 view .LVU2024
 7369 0094 874B     		ldr	r3, .L573+8
 7370 0096 0022     		movs	r2, #0
 7371 0098 1A60     		str	r2, [r3]
4437:VS4210/keyremo.c **** 
 7372              		.loc 1 4437 4 is_stmt 1 view .LVU2025
 7373 009a FFF7FEFF 		bl	DisplayCursor
 7374              	.LVL677:
4439:VS4210/keyremo.c **** 				OSDSelect();
 7375              		.loc 1 4439 4 view .LVU2026
4439:VS4210/keyremo.c **** 				OSDSelect();
 7376              		.loc 1 4439 20 is_stmt 0 view .LVU2027
 7377 009e 864B     		ldr	r3, .L573+12
 7378 00a0 1A78     		ldrb	r2, [r3]	@ zero_extendqisi2
 7379 00a2 864B     		ldr	r3, .L573+16
 7380 00a4 1B78     		ldrb	r3, [r3]	@ zero_extendqisi2
4439:VS4210/keyremo.c **** 				OSDSelect();
 7381              		.loc 1 4439 7 view .LVU2028
 7382 00a6 9A42     		cmp	r2, r3
 7383 00a8 04D0     		beq	.L566
4440:VS4210/keyremo.c **** 		}
 7384              		.loc 1 4440 5 is_stmt 1 view .LVU2029
 7385 00aa FFF7FEFF 		bl	OSDSelect
 7386              	.LVL678:
 7387 00ae 01E0     		b	.L566
 7388              	.LVL679:
 7389              	.L565:
4444:VS4210/keyremo.c **** 
 7390              		.loc 1 4444 4 view .LVU2030
 7391 00b0 FFF7FEFF 		bl	OSDSelect
 7392              	.LVL680:
 7393              	.L566:
4464:VS4210/keyremo.c **** 
 7394              		.loc 1 4464 3 view .LVU2031
 7395 00b4 0E20     		movs	r0, #14
 7396 00b6 FFF7FEFF 		bl	MCUTimerCancelTimerEvent
 7397              	.LVL681:
4466:VS4210/keyremo.c **** 		{
 7398              		.loc 1 4466 3 view .LVU2032
4466:VS4210/keyremo.c **** 		{
 7399              		.loc 1 4466 8 is_stmt 0 view .LVU2033
 7400 00ba FFF7FEFF 		bl	GetDisplayedOSD
 7401              	.LVL682:
4466:VS4210/keyremo.c **** 		{
 7402              		.loc 1 4466 6 view .LVU2034
 7403 00be 10F0020F 		tst	r0, #2
 7404 00c2 08D0     		beq	.L567
4468:VS4210/keyremo.c **** 		}
 7405              		.loc 1 4468 4 is_stmt 1 view .LVU2035
 7406 00c4 0E21     		movs	r1, #14
ARM GAS  C:\Users\ryanc.HS\AppData\Local\Temp\ccZ9UySd.s 			page 241


 7407 00c6 43F69820 		movw	r0, #15000
 7408 00ca FFF7FEFF 		bl	MCUTimerActiveTimerEvent
 7409              	.LVL683:
 7410              	.L568:
4477:VS4210/keyremo.c **** #endif
 7411              		.loc 1 4477 3 view .LVU2036
 7412 00ce 7C48     		ldr	r0, .L573+20
 7413 00d0 FFF7FEFF 		bl	Printf
 7414              	.LVL684:
4479:VS4210/keyremo.c **** 	case _MENU_CURSOR:
 7415              		.loc 1 4479 3 view .LVU2037
 7416 00d4 BCE7     		b	.L547
 7417              	.L567:
4470:VS4210/keyremo.c **** 		{
 7418              		.loc 1 4470 8 view .LVU2038
4470:VS4210/keyremo.c **** 		{
 7419              		.loc 1 4470 13 is_stmt 0 view .LVU2039
 7420 00d6 FFF7FEFF 		bl	GetDisplayedOSD
 7421              	.LVL685:
4470:VS4210/keyremo.c **** 		{
 7422              		.loc 1 4470 11 view .LVU2040
 7423 00da 10F0040F 		tst	r0, #4
 7424 00de F6D0     		beq	.L568
4472:VS4210/keyremo.c **** 			MCUTimerActiveTimerEvent(SEC(Volume_Osd_Time_Out), _USER_TIMER_EVENT_OSD_DISABLE);
 7425              		.loc 1 4472 4 is_stmt 1 view .LVU2041
 7426 00e0 0D20     		movs	r0, #13
 7427 00e2 FFF7FEFF 		bl	TouchDisplayCursor
 7428              	.LVL686:
4473:VS4210/keyremo.c **** 		}
 7429              		.loc 1 4473 4 view .LVU2042
 7430 00e6 0E21     		movs	r1, #14
 7431 00e8 41F27070 		movw	r0, #6000
 7432 00ec FFF7FEFF 		bl	MCUTimerActiveTimerEvent
 7433              	.LVL687:
 7434 00f0 EDE7     		b	.L568
 7435              	.LVL688:
 7436              	.L559:
4482:VS4210/keyremo.c **** 		break;
 7437              		.loc 1 4482 3 view .LVU2043
 7438 00f2 FFF7FEFF 		bl	TouchDisplayCursor
 7439              	.LVL689:
4483:VS4210/keyremo.c **** 	case _MENU_UP:
 7440              		.loc 1 4483 3 view .LVU2044
 7441 00f6 ABE7     		b	.L547
 7442              	.LVL690:
 7443              	.L561:
4486:VS4210/keyremo.c **** 		// else
 7444              		.loc 1 4486 3 view .LVU2045
 7445 00f8 0120     		movs	r0, #1
 7446              	.LVL691:
4486:VS4210/keyremo.c **** 		// else
 7447              		.loc 1 4486 3 is_stmt 0 view .LVU2046
 7448 00fa FFF7FEFF 		bl	OSDValueUpDn
 7449              	.LVL692:
4491:VS4210/keyremo.c **** 		OneTouchCursorPosition = 1;
 7450              		.loc 1 4491 3 is_stmt 1 view .LVU2047
 7451 00fe 2046     		mov	r0, r4
ARM GAS  C:\Users\ryanc.HS\AppData\Local\Temp\ccZ9UySd.s 			page 242


 7452 0100 FFF7FEFF 		bl	TouchDisplayCursor
 7453              	.LVL693:
4492:VS4210/keyremo.c **** 		MCUTimerCancelTimerEvent(_USER_TIMER_EVENT_OSD_DISABLE);
 7454              		.loc 1 4492 3 view .LVU2048
4492:VS4210/keyremo.c **** 		MCUTimerCancelTimerEvent(_USER_TIMER_EVENT_OSD_DISABLE);
 7455              		.loc 1 4492 26 is_stmt 0 view .LVU2049
 7456 0104 6F4B     		ldr	r3, .L573+24
 7457 0106 0122     		movs	r2, #1
 7458 0108 1A60     		str	r2, [r3]
4493:VS4210/keyremo.c **** 		MCUTimerActiveTimerEvent(SEC(Menu_Osd_Time_Out), _USER_TIMER_EVENT_OSD_DISABLE);
 7459              		.loc 1 4493 3 is_stmt 1 view .LVU2050
 7460 010a 0E20     		movs	r0, #14
 7461 010c FFF7FEFF 		bl	MCUTimerCancelTimerEvent
 7462              	.LVL694:
4494:VS4210/keyremo.c **** 		break;
 7463              		.loc 1 4494 3 view .LVU2051
 7464 0110 0E21     		movs	r1, #14
 7465 0112 43F69820 		movw	r0, #15000
 7466 0116 FFF7FEFF 		bl	MCUTimerActiveTimerEvent
 7467              	.LVL695:
4495:VS4210/keyremo.c **** 	case _MENU_DOWN:
 7468              		.loc 1 4495 3 view .LVU2052
 7469 011a 99E7     		b	.L547
 7470              	.LVL696:
 7471              	.L560:
4498:VS4210/keyremo.c **** 		// else
 7472              		.loc 1 4498 3 view .LVU2053
 7473 011c 0220     		movs	r0, #2
 7474              	.LVL697:
4498:VS4210/keyremo.c **** 		// else
 7475              		.loc 1 4498 3 is_stmt 0 view .LVU2054
 7476 011e FFF7FEFF 		bl	OSDValueUpDn
 7477              	.LVL698:
4503:VS4210/keyremo.c **** 		OneTouchCursorPosition = 1;
 7478              		.loc 1 4503 3 is_stmt 1 view .LVU2055
 7479 0122 2046     		mov	r0, r4
 7480 0124 FFF7FEFF 		bl	TouchDisplayCursor
 7481              	.LVL699:
4504:VS4210/keyremo.c **** 		MCUTimerCancelTimerEvent(_USER_TIMER_EVENT_OSD_DISABLE);
 7482              		.loc 1 4504 3 view .LVU2056
4504:VS4210/keyremo.c **** 		MCUTimerCancelTimerEvent(_USER_TIMER_EVENT_OSD_DISABLE);
 7483              		.loc 1 4504 26 is_stmt 0 view .LVU2057
 7484 0128 664B     		ldr	r3, .L573+24
 7485 012a 0122     		movs	r2, #1
 7486 012c 1A60     		str	r2, [r3]
4505:VS4210/keyremo.c **** 		MCUTimerActiveTimerEvent(SEC(Menu_Osd_Time_Out), _USER_TIMER_EVENT_OSD_DISABLE);
 7487              		.loc 1 4505 3 is_stmt 1 view .LVU2058
 7488 012e 0E20     		movs	r0, #14
 7489 0130 FFF7FEFF 		bl	MCUTimerCancelTimerEvent
 7490              	.LVL700:
4506:VS4210/keyremo.c **** 		break;
 7491              		.loc 1 4506 3 view .LVU2059
 7492 0134 0E21     		movs	r1, #14
 7493 0136 43F69820 		movw	r0, #15000
 7494 013a FFF7FEFF 		bl	MCUTimerActiveTimerEvent
 7495              	.LVL701:
4507:VS4210/keyremo.c **** 	case _VOLUME_UP:
ARM GAS  C:\Users\ryanc.HS\AppData\Local\Temp\ccZ9UySd.s 			page 243


 7496              		.loc 1 4507 3 view .LVU2060
 7497 013e 87E7     		b	.L547
 7498              	.LVL702:
 7499              	.L557:
4509:VS4210/keyremo.c **** 		ChangeVol(UP);
 7500              		.loc 1 4509 3 view .LVU2061
4509:VS4210/keyremo.c **** 		ChangeVol(UP);
 7501              		.loc 1 4509 17 is_stmt 0 view .LVU2062
 7502 0140 0125     		movs	r5, #1
 7503 0142 5B4B     		ldr	r3, .L573+4
 7504 0144 1D70     		strb	r5, [r3]
4510:VS4210/keyremo.c **** 		DisplayVol();
 7505              		.loc 1 4510 3 is_stmt 1 view .LVU2063
 7506 0146 2846     		mov	r0, r5
 7507              	.LVL703:
4510:VS4210/keyremo.c **** 		DisplayVol();
 7508              		.loc 1 4510 3 is_stmt 0 view .LVU2064
 7509 0148 FFF7FEFF 		bl	ChangeVol
 7510              	.LVL704:
4511:VS4210/keyremo.c **** 		TouchDisplayCursor(Action);
 7511              		.loc 1 4511 3 is_stmt 1 view .LVU2065
 7512 014c FFF7FEFF 		bl	DisplayVol
 7513              	.LVL705:
4512:VS4210/keyremo.c **** 		OneTouchCursorPosition = 1;
 7514              		.loc 1 4512 3 view .LVU2066
 7515 0150 2046     		mov	r0, r4
 7516 0152 FFF7FEFF 		bl	TouchDisplayCursor
 7517              	.LVL706:
4513:VS4210/keyremo.c **** 		break;
 7518              		.loc 1 4513 3 view .LVU2067
4513:VS4210/keyremo.c **** 		break;
 7519              		.loc 1 4513 26 is_stmt 0 view .LVU2068
 7520 0156 5B4B     		ldr	r3, .L573+24
 7521 0158 1D60     		str	r5, [r3]
4514:VS4210/keyremo.c **** 	case _VOLUME_DOWN:
 7522              		.loc 1 4514 3 is_stmt 1 view .LVU2069
 7523 015a 79E7     		b	.L547
 7524              	.LVL707:
 7525              	.L556:
4516:VS4210/keyremo.c **** 		ChangeVol(DN);
 7526              		.loc 1 4516 3 view .LVU2070
4516:VS4210/keyremo.c **** 		ChangeVol(DN);
 7527              		.loc 1 4516 17 is_stmt 0 view .LVU2071
 7528 015c 0125     		movs	r5, #1
 7529 015e 544B     		ldr	r3, .L573+4
 7530 0160 1D70     		strb	r5, [r3]
4517:VS4210/keyremo.c **** 		DisplayVol();
 7531              		.loc 1 4517 3 is_stmt 1 view .LVU2072
 7532 0162 0220     		movs	r0, #2
 7533              	.LVL708:
4517:VS4210/keyremo.c **** 		DisplayVol();
 7534              		.loc 1 4517 3 is_stmt 0 view .LVU2073
 7535 0164 FFF7FEFF 		bl	ChangeVol
 7536              	.LVL709:
4518:VS4210/keyremo.c **** 		TouchDisplayCursor(Action);
 7537              		.loc 1 4518 3 is_stmt 1 view .LVU2074
 7538 0168 FFF7FEFF 		bl	DisplayVol
ARM GAS  C:\Users\ryanc.HS\AppData\Local\Temp\ccZ9UySd.s 			page 244


 7539              	.LVL710:
4519:VS4210/keyremo.c **** 		OneTouchCursorPosition = 1;
 7540              		.loc 1 4519 3 view .LVU2075
 7541 016c 2046     		mov	r0, r4
 7542 016e FFF7FEFF 		bl	TouchDisplayCursor
 7543              	.LVL711:
4520:VS4210/keyremo.c **** 		break;
 7544              		.loc 1 4520 3 view .LVU2076
4520:VS4210/keyremo.c **** 		break;
 7545              		.loc 1 4520 26 is_stmt 0 view .LVU2077
 7546 0172 544B     		ldr	r3, .L573+24
 7547 0174 1D60     		str	r5, [r3]
4521:VS4210/keyremo.c **** 	case _COCOSD_OPEN:
 7548              		.loc 1 4521 3 is_stmt 1 view .LVU2078
 7549 0176 6BE7     		b	.L547
 7550              	.LVL712:
 7551              	.L555:
4523:VS4210/keyremo.c **** 			CloseOSDMenu();
 7552              		.loc 1 4523 3 view .LVU2079
4523:VS4210/keyremo.c **** 			CloseOSDMenu();
 7553              		.loc 1 4523 7 is_stmt 0 view .LVU2080
 7554 0178 FFF7FEFF 		bl	GetDisplayedOSD
 7555              	.LVL713:
4523:VS4210/keyremo.c **** 			CloseOSDMenu();
 7556              		.loc 1 4523 6 view .LVU2081
 7557 017c 10F0040F 		tst	r0, #4
 7558 0180 0AD1     		bne	.L572
 7559              	.L569:
4526:VS4210/keyremo.c **** 		MCUTimerActiveTimerEvent(SEC(Menu_Osd_Time_Out), _USER_TIMER_EVENT_OSD_DISABLE);
 7560              		.loc 1 4526 3 is_stmt 1 view .LVU2082
 7561 0182 0E20     		movs	r0, #14
 7562 0184 FFF7FEFF 		bl	MCUTimerCancelTimerEvent
 7563              	.LVL714:
4527:VS4210/keyremo.c **** 		// COCSelectModeType=5;
 7564              		.loc 1 4527 3 view .LVU2083
 7565 0188 0E21     		movs	r1, #14
 7566 018a 43F69820 		movw	r0, #15000
 7567 018e FFF7FEFF 		bl	MCUTimerActiveTimerEvent
 7568              	.LVL715:
4531:VS4210/keyremo.c **** 		// SetCOCCom(_COCOSD_BOX_Channel_Sel,COCSelectModeType);
 7569              		.loc 1 4531 3 view .LVU2084
 7570 0192 FFF7FEFF 		bl	ShowCOCOSD
 7571              	.LVL716:
4534:VS4210/keyremo.c **** 	case _COCOSD_UP:
 7572              		.loc 1 4534 3 view .LVU2085
 7573 0196 5BE7     		b	.L547
 7574              	.L572:
4524:VS4210/keyremo.c **** 
 7575              		.loc 1 4524 4 view .LVU2086
 7576 0198 FFF7FEFF 		bl	CloseOSDMenu
 7577              	.LVL717:
 7578 019c F1E7     		b	.L569
 7579              	.LVL718:
 7580              	.L554:
4537:VS4210/keyremo.c **** #endif
 7581              		.loc 1 4537 3 view .LVU2087
 7582 019e 4A48     		ldr	r0, .L573+28
ARM GAS  C:\Users\ryanc.HS\AppData\Local\Temp\ccZ9UySd.s 			page 245


 7583              	.LVL719:
4537:VS4210/keyremo.c **** #endif
 7584              		.loc 1 4537 3 is_stmt 0 view .LVU2088
 7585 01a0 FFF7FEFF 		bl	Printf
 7586              	.LVL720:
4539:VS4210/keyremo.c **** 		SetCOCCom(_COCOSD_BOX_Sel, SelectModeType);
 7587              		.loc 1 4539 3 is_stmt 1 view .LVU2089
4539:VS4210/keyremo.c **** 		SetCOCCom(_COCOSD_BOX_Sel, SelectModeType);
 7588              		.loc 1 4539 14 is_stmt 0 view .LVU2090
 7589 01a4 494B     		ldr	r3, .L573+32
 7590 01a6 0222     		movs	r2, #2
 7591 01a8 1A70     		strb	r2, [r3]
4540:VS4210/keyremo.c **** 		TouchDisplayCursor(Action);
 7592              		.loc 1 4540 3 is_stmt 1 view .LVU2091
 7593 01aa 494B     		ldr	r3, .L573+36
 7594 01ac 1978     		ldrb	r1, [r3]	@ zero_extendqisi2
 7595 01ae 1920     		movs	r0, #25
 7596 01b0 FFF7FEFF 		bl	SetCOCCom
 7597              	.LVL721:
4541:VS4210/keyremo.c **** 		SetCOCCom(Action, 0);
 7598              		.loc 1 4541 3 view .LVU2092
 7599 01b4 2046     		mov	r0, r4
 7600 01b6 FFF7FEFF 		bl	TouchDisplayCursor
 7601              	.LVL722:
4542:VS4210/keyremo.c **** 		MCUTimerCancelTimerEvent(_USER_TIMER_EVENT_OSD_DISABLE);
 7602              		.loc 1 4542 3 view .LVU2093
 7603 01ba 0021     		movs	r1, #0
 7604 01bc 2046     		mov	r0, r4
 7605 01be FFF7FEFF 		bl	SetCOCCom
 7606              	.LVL723:
4543:VS4210/keyremo.c **** 		MCUTimerActiveTimerEvent(SEC(Menu_Osd_Time_Out), _USER_TIMER_EVENT_OSD_DISABLE);
 7607              		.loc 1 4543 3 view .LVU2094
 7608 01c2 0E20     		movs	r0, #14
 7609 01c4 FFF7FEFF 		bl	MCUTimerCancelTimerEvent
 7610              	.LVL724:
4544:VS4210/keyremo.c **** 		break;
 7611              		.loc 1 4544 3 view .LVU2095
 7612 01c8 0E21     		movs	r1, #14
 7613 01ca 43F69820 		movw	r0, #15000
 7614 01ce FFF7FEFF 		bl	MCUTimerActiveTimerEvent
 7615              	.LVL725:
4545:VS4210/keyremo.c **** 	case _COCOSD_DOWN:
 7616              		.loc 1 4545 3 view .LVU2096
 7617 01d2 3DE7     		b	.L547
 7618              	.LVL726:
 7619              	.L553:
4548:VS4210/keyremo.c **** #endif
 7620              		.loc 1 4548 3 view .LVU2097
 7621 01d4 3F48     		ldr	r0, .L573+40
 7622              	.LVL727:
4548:VS4210/keyremo.c **** #endif
 7623              		.loc 1 4548 3 is_stmt 0 view .LVU2098
 7624 01d6 FFF7FEFF 		bl	Printf
 7625              	.LVL728:
4550:VS4210/keyremo.c **** 		SetCOCCom(_COCOSD_BOX_Sel, SelectModeType);
 7626              		.loc 1 4550 3 is_stmt 1 view .LVU2099
4550:VS4210/keyremo.c **** 		SetCOCCom(_COCOSD_BOX_Sel, SelectModeType);
ARM GAS  C:\Users\ryanc.HS\AppData\Local\Temp\ccZ9UySd.s 			page 246


 7627              		.loc 1 4550 14 is_stmt 0 view .LVU2100
 7628 01da 3C4B     		ldr	r3, .L573+32
 7629 01dc 0322     		movs	r2, #3
 7630 01de 1A70     		strb	r2, [r3]
4551:VS4210/keyremo.c **** 		TouchDisplayCursor(Action);
 7631              		.loc 1 4551 3 is_stmt 1 view .LVU2101
 7632 01e0 3B4B     		ldr	r3, .L573+36
 7633 01e2 1978     		ldrb	r1, [r3]	@ zero_extendqisi2
 7634 01e4 1920     		movs	r0, #25
 7635 01e6 FFF7FEFF 		bl	SetCOCCom
 7636              	.LVL729:
4552:VS4210/keyremo.c **** 		SetCOCCom(Action, 0);
 7637              		.loc 1 4552 3 view .LVU2102
 7638 01ea 2046     		mov	r0, r4
 7639 01ec FFF7FEFF 		bl	TouchDisplayCursor
 7640              	.LVL730:
4553:VS4210/keyremo.c **** 		MCUTimerCancelTimerEvent(_USER_TIMER_EVENT_OSD_DISABLE);
 7641              		.loc 1 4553 3 view .LVU2103
 7642 01f0 0021     		movs	r1, #0
 7643 01f2 2046     		mov	r0, r4
 7644 01f4 FFF7FEFF 		bl	SetCOCCom
 7645              	.LVL731:
4554:VS4210/keyremo.c **** 		MCUTimerActiveTimerEvent(SEC(Menu_Osd_Time_Out), _USER_TIMER_EVENT_OSD_DISABLE);
 7646              		.loc 1 4554 3 view .LVU2104
 7647 01f8 0E20     		movs	r0, #14
 7648 01fa FFF7FEFF 		bl	MCUTimerCancelTimerEvent
 7649              	.LVL732:
4555:VS4210/keyremo.c **** 
 7650              		.loc 1 4555 3 view .LVU2105
 7651 01fe 0E21     		movs	r1, #14
 7652 0200 43F69820 		movw	r0, #15000
 7653 0204 FFF7FEFF 		bl	MCUTimerActiveTimerEvent
 7654              	.LVL733:
4557:VS4210/keyremo.c **** 	case _COCOSD_LEFT:
 7655              		.loc 1 4557 3 view .LVU2106
 7656 0208 22E7     		b	.L547
 7657              	.LVL734:
 7658              	.L552:
4560:VS4210/keyremo.c **** #endif
 7659              		.loc 1 4560 3 view .LVU2107
 7660 020a 3348     		ldr	r0, .L573+44
 7661              	.LVL735:
4560:VS4210/keyremo.c **** #endif
 7662              		.loc 1 4560 3 is_stmt 0 view .LVU2108
 7663 020c FFF7FEFF 		bl	Printf
 7664              	.LVL736:
4562:VS4210/keyremo.c **** 		SetCOCCom(_COCOSD_BOX_Sel, SelectModeType);
 7665              		.loc 1 4562 3 is_stmt 1 view .LVU2109
4562:VS4210/keyremo.c **** 		SetCOCCom(_COCOSD_BOX_Sel, SelectModeType);
 7666              		.loc 1 4562 14 is_stmt 0 view .LVU2110
 7667 0210 0025     		movs	r5, #0
 7668 0212 2E4B     		ldr	r3, .L573+32
 7669 0214 1D70     		strb	r5, [r3]
4563:VS4210/keyremo.c **** 		TouchDisplayCursor(Action);
 7670              		.loc 1 4563 3 is_stmt 1 view .LVU2111
 7671 0216 2E4B     		ldr	r3, .L573+36
 7672 0218 1978     		ldrb	r1, [r3]	@ zero_extendqisi2
ARM GAS  C:\Users\ryanc.HS\AppData\Local\Temp\ccZ9UySd.s 			page 247


 7673 021a 1920     		movs	r0, #25
 7674 021c FFF7FEFF 		bl	SetCOCCom
 7675              	.LVL737:
4564:VS4210/keyremo.c **** 		SetCOCCom(Action, 0);
 7676              		.loc 1 4564 3 view .LVU2112
 7677 0220 2046     		mov	r0, r4
 7678 0222 FFF7FEFF 		bl	TouchDisplayCursor
 7679              	.LVL738:
4565:VS4210/keyremo.c **** 		MCUTimerCancelTimerEvent(_USER_TIMER_EVENT_OSD_DISABLE);
 7680              		.loc 1 4565 3 view .LVU2113
 7681 0226 2946     		mov	r1, r5
 7682 0228 2046     		mov	r0, r4
 7683 022a FFF7FEFF 		bl	SetCOCCom
 7684              	.LVL739:
4566:VS4210/keyremo.c **** 		MCUTimerActiveTimerEvent(SEC(Menu_Osd_Time_Out), _USER_TIMER_EVENT_OSD_DISABLE);
 7685              		.loc 1 4566 3 view .LVU2114
 7686 022e 0E20     		movs	r0, #14
 7687 0230 FFF7FEFF 		bl	MCUTimerCancelTimerEvent
 7688              	.LVL740:
4567:VS4210/keyremo.c **** 
 7689              		.loc 1 4567 3 view .LVU2115
 7690 0234 0E21     		movs	r1, #14
 7691 0236 43F69820 		movw	r0, #15000
 7692 023a FFF7FEFF 		bl	MCUTimerActiveTimerEvent
 7693              	.LVL741:
4569:VS4210/keyremo.c **** 	case _COCOSD_RIGHT:
 7694              		.loc 1 4569 3 view .LVU2116
 7695 023e 07E7     		b	.L547
 7696              	.LVL742:
 7697              	.L551:
4572:VS4210/keyremo.c **** #endif
 7698              		.loc 1 4572 3 view .LVU2117
 7699 0240 2648     		ldr	r0, .L573+48
 7700              	.LVL743:
4572:VS4210/keyremo.c **** #endif
 7701              		.loc 1 4572 3 is_stmt 0 view .LVU2118
 7702 0242 FFF7FEFF 		bl	Printf
 7703              	.LVL744:
4574:VS4210/keyremo.c **** 		SetCOCCom(_COCOSD_BOX_Sel, SelectModeType);
 7704              		.loc 1 4574 3 is_stmt 1 view .LVU2119
4574:VS4210/keyremo.c **** 		SetCOCCom(_COCOSD_BOX_Sel, SelectModeType);
 7705              		.loc 1 4574 14 is_stmt 0 view .LVU2120
 7706 0246 214B     		ldr	r3, .L573+32
 7707 0248 0122     		movs	r2, #1
 7708 024a 1A70     		strb	r2, [r3]
4575:VS4210/keyremo.c **** 		TouchDisplayCursor(Action);
 7709              		.loc 1 4575 3 is_stmt 1 view .LVU2121
 7710 024c 204B     		ldr	r3, .L573+36
 7711 024e 1978     		ldrb	r1, [r3]	@ zero_extendqisi2
 7712 0250 1920     		movs	r0, #25
 7713 0252 FFF7FEFF 		bl	SetCOCCom
 7714              	.LVL745:
4576:VS4210/keyremo.c **** 		SetCOCCom(Action, 0);
 7715              		.loc 1 4576 3 view .LVU2122
 7716 0256 2046     		mov	r0, r4
 7717 0258 FFF7FEFF 		bl	TouchDisplayCursor
 7718              	.LVL746:
ARM GAS  C:\Users\ryanc.HS\AppData\Local\Temp\ccZ9UySd.s 			page 248


4577:VS4210/keyremo.c **** 		MCUTimerCancelTimerEvent(_USER_TIMER_EVENT_OSD_DISABLE);
 7719              		.loc 1 4577 3 view .LVU2123
 7720 025c 0021     		movs	r1, #0
 7721 025e 2046     		mov	r0, r4
 7722 0260 FFF7FEFF 		bl	SetCOCCom
 7723              	.LVL747:
4578:VS4210/keyremo.c **** 		MCUTimerActiveTimerEvent(SEC(Menu_Osd_Time_Out), _USER_TIMER_EVENT_OSD_DISABLE);
 7724              		.loc 1 4578 3 view .LVU2124
 7725 0264 0E20     		movs	r0, #14
 7726 0266 FFF7FEFF 		bl	MCUTimerCancelTimerEvent
 7727              	.LVL748:
4579:VS4210/keyremo.c **** 
 7728              		.loc 1 4579 3 view .LVU2125
 7729 026a 0E21     		movs	r1, #14
 7730 026c 43F69820 		movw	r0, #15000
 7731 0270 FFF7FEFF 		bl	MCUTimerActiveTimerEvent
 7732              	.LVL749:
4581:VS4210/keyremo.c **** 	case _COCOSD_ENTER:
 7733              		.loc 1 4581 3 view .LVU2126
 7734 0274 ECE6     		b	.L547
 7735              	.LVL750:
 7736              	.L550:
4584:VS4210/keyremo.c **** #endif
 7737              		.loc 1 4584 3 view .LVU2127
 7738 0276 1A48     		ldr	r0, .L573+52
 7739              	.LVL751:
4584:VS4210/keyremo.c **** #endif
 7740              		.loc 1 4584 3 is_stmt 0 view .LVU2128
 7741 0278 FFF7FEFF 		bl	Printf
 7742              	.LVL752:
4586:VS4210/keyremo.c **** 		SetCOCCom(_COCOSD_BOX_Sel, SelectModeType);
 7743              		.loc 1 4586 3 is_stmt 1 view .LVU2129
4586:VS4210/keyremo.c **** 		SetCOCCom(_COCOSD_BOX_Sel, SelectModeType);
 7744              		.loc 1 4586 14 is_stmt 0 view .LVU2130
 7745 027c 134B     		ldr	r3, .L573+32
 7746 027e 0422     		movs	r2, #4
 7747 0280 1A70     		strb	r2, [r3]
4587:VS4210/keyremo.c **** 		TouchDisplayCursor(Action);
 7748              		.loc 1 4587 3 is_stmt 1 view .LVU2131
 7749 0282 134B     		ldr	r3, .L573+36
 7750 0284 1978     		ldrb	r1, [r3]	@ zero_extendqisi2
 7751 0286 1920     		movs	r0, #25
 7752 0288 FFF7FEFF 		bl	SetCOCCom
 7753              	.LVL753:
4588:VS4210/keyremo.c **** 		SetCOCCom(Action, 0);
 7754              		.loc 1 4588 3 view .LVU2132
 7755 028c 2046     		mov	r0, r4
 7756 028e FFF7FEFF 		bl	TouchDisplayCursor
 7757              	.LVL754:
4589:VS4210/keyremo.c **** 		MCUTimerCancelTimerEvent(_USER_TIMER_EVENT_OSD_DISABLE);
 7758              		.loc 1 4589 3 view .LVU2133
 7759 0292 0021     		movs	r1, #0
 7760 0294 2046     		mov	r0, r4
 7761 0296 FFF7FEFF 		bl	SetCOCCom
 7762              	.LVL755:
4590:VS4210/keyremo.c **** 		MCUTimerActiveTimerEvent(SEC(Menu_Osd_Time_Out), _USER_TIMER_EVENT_OSD_DISABLE);
 7763              		.loc 1 4590 3 view .LVU2134
ARM GAS  C:\Users\ryanc.HS\AppData\Local\Temp\ccZ9UySd.s 			page 249


 7764 029a 0E20     		movs	r0, #14
 7765 029c FFF7FEFF 		bl	MCUTimerCancelTimerEvent
 7766              	.LVL756:
4591:VS4210/keyremo.c **** 
 7767              		.loc 1 4591 3 view .LVU2135
 7768 02a0 0E21     		movs	r1, #14
 7769 02a2 43F69820 		movw	r0, #15000
 7770 02a6 FFF7FEFF 		bl	MCUTimerActiveTimerEvent
 7771              	.LVL757:
4593:VS4210/keyremo.c **** 	}
 7772              		.loc 1 4593 3 view .LVU2136
 7773 02aa D1E6     		b	.L547
 7774              	.L574:
 7775              		.align	2
 7776              	.L573:
 7777 02ac 00000000 		.word	.LANCHOR33
 7778 02b0 00000000 		.word	.LANCHOR13
 7779 02b4 00000000 		.word	.LANCHOR12
 7780 02b8 00000000 		.word	cursor_item
 7781 02bc 00000000 		.word	cursor_change
 7782 02c0 00000000 		.word	.LC65
 7783 02c4 00000000 		.word	.LANCHOR34
 7784 02c8 10000000 		.word	.LC66
 7785 02cc 00000000 		.word	coc_cursor
 7786 02d0 00000000 		.word	SelectModeType
 7787 02d4 20000000 		.word	.LC67
 7788 02d8 34000000 		.word	.LC68
 7789 02dc 48000000 		.word	.LC69
 7790 02e0 5C000000 		.word	.LC70
 7791              		.cfi_endproc
 7792              	.LFE95:
 7794              		.section	.rodata.COMMAND_OSD.str1.4,"aMS",%progbits,1
 7795              		.align	2
 7796              	.LC71:
 7797 0000 0D0A00   		.ascii	"\015\012\000"
 7798 0003 00       		.align	2
 7799              	.LC72:
 7800 0004 41253031 		.ascii	"A%01x.%02x.%04x\000"
 7800      782E2530 
 7800      32782E25 
 7800      30347800 
 7801              		.align	2
 7802              	.LC73:
 7803 0014 0D0A434D 		.ascii	"\015\012CMD_OSD_UP\000"
 7803      445F4F53 
 7803      445F5550 
 7803      00
 7804 0021 000000   		.align	2
 7805              	.LC74:
 7806 0024 0D0A434D 		.ascii	"\015\012CMD_OSD_DOWN\000"
 7806      445F4F53 
 7806      445F444F 
 7806      574E00
 7807 0033 00       		.align	2
 7808              	.LC75:
 7809 0034 0D0A434D 		.ascii	"\015\012CMD_OSD_LEFT\000"
 7809      445F4F53 
ARM GAS  C:\Users\ryanc.HS\AppData\Local\Temp\ccZ9UySd.s 			page 250


 7809      445F4C45 
 7809      465400
 7810 0043 00       		.align	2
 7811              	.LC76:
 7812 0044 0D0A434D 		.ascii	"\015\012CMD_OSD_RIGHT\000"
 7812      445F4F53 
 7812      445F5249 
 7812      47485400 
 7813              		.align	2
 7814              	.LC77:
 7815 0054 0D0A434D 		.ascii	"\015\012CMD_OSD_SELECT\000"
 7815      445F4F53 
 7815      445F5345 
 7815      4C454354 
 7815      00
 7816 0065 000000   		.align	2
 7817              	.LC78:
 7818 0068 0D0A434D 		.ascii	"\015\012CMD_OSD_JUMP\000"
 7818      445F4F53 
 7818      445F4A55 
 7818      4D5000
 7819              		.section	.text.COMMAND_OSD,"ax",%progbits
 7820              		.align	1
 7821              		.global	COMMAND_OSD
 7822              		.syntax unified
 7823              		.thumb
 7824              		.thumb_func
 7825              		.fpu softvfp
 7827              	COMMAND_OSD:
 7828              	.LVL758:
 7829              	.LFB96:
4598:VS4210/keyremo.c **** 
4599:VS4210/keyremo.c **** void COMMAND_OSD(BYTE index)
4600:VS4210/keyremo.c **** {
 7830              		.loc 1 4600 1 view -0
 7831              		.cfi_startproc
 7832              		@ args = 0, pretend = 0, frame = 0
 7833              		@ frame_needed = 0, uses_anonymous_args = 0
 7834              		.loc 1 4600 1 is_stmt 0 view .LVU2138
 7835 0000 10B5     		push	{r4, lr}
 7836              	.LCFI26:
 7837              		.cfi_def_cfa_offset 8
 7838              		.cfi_offset 4, -8
 7839              		.cfi_offset 14, -4
 7840 0002 0446     		mov	r4, r0
4601:VS4210/keyremo.c **** 
4602:VS4210/keyremo.c **** 	if ((GetDisplayedOSD() & MENU) || (bytGaugeAdjust == DistanceGaugePosition) || (bytGaugeAdjust == 
 7841              		.loc 1 4602 2 is_stmt 1 view .LVU2139
 7842              		.loc 1 4602 7 is_stmt 0 view .LVU2140
 7843 0004 FFF7FEFF 		bl	GetDisplayedOSD
 7844              	.LVL759:
 7845              		.loc 1 4602 5 view .LVU2141
 7846 0008 10F0020F 		tst	r0, #2
 7847 000c 0BD1     		bne	.L576
 7848              		.loc 1 4602 52 discriminator 1 view .LVU2142
 7849 000e A94B     		ldr	r3, .L623
 7850 0010 1B78     		ldrb	r3, [r3]	@ zero_extendqisi2
ARM GAS  C:\Users\ryanc.HS\AppData\Local\Temp\ccZ9UySd.s 			page 251


 7851              		.loc 1 4602 33 discriminator 1 view .LVU2143
 7852 0012 BE2B     		cmp	r3, #190
 7853 0014 07D0     		beq	.L576
 7854              		.loc 1 4602 78 discriminator 2 view .LVU2144
 7855 0016 BF2B     		cmp	r3, #191
 7856 0018 05D0     		beq	.L576
 7857              		.loc 1 4602 120 discriminator 3 view .LVU2145
 7858 001a A74B     		ldr	r3, .L623+4
 7859 001c 1B78     		ldrb	r3, [r3]	@ zero_extendqisi2
 7860 001e 13B9     		cbnz	r3, .L576
 7861              		.loc 1 4602 142 discriminator 4 view .LVU2146
 7862 0020 A64B     		ldr	r3, .L623+8
 7863 0022 1B78     		ldrb	r3, [r3]	@ zero_extendqisi2
 7864 0024 3BB1     		cbz	r3, .L577
 7865              	.L576:
4603:VS4210/keyremo.c **** 	{
4604:VS4210/keyremo.c **** 		MCUTimerCancelTimerEvent(_USER_TIMER_EVENT_OSD_DISABLE);
 7866              		.loc 1 4604 3 is_stmt 1 view .LVU2147
 7867 0026 0E20     		movs	r0, #14
 7868 0028 FFF7FEFF 		bl	MCUTimerCancelTimerEvent
 7869              	.LVL760:
4605:VS4210/keyremo.c **** 		MCUTimerActiveTimerEvent(SEC(Menu_Osd_Time_Out), _USER_TIMER_EVENT_OSD_DISABLE);
 7870              		.loc 1 4605 3 view .LVU2148
 7871 002c 0E21     		movs	r1, #14
 7872 002e 43F69820 		movw	r0, #15000
 7873 0032 FFF7FEFF 		bl	MCUTimerActiveTimerEvent
 7874              	.LVL761:
 7875              	.L577:
4606:VS4210/keyremo.c **** 	}
4607:VS4210/keyremo.c **** 
4608:VS4210/keyremo.c **** 	switch (index)
 7876              		.loc 1 4608 2 view .LVU2149
 7877 0036 601E     		subs	r0, r4, #1
 7878 0038 0728     		cmp	r0, #7
 7879 003a 5DD8     		bhi	.L575
 7880 003c DFE810F0 		tbh	[pc, r0, lsl #1]
 7881              	.L580:
 7882 0040 4E00     		.2byte	(.L587-.L580)/2
 7883 0042 0800     		.2byte	(.L586-.L580)/2
 7884 0044 5D00     		.2byte	(.L585-.L580)/2
 7885 0046 A100     		.2byte	(.L584-.L580)/2
 7886 0048 E500     		.2byte	(.L583-.L580)/2
 7887 004a E900     		.2byte	(.L582-.L580)/2
 7888 004c ED00     		.2byte	(.L581-.L580)/2
 7889 004e 1801     		.2byte	(.L579-.L580)/2
 7890              		.p2align 1
 7891              	.L586:
4609:VS4210/keyremo.c **** 	{
4610:VS4210/keyremo.c **** 	case CMD_OSD_MENU:
4611:VS4210/keyremo.c **** 		// Printf("\r\nOpen MENU");
4612:VS4210/keyremo.c **** 
4613:VS4210/keyremo.c **** 		if (bytGrabberAdjust)
 7892              		.loc 1 4613 3 view .LVU2150
 7893              		.loc 1 4613 7 is_stmt 0 view .LVU2151
 7894 0050 994B     		ldr	r3, .L623+4
 7895 0052 1B78     		ldrb	r3, [r3]	@ zero_extendqisi2
 7896              		.loc 1 4613 6 view .LVU2152
ARM GAS  C:\Users\ryanc.HS\AppData\Local\Temp\ccZ9UySd.s 			page 252


 7897 0054 8BB9     		cbnz	r3, .L612
4614:VS4210/keyremo.c **** 		{
4615:VS4210/keyremo.c **** 			CLRGrabberMessage();
4616:VS4210/keyremo.c **** 			CloseOSDMenu();
4617:VS4210/keyremo.c **** 		}
4618:VS4210/keyremo.c **** 		else if (bytCOCAdjust == ON)
 7898              		.loc 1 4618 8 is_stmt 1 view .LVU2153
 7899              		.loc 1 4618 25 is_stmt 0 view .LVU2154
 7900 0056 994B     		ldr	r3, .L623+8
 7901 0058 1B78     		ldrb	r3, [r3]	@ zero_extendqisi2
 7902              		.loc 1 4618 11 view .LVU2155
 7903 005a 012B     		cmp	r3, #1
 7904 005c 12D0     		beq	.L613
4619:VS4210/keyremo.c **** 		{
4620:VS4210/keyremo.c **** 			Printf("\r\n(COC Menu key)");
4621:VS4210/keyremo.c **** 			SetCOCCom(_COCOSD_BOX_Sel, SelectModeType);
4622:VS4210/keyremo.c **** 			SetCOCCom(_COCOSD_ENTER, SelectModeType);
4623:VS4210/keyremo.c **** 		}
4624:VS4210/keyremo.c **** 		else if (GetDisplayedOSD() & MENU)
 7905              		.loc 1 4624 8 is_stmt 1 view .LVU2156
 7906              		.loc 1 4624 12 is_stmt 0 view .LVU2157
 7907 005e FFF7FEFF 		bl	GetDisplayedOSD
 7908              	.LVL762:
 7909              		.loc 1 4624 11 view .LVU2158
 7910 0062 10F0020F 		tst	r0, #2
 7911 0066 1DD0     		beq	.L590
4625:VS4210/keyremo.c **** 		{
4626:VS4210/keyremo.c **** 
4627:VS4210/keyremo.c **** 			if (OnChangingValue)
 7912              		.loc 1 4627 4 is_stmt 1 view .LVU2159
 7913              		.loc 1 4627 8 is_stmt 0 view .LVU2160
 7914 0068 954B     		ldr	r3, .L623+12
 7915 006a 1B68     		ldr	r3, [r3]
 7916              		.loc 1 4627 7 view .LVU2161
 7917 006c BBB1     		cbz	r3, .L591
4628:VS4210/keyremo.c **** 			{
4629:VS4210/keyremo.c **** 				// ret = ActionRemo( REMO_MENU, 0 );
4630:VS4210/keyremo.c **** 				OnChangingValue = 0;
 7918              		.loc 1 4630 5 is_stmt 1 view .LVU2162
 7919              		.loc 1 4630 21 is_stmt 0 view .LVU2163
 7920 006e 944B     		ldr	r3, .L623+12
 7921 0070 0022     		movs	r2, #0
 7922 0072 1A60     		str	r2, [r3]
4631:VS4210/keyremo.c **** 
4632:VS4210/keyremo.c **** 				DisplayCursor();
 7923              		.loc 1 4632 5 is_stmt 1 view .LVU2164
 7924 0074 FFF7FEFF 		bl	DisplayCursor
 7925              	.LVL763:
 7926 0078 3EE0     		b	.L575
 7927              	.L612:
4615:VS4210/keyremo.c **** 			CloseOSDMenu();
 7928              		.loc 1 4615 4 view .LVU2165
 7929 007a FFF7FEFF 		bl	CLRGrabberMessage
 7930              	.LVL764:
4616:VS4210/keyremo.c **** 		}
 7931              		.loc 1 4616 4 view .LVU2166
 7932 007e FFF7FEFF 		bl	CloseOSDMenu
ARM GAS  C:\Users\ryanc.HS\AppData\Local\Temp\ccZ9UySd.s 			page 253


 7933              	.LVL765:
 7934 0082 39E0     		b	.L575
 7935              	.L613:
4620:VS4210/keyremo.c **** 			SetCOCCom(_COCOSD_BOX_Sel, SelectModeType);
 7936              		.loc 1 4620 4 view .LVU2167
 7937 0084 8F48     		ldr	r0, .L623+16
 7938 0086 FFF7FEFF 		bl	Printf
 7939              	.LVL766:
4621:VS4210/keyremo.c **** 			SetCOCCom(_COCOSD_ENTER, SelectModeType);
 7940              		.loc 1 4621 4 view .LVU2168
 7941 008a 8F4C     		ldr	r4, .L623+20
 7942 008c 2178     		ldrb	r1, [r4]	@ zero_extendqisi2
 7943 008e 1920     		movs	r0, #25
 7944 0090 FFF7FEFF 		bl	SetCOCCom
 7945              	.LVL767:
4622:VS4210/keyremo.c **** 		}
 7946              		.loc 1 4622 4 view .LVU2169
 7947 0094 2178     		ldrb	r1, [r4]	@ zero_extendqisi2
 7948 0096 1320     		movs	r0, #19
 7949 0098 FFF7FEFF 		bl	SetCOCCom
 7950              	.LVL768:
 7951 009c 2CE0     		b	.L575
 7952              	.L591:
4633:VS4210/keyremo.c **** 				// ret = ActionRemo( REMO_MENU, RepeatKey );
4634:VS4210/keyremo.c **** 			}
4635:VS4210/keyremo.c **** 			else
4636:VS4210/keyremo.c **** 				OSDSelect();
 7953              		.loc 1 4636 5 view .LVU2170
 7954 009e FFF7FEFF 		bl	OSDSelect
 7955              	.LVL769:
 7956 00a2 29E0     		b	.L575
 7957              	.L590:
4637:VS4210/keyremo.c **** 		}
4638:VS4210/keyremo.c **** 		else
4639:VS4210/keyremo.c **** 		{
4640:VS4210/keyremo.c **** 
4641:VS4210/keyremo.c **** 			if (GetDisplayedOSD() & (TVVOL | _COC_OSD))
 7958              		.loc 1 4641 4 view .LVU2171
 7959              		.loc 1 4641 8 is_stmt 0 view .LVU2172
 7960 00a4 FFF7FEFF 		bl	GetDisplayedOSD
 7961              	.LVL770:
 7962              		.loc 1 4641 7 view .LVU2173
 7963 00a8 10F0240F 		tst	r0, #36
 7964 00ac 13D1     		bne	.L614
 7965              	.L592:
4642:VS4210/keyremo.c **** 				CloseOSDMenu();
4643:VS4210/keyremo.c **** #if 1
4644:VS4210/keyremo.c **** 			MCUTimerCancelTimerEvent(_USER_TIMER_EVENT_OSD_DISABLE);
 7966              		.loc 1 4644 4 is_stmt 1 view .LVU2174
 7967 00ae 0E20     		movs	r0, #14
 7968 00b0 FFF7FEFF 		bl	MCUTimerCancelTimerEvent
 7969              	.LVL771:
4645:VS4210/keyremo.c **** 			MCUTimerActiveTimerEvent(SEC(Menu_Osd_Time_Out), _USER_TIMER_EVENT_OSD_DISABLE);
 7970              		.loc 1 4645 4 view .LVU2175
 7971 00b4 0E21     		movs	r1, #14
 7972 00b6 43F69820 		movw	r0, #15000
 7973 00ba FFF7FEFF 		bl	MCUTimerActiveTimerEvent
ARM GAS  C:\Users\ryanc.HS\AppData\Local\Temp\ccZ9UySd.s 			page 254


 7974              	.LVL772:
4646:VS4210/keyremo.c **** #endif
4647:VS4210/keyremo.c **** 			MCUTimerCancelTimerEvent(_SYSTEM_TIMER_EVENT_GRABBER_SETUP);
 7975              		.loc 1 4647 4 view .LVU2176
 7976 00be 4A20     		movs	r0, #74
 7977 00c0 FFF7FEFF 		bl	MCUTimerCancelTimerEvent
 7978              	.LVL773:
4648:VS4210/keyremo.c **** 			OpenOSDMenu(0);
 7979              		.loc 1 4648 4 view .LVU2177
 7980 00c4 0020     		movs	r0, #0
 7981 00c6 FFF7FEFF 		bl	OpenOSDMenu
 7982              	.LVL774:
4649:VS4210/keyremo.c **** 
4650:VS4210/keyremo.c **** 			MenuTouchMode = 1;
 7983              		.loc 1 4650 4 view .LVU2178
 7984              		.loc 1 4650 18 is_stmt 0 view .LVU2179
 7985 00ca 0123     		movs	r3, #1
 7986 00cc 7F4A     		ldr	r2, .L623+24
 7987 00ce 1370     		strb	r3, [r2]
4651:VS4210/keyremo.c **** 			MenuTouchFlag = 1;
 7988              		.loc 1 4651 4 is_stmt 1 view .LVU2180
 7989              		.loc 1 4651 18 is_stmt 0 view .LVU2181
 7990 00d0 7F4A     		ldr	r2, .L623+28
 7991 00d2 1370     		strb	r3, [r2]
 7992 00d4 10E0     		b	.L575
 7993              	.L614:
4642:VS4210/keyremo.c **** #if 1
 7994              		.loc 1 4642 5 is_stmt 1 view .LVU2182
 7995 00d6 FFF7FEFF 		bl	CloseOSDMenu
 7996              	.LVL775:
 7997 00da E8E7     		b	.L592
 7998              	.L587:
4652:VS4210/keyremo.c **** 		}
4653:VS4210/keyremo.c **** 
4654:VS4210/keyremo.c **** 		break;
4655:VS4210/keyremo.c **** 	case CMD_FW:
4656:VS4210/keyremo.c **** 		Printf("\r\n");
 7999              		.loc 1 4656 3 view .LVU2183
 8000 00dc 7D48     		ldr	r0, .L623+32
 8001 00de FFF7FEFF 		bl	Printf
 8002              	.LVL776:
4657:VS4210/keyremo.c **** 		msleep(10);
 8003              		.loc 1 4657 3 view .LVU2184
 8004 00e2 0A20     		movs	r0, #10
 8005 00e4 FFF7FEFF 		bl	msleep
 8006              	.LVL777:
4658:VS4210/keyremo.c **** 		Printf("A%01x.%02x.%04x", (WORD)FWVER1, (WORD)FWVER2, (WORD)GetFWRevEE());
 8007              		.loc 1 4658 3 view .LVU2185
 8008              		.loc 1 4658 63 is_stmt 0 view .LVU2186
 8009 00e8 FFF7FEFF 		bl	GetFWRevEE
 8010              	.LVL778:
 8011 00ec 0346     		mov	r3, r0
 8012              		.loc 1 4658 3 view .LVU2187
 8013 00ee 0022     		movs	r2, #0
 8014 00f0 0121     		movs	r1, #1
 8015 00f2 7948     		ldr	r0, .L623+36
 8016 00f4 FFF7FEFF 		bl	Printf
ARM GAS  C:\Users\ryanc.HS\AppData\Local\Temp\ccZ9UySd.s 			page 255


 8017              	.LVL779:
4659:VS4210/keyremo.c **** 		break;
 8018              		.loc 1 4659 3 is_stmt 1 view .LVU2188
 8019              	.L575:
4660:VS4210/keyremo.c **** 	case CMD_OSD_UP:
4661:VS4210/keyremo.c **** 		Printf("\r\nCMD_OSD_UP");
4662:VS4210/keyremo.c **** 		if (bytCOCAdjust == ON)
4663:VS4210/keyremo.c **** 		{
4664:VS4210/keyremo.c **** 			Printf("\r\n(COC UP key)");
4665:VS4210/keyremo.c **** 			SetCOCCom(_COCOSD_BOX_Sel, SelectModeType);
4666:VS4210/keyremo.c **** 			SetCOCCom(_COCOSD_UP, SelectModeType);
4667:VS4210/keyremo.c **** 		}
4668:VS4210/keyremo.c **** 		else if (GetDisplayedOSD() & MENU)
4669:VS4210/keyremo.c **** 		{
4670:VS4210/keyremo.c **** 			if (OnChangingValue)
4671:VS4210/keyremo.c **** 			{
4672:VS4210/keyremo.c **** 				OSDValueUpDn(UP);
4673:VS4210/keyremo.c **** 			}
4674:VS4210/keyremo.c **** 			else
4675:VS4210/keyremo.c **** 			{
4676:VS4210/keyremo.c **** 				// if(OSDMenuLevel == 1||OSDMenuLevel == 2)
4677:VS4210/keyremo.c **** 				//    OSDCursorMove( DN);
4678:VS4210/keyremo.c **** 				// else
4679:VS4210/keyremo.c **** 				OSDCursorMove(UP);
4680:VS4210/keyremo.c **** 				// Printf("(2)");
4681:VS4210/keyremo.c **** 			}
4682:VS4210/keyremo.c **** 		}
4683:VS4210/keyremo.c **** 		else if (GetDisplayedOSD() & _RUN_TPMS_OSD)
4684:VS4210/keyremo.c **** 			;
4685:VS4210/keyremo.c **** 		else if (bytGaugeAdjust /*==DistanceGaugePosition*/)
4686:VS4210/keyremo.c **** 		{
4687:VS4210/keyremo.c **** 			// VXIS_fSetOsdOnOff(0 ,WINZOOMx2);
4688:VS4210/keyremo.c **** 			OSDValueUpDn(UP);
4689:VS4210/keyremo.c **** 			ShowGaugeOSD();
4690:VS4210/keyremo.c **** 		}
4691:VS4210/keyremo.c **** 		else if (bytGrabberAdjust)
4692:VS4210/keyremo.c **** 		{
4693:VS4210/keyremo.c **** 			OSDValueUpDn(UP);
4694:VS4210/keyremo.c **** 			ShowGrabberLinerOSD();
4695:VS4210/keyremo.c **** 		}
4696:VS4210/keyremo.c **** 		else
4697:VS4210/keyremo.c **** 		{
4698:VS4210/keyremo.c **** 			MCUTimerCancelTimerEvent(_SYSTEM_TIMER_EVENT_GRABBER_SETUP);
4699:VS4210/keyremo.c **** 			ChangeVol(UP);
4700:VS4210/keyremo.c **** 			DisplayVol();
4701:VS4210/keyremo.c **** 		}
4702:VS4210/keyremo.c **** 		break;
4703:VS4210/keyremo.c **** 	case CMD_OSD_DOWN:
4704:VS4210/keyremo.c **** 		Printf("\r\nCMD_OSD_DOWN");
4705:VS4210/keyremo.c **** 		if (bytCOCAdjust == ON)
4706:VS4210/keyremo.c **** 		{
4707:VS4210/keyremo.c **** 			Printf("\r\n(COC DOWN key)");
4708:VS4210/keyremo.c **** 			SetCOCCom(_COCOSD_BOX_Sel, SelectModeType);
4709:VS4210/keyremo.c **** 			SetCOCCom(_COCOSD_DOWN, SelectModeType);
4710:VS4210/keyremo.c **** 		}
4711:VS4210/keyremo.c **** 		else if (GetDisplayedOSD() & MENU)
4712:VS4210/keyremo.c **** 		{
ARM GAS  C:\Users\ryanc.HS\AppData\Local\Temp\ccZ9UySd.s 			page 256


4713:VS4210/keyremo.c **** 			if (OnChangingValue)
4714:VS4210/keyremo.c **** 				OSDValueUpDn(DN);
4715:VS4210/keyremo.c **** 			else
4716:VS4210/keyremo.c **** 			{
4717:VS4210/keyremo.c **** 				// if(OSDMenuLevel == 1||OSDMenuLevel == 2)
4718:VS4210/keyremo.c **** 				//    OSDCursorMove( UP);
4719:VS4210/keyremo.c **** 				// else
4720:VS4210/keyremo.c **** 				OSDCursorMove(DN);
4721:VS4210/keyremo.c **** 			}
4722:VS4210/keyremo.c **** 		}
4723:VS4210/keyremo.c **** 		else if (GetDisplayedOSD() & _RUN_TPMS_OSD)
4724:VS4210/keyremo.c **** 			;
4725:VS4210/keyremo.c **** 		else if (bytGaugeAdjust /*==DistanceGaugePosition*/)
4726:VS4210/keyremo.c **** 		{
4727:VS4210/keyremo.c **** 			// VXIS_fSetOsdOnOff(0 ,WINZOOMx2);
4728:VS4210/keyremo.c **** 			OSDValueUpDn(DN);
4729:VS4210/keyremo.c **** 			ShowGaugeOSD();
4730:VS4210/keyremo.c **** 		}
4731:VS4210/keyremo.c **** 		else if (bytGrabberAdjust)
4732:VS4210/keyremo.c **** 		{
4733:VS4210/keyremo.c **** 			OSDValueUpDn(DN);
4734:VS4210/keyremo.c **** 			ShowGrabberLinerOSD();
4735:VS4210/keyremo.c **** 		}
4736:VS4210/keyremo.c **** 		else
4737:VS4210/keyremo.c **** 		{
4738:VS4210/keyremo.c **** 			MCUTimerCancelTimerEvent(_SYSTEM_TIMER_EVENT_GRABBER_SETUP);
4739:VS4210/keyremo.c **** 			ChangeVol(DN);
4740:VS4210/keyremo.c **** 			DisplayVol();
4741:VS4210/keyremo.c **** 		}
4742:VS4210/keyremo.c **** 		break;
4743:VS4210/keyremo.c **** 	case CMD_OSD_LEFT:
4744:VS4210/keyremo.c **** 		Printf("\r\nCMD_OSD_LEFT");
4745:VS4210/keyremo.c **** 		break;
4746:VS4210/keyremo.c **** 	case CMD_OSD_RIGHT:
4747:VS4210/keyremo.c **** 		Printf("\r\nCMD_OSD_RIGHT");
4748:VS4210/keyremo.c **** 		break;
4749:VS4210/keyremo.c **** 	case CMD_OSD_SELECT:
4750:VS4210/keyremo.c **** 		Printf("\r\nCMD_OSD_SELECT");
4751:VS4210/keyremo.c **** 		if (bytCOCAdjust == ON)
4752:VS4210/keyremo.c **** 		{
4753:VS4210/keyremo.c **** 			Printf("\r\n(COC Right key)");
4754:VS4210/keyremo.c **** 			SetCOCCom(_COCOSD_BOX_Sel, SelectModeType);
4755:VS4210/keyremo.c **** 			SetCOCCom(_COCOSD_RIGHT, SelectModeType);
4756:VS4210/keyremo.c **** 		}
4757:VS4210/keyremo.c **** 		else if (bytGrabberAdjust)
4758:VS4210/keyremo.c **** 		{
4759:VS4210/keyremo.c **** 			if (bytGrabberAdjust == Grabber_Liner_Position)
4760:VS4210/keyremo.c **** 			{
4761:VS4210/keyremo.c **** 				bytGrabberAdjust = Grabber_Liner_Width;
4762:VS4210/keyremo.c **** 				ShowGrabberLinerOSD();
4763:VS4210/keyremo.c **** 			}
4764:VS4210/keyremo.c **** 		}
4765:VS4210/keyremo.c **** 		else
4766:VS4210/keyremo.c **** 		{
4767:VS4210/keyremo.c **** 			if (GetDisplayedOSD() & (MENU | TVVOL | _COC_OSD | _RUN_TPMS_OSD))
4768:VS4210/keyremo.c **** 				CloseOSDMenu();
4769:VS4210/keyremo.c **** 
ARM GAS  C:\Users\ryanc.HS\AppData\Local\Temp\ccZ9UySd.s 			page 257


4770:VS4210/keyremo.c **** 			SetSelectMode();
4771:VS4210/keyremo.c **** 		}
4772:VS4210/keyremo.c **** 		break;
4773:VS4210/keyremo.c **** 	case CMD_OSD_JUMP:
4774:VS4210/keyremo.c **** 		Printf("\r\nCMD_OSD_JUMP");
4775:VS4210/keyremo.c **** 		if (bytCOCAdjust == ON)
4776:VS4210/keyremo.c **** 		{
4777:VS4210/keyremo.c **** 			Printf("\r\n(COC Left key)");
4778:VS4210/keyremo.c **** 			SetCOCCom(_COCOSD_BOX_Sel, SelectModeType);
4779:VS4210/keyremo.c **** 			SetCOCCom(_COCOSD_LEFT, SelectModeType);
4780:VS4210/keyremo.c **** 		}
4781:VS4210/keyremo.c **** 		else if (bytGrabberAdjust)
4782:VS4210/keyremo.c **** 		{
4783:VS4210/keyremo.c **** 			if (bytGrabberAdjust == Grabber_Liner_Width)
4784:VS4210/keyremo.c **** 			{
4785:VS4210/keyremo.c **** 				bytGrabberAdjust = Grabber_Liner_Position;
4786:VS4210/keyremo.c **** 				ShowGrabberLinerOSD();
4787:VS4210/keyremo.c **** 			}
4788:VS4210/keyremo.c **** 		}
4789:VS4210/keyremo.c **** 		else if ((GetDisplayedOSD() & _COC_OSD) == 0)
4790:VS4210/keyremo.c **** 		{
4791:VS4210/keyremo.c **** 			if (GetDisplayedOSD() & (MENU | TVVOL | _RUN_TPMS_OSD))
4792:VS4210/keyremo.c **** 				CloseOSDMenu();
4793:VS4210/keyremo.c **** 
4794:VS4210/keyremo.c **** 			if (NowModeState == SelectMode)
4795:VS4210/keyremo.c **** 				NowModeState = JumpMode;
4796:VS4210/keyremo.c **** 			else
4797:VS4210/keyremo.c **** 				NowModeState = SelectMode;
4798:VS4210/keyremo.c **** 
4799:VS4210/keyremo.c **** 			MCUTimerCancelTimerEvent(_USER_TIMER_EVENT_SEQ_CHECK);
4800:VS4210/keyremo.c **** 
4801:VS4210/keyremo.c **** 			SetJumpMode();
4802:VS4210/keyremo.c **** 		}
4803:VS4210/keyremo.c **** 		break;
4804:VS4210/keyremo.c **** 	}
4805:VS4210/keyremo.c **** }
 8020              		.loc 1 4805 1 is_stmt 0 view .LVU2189
 8021 00f8 10BD     		pop	{r4, pc}
 8022              	.L585:
4661:VS4210/keyremo.c **** 		if (bytCOCAdjust == ON)
 8023              		.loc 1 4661 3 is_stmt 1 view .LVU2190
 8024 00fa 7848     		ldr	r0, .L623+40
 8025 00fc FFF7FEFF 		bl	Printf
 8026              	.LVL780:
4662:VS4210/keyremo.c **** 		{
 8027              		.loc 1 4662 3 view .LVU2191
4662:VS4210/keyremo.c **** 		{
 8028              		.loc 1 4662 20 is_stmt 0 view .LVU2192
 8029 0100 6E4B     		ldr	r3, .L623+8
 8030 0102 1B78     		ldrb	r3, [r3]	@ zero_extendqisi2
4662:VS4210/keyremo.c **** 		{
 8031              		.loc 1 4662 6 view .LVU2193
 8032 0104 012B     		cmp	r3, #1
 8033 0106 0BD0     		beq	.L615
4668:VS4210/keyremo.c **** 		{
 8034              		.loc 1 4668 8 is_stmt 1 view .LVU2194
4668:VS4210/keyremo.c **** 		{
ARM GAS  C:\Users\ryanc.HS\AppData\Local\Temp\ccZ9UySd.s 			page 258


 8035              		.loc 1 4668 12 is_stmt 0 view .LVU2195
 8036 0108 FFF7FEFF 		bl	GetDisplayedOSD
 8037              	.LVL781:
4668:VS4210/keyremo.c **** 		{
 8038              		.loc 1 4668 11 view .LVU2196
 8039 010c 10F0020F 		tst	r0, #2
 8040 0110 17D0     		beq	.L594
4670:VS4210/keyremo.c **** 			{
 8041              		.loc 1 4670 4 is_stmt 1 view .LVU2197
4670:VS4210/keyremo.c **** 			{
 8042              		.loc 1 4670 8 is_stmt 0 view .LVU2198
 8043 0112 6B4B     		ldr	r3, .L623+12
 8044 0114 1B68     		ldr	r3, [r3]
4670:VS4210/keyremo.c **** 			{
 8045              		.loc 1 4670 7 view .LVU2199
 8046 0116 83B1     		cbz	r3, .L595
4672:VS4210/keyremo.c **** 			}
 8047              		.loc 1 4672 5 is_stmt 1 view .LVU2200
 8048 0118 0120     		movs	r0, #1
 8049 011a FFF7FEFF 		bl	OSDValueUpDn
 8050              	.LVL782:
 8051 011e EBE7     		b	.L575
 8052              	.L615:
4664:VS4210/keyremo.c **** 			SetCOCCom(_COCOSD_BOX_Sel, SelectModeType);
 8053              		.loc 1 4664 4 view .LVU2201
 8054 0120 6F48     		ldr	r0, .L623+44
 8055 0122 FFF7FEFF 		bl	Printf
 8056              	.LVL783:
4665:VS4210/keyremo.c **** 			SetCOCCom(_COCOSD_UP, SelectModeType);
 8057              		.loc 1 4665 4 view .LVU2202
 8058 0126 684C     		ldr	r4, .L623+20
 8059 0128 2178     		ldrb	r1, [r4]	@ zero_extendqisi2
 8060 012a 1920     		movs	r0, #25
 8061 012c FFF7FEFF 		bl	SetCOCCom
 8062              	.LVL784:
4666:VS4210/keyremo.c **** 		}
 8063              		.loc 1 4666 4 view .LVU2203
 8064 0130 2178     		ldrb	r1, [r4]	@ zero_extendqisi2
 8065 0132 0F20     		movs	r0, #15
 8066 0134 FFF7FEFF 		bl	SetCOCCom
 8067              	.LVL785:
 8068 0138 DEE7     		b	.L575
 8069              	.L595:
4679:VS4210/keyremo.c **** 				// Printf("(2)");
 8070              		.loc 1 4679 5 view .LVU2204
 8071 013a 0120     		movs	r0, #1
 8072 013c FFF7FEFF 		bl	OSDCursorMove
 8073              	.LVL786:
 8074 0140 DAE7     		b	.L575
 8075              	.L594:
4683:VS4210/keyremo.c **** 			;
 8076              		.loc 1 4683 8 view .LVU2205
4683:VS4210/keyremo.c **** 			;
 8077              		.loc 1 4683 12 is_stmt 0 view .LVU2206
 8078 0142 FFF7FEFF 		bl	GetDisplayedOSD
 8079              	.LVL787:
4683:VS4210/keyremo.c **** 			;
ARM GAS  C:\Users\ryanc.HS\AppData\Local\Temp\ccZ9UySd.s 			page 259


 8080              		.loc 1 4683 11 view .LVU2207
 8081 0146 10F0400F 		tst	r0, #64
 8082 014a D5D1     		bne	.L575
4685:VS4210/keyremo.c **** 		{
 8083              		.loc 1 4685 8 is_stmt 1 view .LVU2208
4685:VS4210/keyremo.c **** 		{
 8084              		.loc 1 4685 12 is_stmt 0 view .LVU2209
 8085 014c 594B     		ldr	r3, .L623
 8086 014e 1B78     		ldrb	r3, [r3]	@ zero_extendqisi2
4685:VS4210/keyremo.c **** 		{
 8087              		.loc 1 4685 11 view .LVU2210
 8088 0150 43B9     		cbnz	r3, .L616
4691:VS4210/keyremo.c **** 		{
 8089              		.loc 1 4691 8 is_stmt 1 view .LVU2211
4691:VS4210/keyremo.c **** 		{
 8090              		.loc 1 4691 12 is_stmt 0 view .LVU2212
 8091 0152 594B     		ldr	r3, .L623+4
 8092 0154 1B78     		ldrb	r3, [r3]	@ zero_extendqisi2
4691:VS4210/keyremo.c **** 		{
 8093              		.loc 1 4691 11 view .LVU2213
 8094 0156 5BB1     		cbz	r3, .L597
4693:VS4210/keyremo.c **** 			ShowGrabberLinerOSD();
 8095              		.loc 1 4693 4 is_stmt 1 view .LVU2214
 8096 0158 0120     		movs	r0, #1
 8097 015a FFF7FEFF 		bl	OSDValueUpDn
 8098              	.LVL788:
4694:VS4210/keyremo.c **** 		}
 8099              		.loc 1 4694 4 view .LVU2215
 8100 015e FFF7FEFF 		bl	ShowGrabberLinerOSD
 8101              	.LVL789:
 8102 0162 C9E7     		b	.L575
 8103              	.L616:
4688:VS4210/keyremo.c **** 			ShowGaugeOSD();
 8104              		.loc 1 4688 4 view .LVU2216
 8105 0164 0120     		movs	r0, #1
 8106 0166 FFF7FEFF 		bl	OSDValueUpDn
 8107              	.LVL790:
4689:VS4210/keyremo.c **** 		}
 8108              		.loc 1 4689 4 view .LVU2217
 8109 016a FFF7FEFF 		bl	ShowGaugeOSD
 8110              	.LVL791:
 8111 016e C3E7     		b	.L575
 8112              	.L597:
4698:VS4210/keyremo.c **** 			ChangeVol(UP);
 8113              		.loc 1 4698 4 view .LVU2218
 8114 0170 4A20     		movs	r0, #74
 8115 0172 FFF7FEFF 		bl	MCUTimerCancelTimerEvent
 8116              	.LVL792:
4699:VS4210/keyremo.c **** 			DisplayVol();
 8117              		.loc 1 4699 4 view .LVU2219
 8118 0176 0120     		movs	r0, #1
 8119 0178 FFF7FEFF 		bl	ChangeVol
 8120              	.LVL793:
4700:VS4210/keyremo.c **** 		}
 8121              		.loc 1 4700 4 view .LVU2220
 8122 017c FFF7FEFF 		bl	DisplayVol
 8123              	.LVL794:
ARM GAS  C:\Users\ryanc.HS\AppData\Local\Temp\ccZ9UySd.s 			page 260


 8124 0180 BAE7     		b	.L575
 8125              	.L584:
4704:VS4210/keyremo.c **** 		if (bytCOCAdjust == ON)
 8126              		.loc 1 4704 3 view .LVU2221
 8127 0182 5848     		ldr	r0, .L623+48
 8128 0184 FFF7FEFF 		bl	Printf
 8129              	.LVL795:
4705:VS4210/keyremo.c **** 		{
 8130              		.loc 1 4705 3 view .LVU2222
4705:VS4210/keyremo.c **** 		{
 8131              		.loc 1 4705 20 is_stmt 0 view .LVU2223
 8132 0188 4C4B     		ldr	r3, .L623+8
 8133 018a 1B78     		ldrb	r3, [r3]	@ zero_extendqisi2
4705:VS4210/keyremo.c **** 		{
 8134              		.loc 1 4705 6 view .LVU2224
 8135 018c 012B     		cmp	r3, #1
 8136 018e 0BD0     		beq	.L617
4711:VS4210/keyremo.c **** 		{
 8137              		.loc 1 4711 8 is_stmt 1 view .LVU2225
4711:VS4210/keyremo.c **** 		{
 8138              		.loc 1 4711 12 is_stmt 0 view .LVU2226
 8139 0190 FFF7FEFF 		bl	GetDisplayedOSD
 8140              	.LVL796:
4711:VS4210/keyremo.c **** 		{
 8141              		.loc 1 4711 11 view .LVU2227
 8142 0194 10F0020F 		tst	r0, #2
 8143 0198 17D0     		beq	.L599
4713:VS4210/keyremo.c **** 				OSDValueUpDn(DN);
 8144              		.loc 1 4713 4 is_stmt 1 view .LVU2228
4713:VS4210/keyremo.c **** 				OSDValueUpDn(DN);
 8145              		.loc 1 4713 8 is_stmt 0 view .LVU2229
 8146 019a 494B     		ldr	r3, .L623+12
 8147 019c 1B68     		ldr	r3, [r3]
4713:VS4210/keyremo.c **** 				OSDValueUpDn(DN);
 8148              		.loc 1 4713 7 view .LVU2230
 8149 019e 83B1     		cbz	r3, .L600
4714:VS4210/keyremo.c **** 			else
 8150              		.loc 1 4714 5 is_stmt 1 view .LVU2231
 8151 01a0 0220     		movs	r0, #2
 8152 01a2 FFF7FEFF 		bl	OSDValueUpDn
 8153              	.LVL797:
 8154 01a6 A7E7     		b	.L575
 8155              	.L617:
4707:VS4210/keyremo.c **** 			SetCOCCom(_COCOSD_BOX_Sel, SelectModeType);
 8156              		.loc 1 4707 4 view .LVU2232
 8157 01a8 4F48     		ldr	r0, .L623+52
 8158 01aa FFF7FEFF 		bl	Printf
 8159              	.LVL798:
4708:VS4210/keyremo.c **** 			SetCOCCom(_COCOSD_DOWN, SelectModeType);
 8160              		.loc 1 4708 4 view .LVU2233
 8161 01ae 464C     		ldr	r4, .L623+20
 8162 01b0 2178     		ldrb	r1, [r4]	@ zero_extendqisi2
 8163 01b2 1920     		movs	r0, #25
 8164 01b4 FFF7FEFF 		bl	SetCOCCom
 8165              	.LVL799:
4709:VS4210/keyremo.c **** 		}
 8166              		.loc 1 4709 4 view .LVU2234
ARM GAS  C:\Users\ryanc.HS\AppData\Local\Temp\ccZ9UySd.s 			page 261


 8167 01b8 2178     		ldrb	r1, [r4]	@ zero_extendqisi2
 8168 01ba 1020     		movs	r0, #16
 8169 01bc FFF7FEFF 		bl	SetCOCCom
 8170              	.LVL800:
 8171 01c0 9AE7     		b	.L575
 8172              	.L600:
4720:VS4210/keyremo.c **** 			}
 8173              		.loc 1 4720 5 view .LVU2235
 8174 01c2 0220     		movs	r0, #2
 8175 01c4 FFF7FEFF 		bl	OSDCursorMove
 8176              	.LVL801:
 8177 01c8 96E7     		b	.L575
 8178              	.L599:
4723:VS4210/keyremo.c **** 			;
 8179              		.loc 1 4723 8 view .LVU2236
4723:VS4210/keyremo.c **** 			;
 8180              		.loc 1 4723 12 is_stmt 0 view .LVU2237
 8181 01ca FFF7FEFF 		bl	GetDisplayedOSD
 8182              	.LVL802:
4723:VS4210/keyremo.c **** 			;
 8183              		.loc 1 4723 11 view .LVU2238
 8184 01ce 10F0400F 		tst	r0, #64
 8185 01d2 91D1     		bne	.L575
4725:VS4210/keyremo.c **** 		{
 8186              		.loc 1 4725 8 is_stmt 1 view .LVU2239
4725:VS4210/keyremo.c **** 		{
 8187              		.loc 1 4725 12 is_stmt 0 view .LVU2240
 8188 01d4 374B     		ldr	r3, .L623
 8189 01d6 1B78     		ldrb	r3, [r3]	@ zero_extendqisi2
4725:VS4210/keyremo.c **** 		{
 8190              		.loc 1 4725 11 view .LVU2241
 8191 01d8 43B9     		cbnz	r3, .L618
4731:VS4210/keyremo.c **** 		{
 8192              		.loc 1 4731 8 is_stmt 1 view .LVU2242
4731:VS4210/keyremo.c **** 		{
 8193              		.loc 1 4731 12 is_stmt 0 view .LVU2243
 8194 01da 374B     		ldr	r3, .L623+4
 8195 01dc 1B78     		ldrb	r3, [r3]	@ zero_extendqisi2
4731:VS4210/keyremo.c **** 		{
 8196              		.loc 1 4731 11 view .LVU2244
 8197 01de 5BB1     		cbz	r3, .L602
4733:VS4210/keyremo.c **** 			ShowGrabberLinerOSD();
 8198              		.loc 1 4733 4 is_stmt 1 view .LVU2245
 8199 01e0 0220     		movs	r0, #2
 8200 01e2 FFF7FEFF 		bl	OSDValueUpDn
 8201              	.LVL803:
4734:VS4210/keyremo.c **** 		}
 8202              		.loc 1 4734 4 view .LVU2246
 8203 01e6 FFF7FEFF 		bl	ShowGrabberLinerOSD
 8204              	.LVL804:
 8205 01ea 85E7     		b	.L575
 8206              	.L618:
4728:VS4210/keyremo.c **** 			ShowGaugeOSD();
 8207              		.loc 1 4728 4 view .LVU2247
 8208 01ec 0220     		movs	r0, #2
 8209 01ee FFF7FEFF 		bl	OSDValueUpDn
 8210              	.LVL805:
ARM GAS  C:\Users\ryanc.HS\AppData\Local\Temp\ccZ9UySd.s 			page 262


4729:VS4210/keyremo.c **** 		}
 8211              		.loc 1 4729 4 view .LVU2248
 8212 01f2 FFF7FEFF 		bl	ShowGaugeOSD
 8213              	.LVL806:
 8214 01f6 7FE7     		b	.L575
 8215              	.L602:
4738:VS4210/keyremo.c **** 			ChangeVol(DN);
 8216              		.loc 1 4738 4 view .LVU2249
 8217 01f8 4A20     		movs	r0, #74
 8218 01fa FFF7FEFF 		bl	MCUTimerCancelTimerEvent
 8219              	.LVL807:
4739:VS4210/keyremo.c **** 			DisplayVol();
 8220              		.loc 1 4739 4 view .LVU2250
 8221 01fe 0220     		movs	r0, #2
 8222 0200 FFF7FEFF 		bl	ChangeVol
 8223              	.LVL808:
4740:VS4210/keyremo.c **** 		}
 8224              		.loc 1 4740 4 view .LVU2251
 8225 0204 FFF7FEFF 		bl	DisplayVol
 8226              	.LVL809:
 8227 0208 76E7     		b	.L575
 8228              	.L583:
4744:VS4210/keyremo.c **** 		break;
 8229              		.loc 1 4744 3 view .LVU2252
 8230 020a 3848     		ldr	r0, .L623+56
 8231 020c FFF7FEFF 		bl	Printf
 8232              	.LVL810:
4745:VS4210/keyremo.c **** 	case CMD_OSD_RIGHT:
 8233              		.loc 1 4745 3 view .LVU2253
 8234 0210 72E7     		b	.L575
 8235              	.L582:
4747:VS4210/keyremo.c **** 		break;
 8236              		.loc 1 4747 3 view .LVU2254
 8237 0212 3748     		ldr	r0, .L623+60
 8238 0214 FFF7FEFF 		bl	Printf
 8239              	.LVL811:
4748:VS4210/keyremo.c **** 	case CMD_OSD_SELECT:
 8240              		.loc 1 4748 3 view .LVU2255
 8241 0218 6EE7     		b	.L575
 8242              	.L581:
4750:VS4210/keyremo.c **** 		if (bytCOCAdjust == ON)
 8243              		.loc 1 4750 3 view .LVU2256
 8244 021a 3648     		ldr	r0, .L623+64
 8245 021c FFF7FEFF 		bl	Printf
 8246              	.LVL812:
4751:VS4210/keyremo.c **** 		{
 8247              		.loc 1 4751 3 view .LVU2257
4751:VS4210/keyremo.c **** 		{
 8248              		.loc 1 4751 20 is_stmt 0 view .LVU2258
 8249 0220 264B     		ldr	r3, .L623+8
 8250 0222 1B78     		ldrb	r3, [r3]	@ zero_extendqisi2
4751:VS4210/keyremo.c **** 		{
 8251              		.loc 1 4751 6 view .LVU2259
 8252 0224 012B     		cmp	r3, #1
 8253 0226 0BD0     		beq	.L619
4757:VS4210/keyremo.c **** 		{
 8254              		.loc 1 4757 8 is_stmt 1 view .LVU2260
ARM GAS  C:\Users\ryanc.HS\AppData\Local\Temp\ccZ9UySd.s 			page 263


4757:VS4210/keyremo.c **** 		{
 8255              		.loc 1 4757 12 is_stmt 0 view .LVU2261
 8256 0228 234B     		ldr	r3, .L623+4
 8257 022a 1B78     		ldrb	r3, [r3]	@ zero_extendqisi2
4757:VS4210/keyremo.c **** 		{
 8258              		.loc 1 4757 11 view .LVU2262
 8259 022c ABB1     		cbz	r3, .L604
4759:VS4210/keyremo.c **** 			{
 8260              		.loc 1 4759 4 is_stmt 1 view .LVU2263
4759:VS4210/keyremo.c **** 			{
 8261              		.loc 1 4759 7 is_stmt 0 view .LVU2264
 8262 022e 622B     		cmp	r3, #98
 8263 0230 7FF462AF 		bne	.L575
4761:VS4210/keyremo.c **** 				ShowGrabberLinerOSD();
 8264              		.loc 1 4761 5 is_stmt 1 view .LVU2265
4761:VS4210/keyremo.c **** 				ShowGrabberLinerOSD();
 8265              		.loc 1 4761 22 is_stmt 0 view .LVU2266
 8266 0234 204B     		ldr	r3, .L623+4
 8267 0236 6122     		movs	r2, #97
 8268 0238 1A70     		strb	r2, [r3]
4762:VS4210/keyremo.c **** 			}
 8269              		.loc 1 4762 5 is_stmt 1 view .LVU2267
 8270 023a FFF7FEFF 		bl	ShowGrabberLinerOSD
 8271              	.LVL813:
 8272 023e 5BE7     		b	.L575
 8273              	.L619:
4753:VS4210/keyremo.c **** 			SetCOCCom(_COCOSD_BOX_Sel, SelectModeType);
 8274              		.loc 1 4753 4 view .LVU2268
 8275 0240 2D48     		ldr	r0, .L623+68
 8276 0242 FFF7FEFF 		bl	Printf
 8277              	.LVL814:
4754:VS4210/keyremo.c **** 			SetCOCCom(_COCOSD_RIGHT, SelectModeType);
 8278              		.loc 1 4754 4 view .LVU2269
 8279 0246 204C     		ldr	r4, .L623+20
 8280 0248 2178     		ldrb	r1, [r4]	@ zero_extendqisi2
 8281 024a 1920     		movs	r0, #25
 8282 024c FFF7FEFF 		bl	SetCOCCom
 8283              	.LVL815:
4755:VS4210/keyremo.c **** 		}
 8284              		.loc 1 4755 4 view .LVU2270
 8285 0250 2178     		ldrb	r1, [r4]	@ zero_extendqisi2
 8286 0252 1220     		movs	r0, #18
 8287 0254 FFF7FEFF 		bl	SetCOCCom
 8288              	.LVL816:
 8289 0258 4EE7     		b	.L575
 8290              	.L604:
4767:VS4210/keyremo.c **** 				CloseOSDMenu();
 8291              		.loc 1 4767 4 view .LVU2271
4767:VS4210/keyremo.c **** 				CloseOSDMenu();
 8292              		.loc 1 4767 8 is_stmt 0 view .LVU2272
 8293 025a FFF7FEFF 		bl	GetDisplayedOSD
 8294              	.LVL817:
4767:VS4210/keyremo.c **** 				CloseOSDMenu();
 8295              		.loc 1 4767 7 view .LVU2273
 8296 025e 10F0660F 		tst	r0, #102
 8297 0262 02D1     		bne	.L620
 8298              	.L605:
ARM GAS  C:\Users\ryanc.HS\AppData\Local\Temp\ccZ9UySd.s 			page 264


4770:VS4210/keyremo.c **** 		}
 8299              		.loc 1 4770 4 is_stmt 1 view .LVU2274
 8300 0264 FFF7FEFF 		bl	SetSelectMode
 8301              	.LVL818:
 8302 0268 46E7     		b	.L575
 8303              	.L620:
4768:VS4210/keyremo.c **** 
 8304              		.loc 1 4768 5 view .LVU2275
 8305 026a FFF7FEFF 		bl	CloseOSDMenu
 8306              	.LVL819:
 8307 026e F9E7     		b	.L605
 8308              	.L579:
4774:VS4210/keyremo.c **** 		if (bytCOCAdjust == ON)
 8309              		.loc 1 4774 3 view .LVU2276
 8310 0270 2248     		ldr	r0, .L623+72
 8311 0272 FFF7FEFF 		bl	Printf
 8312              	.LVL820:
4775:VS4210/keyremo.c **** 		{
 8313              		.loc 1 4775 3 view .LVU2277
4775:VS4210/keyremo.c **** 		{
 8314              		.loc 1 4775 20 is_stmt 0 view .LVU2278
 8315 0276 114B     		ldr	r3, .L623+8
 8316 0278 1B78     		ldrb	r3, [r3]	@ zero_extendqisi2
4775:VS4210/keyremo.c **** 		{
 8317              		.loc 1 4775 6 view .LVU2279
 8318 027a 012B     		cmp	r3, #1
 8319 027c 0CD0     		beq	.L621
4781:VS4210/keyremo.c **** 		{
 8320              		.loc 1 4781 8 is_stmt 1 view .LVU2280
4781:VS4210/keyremo.c **** 		{
 8321              		.loc 1 4781 12 is_stmt 0 view .LVU2281
 8322 027e 0E4B     		ldr	r3, .L623+4
 8323 0280 1B78     		ldrb	r3, [r3]	@ zero_extendqisi2
4781:VS4210/keyremo.c **** 		{
 8324              		.loc 1 4781 11 view .LVU2282
 8325 0282 002B     		cmp	r3, #0
 8326 0284 3ED0     		beq	.L607
4783:VS4210/keyremo.c **** 			{
 8327              		.loc 1 4783 4 is_stmt 1 view .LVU2283
4783:VS4210/keyremo.c **** 			{
 8328              		.loc 1 4783 7 is_stmt 0 view .LVU2284
 8329 0286 612B     		cmp	r3, #97
 8330 0288 7FF436AF 		bne	.L575
4785:VS4210/keyremo.c **** 				ShowGrabberLinerOSD();
 8331              		.loc 1 4785 5 is_stmt 1 view .LVU2285
4785:VS4210/keyremo.c **** 				ShowGrabberLinerOSD();
 8332              		.loc 1 4785 22 is_stmt 0 view .LVU2286
 8333 028c 0A4B     		ldr	r3, .L623+4
 8334 028e 6222     		movs	r2, #98
 8335 0290 1A70     		strb	r2, [r3]
4786:VS4210/keyremo.c **** 			}
 8336              		.loc 1 4786 5 is_stmt 1 view .LVU2287
 8337 0292 FFF7FEFF 		bl	ShowGrabberLinerOSD
 8338              	.LVL821:
 8339 0296 2FE7     		b	.L575
 8340              	.L621:
4777:VS4210/keyremo.c **** 			SetCOCCom(_COCOSD_BOX_Sel, SelectModeType);
ARM GAS  C:\Users\ryanc.HS\AppData\Local\Temp\ccZ9UySd.s 			page 265


 8341              		.loc 1 4777 4 view .LVU2288
 8342 0298 1948     		ldr	r0, .L623+76
 8343 029a FFF7FEFF 		bl	Printf
 8344              	.LVL822:
4778:VS4210/keyremo.c **** 			SetCOCCom(_COCOSD_LEFT, SelectModeType);
 8345              		.loc 1 4778 4 view .LVU2289
 8346 029e 0A4C     		ldr	r4, .L623+20
 8347 02a0 2178     		ldrb	r1, [r4]	@ zero_extendqisi2
 8348 02a2 1920     		movs	r0, #25
 8349 02a4 FFF7FEFF 		bl	SetCOCCom
 8350              	.LVL823:
4779:VS4210/keyremo.c **** 		}
 8351              		.loc 1 4779 4 view .LVU2290
 8352 02a8 2178     		ldrb	r1, [r4]	@ zero_extendqisi2
 8353 02aa 1120     		movs	r0, #17
 8354 02ac FFF7FEFF 		bl	SetCOCCom
 8355              	.LVL824:
 8356 02b0 22E7     		b	.L575
 8357              	.L624:
 8358 02b2 00BF     		.align	2
 8359              	.L623:
 8360 02b4 00000000 		.word	bytGaugeAdjust
 8361 02b8 00000000 		.word	bytGrabberAdjust
 8362 02bc 00000000 		.word	bytCOCAdjust
 8363 02c0 00000000 		.word	.LANCHOR12
 8364 02c4 30010000 		.word	.LC36
 8365 02c8 00000000 		.word	SelectModeType
 8366 02cc 00000000 		.word	.LANCHOR13
 8367 02d0 00000000 		.word	.LANCHOR14
 8368 02d4 00000000 		.word	.LC71
 8369 02d8 04000000 		.word	.LC72
 8370 02dc 14000000 		.word	.LC73
 8371 02e0 44010000 		.word	.LC37
 8372 02e4 24000000 		.word	.LC74
 8373 02e8 54010000 		.word	.LC38
 8374 02ec 34000000 		.word	.LC75
 8375 02f0 44000000 		.word	.LC76
 8376 02f4 54000000 		.word	.LC77
 8377 02f8 68010000 		.word	.LC39
 8378 02fc 68000000 		.word	.LC78
 8379 0300 7C010000 		.word	.LC40
 8380              	.L607:
4789:VS4210/keyremo.c **** 		{
 8381              		.loc 1 4789 8 view .LVU2291
4789:VS4210/keyremo.c **** 		{
 8382              		.loc 1 4789 13 is_stmt 0 view .LVU2292
 8383 0304 FFF7FEFF 		bl	GetDisplayedOSD
 8384              	.LVL825:
4789:VS4210/keyremo.c **** 		{
 8385              		.loc 1 4789 11 view .LVU2293
 8386 0308 10F0200F 		tst	r0, #32
 8387 030c 7FF4F4AE 		bne	.L575
4791:VS4210/keyremo.c **** 				CloseOSDMenu();
 8388              		.loc 1 4791 4 is_stmt 1 view .LVU2294
4791:VS4210/keyremo.c **** 				CloseOSDMenu();
 8389              		.loc 1 4791 8 is_stmt 0 view .LVU2295
 8390 0310 FFF7FEFF 		bl	GetDisplayedOSD
ARM GAS  C:\Users\ryanc.HS\AppData\Local\Temp\ccZ9UySd.s 			page 266


 8391              	.LVL826:
4791:VS4210/keyremo.c **** 				CloseOSDMenu();
 8392              		.loc 1 4791 7 view .LVU2296
 8393 0314 10F0460F 		tst	r0, #70
 8394 0318 0BD1     		bne	.L622
 8395              	.L608:
4794:VS4210/keyremo.c **** 				NowModeState = JumpMode;
 8396              		.loc 1 4794 4 is_stmt 1 view .LVU2297
4794:VS4210/keyremo.c **** 				NowModeState = JumpMode;
 8397              		.loc 1 4794 21 is_stmt 0 view .LVU2298
 8398 031a 094B     		ldr	r3, .L625
 8399 031c 1B78     		ldrb	r3, [r3]	@ zero_extendqisi2
4794:VS4210/keyremo.c **** 				NowModeState = JumpMode;
 8400              		.loc 1 4794 7 view .LVU2299
 8401 031e 5BB9     		cbnz	r3, .L609
4795:VS4210/keyremo.c **** 			else
 8402              		.loc 1 4795 5 is_stmt 1 view .LVU2300
4795:VS4210/keyremo.c **** 			else
 8403              		.loc 1 4795 18 is_stmt 0 view .LVU2301
 8404 0320 074B     		ldr	r3, .L625
 8405 0322 0122     		movs	r2, #1
 8406 0324 1A70     		strb	r2, [r3]
 8407              	.L610:
4799:VS4210/keyremo.c **** 
 8408              		.loc 1 4799 4 is_stmt 1 view .LVU2302
 8409 0326 1420     		movs	r0, #20
 8410 0328 FFF7FEFF 		bl	MCUTimerCancelTimerEvent
 8411              	.LVL827:
4801:VS4210/keyremo.c **** 		}
 8412              		.loc 1 4801 4 view .LVU2303
 8413 032c FFF7FEFF 		bl	SetJumpMode
 8414              	.LVL828:
 8415              		.loc 1 4805 1 is_stmt 0 view .LVU2304
 8416 0330 E2E6     		b	.L575
 8417              	.L622:
4792:VS4210/keyremo.c **** 
 8418              		.loc 1 4792 5 is_stmt 1 view .LVU2305
 8419 0332 FFF7FEFF 		bl	CloseOSDMenu
 8420              	.LVL829:
 8421 0336 F0E7     		b	.L608
 8422              	.L609:
4797:VS4210/keyremo.c **** 
 8423              		.loc 1 4797 5 view .LVU2306
4797:VS4210/keyremo.c **** 
 8424              		.loc 1 4797 18 is_stmt 0 view .LVU2307
 8425 0338 014B     		ldr	r3, .L625
 8426 033a 0022     		movs	r2, #0
 8427 033c 1A70     		strb	r2, [r3]
 8428 033e F2E7     		b	.L610
 8429              	.L626:
 8430              		.align	2
 8431              	.L625:
 8432 0340 00000000 		.word	NowModeState
 8433              		.cfi_endproc
 8434              	.LFE96:
 8436              		.comm	NowModeState,1,1
 8437              		.global	bytTriggerTest
ARM GAS  C:\Users\ryanc.HS\AppData\Local\Temp\ccZ9UySd.s 			page 267


 8438              		.global	TriggerFlag
 8439              		.global	val_index
 8440              		.global	val_osdwin
 8441              		.comm	cur_osdwin,1,1
 8442              		.comm	cursor_change,1,1
 8443              		.comm	cursor_item,1,1
 8444              		.comm	title_item,1,1
 8445              		.comm	OSDMenuLevel,1,1
 8446              		.comm	TouchP,1,1
 8447              		.comm	Key,1,1
 8448              		.comm	KeyReady,4,4
 8449              		.comm	RepeatKey,4,4
 8450              		.global	Encoder_flag
 8451              		.global	MenuTouchFlag
 8452              		.global	MenuTouchMode
 8453              		.global	OneTouchCursorPosition
 8454              		.global	OneTouchPosition
 8455              		.global	OnChangingValue
 8456              		.global	RearTable10
 8457              		.global	RearTable9
 8458              		.global	RearTable
 8459              		.global	SEQTable
 8460              		.global	TriggerC_Table10
 8461              		.global	TriggerC_Table9
 8462              		.global	TriggerC_Table
 8463              		.global	RightTable10
 8464              		.global	RightTable9
 8465              		.global	RightTable
 8466              		.global	LeftTable10
 8467              		.global	LeftTable9
 8468              		.global	LeftTable
 8469              		.global	JumpTable
 8470              		.global	MainTouchSetSelectMode
 8471              		.global	MainSetSelectMode
 8472              		.global	TouchPreSelectModeType
 8473              		.global	TouchResetSelectModeFlag
 8474              		.global	BOX_Set_flag
 8475              		.comm	coc_cursor,1,1
 8476              		.global	SEQFlag
 8477              		.global	TriggerStatus
 8478              		.comm	TriggerMode,1,1
 8479              		.comm	ChangeKey,4,4
 8480              		.global	Time5ms
 8481              		.global	updn_reg
 8482              		.global	OSD_LOCKF
 8483              		.global	RELEASE_TR_JUMP_Flag
 8484              		.global	TR_JUMP_HOLD
 8485              		.global	TR_JUMP_Flag
 8486              		.global	Disp_Input
 8487              		.global	BookMarkState
 8488              		.global	LockKeyState
 8489              		.global	KeyBuffer
 8490              		.comm	lock_keycnt,1,1
 8491              		.comm	CAM_PTZ_RUN_flag,4,4
 8492              		.section	.rodata
 8493              		.align	2
 8494              		.set	.LANCHOR5,. + 0
ARM GAS  C:\Users\ryanc.HS\AppData\Local\Temp\ccZ9UySd.s 			page 268


 8495              	.LC4:
 8496 0000 03020100 		.ascii	"\003\002\001\000\007\006\005\004\013\012\011\010\017"
 8496      07060504 
 8496      0B0A0908 
 8496      0F
 8497 000d 0E0D0C   		.ascii	"\016\015\014"
 8498              		.section	.bss.BOX_Set_flag,"aw",%nobits
 8499              		.set	.LANCHOR0,. + 0
 8502              	BOX_Set_flag:
 8503 0000 00       		.space	1
 8504              		.section	.bss.BT.9271,"aw",%nobits
 8505              		.align	2
 8506              		.set	.LANCHOR30,. + 0
 8509              	BT.9271:
 8510 0000 00000000 		.space	5
 8510      00
 8511              		.section	.bss.BookMarkState,"aw",%nobits
 8514              	BookMarkState:
 8515 0000 00       		.space	1
 8516              		.section	.bss.CPON.9269,"aw",%nobits
 8517              		.set	.LANCHOR27,. + 0
 8520              	CPON.9269:
 8521 0000 00       		.space	1
 8522              		.section	.bss.Disp_Input,"aw",%nobits
 8525              	Disp_Input:
 8526 0000 00       		.space	1
 8527              		.section	.bss.KeyBuffer,"aw",%nobits
 8530              	KeyBuffer:
 8531 0000 00       		.space	1
 8532              		.section	.bss.LockKeyState,"aw",%nobits
 8535              	LockKeyState:
 8536 0000 00       		.space	1
 8537              		.section	.bss.MenuTouchFlag,"aw",%nobits
 8538              		.set	.LANCHOR14,. + 0
 8541              	MenuTouchFlag:
 8542 0000 00       		.space	1
 8543              		.section	.bss.MenuTouchMode,"aw",%nobits
 8544              		.set	.LANCHOR13,. + 0
 8547              	MenuTouchMode:
 8548 0000 00       		.space	1
 8549              		.section	.bss.OSD_LOCKF,"aw",%nobits
 8552              	OSD_LOCKF:
 8553 0000 00       		.space	1
 8554              		.section	.bss.OnChangingValue,"aw",%nobits
 8555              		.align	2
 8556              		.set	.LANCHOR12,. + 0
 8559              	OnChangingValue:
 8560 0000 00000000 		.space	4
 8561              		.section	.bss.OneTouchCursorPosition,"aw",%nobits
 8562              		.align	2
 8563              		.set	.LANCHOR34,. + 0
 8566              	OneTouchCursorPosition:
 8567 0000 00000000 		.space	4
 8568              		.section	.bss.OneTouchPosition,"aw",%nobits
 8569              		.align	2
 8570              		.set	.LANCHOR33,. + 0
 8573              	OneTouchPosition:
ARM GAS  C:\Users\ryanc.HS\AppData\Local\Temp\ccZ9UySd.s 			page 269


 8574 0000 00000000 		.space	4
 8575              		.section	.bss.POT.9267,"aw",%nobits
 8576              		.set	.LANCHOR32,. + 0
 8579              	POT.9267:
 8580 0000 00       		.space	1
 8581              		.section	.bss.POTF.9268,"aw",%nobits
 8582              		.set	.LANCHOR31,. + 0
 8585              	POTF.9268:
 8586 0000 00       		.space	1
 8587              		.section	.bss.PPON.9270,"aw",%nobits
 8588              		.set	.LANCHOR28,. + 0
 8591              	PPON.9270:
 8592 0000 00       		.space	1
 8593              		.section	.bss.PT.9266,"aw",%nobits
 8594              		.set	.LANCHOR29,. + 0
 8597              	PT.9266:
 8598 0000 00       		.space	1
 8599              		.section	.bss.RELEASE_TR_JUMP_Flag,"aw",%nobits
 8602              	RELEASE_TR_JUMP_Flag:
 8603 0000 00       		.space	1
 8604              		.section	.bss.SEQFlag,"aw",%nobits
 8605              		.set	.LANCHOR1,. + 0
 8608              	SEQFlag:
 8609 0000 00       		.space	1
 8610              		.section	.bss.TR_JUMP_Flag,"aw",%nobits
 8613              	TR_JUMP_Flag:
 8614 0000 00       		.space	1
 8615              		.section	.bss.TR_JUMP_HOLD,"aw",%nobits
 8618              	TR_JUMP_HOLD:
 8619 0000 00       		.space	1
 8620              		.section	.bss.TouchPreSelectModeType,"aw",%nobits
 8621              		.set	.LANCHOR3,. + 0
 8624              	TouchPreSelectModeType:
 8625 0000 00       		.space	1
 8626              		.section	.bss.TouchResetSelectModeFlag,"aw",%nobits
 8627              		.set	.LANCHOR2,. + 0
 8630              	TouchResetSelectModeFlag:
 8631 0000 00       		.space	1
 8632              		.section	.bss.TriggerFlag,"aw",%nobits
 8633              		.set	.LANCHOR8,. + 0
 8636              	TriggerFlag:
 8637 0000 00       		.space	1
 8638              		.section	.bss.TriggerStatus,"aw",%nobits
 8639              		.set	.LANCHOR11,. + 0
 8642              	TriggerStatus:
 8643 0000 00       		.space	1
 8644              		.section	.bss.bytTriggerTest,"aw",%nobits
 8647              	bytTriggerTest:
 8648 0000 00       		.space	1
 8649              		.section	.bss.updn_reg,"aw",%nobits
 8650              		.align	2
 8651              		.set	.LANCHOR7,. + 0
 8654              	updn_reg:
 8655 0000 00000000 		.space	4
 8656              		.section	.bss.val_index,"aw",%nobits
 8659              	val_index:
 8660 0000 00       		.space	1
ARM GAS  C:\Users\ryanc.HS\AppData\Local\Temp\ccZ9UySd.s 			page 270


 8661              		.section	.data.Encoder_flag,"aw"
 8664              	Encoder_flag:
 8665 0000 01       		.byte	1
 8666              		.section	.data.JumpTable,"aw"
 8667              		.align	2
 8668              		.set	.LANCHOR10,. + 0
 8671              	JumpTable:
 8672 0000 05000A0B 		.ascii	"\005\000\012\013\014\016\023\025 \026\000\001\002\004"
 8672      0C0E1315 
 8672      20160001 
 8672      0204
 8673 000e 03       		.ascii	"\003"
 8674              		.section	.data.LeftTable,"aw"
 8675              		.align	2
 8676              		.set	.LANCHOR20,. + 0
 8679              	LeftTable:
 8680 0000 000A130C 		.ascii	"\000\012\023\014\027\030\031"
 8680      171819
 8681              		.section	.data.LeftTable10,"aw"
 8682              		.align	2
 8683              		.set	.LANCHOR19,. + 0
 8686              	LeftTable10:
 8687 0000 000A130C 		.ascii	"\000\012\023\014\00701"
 8687      073031
 8688              		.section	.data.LeftTable9,"aw"
 8689              		.align	2
 8690              		.set	.LANCHOR18,. + 0
 8693              	LeftTable9:
 8694 0000 000A130C 		.ascii	"\000\012\023\014'()"
 8694      272829
 8695              		.section	.data.MainSetSelectMode,"aw"
 8696              		.align	2
 8697              		.set	.LANCHOR4,. + 0
 8700              	MainSetSelectMode:
 8701 0000 00010203 		.ascii	"\000\001\002\003\004\012\013\014\016\023\025 \026\005"
 8701      040A0B0C 
 8701      0E131520 
 8701      1605
 8702              		.section	.data.MainTouchSetSelectMode,"aw"
 8703              		.align	2
 8704              		.set	.LANCHOR6,. + 0
 8707              	MainTouchSetSelectMode:
 8708 0000 1C2C1C2C 		.ascii	"\034,\034,<L<L\034,\034,<L<L"
 8708      3C4C3C4C 
 8708      1C2C1C2C 
 8708      3C4C3C4C 
 8709 0010 1C2C1C2C 		.ascii	"\034,\034,<L<L\034,\034,<L<L"
 8709      3C4C3C4C 
 8709      1C2C1C2C 
 8709      3C4C3C4C 
 8710 0020 1C2C1C2C 		.ascii	"\034,\034,<L<L\034,\034,<L<L"
 8710      3C4C3C4C 
 8710      1C2C1C2C 
 8710      3C4C3C4C 
 8711 0030 1C2C1C2C 		.ascii	"\034,\034,<L<L\034,\034,<L<L"
 8711      3C4C3C4C 
 8711      1C2C1C2C 
ARM GAS  C:\Users\ryanc.HS\AppData\Local\Temp\ccZ9UySd.s 			page 271


 8711      3C4C3C4C 
 8712 0040 10201121 		.ascii	"\020 \021!\020 \021!0@1A0@1A"
 8712      10201121 
 8712      30403141 
 8712      30403141 
 8713 0050 12221323 		.ascii	"\022\"\023#\022\"\023#2B3C2B3C"
 8713      12221323 
 8713      32423343 
 8713      32423343 
 8714 0060 10201323 		.ascii	"\020 \023#\020 \023#0@3C0@3C"
 8714      10201323 
 8714      30403343 
 8714      30403343 
 8715 0070 13231121 		.ascii	"\023#\021!\023#\021!3C1A3C1A"
 8715      13231121 
 8715      33433141 
 8715      33433141 
 8716 0080 10201222 		.ascii	"\020 \022\"\020 \022\"0@2B0@2B"
 8716      10201222 
 8716      30403242 
 8716      30403242 
 8717 0090 12221121 		.ascii	"\022\"\021!\022\"\021!2B1A2B1A"
 8717      12221121 
 8717      32423141 
 8717      32423141 
 8718 00a0 13132323 		.ascii	"\023\023##33CC\020 \021!0@1A"
 8718      33334343 
 8718      10201121 
 8718      30403141 
 8719 00b0 13231020 		.ascii	"\023#\020 3C0@3C\021!3C1A"
 8719      33433040 
 8719      33431121 
 8719      33433141 
 8720 00c0 10201121 		.ascii	"\020 \021!0@1A\022\"\023#2B3C"
 8720      30403141 
 8720      12221323 
 8720      32423343 
 8721              		.section	.data.RearTable,"aw"
 8722              		.align	2
 8723              		.set	.LANCHOR17,. + 0
 8726              	RearTable:
 8727 0000 030D0E0F 		.ascii	"\003\015\016\017\026"
 8727      16
 8728              		.section	.data.RearTable10,"aw"
 8729              		.align	2
 8730              		.set	.LANCHOR16,. + 0
 8733              	RearTable10:
 8734 0000 030D0E0F 		.ascii	"\003\015\016\017 "
 8734      20
 8735              		.section	.data.RearTable9,"aw"
 8736              		.align	2
 8737              		.set	.LANCHOR15,. + 0
 8740              	RearTable9:
 8741 0000 030D0E0F 		.ascii	"\003\015\016\017&"
 8741      26
 8742              		.section	.data.RightTable,"aw"
 8743              		.align	2
ARM GAS  C:\Users\ryanc.HS\AppData\Local\Temp\ccZ9UySd.s 			page 272


 8744              		.set	.LANCHOR26,. + 0
 8747              	RightTable:
 8748 0000 01101112 		.ascii	"\001\020\021\022\032\033\034"
 8748      1A1B1C
 8749              		.section	.data.RightTable10,"aw"
 8750              		.align	2
 8751              		.set	.LANCHOR25,. + 0
 8754              	RightTable10:
 8755 0000 01101112 		.ascii	"\001\020\021\022234"
 8755      323334
 8756              		.section	.data.RightTable9,"aw"
 8757              		.align	2
 8758              		.set	.LANCHOR24,. + 0
 8761              	RightTable9:
 8762 0000 01101112 		.ascii	"\001\020\021\022*+,"
 8762      2A2B2C
 8763              		.section	.data.SEQTable,"aw"
 8764              		.align	2
 8765              		.set	.LANCHOR9,. + 0
 8768              	SEQTable:
 8769 0000 00010203 		.ascii	"\000\001\002\003\004"
 8769      04
 8770              		.section	.data.Time5ms,"aw"
 8773              	Time5ms:
 8774 0000 28       		.byte	40
 8775              		.section	.data.TriggerC_Table,"aw"
 8776              		.align	2
 8777              		.set	.LANCHOR23,. + 0
 8780              	TriggerC_Table:
 8781 0000 0214150B 		.ascii	"\002\024\025\013\035\036\037"
 8781      1D1E1F
 8782              		.section	.data.TriggerC_Table10,"aw"
 8783              		.align	2
 8784              		.set	.LANCHOR22,. + 0
 8787              	TriggerC_Table10:
 8788 0000 0214150B 		.ascii	"\002\024\025\013567"
 8788      353637
 8789              		.section	.data.TriggerC_Table9,"aw"
 8790              		.align	2
 8791              		.set	.LANCHOR21,. + 0
 8794              	TriggerC_Table9:
 8795 0000 0214150B 		.ascii	"\002\024\025\013-./"
 8795      2D2E2F
 8796              		.section	.data.val_osdwin,"aw"
 8799              	val_osdwin:
 8800 0000 FF       		.byte	-1
 8801              		.text
 8802              	.Letext0:
 8803              		.file 2 "c:\\program files (x86)\\gnu tools arm embedded\\9 2019-q4-major\\arm-none-eabi\\include\
 8804              		.file 3 "c:\\program files (x86)\\gnu tools arm embedded\\9 2019-q4-major\\arm-none-eabi\\include\
 8805              		.file 4 "c:\\program files (x86)\\gnu tools arm embedded\\9 2019-q4-major\\arm-none-eabi\\include\
 8806              		.file 5 "c:\\program files (x86)\\gnu tools arm embedded\\9 2019-q4-major\\lib\\gcc\\arm-none-eabi
 8807              		.file 6 "c:\\program files (x86)\\gnu tools arm embedded\\9 2019-q4-major\\arm-none-eabi\\include\
 8808              		.file 7 "c:\\program files (x86)\\gnu tools arm embedded\\9 2019-q4-major\\arm-none-eabi\\include\
 8809              		.file 8 "VS4210/VXIS_Extern_Define.h"
 8810              		.file 9 "TP2824/tpinc/TP2802.h"
 8811              		.file 10 "c:\\program files (x86)\\gnu tools arm embedded\\9 2019-q4-major\\arm-none-eabi\\include
ARM GAS  C:\Users\ryanc.HS\AppData\Local\Temp\ccZ9UySd.s 			page 273


 8812              		.file 11 "sw_i2c/VX_swi2c.h"
 8813              		.file 12 "VS4210/VS4210.h"
 8814              		.file 13 "Drivers/CMSIS/Include/core_cm3.h"
 8815              		.file 14 "Drivers/CMSIS/Device/ST/STM32F1xx/Include/system_stm32f1xx.h"
 8816              		.file 15 "Drivers/CMSIS/Device/ST/STM32F1xx/Include/stm32f103xb.h"
 8817              		.file 16 "Drivers/STM32F1xx_HAL_Driver/Inc/stm32f1xx_hal.h"
 8818              		.file 17 "VS4210/keyremo.h"
 8819              		.file 18 "VS4210/printf.h"
 8820              		.file 19 "VS4210/VX_OSD_Simple.h"
 8821              		.file 20 "VS4210/VX_OSD.h"
 8822              		.file 21 "VS4210/GT911.h"
 8823              		.file 22 "VS4210/etc_eep.h"
 8824              		.file 23 "Inc/main.h"
 8825              		.file 24 "Drivers/STM32F1xx_HAL_Driver/Inc/stm32f1xx_hal_gpio.h"
ARM GAS  C:\Users\ryanc.HS\AppData\Local\Temp\ccZ9UySd.s 			page 274


DEFINED SYMBOLS
                            *ABS*:00000000 keyremo.c
C:\Users\ryanc.HS\AppData\Local\Temp\ccZ9UySd.s:16     .text.RemoMenu_MenuKey:00000000 $t
C:\Users\ryanc.HS\AppData\Local\Temp\ccZ9UySd.s:24     .text.RemoMenu_MenuKey:00000000 RemoMenu_MenuKey
C:\Users\ryanc.HS\AppData\Local\Temp\ccZ9UySd.s:38     .text.RemoChnUp_UpKey:00000000 $t
C:\Users\ryanc.HS\AppData\Local\Temp\ccZ9UySd.s:45     .text.RemoChnUp_UpKey:00000000 RemoChnUp_UpKey
C:\Users\ryanc.HS\AppData\Local\Temp\ccZ9UySd.s:58     .text.RemoChnDn_DnKey:00000000 $t
C:\Users\ryanc.HS\AppData\Local\Temp\ccZ9UySd.s:65     .text.RemoChnDn_DnKey:00000000 RemoChnDn_DnKey
C:\Users\ryanc.HS\AppData\Local\Temp\ccZ9UySd.s:78     .text.RemoVolUp_RightKey:00000000 $t
C:\Users\ryanc.HS\AppData\Local\Temp\ccZ9UySd.s:85     .text.RemoVolUp_RightKey:00000000 RemoVolUp_RightKey
C:\Users\ryanc.HS\AppData\Local\Temp\ccZ9UySd.s:98     .text.RemoVolDn_LeftKey:00000000 $t
C:\Users\ryanc.HS\AppData\Local\Temp\ccZ9UySd.s:105    .text.RemoVolDn_LeftKey:00000000 RemoVolDn_LeftKey
C:\Users\ryanc.HS\AppData\Local\Temp\ccZ9UySd.s:118    .text.ActionRemo:00000000 $t
C:\Users\ryanc.HS\AppData\Local\Temp\ccZ9UySd.s:125    .text.ActionRemo:00000000 ActionRemo
C:\Users\ryanc.HS\AppData\Local\Temp\ccZ9UySd.s:143    .rodata.BOX_SELECT_CHANNEL.str1.4:00000000 $d
C:\Users\ryanc.HS\AppData\Local\Temp\ccZ9UySd.s:148    .text.BOX_SELECT_CHANNEL:00000000 $t
C:\Users\ryanc.HS\AppData\Local\Temp\ccZ9UySd.s:155    .text.BOX_SELECT_CHANNEL:00000000 BOX_SELECT_CHANNEL
C:\Users\ryanc.HS\AppData\Local\Temp\ccZ9UySd.s:263    .text.BOX_SELECT_CHANNEL:00000068 $d
C:\Users\ryanc.HS\AppData\Local\Temp\ccZ9UySd.s:270    .rodata.BOX_SET_CHANNEL.str1.4:00000000 $d
C:\Users\ryanc.HS\AppData\Local\Temp\ccZ9UySd.s:274    .text.BOX_SET_CHANNEL:00000000 $t
C:\Users\ryanc.HS\AppData\Local\Temp\ccZ9UySd.s:281    .text.BOX_SET_CHANNEL:00000000 BOX_SET_CHANNEL
C:\Users\ryanc.HS\AppData\Local\Temp\ccZ9UySd.s:331    .text.BOX_SET_CHANNEL:0000002c $d
C:\Users\ryanc.HS\AppData\Local\Temp\ccZ9UySd.s:337    .rodata.TouchSliderSetSelectMode.str1.4:00000000 $d
C:\Users\ryanc.HS\AppData\Local\Temp\ccZ9UySd.s:344    .text.TouchSliderSetSelectMode:00000000 $t
C:\Users\ryanc.HS\AppData\Local\Temp\ccZ9UySd.s:351    .text.TouchSliderSetSelectMode:00000000 TouchSliderSetSelectMode
C:\Users\ryanc.HS\AppData\Local\Temp\ccZ9UySd.s:711    .text.TouchSliderSetSelectMode:00000198 $d
                            *COM*:00000001 NowModeState
C:\Users\ryanc.HS\AppData\Local\Temp\ccZ9UySd.s:731    .rodata.TouchSetSelectMode.str1.4:00000000 $d
C:\Users\ryanc.HS\AppData\Local\Temp\ccZ9UySd.s:735    .text.TouchSetSelectMode:00000000 $t
C:\Users\ryanc.HS\AppData\Local\Temp\ccZ9UySd.s:742    .text.TouchSetSelectMode:00000000 TouchSetSelectMode
C:\Users\ryanc.HS\AppData\Local\Temp\ccZ9UySd.s:894    .text.TouchSetSelectMode:000000b2 $d
C:\Users\ryanc.HS\AppData\Local\Temp\ccZ9UySd.s:898    .text.TouchSetSelectMode:000000b6 $t
C:\Users\ryanc.HS\AppData\Local\Temp\ccZ9UySd.s:1124   .text.TouchSetSelectMode:000001e8 $d
C:\Users\ryanc.HS\AppData\Local\Temp\ccZ9UySd.s:1147   .rodata.TouchResetSelectMode.str1.4:00000000 $d
C:\Users\ryanc.HS\AppData\Local\Temp\ccZ9UySd.s:1151   .text.TouchResetSelectMode:00000000 $t
C:\Users\ryanc.HS\AppData\Local\Temp\ccZ9UySd.s:1158   .text.TouchResetSelectMode:00000000 TouchResetSelectMode
C:\Users\ryanc.HS\AppData\Local\Temp\ccZ9UySd.s:1292   .text.TouchResetSelectMode:00000090 $d
C:\Users\ryanc.HS\AppData\Local\Temp\ccZ9UySd.s:1306   .text.GetKey:00000000 $t
C:\Users\ryanc.HS\AppData\Local\Temp\ccZ9UySd.s:1313   .text.GetKey:00000000 GetKey
C:\Users\ryanc.HS\AppData\Local\Temp\ccZ9UySd.s:1468   .text.GetKey:00000094 $d
                            *COM*:00000004 KeyReady
                            *COM*:00000004 ChangeKey
                            *COM*:00000004 RepeatKey
                            *COM*:00000001 Key
C:\Users\ryanc.HS\AppData\Local\Temp\ccZ9UySd.s:1477   .rodata.SetSelectCAMRD.str1.4:00000000 $d
C:\Users\ryanc.HS\AppData\Local\Temp\ccZ9UySd.s:1512   .text.SetSelectCAMRD:00000000 $t
C:\Users\ryanc.HS\AppData\Local\Temp\ccZ9UySd.s:1519   .text.SetSelectCAMRD:00000000 SetSelectCAMRD
C:\Users\ryanc.HS\AppData\Local\Temp\ccZ9UySd.s:1600   .text.SetSelectCAMRD:00000046 $d
C:\Users\ryanc.HS\AppData\Local\Temp\ccZ9UySd.s:1656   .text.SetSelectCAMRD:0000007e $t
C:\Users\ryanc.HS\AppData\Local\Temp\ccZ9UySd.s:1950   .text.SetSelectCAMRD:000001ec $d
C:\Users\ryanc.HS\AppData\Local\Temp\ccZ9UySd.s:1971   .rodata.SEQMode.str1.4:00000000 $d
C:\Users\ryanc.HS\AppData\Local\Temp\ccZ9UySd.s:1975   .text.SEQMode:00000000 $t
C:\Users\ryanc.HS\AppData\Local\Temp\ccZ9UySd.s:1982   .text.SEQMode:00000000 SEQMode
C:\Users\ryanc.HS\AppData\Local\Temp\ccZ9UySd.s:2127   .text.SEQMode:00000094 $d
C:\Users\ryanc.HS\AppData\Local\Temp\ccZ9UySd.s:2137   .text.SetJumpMode:00000000 $t
C:\Users\ryanc.HS\AppData\Local\Temp\ccZ9UySd.s:2144   .text.SetJumpMode:00000000 SetJumpMode
C:\Users\ryanc.HS\AppData\Local\Temp\ccZ9UySd.s:2438   .text.SetJumpMode:00000158 $d
ARM GAS  C:\Users\ryanc.HS\AppData\Local\Temp\ccZ9UySd.s 			page 275


C:\Users\ryanc.HS\AppData\Local\Temp\ccZ9UySd.s:2455   .text.SetSelectMode:00000000 $t
C:\Users\ryanc.HS\AppData\Local\Temp\ccZ9UySd.s:2462   .text.SetSelectMode:00000000 SetSelectMode
C:\Users\ryanc.HS\AppData\Local\Temp\ccZ9UySd.s:2812   .text.SetSelectMode:000001a4 $d
C:\Users\ryanc.HS\AppData\Local\Temp\ccZ9UySd.s:2834   .rodata.CheckKeyIn.str1.4:00000000 $d
C:\Users\ryanc.HS\AppData\Local\Temp\ccZ9UySd.s:2901   .text.CheckKeyIn:00000000 $t
C:\Users\ryanc.HS\AppData\Local\Temp\ccZ9UySd.s:2908   .text.CheckKeyIn:00000000 CheckKeyIn
C:\Users\ryanc.HS\AppData\Local\Temp\ccZ9UySd.s:2944   .text.CheckKeyIn:00000028 $d
C:\Users\ryanc.HS\AppData\Local\Temp\ccZ9UySd.s:2976   .text.CheckKeyIn:00000048 $t
C:\Users\ryanc.HS\AppData\Local\Temp\ccZ9UySd.s:3181   .text.CheckKeyIn:00000162 $d
C:\Users\ryanc.HS\AppData\Local\Temp\ccZ9UySd.s:3214   .text.CheckKeyIn:000001a2 $t
C:\Users\ryanc.HS\AppData\Local\Temp\ccZ9UySd.s:3488   .text.CheckKeyIn:000002dc $d
C:\Users\ryanc.HS\AppData\Local\Temp\ccZ9UySd.s:3521   .text.CheckKeyIn:00000358 $t
C:\Users\ryanc.HS\AppData\Local\Temp\ccZ9UySd.s:4108   .text.CheckKeyIn:00000654 $d
C:\Users\ryanc.HS\AppData\Local\Temp\ccZ9UySd.s:4130   .text.CheckKeyIn:0000069c $t
C:\Users\ryanc.HS\AppData\Local\Temp\ccZ9UySd.s:4315   .text.CheckKeyIn:00000770 $d
C:\Users\ryanc.HS\AppData\Local\Temp\ccZ9UySd.s:4324   .rodata.CheckCAMDInputVideo.str1.4:00000000 $d
C:\Users\ryanc.HS\AppData\Local\Temp\ccZ9UySd.s:4328   .text.CheckCAMDInputVideo:00000000 $t
C:\Users\ryanc.HS\AppData\Local\Temp\ccZ9UySd.s:4335   .text.CheckCAMDInputVideo:00000000 CheckCAMDInputVideo
C:\Users\ryanc.HS\AppData\Local\Temp\ccZ9UySd.s:4400   .text.CheckCAMDInputVideo:00000034 $d
C:\Users\ryanc.HS\AppData\Local\Temp\ccZ9UySd.s:4406   .text.CheckGarbberLiner:00000000 $t
C:\Users\ryanc.HS\AppData\Local\Temp\ccZ9UySd.s:4413   .text.CheckGarbberLiner:00000000 CheckGarbberLiner
C:\Users\ryanc.HS\AppData\Local\Temp\ccZ9UySd.s:4436   .text.CheckGarbberLiner:0000000c $d
C:\Users\ryanc.HS\AppData\Local\Temp\ccZ9UySd.s:4454   .text.CheckGarbberLiner:0000001e $t
C:\Users\ryanc.HS\AppData\Local\Temp\ccZ9UySd.s:4480   .text.CheckGarbberLiner:00000030 $d
C:\Users\ryanc.HS\AppData\Local\Temp\ccZ9UySd.s:4485   .rodata.SetNowMode.str1.4:00000000 $d
C:\Users\ryanc.HS\AppData\Local\Temp\ccZ9UySd.s:4496   .text.SetNowMode:00000000 $t
C:\Users\ryanc.HS\AppData\Local\Temp\ccZ9UySd.s:4503   .text.SetNowMode:00000000 SetNowMode
C:\Users\ryanc.HS\AppData\Local\Temp\ccZ9UySd.s:4747   .text.SetNowMode:00000138 $d
C:\Users\ryanc.HS\AppData\Local\Temp\ccZ9UySd.s:4766   .text.SetRearSource:00000000 $t
C:\Users\ryanc.HS\AppData\Local\Temp\ccZ9UySd.s:4773   .text.SetRearSource:00000000 SetRearSource
C:\Users\ryanc.HS\AppData\Local\Temp\ccZ9UySd.s:4912   .text.SetRearSource:0000008c $d
C:\Users\ryanc.HS\AppData\Local\Temp\ccZ9UySd.s:4922   .text.SetLeftSource:00000000 $t
C:\Users\ryanc.HS\AppData\Local\Temp\ccZ9UySd.s:4929   .text.SetLeftSource:00000000 SetLeftSource
C:\Users\ryanc.HS\AppData\Local\Temp\ccZ9UySd.s:5053   .text.SetLeftSource:0000007c $d
C:\Users\ryanc.HS\AppData\Local\Temp\ccZ9UySd.s:5063   .text.SetTriggerDSource:00000000 $t
C:\Users\ryanc.HS\AppData\Local\Temp\ccZ9UySd.s:5070   .text.SetTriggerDSource:00000000 SetTriggerDSource
C:\Users\ryanc.HS\AppData\Local\Temp\ccZ9UySd.s:5131   .text.SetTriggerDSource:00000040 $d
C:\Users\ryanc.HS\AppData\Local\Temp\ccZ9UySd.s:5136   .text.SetTriggerCSource:00000000 $t
C:\Users\ryanc.HS\AppData\Local\Temp\ccZ9UySd.s:5143   .text.SetTriggerCSource:00000000 SetTriggerCSource
C:\Users\ryanc.HS\AppData\Local\Temp\ccZ9UySd.s:5271   .text.SetTriggerCSource:00000080 $d
C:\Users\ryanc.HS\AppData\Local\Temp\ccZ9UySd.s:5281   .text.SetRightSource:00000000 $t
C:\Users\ryanc.HS\AppData\Local\Temp\ccZ9UySd.s:5288   .text.SetRightSource:00000000 SetRightSource
C:\Users\ryanc.HS\AppData\Local\Temp\ccZ9UySd.s:5412   .text.SetRightSource:0000007c $d
C:\Users\ryanc.HS\AppData\Local\Temp\ccZ9UySd.s:5422   .rodata.CheckTrigger.str1.4:00000000 $d
C:\Users\ryanc.HS\AppData\Local\Temp\ccZ9UySd.s:5467   .text.CheckTrigger:00000000 $t
C:\Users\ryanc.HS\AppData\Local\Temp\ccZ9UySd.s:5474   .text.CheckTrigger:00000000 CheckTrigger
C:\Users\ryanc.HS\AppData\Local\Temp\ccZ9UySd.s:6036   .text.CheckTrigger:0000029c $d
C:\Users\ryanc.HS\AppData\Local\Temp\ccZ9UySd.s:6054   .text.CheckTrigger:000002d8 $t
C:\Users\ryanc.HS\AppData\Local\Temp\ccZ9UySd.s:6700   .text.CheckTrigger:00000574 $d
C:\Users\ryanc.HS\AppData\Local\Temp\ccZ9UySd.s:6717   .rodata.TriggerHandler.str1.4:00000000 $d
C:\Users\ryanc.HS\AppData\Local\Temp\ccZ9UySd.s:6736   .text.TriggerHandler:00000000 $t
C:\Users\ryanc.HS\AppData\Local\Temp\ccZ9UySd.s:6743   .text.TriggerHandler:00000000 TriggerHandler
C:\Users\ryanc.HS\AppData\Local\Temp\ccZ9UySd.s:6805   .text.TriggerHandler:00000044 $d
C:\Users\ryanc.HS\AppData\Local\Temp\ccZ9UySd.s:6811   .text.TriggerHandler:0000004e $t
C:\Users\ryanc.HS\AppData\Local\Temp\ccZ9UySd.s:7205   .text.TriggerHandler:00000228 $d
                            *COM*:00000001 TriggerMode
C:\Users\ryanc.HS\AppData\Local\Temp\ccZ9UySd.s:7217   .rodata.CheckTouchScreen.str1.4:00000000 $d
ARM GAS  C:\Users\ryanc.HS\AppData\Local\Temp\ccZ9UySd.s 			page 276


C:\Users\ryanc.HS\AppData\Local\Temp\ccZ9UySd.s:7236   .text.CheckTouchScreen:00000000 $t
C:\Users\ryanc.HS\AppData\Local\Temp\ccZ9UySd.s:7243   .text.CheckTouchScreen:00000000 CheckTouchScreen
C:\Users\ryanc.HS\AppData\Local\Temp\ccZ9UySd.s:7270   .text.CheckTouchScreen:00000010 $d
C:\Users\ryanc.HS\AppData\Local\Temp\ccZ9UySd.s:7300   .text.CheckTouchScreen:0000004c $t
C:\Users\ryanc.HS\AppData\Local\Temp\ccZ9UySd.s:7777   .text.CheckTouchScreen:000002ac $d
                            *COM*:00000001 cursor_item
                            *COM*:00000001 cursor_change
                            *COM*:00000001 coc_cursor
C:\Users\ryanc.HS\AppData\Local\Temp\ccZ9UySd.s:7795   .rodata.COMMAND_OSD.str1.4:00000000 $d
C:\Users\ryanc.HS\AppData\Local\Temp\ccZ9UySd.s:7820   .text.COMMAND_OSD:00000000 $t
C:\Users\ryanc.HS\AppData\Local\Temp\ccZ9UySd.s:7827   .text.COMMAND_OSD:00000000 COMMAND_OSD
C:\Users\ryanc.HS\AppData\Local\Temp\ccZ9UySd.s:7882   .text.COMMAND_OSD:00000040 $d
C:\Users\ryanc.HS\AppData\Local\Temp\ccZ9UySd.s:7890   .text.COMMAND_OSD:00000050 $t
C:\Users\ryanc.HS\AppData\Local\Temp\ccZ9UySd.s:8360   .text.COMMAND_OSD:000002b4 $d
C:\Users\ryanc.HS\AppData\Local\Temp\ccZ9UySd.s:8383   .text.COMMAND_OSD:00000304 $t
C:\Users\ryanc.HS\AppData\Local\Temp\ccZ9UySd.s:8432   .text.COMMAND_OSD:00000340 $d
C:\Users\ryanc.HS\AppData\Local\Temp\ccZ9UySd.s:8647   .bss.bytTriggerTest:00000000 bytTriggerTest
C:\Users\ryanc.HS\AppData\Local\Temp\ccZ9UySd.s:8636   .bss.TriggerFlag:00000000 TriggerFlag
C:\Users\ryanc.HS\AppData\Local\Temp\ccZ9UySd.s:8659   .bss.val_index:00000000 val_index
C:\Users\ryanc.HS\AppData\Local\Temp\ccZ9UySd.s:8799   .data.val_osdwin:00000000 val_osdwin
                            *COM*:00000001 cur_osdwin
                            *COM*:00000001 title_item
                            *COM*:00000001 OSDMenuLevel
                            *COM*:00000001 TouchP
C:\Users\ryanc.HS\AppData\Local\Temp\ccZ9UySd.s:8664   .data.Encoder_flag:00000000 Encoder_flag
C:\Users\ryanc.HS\AppData\Local\Temp\ccZ9UySd.s:8541   .bss.MenuTouchFlag:00000000 MenuTouchFlag
C:\Users\ryanc.HS\AppData\Local\Temp\ccZ9UySd.s:8547   .bss.MenuTouchMode:00000000 MenuTouchMode
C:\Users\ryanc.HS\AppData\Local\Temp\ccZ9UySd.s:8566   .bss.OneTouchCursorPosition:00000000 OneTouchCursorPosition
C:\Users\ryanc.HS\AppData\Local\Temp\ccZ9UySd.s:8573   .bss.OneTouchPosition:00000000 OneTouchPosition
C:\Users\ryanc.HS\AppData\Local\Temp\ccZ9UySd.s:8559   .bss.OnChangingValue:00000000 OnChangingValue
C:\Users\ryanc.HS\AppData\Local\Temp\ccZ9UySd.s:8733   .data.RearTable10:00000000 RearTable10
C:\Users\ryanc.HS\AppData\Local\Temp\ccZ9UySd.s:8740   .data.RearTable9:00000000 RearTable9
C:\Users\ryanc.HS\AppData\Local\Temp\ccZ9UySd.s:8726   .data.RearTable:00000000 RearTable
C:\Users\ryanc.HS\AppData\Local\Temp\ccZ9UySd.s:8768   .data.SEQTable:00000000 SEQTable
C:\Users\ryanc.HS\AppData\Local\Temp\ccZ9UySd.s:8787   .data.TriggerC_Table10:00000000 TriggerC_Table10
C:\Users\ryanc.HS\AppData\Local\Temp\ccZ9UySd.s:8794   .data.TriggerC_Table9:00000000 TriggerC_Table9
C:\Users\ryanc.HS\AppData\Local\Temp\ccZ9UySd.s:8780   .data.TriggerC_Table:00000000 TriggerC_Table
C:\Users\ryanc.HS\AppData\Local\Temp\ccZ9UySd.s:8754   .data.RightTable10:00000000 RightTable10
C:\Users\ryanc.HS\AppData\Local\Temp\ccZ9UySd.s:8761   .data.RightTable9:00000000 RightTable9
C:\Users\ryanc.HS\AppData\Local\Temp\ccZ9UySd.s:8747   .data.RightTable:00000000 RightTable
C:\Users\ryanc.HS\AppData\Local\Temp\ccZ9UySd.s:8686   .data.LeftTable10:00000000 LeftTable10
C:\Users\ryanc.HS\AppData\Local\Temp\ccZ9UySd.s:8693   .data.LeftTable9:00000000 LeftTable9
C:\Users\ryanc.HS\AppData\Local\Temp\ccZ9UySd.s:8679   .data.LeftTable:00000000 LeftTable
C:\Users\ryanc.HS\AppData\Local\Temp\ccZ9UySd.s:8671   .data.JumpTable:00000000 JumpTable
C:\Users\ryanc.HS\AppData\Local\Temp\ccZ9UySd.s:8707   .data.MainTouchSetSelectMode:00000000 MainTouchSetSelectMode
C:\Users\ryanc.HS\AppData\Local\Temp\ccZ9UySd.s:8700   .data.MainSetSelectMode:00000000 MainSetSelectMode
C:\Users\ryanc.HS\AppData\Local\Temp\ccZ9UySd.s:8624   .bss.TouchPreSelectModeType:00000000 TouchPreSelectModeType
C:\Users\ryanc.HS\AppData\Local\Temp\ccZ9UySd.s:8630   .bss.TouchResetSelectModeFlag:00000000 TouchResetSelectModeFlag
C:\Users\ryanc.HS\AppData\Local\Temp\ccZ9UySd.s:8502   .bss.BOX_Set_flag:00000000 BOX_Set_flag
C:\Users\ryanc.HS\AppData\Local\Temp\ccZ9UySd.s:8608   .bss.SEQFlag:00000000 SEQFlag
C:\Users\ryanc.HS\AppData\Local\Temp\ccZ9UySd.s:8642   .bss.TriggerStatus:00000000 TriggerStatus
C:\Users\ryanc.HS\AppData\Local\Temp\ccZ9UySd.s:8773   .data.Time5ms:00000000 Time5ms
C:\Users\ryanc.HS\AppData\Local\Temp\ccZ9UySd.s:8654   .bss.updn_reg:00000000 updn_reg
C:\Users\ryanc.HS\AppData\Local\Temp\ccZ9UySd.s:8552   .bss.OSD_LOCKF:00000000 OSD_LOCKF
C:\Users\ryanc.HS\AppData\Local\Temp\ccZ9UySd.s:8602   .bss.RELEASE_TR_JUMP_Flag:00000000 RELEASE_TR_JUMP_Flag
C:\Users\ryanc.HS\AppData\Local\Temp\ccZ9UySd.s:8618   .bss.TR_JUMP_HOLD:00000000 TR_JUMP_HOLD
C:\Users\ryanc.HS\AppData\Local\Temp\ccZ9UySd.s:8613   .bss.TR_JUMP_Flag:00000000 TR_JUMP_Flag
ARM GAS  C:\Users\ryanc.HS\AppData\Local\Temp\ccZ9UySd.s 			page 277


C:\Users\ryanc.HS\AppData\Local\Temp\ccZ9UySd.s:8525   .bss.Disp_Input:00000000 Disp_Input
C:\Users\ryanc.HS\AppData\Local\Temp\ccZ9UySd.s:8514   .bss.BookMarkState:00000000 BookMarkState
C:\Users\ryanc.HS\AppData\Local\Temp\ccZ9UySd.s:8535   .bss.LockKeyState:00000000 LockKeyState
C:\Users\ryanc.HS\AppData\Local\Temp\ccZ9UySd.s:8530   .bss.KeyBuffer:00000000 KeyBuffer
                            *COM*:00000001 lock_keycnt
                            *COM*:00000004 CAM_PTZ_RUN_flag
C:\Users\ryanc.HS\AppData\Local\Temp\ccZ9UySd.s:8493   .rodata:00000000 $d
C:\Users\ryanc.HS\AppData\Local\Temp\ccZ9UySd.s:8503   .bss.BOX_Set_flag:00000000 $d
C:\Users\ryanc.HS\AppData\Local\Temp\ccZ9UySd.s:8505   .bss.BT.9271:00000000 $d
C:\Users\ryanc.HS\AppData\Local\Temp\ccZ9UySd.s:8509   .bss.BT.9271:00000000 BT.9271
C:\Users\ryanc.HS\AppData\Local\Temp\ccZ9UySd.s:8515   .bss.BookMarkState:00000000 $d
C:\Users\ryanc.HS\AppData\Local\Temp\ccZ9UySd.s:8520   .bss.CPON.9269:00000000 CPON.9269
C:\Users\ryanc.HS\AppData\Local\Temp\ccZ9UySd.s:8521   .bss.CPON.9269:00000000 $d
C:\Users\ryanc.HS\AppData\Local\Temp\ccZ9UySd.s:8526   .bss.Disp_Input:00000000 $d
C:\Users\ryanc.HS\AppData\Local\Temp\ccZ9UySd.s:8531   .bss.KeyBuffer:00000000 $d
C:\Users\ryanc.HS\AppData\Local\Temp\ccZ9UySd.s:8536   .bss.LockKeyState:00000000 $d
C:\Users\ryanc.HS\AppData\Local\Temp\ccZ9UySd.s:8542   .bss.MenuTouchFlag:00000000 $d
C:\Users\ryanc.HS\AppData\Local\Temp\ccZ9UySd.s:8548   .bss.MenuTouchMode:00000000 $d
C:\Users\ryanc.HS\AppData\Local\Temp\ccZ9UySd.s:8553   .bss.OSD_LOCKF:00000000 $d
C:\Users\ryanc.HS\AppData\Local\Temp\ccZ9UySd.s:8555   .bss.OnChangingValue:00000000 $d
C:\Users\ryanc.HS\AppData\Local\Temp\ccZ9UySd.s:8562   .bss.OneTouchCursorPosition:00000000 $d
C:\Users\ryanc.HS\AppData\Local\Temp\ccZ9UySd.s:8569   .bss.OneTouchPosition:00000000 $d
C:\Users\ryanc.HS\AppData\Local\Temp\ccZ9UySd.s:8579   .bss.POT.9267:00000000 POT.9267
C:\Users\ryanc.HS\AppData\Local\Temp\ccZ9UySd.s:8580   .bss.POT.9267:00000000 $d
C:\Users\ryanc.HS\AppData\Local\Temp\ccZ9UySd.s:8585   .bss.POTF.9268:00000000 POTF.9268
C:\Users\ryanc.HS\AppData\Local\Temp\ccZ9UySd.s:8586   .bss.POTF.9268:00000000 $d
C:\Users\ryanc.HS\AppData\Local\Temp\ccZ9UySd.s:8591   .bss.PPON.9270:00000000 PPON.9270
C:\Users\ryanc.HS\AppData\Local\Temp\ccZ9UySd.s:8592   .bss.PPON.9270:00000000 $d
C:\Users\ryanc.HS\AppData\Local\Temp\ccZ9UySd.s:8597   .bss.PT.9266:00000000 PT.9266
C:\Users\ryanc.HS\AppData\Local\Temp\ccZ9UySd.s:8598   .bss.PT.9266:00000000 $d
C:\Users\ryanc.HS\AppData\Local\Temp\ccZ9UySd.s:8603   .bss.RELEASE_TR_JUMP_Flag:00000000 $d
C:\Users\ryanc.HS\AppData\Local\Temp\ccZ9UySd.s:8609   .bss.SEQFlag:00000000 $d
C:\Users\ryanc.HS\AppData\Local\Temp\ccZ9UySd.s:8614   .bss.TR_JUMP_Flag:00000000 $d
C:\Users\ryanc.HS\AppData\Local\Temp\ccZ9UySd.s:8619   .bss.TR_JUMP_HOLD:00000000 $d
C:\Users\ryanc.HS\AppData\Local\Temp\ccZ9UySd.s:8625   .bss.TouchPreSelectModeType:00000000 $d
C:\Users\ryanc.HS\AppData\Local\Temp\ccZ9UySd.s:8631   .bss.TouchResetSelectModeFlag:00000000 $d
C:\Users\ryanc.HS\AppData\Local\Temp\ccZ9UySd.s:8637   .bss.TriggerFlag:00000000 $d
C:\Users\ryanc.HS\AppData\Local\Temp\ccZ9UySd.s:8643   .bss.TriggerStatus:00000000 $d
C:\Users\ryanc.HS\AppData\Local\Temp\ccZ9UySd.s:8648   .bss.bytTriggerTest:00000000 $d
C:\Users\ryanc.HS\AppData\Local\Temp\ccZ9UySd.s:8650   .bss.updn_reg:00000000 $d
C:\Users\ryanc.HS\AppData\Local\Temp\ccZ9UySd.s:8660   .bss.val_index:00000000 $d
C:\Users\ryanc.HS\AppData\Local\Temp\ccZ9UySd.s:8667   .data.JumpTable:00000000 $d
C:\Users\ryanc.HS\AppData\Local\Temp\ccZ9UySd.s:8675   .data.LeftTable:00000000 $d
C:\Users\ryanc.HS\AppData\Local\Temp\ccZ9UySd.s:8682   .data.LeftTable10:00000000 $d
C:\Users\ryanc.HS\AppData\Local\Temp\ccZ9UySd.s:8689   .data.LeftTable9:00000000 $d
C:\Users\ryanc.HS\AppData\Local\Temp\ccZ9UySd.s:8696   .data.MainSetSelectMode:00000000 $d
C:\Users\ryanc.HS\AppData\Local\Temp\ccZ9UySd.s:8703   .data.MainTouchSetSelectMode:00000000 $d
C:\Users\ryanc.HS\AppData\Local\Temp\ccZ9UySd.s:8722   .data.RearTable:00000000 $d
C:\Users\ryanc.HS\AppData\Local\Temp\ccZ9UySd.s:8729   .data.RearTable10:00000000 $d
C:\Users\ryanc.HS\AppData\Local\Temp\ccZ9UySd.s:8736   .data.RearTable9:00000000 $d
C:\Users\ryanc.HS\AppData\Local\Temp\ccZ9UySd.s:8743   .data.RightTable:00000000 $d
C:\Users\ryanc.HS\AppData\Local\Temp\ccZ9UySd.s:8750   .data.RightTable10:00000000 $d
C:\Users\ryanc.HS\AppData\Local\Temp\ccZ9UySd.s:8757   .data.RightTable9:00000000 $d
C:\Users\ryanc.HS\AppData\Local\Temp\ccZ9UySd.s:8764   .data.SEQTable:00000000 $d
C:\Users\ryanc.HS\AppData\Local\Temp\ccZ9UySd.s:8776   .data.TriggerC_Table:00000000 $d
C:\Users\ryanc.HS\AppData\Local\Temp\ccZ9UySd.s:8783   .data.TriggerC_Table10:00000000 $d
C:\Users\ryanc.HS\AppData\Local\Temp\ccZ9UySd.s:8790   .data.TriggerC_Table9:00000000 $d
ARM GAS  C:\Users\ryanc.HS\AppData\Local\Temp\ccZ9UySd.s 			page 278



UNDEFINED SYMBOLS
SetCOCCom
Get_2824cIrq
Printf
SelectModeType
COCSelectModeType
BackLightOFF
setloopoutmode
WriteEEP
BackLightON
Priority
QuadBoxId
QuadBoxMode
Flisheye_CAM
OSDStateFlg
PreSelectModeType
PreCOCSelectModeType
GetDisplayedOSD
CloseOSDMenu
CAMA_M
CAMB_M
CAMC_M
CAMR_M
ReadEEP
GraphicsPrint
HAL_GPIO_WritePin
SETChannelReset
Boot_Trigger_Function
VS4210_Rx_NoSignal
bytSelectCAMRD
VideoSave
BOOT_ISSUE
AudioMute
EQ_Detect
SEQIndex
TimeStep
g_bNotifyTimer0Int
SetGarbberLinerMode
MCUTimerCancelTimerEvent
MCUTimerActiveTimerEvent
bytAutoSleeping
bytStandByModeToTriggerMode
GetItemValue
MCUTimerDelayXms
PowerLED
LCDPowerOFF
ShowOSDLOCK
RUN_DIMMER
bytResetOSDValue
PowerFlag
bytGaugeAdjust
bytGrabberAdjust
bytCOCAdjust
standby_count
PWR_OFF_TO_ON
bytPowerDownMode
ARM GAS  C:\Users\ryanc.HS\AppData\Local\Temp\ccZ9UySd.s 			page 279


GrabberModeTrigger
ShowOSDVersion
ShowTPMSOSD
DisplayCursor
CLRGrabberMessage
OSDSelect
OpenOSDMenu
OSDValueUpDn
OSDCursorMove
ShowGrabberLinerOSD
ShowGaugeOSD
ChangeVol
DisplayVol
AudioVol
bytStandByMode
bytGarbberLiner
ShowTRIGOSD
bytTripleScreenType
GET_PCA9554PW
msleep
TouchDisplayCursor
ShowCOCOSD
GetFWRevEE
