ARM GAS  C:\Users\ryanc.HS\AppData\Local\Temp\ccZ9UySd.s 			page 1


   1              		.cpu cortex-m3
   2              		.eabi_attribute 20, 1
   3              		.eabi_attribute 21, 1
   4              		.eabi_attribute 23, 3
   5              		.eabi_attribute 24, 1
   6              		.eabi_attribute 25, 1
   7              		.eabi_attribute 26, 1
   8              		.eabi_attribute 30, 1
   9              		.eabi_attribute 34, 1
  10              		.eabi_attribute 18, 4
  11              		.file	"keyremo.c"
  12              		.text
  13              	.Ltext0:
  14              		.cfi_sections	.debug_frame
  15              		.section	.text.RemoMenu_MenuKey,"ax",%progbits
  16              		.align	1
  17              		.global	RemoMenu_MenuKey
  18              		.arch armv7-m
  19              		.syntax unified
  20              		.thumb
  21              		.thumb_func
  22              		.fpu softvfp
  24              	RemoMenu_MenuKey:
  25              	.LFB68:
  26              		.file 1 "VS4210/keyremo.c"
   1:VS4210/keyremo.c **** //
   2:VS4210/keyremo.c **** // KeyRemo.h
   3:VS4210/keyremo.c **** // Default function for Key Input and Remocon Input
   4:VS4210/keyremo.c **** //
   5:VS4210/keyremo.c **** //=============================================================================
   6:VS4210/keyremo.c **** //		                    Operation Key Mapping
   7:VS4210/keyremo.c **** //=============================================================================
   8:VS4210/keyremo.c **** 
   9:VS4210/keyremo.c **** // eeprom.c
  10:VS4210/keyremo.c **** #include "VXIS_Extern_Define.h"
  11:VS4210/keyremo.c **** 
  12:VS4210/keyremo.c **** #include "tpinc/Device_Rx.h"
  13:VS4210/keyremo.c **** #include "tpinc/TP2802.h"
  14:VS4210/keyremo.c **** #include "stdlib.h"
  15:VS4210/keyremo.c **** #include "VX_swi2c.h"
  16:VS4210/keyremo.c **** #include "VS4210.h"
  17:VS4210/keyremo.c **** 
  18:VS4210/keyremo.c **** //#include "Config.h"
  19:VS4210/keyremo.c **** //#include "typedefs.h"
  20:VS4210/keyremo.c **** #include "main.h"
  21:VS4210/keyremo.c **** //#include "i2c.h"
  22:VS4210/keyremo.c **** #include "printf.h"
  23:VS4210/keyremo.c **** #include "etc_eep.h"
  24:VS4210/keyremo.c **** #include "keyremo.h"
  25:VS4210/keyremo.c **** #include "VX_OSD_Simple.h"
  26:VS4210/keyremo.c **** #include "VX_OSD.h"
  27:VS4210/keyremo.c **** 
  28:VS4210/keyremo.c **** #include "GT911.h"
  29:VS4210/keyremo.c **** 
  30:VS4210/keyremo.c **** /*
  31:VS4210/keyremo.c **** #include "config.h"
  32:VS4210/keyremo.c **** #include "typedefs.h"
ARM GAS  C:\Users\ryanc.HS\AppData\Local\Temp\ccZ9UySd.s 			page 2


  33:VS4210/keyremo.c **** #include "keyremo.h"
  34:VS4210/keyremo.c **** #include "measure.h"
  35:VS4210/keyremo.c **** #include "audio.h"
  36:VS4210/keyremo.c **** #include "dispinfo.h"
  37:VS4210/keyremo.c **** #include "main.h"
  38:VS4210/keyremo.c **** #include "i2c.h"
  39:VS4210/keyremo.c **** #include "osdmenu.h"
  40:VS4210/keyremo.c **** #include "debug.h"
  41:VS4210/keyremo.c **** #include "cpu.h"
  42:VS4210/keyremo.c **** #include "printf.h"
  43:VS4210/keyremo.c **** #include "regmap.h"
  44:VS4210/keyremo.c **** #include "reg.h"
  45:VS4210/keyremo.c **** #include "etc_eep.h"
  46:VS4210/keyremo.c **** #include "osdbasic.h"
  47:VS4210/keyremo.c **** #include "HS_keyremo.h"
  48:VS4210/keyremo.c **** #include "HS_DisplayOSD.h"
  49:VS4210/keyremo.c **** #include "HS_DVRProtocol.h"
  50:VS4210/keyremo.c **** #include "HS_IOdef.h"
  51:VS4210/keyremo.c **** #include "audio.h"
  52:VS4210/keyremo.c **** */
  53:VS4210/keyremo.c **** 
  54:VS4210/keyremo.c **** bit CAM_PTZ_RUN_flag;
  55:VS4210/keyremo.c **** BYTE lock_keycnt;
  56:VS4210/keyremo.c **** BYTE KeyBuffer = 0;
  57:VS4210/keyremo.c **** BYTE LockKeyState = 0;
  58:VS4210/keyremo.c **** BYTE BookMarkState = 0;
  59:VS4210/keyremo.c **** extern tByte DayNightLevel;
  60:VS4210/keyremo.c **** BYTE Disp_Input = 0; // ryan@21071019
  61:VS4210/keyremo.c **** 
  62:VS4210/keyremo.c **** BYTE TR_JUMP_Flag = 0;		   // ryan@20170912
  63:VS4210/keyremo.c **** BYTE TR_JUMP_HOLD = 0;		   // ryan@20170912
  64:VS4210/keyremo.c **** BYTE RELEASE_TR_JUMP_Flag = 0; // ryan@20170912
  65:VS4210/keyremo.c **** 
  66:VS4210/keyremo.c **** BYTE OSD_LOCKF = 0; // ryan@21071018
  67:VS4210/keyremo.c **** BYTE updn_reg[4] = {0, 0, 0, 0};
  68:VS4210/keyremo.c **** BYTE Time5ms = 40;
  69:VS4210/keyremo.c **** bit ChangeKey;
  70:VS4210/keyremo.c **** BYTE TriggerMode;
  71:VS4210/keyremo.c **** BYTE TriggerStatus = 0;
  72:VS4210/keyremo.c **** BYTE SEQFlag = 0;
  73:VS4210/keyremo.c **** BYTE coc_cursor;
  74:VS4210/keyremo.c **** BYTE BOX_Set_flag = 0;
  75:VS4210/keyremo.c **** BYTE TouchResetSelectModeFlag = 0;
  76:VS4210/keyremo.c **** BYTE TouchPreSelectModeType = 0;
  77:VS4210/keyremo.c **** 
  78:VS4210/keyremo.c **** extern BYTE RUN_DIMMER;
  79:VS4210/keyremo.c **** 
  80:VS4210/keyremo.c **** extern BYTE SEQIndex;
  81:VS4210/keyremo.c **** extern BYTE TimeStep;
  82:VS4210/keyremo.c **** extern BYTE PreSelectModeType;
  83:VS4210/keyremo.c **** extern BYTE COCSelectModeType[4];
  84:VS4210/keyremo.c **** extern BYTE PreCOCSelectModeType[4];
  85:VS4210/keyremo.c **** extern BYTE Flisheye_CAM[4];
  86:VS4210/keyremo.c **** extern BYTE BOOT_ISSUE;
  87:VS4210/keyremo.c **** extern BYTE QuadBoxId;
  88:VS4210/keyremo.c **** extern BYTE CAMA_M;
  89:VS4210/keyremo.c **** extern BYTE CAMB_M;
ARM GAS  C:\Users\ryanc.HS\AppData\Local\Temp\ccZ9UySd.s 			page 3


  90:VS4210/keyremo.c **** extern BYTE CAMC_M;
  91:VS4210/keyremo.c **** extern BYTE CAMR_M;
  92:VS4210/keyremo.c **** extern BYTE QuadBoxMode;
  93:VS4210/keyremo.c **** extern BYTE bytAutoSleeping;
  94:VS4210/keyremo.c **** extern BYTE bytStandByMode;
  95:VS4210/keyremo.c **** extern BYTE bytPowerDownMode;
  96:VS4210/keyremo.c **** extern BYTE bytStandByModeToTriggerMode;
  97:VS4210/keyremo.c **** extern BYTE bytTripleScreenType;
  98:VS4210/keyremo.c **** extern BYTE bytGaugeAdjust;
  99:VS4210/keyremo.c **** extern WORD standby_count;
 100:VS4210/keyremo.c **** extern tByte VideoSave[4];
 101:VS4210/keyremo.c **** extern BYTE bytSelectCAMRD;
 102:VS4210/keyremo.c **** extern tByte count[4];
 103:VS4210/keyremo.c **** extern BYTE bytGarbberLiner;
 104:VS4210/keyremo.c **** extern BYTE bytGrabberAdjust;
 105:VS4210/keyremo.c **** extern BYTE bytCOCAdjust;
 106:VS4210/keyremo.c **** extern BYTE AudioVol;
 107:VS4210/keyremo.c **** 
 108:VS4210/keyremo.c **** extern volatile bit g_bNotifyTimer0Int;
 109:VS4210/keyremo.c **** 
 110:VS4210/keyremo.c **** extern BYTE CURRENT_CH;
 111:VS4210/keyremo.c **** extern BYTE bytResetOSDValue;
 112:VS4210/keyremo.c **** extern BYTE PWR_OFF_TO_ON;
 113:VS4210/keyremo.c **** 
 114:VS4210/keyremo.c **** volatile BYTE MainSetSelectMode[13 + 1] = {
 115:VS4210/keyremo.c **** 	VS4210_LOOP_MODE0_w0,	// 0
 116:VS4210/keyremo.c **** 	VS4210_LOOP_MODE0_w1,	/// 1
 117:VS4210/keyremo.c **** 	VS4210_LOOP_MODE0_w2,	/// 2
 118:VS4210/keyremo.c **** 	VS4210_LOOP_MODE0_w3,	/// 3
 119:VS4210/keyremo.c **** 	VS4210_LOOP_MODE0_w4,	/// 4
 120:VS4210/keyremo.c **** 	VS4210_LOOP_MODE12_12,	/// 5
 121:VS4210/keyremo.c **** 	VS4210_LOOP_MODE12_34,	/// 6
 122:VS4210/keyremo.c **** 	VS4210_LOOP_MODE12_14,	/// 7
 123:VS4210/keyremo.c **** 	VS4210_LOOP_MODE12_42,	/// 8
 124:VS4210/keyremo.c **** 	VS4210_LOOP_MODE12_13,	/// 9
 125:VS4210/keyremo.c **** 	VS4210_LOOP_MODE12_32,	/// 10
 126:VS4210/keyremo.c **** 	VS4210_LOOP_MODE10_412, /// 11
 127:VS4210/keyremo.c **** 	VS4210_LOOP_MODE8_412,	/// 12
 128:VS4210/keyremo.c **** 	// VS4210_LOOP_MODE9_412,
 129:VS4210/keyremo.c **** 	VS4210_LOOP_MODE1 /// 13
 130:VS4210/keyremo.c **** 
 131:VS4210/keyremo.c **** 	/*
 132:VS4210/keyremo.c **** 		VS4210_LOOP_MODE2 ,///5
 133:VS4210/keyremo.c **** 		VS4210_LOOP_MODE10_123 ,///6
 134:VS4210/keyremo.c **** 		VS4210_LOOP_MODE8 ,///7
 135:VS4210/keyremo.c **** 		 VS4210_LOOP_MODE9 ,///8
 136:VS4210/keyremo.c **** 		  VS4210_LOOP_MODE14,///17
 137:VS4210/keyremo.c **** 		VS4210_LOOP_MODE_NUMBER  //18
 138:VS4210/keyremo.c **** 		*/
 139:VS4210/keyremo.c **** };
 140:VS4210/keyremo.c **** /*
 141:VS4210/keyremo.c **** volatile BYTE	MainTouchSetSelectMode[13][4]={
 142:VS4210/keyremo.c **** 	   {12,12,12,12},//VS4210_LOOP_MODE0_w0},
 143:VS4210/keyremo.c **** 	   {12,12,12,12},//VS4210_LOOP_MODE0_w1} ,
 144:VS4210/keyremo.c **** 	   {12,12,12,12},//VS4210_LOOP_MODE0_w2} ,
 145:VS4210/keyremo.c **** 	   {12,12,12,12},//VS4210_LOOP_MODE0_w3} ,
 146:VS4210/keyremo.c **** 	   {0,1,0,1},//VS4210_LOOP_MODE12_12},
ARM GAS  C:\Users\ryanc.HS\AppData\Local\Temp\ccZ9UySd.s 			page 4


 147:VS4210/keyremo.c ****    {2,3,2,3},//VS4210_LOOP_MODE12_34},
 148:VS4210/keyremo.c ****    {0,3,0,3},//VS4210_LOOP_MODE12_14},
 149:VS4210/keyremo.c **** 	   {3,1,3,1},//VS4210_LOOP_MODE12_42},
 150:VS4210/keyremo.c ****    {0,2,0,2},//VS4210_LOOP_MODE12_13},
 151:VS4210/keyremo.c **** 	   {2,1,2,1},//VS4210_LOOP_MODE12_32},
 152:VS4210/keyremo.c ****    {3,3,0,1},//VS4210_LOOP_MODE10_412} ,
 153:VS4210/keyremo.c ****    {3,0,3,1},//VS4210_LOOP_MODE8_412}
 154:VS4210/keyremo.c ****    {0,1,2,3}//VS4210_LOOP_MODE1_1234}
 155:VS4210/keyremo.c **** 	   };
 156:VS4210/keyremo.c **** */
 157:VS4210/keyremo.c **** volatile BYTE MainTouchSetSelectMode[13][16] = {
 158:VS4210/keyremo.c **** 	// 0,    1,      2,    3,     4,     5,     6,     7,     8,     9,    10,   11,   12,   13,   14,
 159:VS4210/keyremo.c **** 	{0x1C, 0x2C, 0x1C, 0x2C, 0x3C, 0x4C, 0x3C, 0x4C, 0x1C, 0x2C, 0x1C, 0x2C, 0x3C, 0x4C, 0x3C, 0x4C}, 
 160:VS4210/keyremo.c **** 	{0x1C, 0x2C, 0x1C, 0x2C, 0x3C, 0x4C, 0x3C, 0x4C, 0x1C, 0x2C, 0x1C, 0x2C, 0x3C, 0x4C, 0x3C, 0x4C}, 
 161:VS4210/keyremo.c **** 	{0x1C, 0x2C, 0x1C, 0x2C, 0x3C, 0x4C, 0x3C, 0x4C, 0x1C, 0x2C, 0x1C, 0x2C, 0x3C, 0x4C, 0x3C, 0x4C}, 
 162:VS4210/keyremo.c **** 	{0x1C, 0x2C, 0x1C, 0x2C, 0x3C, 0x4C, 0x3C, 0x4C, 0x1C, 0x2C, 0x1C, 0x2C, 0x3C, 0x4C, 0x3C, 0x4C}, 
 163:VS4210/keyremo.c **** 	{0x10, 0x20, 0x11, 0x21, 0x10, 0x20, 0x11, 0x21, 0x30, 0x40, 0x31, 0x41, 0x30, 0x40, 0x31, 0x41}, 
 164:VS4210/keyremo.c **** 	{0x12, 0x22, 0x13, 0x23, 0x12, 0x22, 0x13, 0x23, 0x32, 0x42, 0x33, 0x43, 0x32, 0x42, 0x33, 0x43}, 
 165:VS4210/keyremo.c **** 	{0x10, 0x20, 0x13, 0x23, 0x10, 0x20, 0x13, 0x23, 0x30, 0x40, 0x33, 0x43, 0x30, 0x40, 0x33, 0x43}, 
 166:VS4210/keyremo.c **** 	{0x13, 0x23, 0x11, 0x21, 0x13, 0x23, 0x11, 0x21, 0x33, 0x43, 0x31, 0x41, 0x33, 0x43, 0x31, 0x41}, 
 167:VS4210/keyremo.c **** 	{0x10, 0x20, 0x12, 0x22, 0x10, 0x20, 0x12, 0x22, 0x30, 0x40, 0x32, 0x42, 0x30, 0x40, 0x32, 0x42}, 
 168:VS4210/keyremo.c **** 	{0x12, 0x22, 0x11, 0x21, 0x12, 0x22, 0x11, 0x21, 0x32, 0x42, 0x31, 0x41, 0x32, 0x42, 0x31, 0x41}, 
 169:VS4210/keyremo.c **** 	{0x13, 0x13, 0x23, 0x23, 0x33, 0x33, 0x43, 0x43, 0x10, 0x20, 0x11, 0x21, 0x30, 0x40, 0x31, 0x41}, 
 170:VS4210/keyremo.c **** 	{0x13, 0x23, 0x10, 0x20, 0x33, 0x43, 0x30, 0x40, 0x33, 0x43, 0x11, 0x21, 0x33, 0x43, 0x31, 0x41}, 
 171:VS4210/keyremo.c **** 	{0x10, 0x20, 0x11, 0x21, 0x30, 0x40, 0x31, 0x41, 0x12, 0x22, 0x13, 0x23, 0x32, 0x42, 0x33, 0x43}  
 172:VS4210/keyremo.c **** };
 173:VS4210/keyremo.c **** /*
 174:VS4210/keyremo.c **** volatile BYTE  MainTouchSetSelectMode[13][16]={
 175:VS4210/keyremo.c **** 	//0, 1, 2, 3, 4, 5, 6, 7, 8, 9, 10, 11, 12, 13, 14, 15,
 176:VS4210/keyremo.c **** 	   {12,12,12,12,12,12,12,12,12,12,12,12,12,12,12,12},//VS4210_LOOP_MODE0_w0},
 177:VS4210/keyremo.c **** 	   {12,12,12,12,12,12,12,12,12,12,12,12,12,12,12,12},//VS4210_LOOP_MODE0_w1} ,
 178:VS4210/keyremo.c **** 	   {12,12,12,12,12,12,12,12,12,12,12,12,12,12,12,12},//VS4210_LOOP_MODE0_w2} ,
 179:VS4210/keyremo.c **** 	   {12,12,12,12,12,12,12,12,12,12,12,12,12,12,12,12},//VS4210_LOOP_MODE0_w3} ,
 180:VS4210/keyremo.c **** 	   {0,0,1,1,0,0,1,1,0,0,1,1,0,0,1,1},//VS4210_LOOP_MODE12_12},
 181:VS4210/keyremo.c ****    {2,2,3,3,2,2,3,3,2,2,3,3,2,2,3,3},//VS4210_LOOP_MODE12_34},
 182:VS4210/keyremo.c ****    {0,0,3,3,0,0,3,3,0,0,3,3,0,0,3,3},//VS4210_LOOP_MODE12_14},
 183:VS4210/keyremo.c **** 	   {3,3,1,1,3,3,1,1,3,3,1,1,3,3,1,1},//VS4210_LOOP_MODE12_42},
 184:VS4210/keyremo.c ****    {0,0,2,2,0,0,2,2,0,0,2,2,0,0,2,2},//VS4210_LOOP_MODE12_13},
 185:VS4210/keyremo.c **** 	   {2,2,1,1,2,2,1,1,2,2,1,1,2,2,1,1},//VS4210_LOOP_MODE12_32},
 186:VS4210/keyremo.c ****    {3,3,3,3,3,3,3,3,0,0,1,1,0,0,1,1},//VS4210_LOOP_MODE10_412} ,
 187:VS4210/keyremo.c ****    {3,3,0,0,3,3,0,0,3,3,1,1,3,3,1,1},//VS4210_LOOP_MODE8_412}
 188:VS4210/keyremo.c ****    {0,0,1,1,0,0,1,1,2,2,3,3,2,2,3,3,}//VS4210_LOOP_MODE1_1234}
 189:VS4210/keyremo.c **** 	   };
 190:VS4210/keyremo.c **** */
 191:VS4210/keyremo.c **** BYTE JumpTable[] = {
 192:VS4210/keyremo.c **** 	VS4210_LOOP_MODE1,		// CAM_QUAD,
 193:VS4210/keyremo.c **** 	VS4210_LOOP_MODE0_w0,	// SEQ,
 194:VS4210/keyremo.c **** 	VS4210_LOOP_MODE12_12,	// CAM_AB,
 195:VS4210/keyremo.c **** 	VS4210_LOOP_MODE12_34,	// CAM_CR,
 196:VS4210/keyremo.c **** 	VS4210_LOOP_MODE12_14,	// CAM_AR,
 197:VS4210/keyremo.c **** 	VS4210_LOOP_MODE12_42,	// CAM_RB,
 198:VS4210/keyremo.c **** 	VS4210_LOOP_MODE12_13,	// CAM_AC,
 199:VS4210/keyremo.c **** 	VS4210_LOOP_MODE12_32,	// CAM_CB,
 200:VS4210/keyremo.c **** 	VS4210_LOOP_MODE10_412, // CAM_RAB_T,
 201:VS4210/keyremo.c **** 	VS4210_LOOP_MODE8_412,	// CAM_RAB_H,
 202:VS4210/keyremo.c **** 	VS4210_LOOP_MODE0_w0,	// CAM_A,
 203:VS4210/keyremo.c **** 	VS4210_LOOP_MODE0_w1,	// CAM_B,
ARM GAS  C:\Users\ryanc.HS\AppData\Local\Temp\ccZ9UySd.s 			page 5


 204:VS4210/keyremo.c **** 	VS4210_LOOP_MODE0_w2,	// CAM_C,
 205:VS4210/keyremo.c **** 	VS4210_LOOP_MODE0_w4,	// CAM_D,
 206:VS4210/keyremo.c **** 	VS4210_LOOP_MODE0_w3	// CAM_R
 207:VS4210/keyremo.c **** };
 208:VS4210/keyremo.c **** 
 209:VS4210/keyremo.c **** BYTE LeftTable[] = {
 210:VS4210/keyremo.c **** 	VS4210_LOOP_MODE0_w0,  // CAM_A,
 211:VS4210/keyremo.c **** 	VS4210_LOOP_MODE12_12, // CAM_AB,
 212:VS4210/keyremo.c **** 	VS4210_LOOP_MODE12_13, // CAM_AC,
 213:VS4210/keyremo.c **** 	VS4210_LOOP_MODE12_14, /// CAM_AR,
 214:VS4210/keyremo.c **** 	VS4210_LOOP_MODE8_123, /// CAM_ABC,
 215:VS4210/keyremo.c **** 	VS4210_LOOP_MODE8_124, // CAM_ABR,
 216:VS4210/keyremo.c **** 	VS4210_LOOP_MODE8_134  /// ,CAM_ACR
 217:VS4210/keyremo.c **** };
 218:VS4210/keyremo.c **** 
 219:VS4210/keyremo.c **** BYTE LeftTable9[] = {
 220:VS4210/keyremo.c **** 	VS4210_LOOP_MODE0_w0,  // CAM_A,
 221:VS4210/keyremo.c **** 	VS4210_LOOP_MODE12_12, // CAM_AB,
 222:VS4210/keyremo.c **** 	VS4210_LOOP_MODE12_13, // CAM_AC,
 223:VS4210/keyremo.c **** 	VS4210_LOOP_MODE12_14, /// CAM_AR,
 224:VS4210/keyremo.c **** 	VS4210_LOOP_MODE9_123, /// CAM_ABC,
 225:VS4210/keyremo.c **** 	VS4210_LOOP_MODE9_124, // CAM_ABR,
 226:VS4210/keyremo.c **** 	VS4210_LOOP_MODE9_134  /// ,CAM_ACR
 227:VS4210/keyremo.c **** };
 228:VS4210/keyremo.c **** 
 229:VS4210/keyremo.c **** BYTE LeftTable10[] = {
 230:VS4210/keyremo.c **** 	VS4210_LOOP_MODE0_w0,	// CAM_A,
 231:VS4210/keyremo.c **** 	VS4210_LOOP_MODE12_12,	// CAM_AB,
 232:VS4210/keyremo.c **** 	VS4210_LOOP_MODE12_13,	// CAM_AC,
 233:VS4210/keyremo.c **** 	VS4210_LOOP_MODE12_14,	/// CAM_AR,
 234:VS4210/keyremo.c **** 	VS4210_LOOP_MODE10_123, /// CAM_ABC,
 235:VS4210/keyremo.c **** 	VS4210_LOOP_MODE10_124, // CAM_ABR,
 236:VS4210/keyremo.c **** 	VS4210_LOOP_MODE10_134	/// ,CAM_ACR
 237:VS4210/keyremo.c **** };
 238:VS4210/keyremo.c **** 
 239:VS4210/keyremo.c **** BYTE RightTable[] = {
 240:VS4210/keyremo.c **** 	VS4210_LOOP_MODE0_w1,  // CAM_B,
 241:VS4210/keyremo.c **** 	VS4210_LOOP_MODE12_21, // CAM_BA,
 242:VS4210/keyremo.c **** 	VS4210_LOOP_MODE12_23, // CAM_BC,
 243:VS4210/keyremo.c **** 	VS4210_LOOP_MODE12_24, // CAM_BR,
 244:VS4210/keyremo.c **** 	VS4210_LOOP_MODE8_213, /// CAM_BAC,
 245:VS4210/keyremo.c **** 	VS4210_LOOP_MODE8_214, /// CAM_BAR,
 246:VS4210/keyremo.c **** 	VS4210_LOOP_MODE8_234  /// CAM_BCR
 247:VS4210/keyremo.c **** };
 248:VS4210/keyremo.c **** 
 249:VS4210/keyremo.c **** BYTE RightTable9[] = {
 250:VS4210/keyremo.c **** 	VS4210_LOOP_MODE0_w1,  // CAM_B,
 251:VS4210/keyremo.c **** 	VS4210_LOOP_MODE12_21, // CAM_BA,
 252:VS4210/keyremo.c **** 	VS4210_LOOP_MODE12_23, // CAM_BC,
 253:VS4210/keyremo.c **** 	VS4210_LOOP_MODE12_24, // CAM_BR,
 254:VS4210/keyremo.c **** 	VS4210_LOOP_MODE9_213, /// CAM_BAC,
 255:VS4210/keyremo.c **** 	VS4210_LOOP_MODE9_214, /// CAM_BAR,
 256:VS4210/keyremo.c **** 	VS4210_LOOP_MODE9_234  /// CAM_BCR
 257:VS4210/keyremo.c **** };
 258:VS4210/keyremo.c **** BYTE RightTable10[] = {
 259:VS4210/keyremo.c **** 	VS4210_LOOP_MODE0_w1,	// CAM_B,
 260:VS4210/keyremo.c **** 	VS4210_LOOP_MODE12_21,	// CAM_BA,
ARM GAS  C:\Users\ryanc.HS\AppData\Local\Temp\ccZ9UySd.s 			page 6


 261:VS4210/keyremo.c **** 	VS4210_LOOP_MODE12_23,	// CAM_BC,
 262:VS4210/keyremo.c **** 	VS4210_LOOP_MODE12_24,	// CAM_BR,
 263:VS4210/keyremo.c **** 	VS4210_LOOP_MODE10_213, /// CAM_BAC,
 264:VS4210/keyremo.c **** 	VS4210_LOOP_MODE10_214, /// CAM_BAR,
 265:VS4210/keyremo.c **** 	VS4210_LOOP_MODE10_234	/// CAM_BCR
 266:VS4210/keyremo.c **** };
 267:VS4210/keyremo.c **** 
 268:VS4210/keyremo.c **** BYTE TriggerC_Table[] = {
 269:VS4210/keyremo.c **** 	VS4210_LOOP_MODE0_w2,  // CAM_C,
 270:VS4210/keyremo.c **** 	VS4210_LOOP_MODE12_31, // CAM_CA,
 271:VS4210/keyremo.c **** 	VS4210_LOOP_MODE12_32, // CAM_CB,
 272:VS4210/keyremo.c **** 	VS4210_LOOP_MODE12_34, /// CAM_CR,
 273:VS4210/keyremo.c **** 	VS4210_LOOP_MODE8_312, // CAM_CAB,
 274:VS4210/keyremo.c **** 	VS4210_LOOP_MODE8_314, /// CAM_CAR,
 275:VS4210/keyremo.c **** 	VS4210_LOOP_MODE8_324  /// CAM_CBR
 276:VS4210/keyremo.c **** };
 277:VS4210/keyremo.c **** 
 278:VS4210/keyremo.c **** BYTE TriggerC_Table9[] = {
 279:VS4210/keyremo.c **** 	VS4210_LOOP_MODE0_w2,  // CAM_C,
 280:VS4210/keyremo.c **** 	VS4210_LOOP_MODE12_31, // CAM_CA,
 281:VS4210/keyremo.c **** 	VS4210_LOOP_MODE12_32, // CAM_CB,
 282:VS4210/keyremo.c **** 	VS4210_LOOP_MODE12_34, /// CAM_CR,
 283:VS4210/keyremo.c **** 	VS4210_LOOP_MODE9_312, // CAM_CAB,
 284:VS4210/keyremo.c **** 	VS4210_LOOP_MODE9_314, /// CAM_CAR,
 285:VS4210/keyremo.c **** 	VS4210_LOOP_MODE9_324  /// CAM_CBR
 286:VS4210/keyremo.c **** };
 287:VS4210/keyremo.c **** 
 288:VS4210/keyremo.c **** BYTE TriggerC_Table10[] = {
 289:VS4210/keyremo.c **** 	VS4210_LOOP_MODE0_w2,	// CAM_C,
 290:VS4210/keyremo.c **** 	VS4210_LOOP_MODE12_31,	// CAM_CA,
 291:VS4210/keyremo.c **** 	VS4210_LOOP_MODE12_32,	// CAM_CB,
 292:VS4210/keyremo.c **** 	VS4210_LOOP_MODE12_34,	/// CAM_CR,
 293:VS4210/keyremo.c **** 	VS4210_LOOP_MODE10_312, // CAM_CAB,
 294:VS4210/keyremo.c **** 	VS4210_LOOP_MODE10_314, /// CAM_CAR,
 295:VS4210/keyremo.c **** 	VS4210_LOOP_MODE10_324	/// CAM_CBR
 296:VS4210/keyremo.c **** };
 297:VS4210/keyremo.c **** 
 298:VS4210/keyremo.c **** BYTE SEQTable[] = {
 299:VS4210/keyremo.c **** 	VS4210_LOOP_MODE0_w0,
 300:VS4210/keyremo.c **** 	VS4210_LOOP_MODE0_w1,
 301:VS4210/keyremo.c **** 	VS4210_LOOP_MODE0_w2,
 302:VS4210/keyremo.c **** 	VS4210_LOOP_MODE0_w3,
 303:VS4210/keyremo.c **** 	VS4210_LOOP_MODE0_w4}; // SEQ
 304:VS4210/keyremo.c **** 
 305:VS4210/keyremo.c **** BYTE RearTable[] = {
 306:VS4210/keyremo.c **** 	VS4210_LOOP_MODE0_w3,  // CAM_R,
 307:VS4210/keyremo.c **** 	VS4210_LOOP_MODE12_41, /// CAM_AR,
 308:VS4210/keyremo.c **** 	VS4210_LOOP_MODE12_42, // CAM_RB,
 309:VS4210/keyremo.c **** 	VS4210_LOOP_MODE12_43, // CAM_CR,
 310:VS4210/keyremo.c **** 	//	VS4210_LOOP_MODE10_412,//CAM_RAB_T,
 311:VS4210/keyremo.c **** 	//	VS4210_LOOP_MODE10_413,//CAM_RAC_T,
 312:VS4210/keyremo.c **** 	//	VS4210_LOOP_MODE10_423,//CAM_RBC_T,
 313:VS4210/keyremo.c **** 	VS4210_LOOP_MODE8_412, // CAM_RAB_H,
 314:VS4210/keyremo.c **** 						   //	VS4210_LOOP_MODE8_413 ,//CAM_RAC_T2,
 315:VS4210/keyremo.c **** 						   //	VS4210_LOOP_MODE8_423 //CAM_RBC_T2
 316:VS4210/keyremo.c **** };
 317:VS4210/keyremo.c **** 
ARM GAS  C:\Users\ryanc.HS\AppData\Local\Temp\ccZ9UySd.s 			page 7


 318:VS4210/keyremo.c **** BYTE RearTable9[] = {
 319:VS4210/keyremo.c **** 	VS4210_LOOP_MODE0_w3,  // CAM_R,
 320:VS4210/keyremo.c **** 	VS4210_LOOP_MODE12_41, /// CAM_AR,
 321:VS4210/keyremo.c **** 	VS4210_LOOP_MODE12_42, // CAM_RB,
 322:VS4210/keyremo.c **** 	VS4210_LOOP_MODE12_43, // CAM_CR,
 323:VS4210/keyremo.c **** 	VS4210_LOOP_MODE9_412, // CAM_RAB_H,
 324:VS4210/keyremo.c **** };
 325:VS4210/keyremo.c **** 
 326:VS4210/keyremo.c **** BYTE RearTable10[] = {
 327:VS4210/keyremo.c **** 	VS4210_LOOP_MODE0_w3,	// CAM_R,
 328:VS4210/keyremo.c **** 	VS4210_LOOP_MODE12_41,	/// CAM_AR,
 329:VS4210/keyremo.c **** 	VS4210_LOOP_MODE12_42,	// CAM_RB,
 330:VS4210/keyremo.c **** 	VS4210_LOOP_MODE12_43,	// CAM_CR,
 331:VS4210/keyremo.c **** 	VS4210_LOOP_MODE10_412, // CAM_RAB_H,
 332:VS4210/keyremo.c **** };
 333:VS4210/keyremo.c **** 
 334:VS4210/keyremo.c **** extern bit SpeedDomeMode;
 335:VS4210/keyremo.c **** bit OnChangingValue = 0;
 336:VS4210/keyremo.c **** WORD OneTouchPosition = 0;
 337:VS4210/keyremo.c **** WORD OneTouchCursorPosition = 0;
 338:VS4210/keyremo.c **** BYTE MenuTouchMode = 0;
 339:VS4210/keyremo.c **** BYTE MenuTouchFlag = 0;
 340:VS4210/keyremo.c **** 
 341:VS4210/keyremo.c **** extern BYTE Priority;
 342:VS4210/keyremo.c **** extern tByte OSDStateFlg;
 343:VS4210/keyremo.c **** extern BYTE PowerFlag;
 344:VS4210/keyremo.c **** extern BYTE Monitor_flag;
 345:VS4210/keyremo.c **** volatile BYTE Encoder_flag = ON;
 346:VS4210/keyremo.c **** 
 347:VS4210/keyremo.c **** bit RepeatKey;
 348:VS4210/keyremo.c **** extern bit Init_DisplayInput;
 349:VS4210/keyremo.c **** #if 0 /// def SUPPORT_DEBUG
 350:VS4210/keyremo.c **** extern  bit Debug_On;
 351:VS4210/keyremo.c **** #endif
 352:VS4210/keyremo.c **** extern BYTE PcMode;
 353:VS4210/keyremo.c **** extern WORD OSDLastKeyInTime; // in ms
 354:VS4210/keyremo.c **** // extern   		bit   DisplayInputHold;		//william-981029
 355:VS4210/keyremo.c **** extern DATA WORD tic_pc;
 356:VS4210/keyremo.c **** bit KeyReady;
 357:VS4210/keyremo.c **** DATA BYTE Key, TouchP;
 358:VS4210/keyremo.c **** extern BYTE keyticSec;
 359:VS4210/keyremo.c **** #if 0 // def REMO_RC5
 360:VS4210/keyremo.c **** extern   BYTE	RemoDataReady;
 361:VS4210/keyremo.c **** #endif
 362:VS4210/keyremo.c **** extern BYTE RemoSystemCode, RemoDataCode;
 363:VS4210/keyremo.c **** //#ifdef Format_SDCard
 364:VS4210/keyremo.c **** extern BYTE FormatSDCard;
 365:VS4210/keyremo.c **** //#endif
 366:VS4210/keyremo.c **** extern bit ChannelEdit_Flag;
 367:VS4210/keyremo.c **** extern bit ChannelEdit_on;
 368:VS4210/keyremo.c **** extern bit GetDVRStatusflag;
 369:VS4210/keyremo.c **** BYTE OSDMenuLevel;
 370:VS4210/keyremo.c **** BYTE title_item, cursor_item, cursor_change, /*cursor_y,*/ cur_osdwin, /*cur_osdaddr,*/ val_osdwin 
 371:VS4210/keyremo.c **** 																						val_index = 0;
 372:VS4210/keyremo.c **** 
 373:VS4210/keyremo.c **** #if 0 // def E_Wintek
 374:VS4210/keyremo.c **** extern	bit	FactoryMenu;
ARM GAS  C:\Users\ryanc.HS\AppData\Local\Temp\ccZ9UySd.s 			page 8


 375:VS4210/keyremo.c **** #endif
 376:VS4210/keyremo.c **** 
 377:VS4210/keyremo.c **** extern BYTE SelectModeType;
 378:VS4210/keyremo.c **** 
 379:VS4210/keyremo.c **** extern bit IsDrawNoVideoSignal; // ryan@20170922
 380:VS4210/keyremo.c **** 
 381:VS4210/keyremo.c **** #if 0 // def HTRV  //Pinchi 20150825 add model #define
 382:VS4210/keyremo.c **** extern BYTE GaugeVStart;
 383:VS4210/keyremo.c **** 
 384:VS4210/keyremo.c **** BYTE GaugeSetup =0;
 385:VS4210/keyremo.c **** BYTE GaugeInfoOSD =0;
 386:VS4210/keyremo.c **** 
 387:VS4210/keyremo.c **** #endif
 388:VS4210/keyremo.c **** 
 389:VS4210/keyremo.c **** BYTE TriggerFlag = 0;
 390:VS4210/keyremo.c **** BYTE bytTriggerTest = 0;
 391:VS4210/keyremo.c **** 
 392:VS4210/keyremo.c **** BYTE NowModeState;
 393:VS4210/keyremo.c **** 
 394:VS4210/keyremo.c **** #if 0 /// def SUPPORT_2835_CLK_TUNE_BACK_DOOR  //Pinchi 20160929 add
 395:VS4210/keyremo.c **** DATA bit IsRun2835ClkTune=0;
 396:VS4210/keyremo.c **** DATA BYTE b2835ClkTuneVal=0;
 397:VS4210/keyremo.c **** 
 398:VS4210/keyremo.c **** DATA bit IsEnter2835ClkTune=0;
 399:VS4210/keyremo.c **** DATA DWORD Enter2835TuneClock;
 400:VS4210/keyremo.c **** extern DATA DWORD SystemClock;
 401:VS4210/keyremo.c **** 
 402:VS4210/keyremo.c **** void HS_Display2835ClkTuneVal(WORD val);
 403:VS4210/keyremo.c **** extern CODE BYTE Init_Osd_DisplayInput_B[];
 404:VS4210/keyremo.c **** #endif
 405:VS4210/keyremo.c **** 
 406:VS4210/keyremo.c **** #if 0 /// def HS_NEWOSDMENU
 407:VS4210/keyremo.c **** void RemoMenu_MenuKey(BYTE isREMOTE)
 408:VS4210/keyremo.c **** {
 409:VS4210/keyremo.c **** 	if(GetDisplayedOSD() & MENU) 	
 410:VS4210/keyremo.c **** 		OSDHighMenu();       
 411:VS4210/keyremo.c **** 	else
 412:VS4210/keyremo.c **** 		{
 413:VS4210/keyremo.c **** 		/*	//Weylis -@121008 
 414:VS4210/keyremo.c **** 		//FMONFLG = 3;
 415:VS4210/keyremo.c **** 		if(GetInputSelection()== soDVDAV || GetInputSelection()== soCOMPONENT)
 416:VS4210/keyremo.c **** 			{
 417:VS4210/keyremo.c **** 				if(isREMOTE)
 418:VS4210/keyremo.c **** 					OpenOSDMenu(1);
 419:VS4210/keyremo.c **** 				else
 420:VS4210/keyremo.c **** 					OpenOSDMenu(0);
 421:VS4210/keyremo.c **** 			}
 422:VS4210/keyremo.c **** 		else
 423:VS4210/keyremo.c **** 		*/
 424:VS4210/keyremo.c **** 			OpenOSDMenu(1);
 425:VS4210/keyremo.c **** 		}
 426:VS4210/keyremo.c **** 	
 427:VS4210/keyremo.c **** }
 428:VS4210/keyremo.c **** #else
 429:VS4210/keyremo.c **** void RemoMenu_MenuKey(void)
 430:VS4210/keyremo.c **** {
  27              		.loc 1 430 1 view -0
ARM GAS  C:\Users\ryanc.HS\AppData\Local\Temp\ccZ9UySd.s 			page 9


  28              		.cfi_startproc
  29              		@ args = 0, pretend = 0, frame = 0
  30              		@ frame_needed = 0, uses_anonymous_args = 0
  31              		@ link register save eliminated.
 431:VS4210/keyremo.c **** 	/*
 432:VS4210/keyremo.c **** 		if(  GetDisplayedOSD() & MENU  ) 		OSDHighMenu();
 433:VS4210/keyremo.c **** 		else
 434:VS4210/keyremo.c **** 			OpenOSDMenu();
 435:VS4210/keyremo.c **** 		*/
 436:VS4210/keyremo.c **** }
  32              		.loc 1 436 1 view .LVU1
  33 0000 7047     		bx	lr
  34              		.cfi_endproc
  35              	.LFE68:
  37              		.section	.text.RemoChnUp_UpKey,"ax",%progbits
  38              		.align	1
  39              		.global	RemoChnUp_UpKey
  40              		.syntax unified
  41              		.thumb
  42              		.thumb_func
  43              		.fpu softvfp
  45              	RemoChnUp_UpKey:
  46              	.LFB69:
 437:VS4210/keyremo.c **** #endif
 438:VS4210/keyremo.c **** 
 439:VS4210/keyremo.c **** void RemoChnUp_UpKey(void)
 440:VS4210/keyremo.c **** {
  47              		.loc 1 440 1 view -0
  48              		.cfi_startproc
  49              		@ args = 0, pretend = 0, frame = 0
  50              		@ frame_needed = 0, uses_anonymous_args = 0
  51              		@ link register save eliminated.
 441:VS4210/keyremo.c **** #if 0 /// def SUPPORT_DEBUG
 442:VS4210/keyremo.c **** 	if( Debug_On ) {
 443:VS4210/keyremo.c **** 		DebugWindowData(UP);
 444:VS4210/keyremo.c **** 		return;
 445:VS4210/keyremo.c **** 	}
 446:VS4210/keyremo.c **** 	else
 447:VS4210/keyremo.c **** #endif
 448:VS4210/keyremo.c **** 	/*
 449:VS4210/keyremo.c **** 	if( GetDisplayedOSD() & MENU  )
 450:VS4210/keyremo.c **** 		#ifdef PAL_TV
 451:VS4210/keyremo.c **** 		if( ChannelEdit_Flag) {
 452:VS4210/keyremo.c **** 			if( ChannelEdit_on )					ChannelEdit_Char(UP);
 453:VS4210/keyremo.c **** 			else {
 454:VS4210/keyremo.c **** 				UpDownTVChannel(DN);
 455:VS4210/keyremo.c **** 				ChannelEdit_display();
 456:VS4210/keyremo.c **** 			}
 457:VS4210/keyremo.c **** 		}
 458:VS4210/keyremo.c **** 		else
 459:VS4210/keyremo.c **** 		#endif
 460:VS4210/keyremo.c **** 		OSDCursorMove(UP);
 461:VS4210/keyremo.c **** 	#ifdef SUPPORT_PC
 462:VS4210/keyremo.c **** 	else if( GetInputSelection()==PC )		AutoAdjust();
 463:VS4210/keyremo.c **** 	#endif
 464:VS4210/keyremo.c **** 	else
 465:VS4210/keyremo.c **** 		return;
ARM GAS  C:\Users\ryanc.HS\AppData\Local\Temp\ccZ9UySd.s 			page 10


 466:VS4210/keyremo.c **** 	*/
 467:VS4210/keyremo.c **** }
  52              		.loc 1 467 1 view .LVU3
  53 0000 7047     		bx	lr
  54              		.cfi_endproc
  55              	.LFE69:
  57              		.section	.text.RemoChnDn_DnKey,"ax",%progbits
  58              		.align	1
  59              		.global	RemoChnDn_DnKey
  60              		.syntax unified
  61              		.thumb
  62              		.thumb_func
  63              		.fpu softvfp
  65              	RemoChnDn_DnKey:
  66              	.LFB70:
 468:VS4210/keyremo.c **** 
 469:VS4210/keyremo.c **** void RemoChnDn_DnKey(void)
 470:VS4210/keyremo.c **** {
  67              		.loc 1 470 1 view -0
  68              		.cfi_startproc
  69              		@ args = 0, pretend = 0, frame = 0
  70              		@ frame_needed = 0, uses_anonymous_args = 0
  71              		@ link register save eliminated.
 471:VS4210/keyremo.c **** 	/*
 472:VS4210/keyremo.c **** 		#ifdef SUPPORT_DEBUG
 473:VS4210/keyremo.c **** 		if( Debug_On ) {
 474:VS4210/keyremo.c **** 			DebugWindowData(DN);
 475:VS4210/keyremo.c **** 			return;
 476:VS4210/keyremo.c **** 		}
 477:VS4210/keyremo.c **** 		else
 478:VS4210/keyremo.c **** 		#endif
 479:VS4210/keyremo.c **** 		if( GetDisplayedOSD() & MENU  ) {
 480:VS4210/keyremo.c **** 			OSDCursorMove(DN);
 481:VS4210/keyremo.c **** 		}
 482:VS4210/keyremo.c **** 		else
 483:VS4210/keyremo.c **** 			#ifdef SUPPORT_LINE_OSDDEMO
 484:VS4210/keyremo.c **** 			DisplayLineOSD();
 485:VS4210/keyremo.c **** 			#endif
 486:VS4210/keyremo.c **** 			return;
 487:VS4210/keyremo.c **** 			*/
 488:VS4210/keyremo.c **** }
  72              		.loc 1 488 1 view .LVU5
  73 0000 7047     		bx	lr
  74              		.cfi_endproc
  75              	.LFE70:
  77              		.section	.text.RemoVolUp_RightKey,"ax",%progbits
  78              		.align	1
  79              		.global	RemoVolUp_RightKey
  80              		.syntax unified
  81              		.thumb
  82              		.thumb_func
  83              		.fpu softvfp
  85              	RemoVolUp_RightKey:
  86              	.LFB71:
 489:VS4210/keyremo.c **** 
 490:VS4210/keyremo.c **** void RemoVolUp_RightKey(void)
 491:VS4210/keyremo.c **** {
ARM GAS  C:\Users\ryanc.HS\AppData\Local\Temp\ccZ9UySd.s 			page 11


  87              		.loc 1 491 1 view -0
  88              		.cfi_startproc
  89              		@ args = 0, pretend = 0, frame = 0
  90              		@ frame_needed = 0, uses_anonymous_args = 0
  91              		@ link register save eliminated.
 492:VS4210/keyremo.c **** 	/*
 493:VS4210/keyremo.c **** 		#ifdef SUPPORT_DEBUG
 494:VS4210/keyremo.c **** 		if( Debug_On ) {
 495:VS4210/keyremo.c **** 			DebugWindowCursor(UP);
 496:VS4210/keyremo.c **** 			return;
 497:VS4210/keyremo.c **** 		}
 498:VS4210/keyremo.c **** 		else
 499:VS4210/keyremo.c **** 		#endif
 500:VS4210/keyremo.c **** 		if(  GetDisplayedOSD() & MENU  ) {
 501:VS4210/keyremo.c **** 			if( OnChangingValue ) 					OSDValueUpDn(UP );
 502:VS4210/keyremo.c **** 			else										OSDSelect();
 503:VS4210/keyremo.c **** 		}
 504:VS4210/keyremo.c **** 		else //if(GetDisplayedOSD() & TVVOL)
 505:VS4210/keyremo.c **** 		{
 506:VS4210/keyremo.c **** 		#ifdef HTRV  //Pinchi 20150827 add
 507:VS4210/keyremo.c **** 			if(GaugeSetup)//william-v1.43-970319
 508:VS4210/keyremo.c **** 				OSDValueUpDn(UP );
 509:VS4210/keyremo.c **** 			else
 510:VS4210/keyremo.c **** 		#endif
 511:VS4210/keyremo.c **** 			{
 512:VS4210/keyremo.c **** 				ChangeVol(1);
 513:VS4210/keyremo.c **** 				DisplayVol();
 514:VS4210/keyremo.c **** 			}
 515:VS4210/keyremo.c **** 		}
 516:VS4210/keyremo.c **** 		*/
 517:VS4210/keyremo.c **** }
  92              		.loc 1 517 1 view .LVU7
  93 0000 7047     		bx	lr
  94              		.cfi_endproc
  95              	.LFE71:
  97              		.section	.text.RemoVolDn_LeftKey,"ax",%progbits
  98              		.align	1
  99              		.global	RemoVolDn_LeftKey
 100              		.syntax unified
 101              		.thumb
 102              		.thumb_func
 103              		.fpu softvfp
 105              	RemoVolDn_LeftKey:
 106              	.LFB72:
 518:VS4210/keyremo.c **** 
 519:VS4210/keyremo.c **** void RemoVolDn_LeftKey(void)
 520:VS4210/keyremo.c **** {
 107              		.loc 1 520 1 view -0
 108              		.cfi_startproc
 109              		@ args = 0, pretend = 0, frame = 0
 110              		@ frame_needed = 0, uses_anonymous_args = 0
 111              		@ link register save eliminated.
 521:VS4210/keyremo.c **** 	/*
 522:VS4210/keyremo.c **** 		#ifdef SUPPORT_DEBUG
 523:VS4210/keyremo.c **** 		if( Debug_On ) {
 524:VS4210/keyremo.c **** 			DebugWindowCursor(DN);
 525:VS4210/keyremo.c **** 			return;
ARM GAS  C:\Users\ryanc.HS\AppData\Local\Temp\ccZ9UySd.s 			page 12


 526:VS4210/keyremo.c **** 		}
 527:VS4210/keyremo.c **** 		else
 528:VS4210/keyremo.c **** 		#endif
 529:VS4210/keyremo.c **** 		if(  GetDisplayedOSD() & MENU  )
 530:VS4210/keyremo.c **** 			{
 531:VS4210/keyremo.c **** 			if( OnChangingValue )
 532:VS4210/keyremo.c **** 				OSDValueUpDn(DN );
 533:VS4210/keyremo.c **** 			else
 534:VS4210/keyremo.c **** 				OSDHighMenu();
 535:VS4210/keyremo.c **** 			}
 536:VS4210/keyremo.c **** 		else //if(GetDisplayedOSD() & TVVOL)
 537:VS4210/keyremo.c **** 		{
 538:VS4210/keyremo.c **** 		#ifdef HTRV  //Pinchi 20150827 add
 539:VS4210/keyremo.c **** 			if(GaugeSetup)//william-v1.43-970319
 540:VS4210/keyremo.c **** 				OSDValueUpDn(DN);
 541:VS4210/keyremo.c **** 			else
 542:VS4210/keyremo.c **** 		#endif
 543:VS4210/keyremo.c **** 			{
 544:VS4210/keyremo.c **** 				ChangeVol(-1);
 545:VS4210/keyremo.c **** 				DisplayVol();
 546:VS4210/keyremo.c **** 			}
 547:VS4210/keyremo.c **** 		}
 548:VS4210/keyremo.c **** 		*/
 549:VS4210/keyremo.c **** }
 112              		.loc 1 549 1 view .LVU9
 113 0000 7047     		bx	lr
 114              		.cfi_endproc
 115              	.LFE72:
 117              		.section	.text.ActionRemo,"ax",%progbits
 118              		.align	1
 119              		.global	ActionRemo
 120              		.syntax unified
 121              		.thumb
 122              		.thumb_func
 123              		.fpu softvfp
 125              	ActionRemo:
 126              	.LVL0:
 127              	.LFB73:
 550:VS4210/keyremo.c **** 
 551:VS4210/keyremo.c **** //=============================================================================
 552:VS4210/keyremo.c **** //
 553:VS4210/keyremo.c **** //=============================================================================
 554:VS4210/keyremo.c **** BYTE ActionRemo(BYTE _RemoDataCode, BYTE AutoKey)
 555:VS4210/keyremo.c **** {
 128              		.loc 1 555 1 view -0
 129              		.cfi_startproc
 130              		@ args = 0, pretend = 0, frame = 0
 131              		@ frame_needed = 0, uses_anonymous_args = 0
 132              		@ link register save eliminated.
 556:VS4210/keyremo.c **** 	/*
 557:VS4210/keyremo.c **** 		SetOSDLastKeyInTime();
 558:VS4210/keyremo.c **** 
 559:VS4210/keyremo.c **** 		 #if (defined SUPPORT_PC) || (defined SUPPORT_DTV)
 560:VS4210/keyremo.c **** 		 #if 0//andy ML084 980930
 561:VS4210/keyremo.c **** 		  if( (PcMode==EE_PC_NO_SIGNAL) && (GetInputSelection()==PC || GetInputSelection()==DTV) ) {
 562:VS4210/keyremo.c **** 			 if( PcMode==EE_PC_NO_SIGNAL ) {
 563:VS4210/keyremo.c **** 				 switch (_RemoDataCode) {
ARM GAS  C:\Users\ryanc.HS\AppData\Local\Temp\ccZ9UySd.s 			page 13


 564:VS4210/keyremo.c **** 				   case REMO_INPUT:
 565:VS4210/keyremo.c **** 				 //case REMO_STANDBY:
 566:VS4210/keyremo.c **** 				 break;
 567:VS4210/keyremo.c **** 
 568:VS4210/keyremo.c **** 				default:
 569:VS4210/keyremo.c **** 					tic_pc = 0;
 570:VS4210/keyremo.c **** 					return 1;
 571:VS4210/keyremo.c **** 				}
 572:VS4210/keyremo.c **** 			}
 573:VS4210/keyremo.c **** 		}
 574:VS4210/keyremo.c **** 		 #endif
 575:VS4210/keyremo.c **** 		#endif // SUPPORT_PC
 576:VS4210/keyremo.c **** 
 577:VS4210/keyremo.c **** 		switch(_RemoDataCode) {
 578:VS4210/keyremo.c **** 
 579:VS4210/keyremo.c **** 		case REMO_STANDBY:				// power
 580:VS4210/keyremo.c **** 			#ifdef DEBUG_KEYREMO
 581:VS4210/keyremo.c **** 			dPrintf("\r\nSTANDBY Mode, Autokey:%02x", A utoKey);
 582:VS4210/keyremo.c **** 			#endif
 583:VS4210/keyremo.c **** 			OSDLastKeyInTime = 0xffff;
 584:VS4210/keyremo.c **** 			if( AutoKey ) return 1;
 585:VS4210/keyremo.c **** 			return 0;					// power off
 586:VS4210/keyremo.c **** 
 587:VS4210/keyremo.c **** 		case REMO_MUTE:
 588:VS4210/keyremo.c **** 			#if 0
 589:VS4210/keyremo.c **** 			#ifdef DEBUG_KEYREMO
 590:VS4210/keyremo.c **** 			dPrintf("\r\nMUTE Mode, Autokey:%02x", AutoKey);
 591:VS4210/keyremo.c **** 			#endif
 592:VS4210/keyremo.c **** 			if( AutoKey ) return 1;
 593:VS4210/keyremo.c **** 			ToggleAudioMute();
 594:VS4210/keyremo.c **** 			if( IsAudioMuteOn() )		DisplayMuteInfo();
 595:VS4210/keyremo.c **** 			else{
 596:VS4210/keyremo.c **** 				ClearMuteInfo();
 597:VS4210/keyremo.c **** 				//if( DisplayInputHold ) DisplayInput();		//william-981029
 598:VS4210/keyremo.c **** 			}
 599:VS4210/keyremo.c **** 			#endif
 600:VS4210/keyremo.c **** 			break;
 601:VS4210/keyremo.c **** 
 602:VS4210/keyremo.c **** 		case REMO_INPUT:
 603:VS4210/keyremo.c **** 			#ifdef DEBUG_KEYREMO
 604:VS4210/keyremo.c **** 			dPrintf("\r\nChange INPUT, Autokey:%02x", AutoKey);
 605:VS4210/keyremo.c **** 			#endif
 606:VS4210/keyremo.c **** 			ChangeInput(GetNextInputSelection());
 607:VS4210/keyremo.c **** 			return 1;
 608:VS4210/keyremo.c **** 
 609:VS4210/keyremo.c **** 		case REMO_INFO:
 610:VS4210/keyremo.c **** 			#ifdef DEBUG_KEYREMO
 611:VS4210/keyremo.c **** 			dPrintf("\r\nINFO display, Autokey:%02x", AutoKey);
 612:VS4210/keyremo.c **** 			#endif
 613:VS4210/keyremo.c **** 			if( GetDisplayedOSD() & INPUTINFO )	ClearInput();
 614:VS4210/keyremo.c **** 			else		DisplayInput();
 615:VS4210/keyremo.c **** 			return 1;
 616:VS4210/keyremo.c **** 
 617:VS4210/keyremo.c **** 		case REMO_NUM0:
 618:VS4210/keyremo.c **** 		case REMO_NUM1:
 619:VS4210/keyremo.c **** 		case REMO_NUM2:
 620:VS4210/keyremo.c **** 		case REMO_NUM3:
ARM GAS  C:\Users\ryanc.HS\AppData\Local\Temp\ccZ9UySd.s 			page 14


 621:VS4210/keyremo.c **** 		case REMO_NUM4:
 622:VS4210/keyremo.c **** 		case REMO_NUM5:
 623:VS4210/keyremo.c **** 		case REMO_NUM6:
 624:VS4210/keyremo.c **** 		case REMO_NUM7:
 625:VS4210/keyremo.c **** 		case REMO_NUM8:
 626:VS4210/keyremo.c **** 		case REMO_NUM9:
 627:VS4210/keyremo.c **** 			#ifdef DEBUG_KEYREMO
 628:VS4210/keyremo.c **** 			dPrintf("\r\nNumber %02x Key Pressed, Autokey:%02x", (_RemoDataCode-0x30), AutoKey);
 629:VS4210/keyremo.c **** 			#endif
 630:VS4210/keyremo.c **** 			if( AutoKey )								return 1;
 631:VS4210/keyremo.c **** 
 632:VS4210/keyremo.c **** 			else										return 1;
 633:VS4210/keyremo.c **** 			break;
 634:VS4210/keyremo.c **** 
 635:VS4210/keyremo.c **** 		case REMO_CHNUP:
 636:VS4210/keyremo.c **** 			#ifdef DEBUG_KEYREMO
 637:VS4210/keyremo.c **** 			dPuts("\r\nChannel UP");
 638:VS4210/keyremo.c **** 			#endif
 639:VS4210/keyremo.c **** 			RemoChnUp_UpKey();
 640:VS4210/keyremo.c **** 			break;
 641:VS4210/keyremo.c **** 
 642:VS4210/keyremo.c **** 		case REMO_CHNDN:
 643:VS4210/keyremo.c **** 			#ifdef DEBUG_KEYREMO
 644:VS4210/keyremo.c **** 			dPuts("\r\nChannel DOWN");
 645:VS4210/keyremo.c **** 			#endif
 646:VS4210/keyremo.c **** 			RemoChnDn_DnKey();
 647:VS4210/keyremo.c **** 			break;
 648:VS4210/keyremo.c **** 
 649:VS4210/keyremo.c **** 		case REMO_SELECT:
 650:VS4210/keyremo.c **** 			#ifdef DEBUG_KEYREMO
 651:VS4210/keyremo.c **** 			dPrintf("\r\nSELECT key pressed, Autokey:%02x", AutoKey);
 652:VS4210/keyremo.c **** 			#endif
 653:VS4210/keyremo.c **** 			if( AutoKey ) return 1;
 654:VS4210/keyremo.c **** 			if(  GetDisplayedOSD() & MENU  )		{
 655:VS4210/keyremo.c **** 					OSDSelect();
 656:VS4210/keyremo.c **** 			}
 657:VS4210/keyremo.c **** 			break;
 658:VS4210/keyremo.c **** 
 659:VS4210/keyremo.c **** 		case REMO_VOLUP:
 660:VS4210/keyremo.c **** 			#ifdef DEBUG_KEYREMO
 661:VS4210/keyremo.c **** 			dPuts("\r\nVolumn UP");
 662:VS4210/keyremo.c **** 			#endif
 663:VS4210/keyremo.c **** 			RemoVolUp_RightKey();
 664:VS4210/keyremo.c **** 			break;
 665:VS4210/keyremo.c **** 		case REMO_VOLDN:
 666:VS4210/keyremo.c **** 			#ifdef DEBUG_KEYREMO
 667:VS4210/keyremo.c **** 			dPuts("\r\nVolumn DOWN");
 668:VS4210/keyremo.c **** 			#endif
 669:VS4210/keyremo.c **** 			RemoVolDn_LeftKey();
 670:VS4210/keyremo.c **** 			break;
 671:VS4210/keyremo.c **** 
 672:VS4210/keyremo.c **** 
 673:VS4210/keyremo.c **** 		case REMO_MENU:
 674:VS4210/keyremo.c **** 			#ifdef DEBUG_KEYREMO
 675:VS4210/keyremo.c **** 			dPrintf("\r\nMENU display, Autokey:%02x", AutoKey);
 676:VS4210/keyremo.c **** 			#endif
 677:VS4210/keyremo.c **** 			if( AutoKey ) return 1;
ARM GAS  C:\Users\ryanc.HS\AppData\Local\Temp\ccZ9UySd.s 			page 15


 678:VS4210/keyremo.c **** 		#ifdef HS_NEWOSDMENU
 679:VS4210/keyremo.c **** 			RemoMenu_MenuKey(1);
 680:VS4210/keyremo.c **** 		#else
 681:VS4210/keyremo.c **** 			RemoMenu_MenuKey();
 682:VS4210/keyremo.c **** 		#endif
 683:VS4210/keyremo.c **** 			break;
 684:VS4210/keyremo.c **** 
 685:VS4210/keyremo.c **** 		case REMO_EXIT:
 686:VS4210/keyremo.c **** 			#ifdef DEBUG_KEYREMO
 687:VS4210/keyremo.c **** 			dPuts("\r\n EXIT");
 688:VS4210/keyremo.c **** 			#endif
 689:VS4210/keyremo.c **** 			if(  GetDisplayedOSD() & MENU  )
 690:VS4210/keyremo.c **** 				DoAction(EXITMENU);
 691:VS4210/keyremo.c **** 			break;
 692:VS4210/keyremo.c **** 
 693:VS4210/keyremo.c **** 		#ifdef SUPPORT_PC
 694:VS4210/keyremo.c **** 		case REMO_AUTO:
 695:VS4210/keyremo.c **** 			#ifdef DEBUG_KEYREMO
 696:VS4210/keyremo.c **** 			dPuts("\r\n AUTO mode adjust for PC input");
 697:VS4210/keyremo.c **** 			#endif
 698:VS4210/keyremo.c **** 			if( GetInputSelection()==PC )
 699:VS4210/keyremo.c **** 				AutoAdjust();
 700:VS4210/keyremo.c **** 			break;
 701:VS4210/keyremo.c **** 		#endif
 702:VS4210/keyremo.c **** 
 703:VS4210/keyremo.c **** 		#ifdef WIDE_SCREEN
 704:VS4210/keyremo.c **** 		case REMO_ASPECT:
 705:VS4210/keyremo.c **** 			#ifdef DEBUG_KEYREMO
 706:VS4210/keyremo.c **** 			dPuts("\r\n Screen Aspect Ratio change to WIDE");
 707:VS4210/keyremo.c **** 			#endif
 708:VS4210/keyremo.c **** 			SetItemValue(WIDESCREEN,UP);
 709:VS4210/keyremo.c **** 			break;
 710:VS4210/keyremo.c **** 		#endif
 711:VS4210/keyremo.c **** 		}
 712:VS4210/keyremo.c **** 
 713:VS4210/keyremo.c **** 		#ifdef SUPPORT_DEBUG
 714:VS4210/keyremo.c **** 		switch(_RemoDataCode) {
 715:VS4210/keyremo.c **** 		case REMO_DEBUG:		DebugWindowControl();		break;
 716:VS4210/keyremo.c **** 		case REMO_READ:			Debug_Read();		break;
 717:VS4210/keyremo.c **** 		case REMO_WRITE:		Debug_Write();
 718:VS4210/keyremo.c **** 								Debug_Read();	// Read back
 719:VS4210/keyremo.c **** 													break;
 720:VS4210/keyremo.c **** 		}
 721:VS4210/keyremo.c **** 		#endif
 722:VS4210/keyremo.c **** 	*/
 723:VS4210/keyremo.c **** 	return 1;
 133              		.loc 1 723 2 view .LVU11
 724:VS4210/keyremo.c **** }
 134              		.loc 1 724 1 is_stmt 0 view .LVU12
 135 0000 0120     		movs	r0, #1
 136              	.LVL1:
 137              		.loc 1 724 1 view .LVU13
 138 0002 7047     		bx	lr
 139              		.cfi_endproc
 140              	.LFE73:
 142              		.section	.rodata.BOX_SELECT_CHANNEL.str1.4,"aMS",%progbits,1
 143              		.align	2
ARM GAS  C:\Users\ryanc.HS\AppData\Local\Temp\ccZ9UySd.s 			page 16


 144              	.LC0:
 145 0000 28205F43 		.ascii	"( _COCOSD_BOX_Channel_Sel=%02x SelectModeType=%02x)"
 145      4F434F53 
 145      445F424F 
 145      585F4368 
 145      616E6E65 
 146 0033 00       		.ascii	"\000"
 147              		.section	.text.BOX_SELECT_CHANNEL,"ax",%progbits
 148              		.align	1
 149              		.global	BOX_SELECT_CHANNEL
 150              		.syntax unified
 151              		.thumb
 152              		.thumb_func
 153              		.fpu softvfp
 155              	BOX_SELECT_CHANNEL:
 156              	.LVL2:
 157              	.LFB75:
 725:VS4210/keyremo.c **** 
 726:VS4210/keyremo.c **** BYTE CheckKeyIn(void)
 727:VS4210/keyremo.c **** {
 728:VS4210/keyremo.c **** 	BYTE ret = 1, ikey /*,OSD_LOCK*/, loop;
 729:VS4210/keyremo.c **** 	/*
 730:VS4210/keyremo.c **** 	#ifdef SUPPORT_2835_CLK_TUNE_BACK_DOOR	//Pinchi 20160929 add
 731:VS4210/keyremo.c **** 		if ((IsEnter2835ClkTune == 1) && (IsRun2835ClkTune == 0))
 732:VS4210/keyremo.c **** 		{
 733:VS4210/keyremo.c **** 			if ((SystemClock - Enter2835TuneClock) >= 10)
 734:VS4210/keyremo.c **** 				IsEnter2835ClkTune = 0;
 735:VS4210/keyremo.c **** 		}
 736:VS4210/keyremo.c **** 	#endif
 737:VS4210/keyremo.c **** 		*/
 738:VS4210/keyremo.c **** 
 739:VS4210/keyremo.c **** 	ikey = GetKey(1);
 740:VS4210/keyremo.c **** 
 741:VS4210/keyremo.c **** 	if (ikey)
 742:VS4210/keyremo.c **** 	{
 743:VS4210/keyremo.c **** 
 744:VS4210/keyremo.c **** #if (_DEBUG_CheckKeyIn == ON)
 745:VS4210/keyremo.c **** 		switch (ikey)
 746:VS4210/keyremo.c **** 		{
 747:VS4210/keyremo.c **** 		case POWERKEY:
 748:VS4210/keyremo.c **** 			Printf("\r\nPWR key");
 749:VS4210/keyremo.c **** 			break;
 750:VS4210/keyremo.c **** 		case MENUKEY:
 751:VS4210/keyremo.c **** 			Printf("\r\nMENU key");
 752:VS4210/keyremo.c **** 			/*
 753:VS4210/keyremo.c **** 			if(VS8812Read(0xf0)==0x85)
 754:VS4210/keyremo.c **** 			VS8812Write(0xf0,0x00);
 755:VS4210/keyremo.c **** 			else
 756:VS4210/keyremo.c **** 			VS8812Write(0xf0,0x85);
 757:VS4210/keyremo.c **** 			*/
 758:VS4210/keyremo.c **** 			break;
 759:VS4210/keyremo.c **** 		case INPUTSOURCEKEY:
 760:VS4210/keyremo.c **** 			Printf("\r\nJUMP key");
 761:VS4210/keyremo.c **** 			break;
 762:VS4210/keyremo.c **** 		case UPKEY:
 763:VS4210/keyremo.c **** 			Printf("\r\nUP key");
 764:VS4210/keyremo.c **** 			break;
ARM GAS  C:\Users\ryanc.HS\AppData\Local\Temp\ccZ9UySd.s 			page 17


 765:VS4210/keyremo.c **** 		case DOWNKEY:
 766:VS4210/keyremo.c **** 			Printf("\r\nDOWN key");
 767:VS4210/keyremo.c **** 			break;
 768:VS4210/keyremo.c **** 		case SELECTKEY:
 769:VS4210/keyremo.c **** 			Printf("\r\nSELECT key");
 770:VS4210/keyremo.c **** 			break; // Printf("\r\nSELECTKEY key pressed"); break;
 771:VS4210/keyremo.c **** 		case UNLOCKKEY:
 772:VS4210/keyremo.c **** 			Printf("\r\nUNLOCK key");
 773:VS4210/keyremo.c **** 			break;
 774:VS4210/keyremo.c **** 		default:
 775:VS4210/keyremo.c **** 			Printf("\r\nNOT ASSIGNED key pressed");
 776:VS4210/keyremo.c **** 			break;
 777:VS4210/keyremo.c **** 		}
 778:VS4210/keyremo.c **** 
 779:VS4210/keyremo.c **** #endif
 780:VS4210/keyremo.c **** 
 781:VS4210/keyremo.c **** #if 0 ///(_DEBUG_MESSAGE_Monitor==ON)
 782:VS4210/keyremo.c **** 	Monitor_flag=_TRUE;
 783:VS4210/keyremo.c **** 	MCUTimerReactiveTimerEvent(SEC(30), _USER_TIMER_EVENT_Monitor_ON);
 784:VS4210/keyremo.c **** #endif
 785:VS4210/keyremo.c **** 		if (ikey != POWERKEY)
 786:VS4210/keyremo.c **** 		{
 787:VS4210/keyremo.c **** 			if (RUN_DIMMER == _DIMMER_READY)
 788:VS4210/keyremo.c **** 			{
 789:VS4210/keyremo.c **** 				RUN_DIMMER = _DIMMER_STOP;
 790:VS4210/keyremo.c **** #if (_DEBUG_CheckKeyIn == ON)
 791:VS4210/keyremo.c **** 				Printf("(DIMMER_change_disable_1)");
 792:VS4210/keyremo.c **** #endif
 793:VS4210/keyremo.c **** 			}
 794:VS4210/keyremo.c **** 			else if (RUN_DIMMER == _DIMMER_RUN2)
 795:VS4210/keyremo.c **** 			{
 796:VS4210/keyremo.c **** 				RUN_DIMMER = _DIMMER_RUN1;
 797:VS4210/keyremo.c **** #if (_DEBUG_CheckKeyIn == ON)
 798:VS4210/keyremo.c **** 				Printf("(DIMMER_change_disable_2)");
 799:VS4210/keyremo.c **** #endif
 800:VS4210/keyremo.c **** 			}
 801:VS4210/keyremo.c **** 		}
 802:VS4210/keyremo.c **** 
 803:VS4210/keyremo.c **** 		if ((BOOT_ISSUE) || (bytResetOSDValue) || (TriggerStatus) || (TriggerFlag) || ((PowerFlag == OFF)
 804:VS4210/keyremo.c **** 		{
 805:VS4210/keyremo.c **** 
 806:VS4210/keyremo.c **** 			ikey = 0;
 807:VS4210/keyremo.c **** 			return 1;
 808:VS4210/keyremo.c **** 		}
 809:VS4210/keyremo.c **** 		else if ((PowerFlag == OFF) && (ikey == POWERKEY))
 810:VS4210/keyremo.c **** 		{
 811:VS4210/keyremo.c **** 			;
 812:VS4210/keyremo.c **** 		}
 813:VS4210/keyremo.c **** 		else if ((ikey == UNLOCKKEY) && ((GetDisplayedOSD() & _COC_OSD) == _COC_OSD))
 814:VS4210/keyremo.c **** 		{
 815:VS4210/keyremo.c **** 			MCUTimerDelayXms(1000);
 816:VS4210/keyremo.c **** 			ikey = GetKey(1);
 817:VS4210/keyremo.c **** 			if (ikey == UNLOCKKEY)
 818:VS4210/keyremo.c **** 			{
 819:VS4210/keyremo.c **** 				MCUTimerCancelTimerEvent(_USER_TIMER_EVENT_OSD_DISABLE);
 820:VS4210/keyremo.c **** 				CloseOSDMenu();
 821:VS4210/keyremo.c **** 			}
ARM GAS  C:\Users\ryanc.HS\AppData\Local\Temp\ccZ9UySd.s 			page 18


 822:VS4210/keyremo.c **** 		}
 823:VS4210/keyremo.c **** 		else if ((ikey == POWERKEY) && (PowerFlag == ON))
 824:VS4210/keyremo.c **** 		{
 825:VS4210/keyremo.c **** 			//  MCUTimerDelayXms(2000);
 826:VS4210/keyremo.c **** 			// ikey = GetKey(0);
 827:VS4210/keyremo.c **** 			if (standby_count > (300 - 40) /*ikey==POWERKEY*/)
 828:VS4210/keyremo.c **** 			{
 829:VS4210/keyremo.c **** 				bytPowerDownMode = ON;
 830:VS4210/keyremo.c **** 
 831:VS4210/keyremo.c **** 				PowerLED(_SYSTEM_TIMER_EVENT_RED_ON);
 832:VS4210/keyremo.c **** 				LCDPowerOFF();
 833:VS4210/keyremo.c **** 				CloseOSDMenu();
 834:VS4210/keyremo.c **** 				MCUTimerCancelTimerEvent(_USER_TIMER_EVENT_PANEL_BACKLIGHT_ON);
 835:VS4210/keyremo.c **** 
 836:VS4210/keyremo.c **** 				while ((_ReadKey() & POWERKEY) == POWERKEY)
 837:VS4210/keyremo.c **** 				{
 838:VS4210/keyremo.c **** 					MCUTimerDelayXms(1000);
 839:VS4210/keyremo.c **** 					Printf("(Waiting PWR SW release)");
 840:VS4210/keyremo.c **** 				}
 841:VS4210/keyremo.c **** 			}
 842:VS4210/keyremo.c **** 			else if ((RUN_DIMMER == _DIMMER_STOP) && (PWR_OFF_TO_ON == FALSE))
 843:VS4210/keyremo.c **** 			{
 844:VS4210/keyremo.c **** 				RUN_DIMMER = _DIMMER_READY;
 845:VS4210/keyremo.c **** #if (_DEBUG_CheckKeyIn == ON)
 846:VS4210/keyremo.c **** 				Printf("(DIMMER_Key1)");
 847:VS4210/keyremo.c **** #endif
 848:VS4210/keyremo.c **** 			}
 849:VS4210/keyremo.c **** 			else if (RUN_DIMMER == _DIMMER_RUN1)
 850:VS4210/keyremo.c **** 			{
 851:VS4210/keyremo.c **** #if (_DEBUG_CheckKeyIn == ON)
 852:VS4210/keyremo.c **** 				Printf("(DIMMER_Key2)");
 853:VS4210/keyremo.c **** #endif
 854:VS4210/keyremo.c **** 				RUN_DIMMER = _DIMMER_RUN2;
 855:VS4210/keyremo.c **** 			}
 856:VS4210/keyremo.c **** 			ret = 0;
 857:VS4210/keyremo.c **** 			ikey = 0;
 858:VS4210/keyremo.c **** 			Key = 0;
 859:VS4210/keyremo.c **** 			return 1;
 860:VS4210/keyremo.c **** 		}
 861:VS4210/keyremo.c **** 
 862:VS4210/keyremo.c **** 		else if (GetItemValue(0xbb) == _TRUE)
 863:VS4210/keyremo.c **** 		{
 864:VS4210/keyremo.c **** 
 865:VS4210/keyremo.c **** 			if (ikey == UNLOCKKEY)
 866:VS4210/keyremo.c **** 			{
 867:VS4210/keyremo.c **** 				MCUTimerDelayXms(2000);
 868:VS4210/keyremo.c **** 				ikey = GetKey(1);
 869:VS4210/keyremo.c **** 				if (ikey == UNLOCKKEY)
 870:VS4210/keyremo.c **** 					WriteEEP(EEP_ONOFFChoice, 0);
 871:VS4210/keyremo.c **** 			}
 872:VS4210/keyremo.c **** 
 873:VS4210/keyremo.c **** 			ShowOSDLOCK();
 874:VS4210/keyremo.c **** 
 875:VS4210/keyremo.c **** 			ikey = 0;
 876:VS4210/keyremo.c **** 			return 1;
 877:VS4210/keyremo.c **** 		}
 878:VS4210/keyremo.c **** 		else if ((ikey & COCDisableKey) == COCDisableKey)
ARM GAS  C:\Users\ryanc.HS\AppData\Local\Temp\ccZ9UySd.s 			page 19


 879:VS4210/keyremo.c **** 		{
 880:VS4210/keyremo.c **** 			MCUTimerDelayXms(1000);
 881:VS4210/keyremo.c **** 			ikey = GetKey(1);
 882:VS4210/keyremo.c **** 			if ((ikey & COCDisableKey) == COCDisableKey)
 883:VS4210/keyremo.c **** 			{
 884:VS4210/keyremo.c **** 				Printf("(COC OSD Close)");
 885:VS4210/keyremo.c **** 				CloseOSDMenu();
 886:VS4210/keyremo.c **** 			}
 887:VS4210/keyremo.c **** 		}
 888:VS4210/keyremo.c **** 		else if ((ikey == UNLOCKKEY) && (GetDisplayedOSD() & MENU) && (OnChangingValue == 0) && (AudioVol
 889:VS4210/keyremo.c **** 		{
 890:VS4210/keyremo.c **** 			loop = 0;
 891:VS4210/keyremo.c **** 			do
 892:VS4210/keyremo.c **** 			{
 893:VS4210/keyremo.c **** 				MCUTimerDelayXms(1000);
 894:VS4210/keyremo.c **** 				ikey = GetKey(1);
 895:VS4210/keyremo.c **** 				loop++;
 896:VS4210/keyremo.c **** 				// Printf("(loop=%d)",(WORD)loop);
 897:VS4210/keyremo.c **** 			} while ((ikey == UNLOCKKEY) && (loop < 10));
 898:VS4210/keyremo.c **** 
 899:VS4210/keyremo.c **** 			if (loop > 9)
 900:VS4210/keyremo.c **** 				GrabberModeTrigger();
 901:VS4210/keyremo.c **** 		}
 902:VS4210/keyremo.c **** 		else if ((ikey == UNLOCKKEY) && (GetDisplayedOSD() & TVVOL) && (AudioVol == 15)) /// show version
 903:VS4210/keyremo.c **** 		{
 904:VS4210/keyremo.c **** 			MCUTimerDelayXms(2000);
 905:VS4210/keyremo.c **** 			ikey = GetKey(1);
 906:VS4210/keyremo.c **** 			if (ikey == UNLOCKKEY)
 907:VS4210/keyremo.c **** 			{
 908:VS4210/keyremo.c **** 				Printf("(Show Version OSD)");
 909:VS4210/keyremo.c **** 				ShowOSDVersion();
 910:VS4210/keyremo.c **** 			}
 911:VS4210/keyremo.c **** 		}
 912:VS4210/keyremo.c **** 		// mask by ryan@20171018	OSD_LOCK = ReadEEP(EEP_ONOFFChoice);
 913:VS4210/keyremo.c **** 		//	OSD_LOCK=OSD_LOCKF;
 914:VS4210/keyremo.c **** 
 915:VS4210/keyremo.c **** #if 0 /// def AWT_NEW_SLIM_MODEL  //Pinchi 20150203 add for AWT new slim model
 916:VS4210/keyremo.c **** 		if (((~P2 & UnLockKEY) == UnLockKEY) && (OSD_LOCK == 0))   //	osd lock
 917:VS4210/keyremo.c **** #else
 918:VS4210/keyremo.c **** 		// if((~P2&0x90)==0x90 && OSD_LOCK==0)   //	osd lock
 919:VS4210/keyremo.c **** #endif
 920:VS4210/keyremo.c **** #if 0
 921:VS4210/keyremo.c **** 		{ 
 922:VS4210/keyremo.c **** 			Wait_ms(2000);
 923:VS4210/keyremo.c **** #if 0 /// def AWT_NEW_SLIM_MODEL  //Pinchi 20150203 add for AWT new slim model
 924:VS4210/keyremo.c **** 			if (((~P2 & UnLockKEY) == UnLockKEY) || (LockKeyState == 3))
 925:VS4210/keyremo.c **** #else
 926:VS4210/keyremo.c **** 			if((~P2&0x90)==0x90||LockKeyState==3)
 927:VS4210/keyremo.c **** #endif
 928:VS4210/keyremo.c **** 			{
 929:VS4210/keyremo.c **** 				WriteEEP(EEP_ONOFFChoice,0x01);
 930:VS4210/keyremo.c **** 				OSD_LOCK=1;//ryan@20170908
 931:VS4210/keyremo.c **** 				OSD_LOCKF=1;
 932:VS4210/keyremo.c **** 			//	DisplayInformation(InfoOSDMENUATCIVE);
 933:VS4210/keyremo.c **** 				ikey=0;
 934:VS4210/keyremo.c **** 				Wait_ms(2000);
 935:VS4210/keyremo.c **** /*
ARM GAS  C:\Users\ryanc.HS\AppData\Local\Temp\ccZ9UySd.s 			page 20


 936:VS4210/keyremo.c **** 				if(TriggerFlag&0x20)//if rear trigger
 937:VS4210/keyremo.c **** 				{
 938:VS4210/keyremo.c **** 				DisplayGaugeOSD();
 939:VS4210/keyremo.c **** 				}
 940:VS4210/keyremo.c **** 				else
 941:VS4210/keyremo.c **** 				{
 942:VS4210/keyremo.c **** 				ClearGAUGEINFO();
 943:VS4210/keyremo.c **** 				lock_keycnt=0;
 944:VS4210/keyremo.c **** 				LockKeyState=0;
 945:VS4210/keyremo.c **** 				DisplayInput();
 946:VS4210/keyremo.c **** 			
 947:VS4210/keyremo.c **** 				}
 948:VS4210/keyremo.c **** 				*/
 949:VS4210/keyremo.c **** 				
 950:VS4210/keyremo.c **** 			
 951:VS4210/keyremo.c **** 			//#ifdef AWT_NO_SIGNAL_MSG  //Pinchi 20150320 add
 952:VS4210/keyremo.c **** 			//IsDrawNoVideoSignal = 0;
 953:VS4210/keyremo.c **** 			//#endif
 954:VS4210/keyremo.c **** 			
 955:VS4210/keyremo.c **** 			//	return 1;  //Pinchi 20150825 add  //Pinchi 20150825 disable
 956:VS4210/keyremo.c **** 			}
 957:VS4210/keyremo.c **** 		}
 958:VS4210/keyremo.c **** #endif
 959:VS4210/keyremo.c **** 		/*
 960:VS4210/keyremo.c **** 				if(TriggerFlag&&(ikey!=INPUTSOURCEKEY))     //Tigger Mode
 961:VS4210/keyremo.c **** 				{
 962:VS4210/keyremo.c **** 				  ikey=0;
 963:VS4210/keyremo.c **** 				  return 1;
 964:VS4210/keyremo.c **** 				}
 965:VS4210/keyremo.c **** 		*/
 966:VS4210/keyremo.c **** #if 0 /// ndef AWT_ML072Q  //Pinchi 20140911 add for AWT ML072Q
 967:VS4210/keyremo.c **** 		if(LockKeyState==3 && OSD_LOCK==0)
 968:VS4210/keyremo.c **** 		{
 969:VS4210/keyremo.c **** 			WriteEEP(EEP_ONOFFChoice,0x01);
 970:VS4210/keyremo.c **** 			OSD_LOCKF=1;
 971:VS4210/keyremo.c **** 			DisplayInformation(InfoOSDMENUATCIVE);
 972:VS4210/keyremo.c **** 			Wait_ms(2000);
 973:VS4210/keyremo.c **** 			//lock_keycnt=0;
 974:VS4210/keyremo.c **** 			DisplayInput();
 975:VS4210/keyremo.c **** 			LockKeyState=0;
 976:VS4210/keyremo.c **** 			PowerLED(ON);
 977:VS4210/keyremo.c **** 
 978:VS4210/keyremo.c **** #ifdef AWT_NO_SIGNAL_MSG // Pinchi 20150320 add
 979:VS4210/keyremo.c **** 			IsDrawNoVideoSignal = 0;
 980:VS4210/keyremo.c **** #endif
 981:VS4210/keyremo.c **** 		}
 982:VS4210/keyremo.c **** #endif
 983:VS4210/keyremo.c **** 
 984:VS4210/keyremo.c **** 		//	if(lock_keycnt==0 && OSD_LOCK==0 && LockKeyState!=0)
 985:VS4210/keyremo.c **** 		//	{
 986:VS4210/keyremo.c **** 		//		LockKeyState=0;
 987:VS4210/keyremo.c **** 		//		PowerLED(ON);
 988:VS4210/keyremo.c **** 		//	}
 989:VS4210/keyremo.c **** 
 990:VS4210/keyremo.c **** #if 0					  // def AWT_ML072Q  //Pinchi 20140918 add for AWT ML072Q
 991:VS4210/keyremo.c **** #ifdef AWT_NEW_SLIM_MODEL // Pinchi 20150203 add for AWT new slim model
 992:VS4210/keyremo.c **** 		if (ikey && (OSD_LOCK == 0) && ((~P2 & UnLockKEY) != UnLockKEY))
ARM GAS  C:\Users\ryanc.HS\AppData\Local\Temp\ccZ9UySd.s 			page 21


 993:VS4210/keyremo.c **** #else
 994:VS4210/keyremo.c **** 		if (ikey && (OSD_LOCK == 0) && ((~P2 & 0x90) != 0x90)&&(TriggerFlag==0))
 995:VS4210/keyremo.c **** #endif
 996:VS4210/keyremo.c **** 		{
 997:VS4210/keyremo.c **** 			ClearOSDInfo();//ryan@20170922
 998:VS4210/keyremo.c **** 			DisplayInformation(InfoOSDMENULOCKED);
 999:VS4210/keyremo.c **** 			delay(500);
1000:VS4210/keyremo.c **** 			ClearGAUGEINFO(); 
1001:VS4210/keyremo.c **** 			DisplayInput();
1002:VS4210/keyremo.c **** 			//Printf("\r\OSD_LOCK",0);
1003:VS4210/keyremo.c **** #ifdef AWT_NO_SIGNAL_MSG // Pinchi 20150320 add
1004:VS4210/keyremo.c **** 								IsDrawNoVideoSignal = 0;
1005:VS4210/keyremo.c **** #endif
1006:VS4210/keyremo.c **** 			return 1;
1007:VS4210/keyremo.c **** 		}
1008:VS4210/keyremo.c **** #endif
1009:VS4210/keyremo.c **** 
1010:VS4210/keyremo.c **** //		SetOSDLastKeyInTime();
1011:VS4210/keyremo.c **** #if 1
1012:VS4210/keyremo.c **** 		if ((GetDisplayedOSD() & MENU) || (bytGaugeAdjust == DistanceGaugePosition) || (bytGaugeAdjust ==
1013:VS4210/keyremo.c **** 		{
1014:VS4210/keyremo.c **** 			MCUTimerCancelTimerEvent(_USER_TIMER_EVENT_OSD_DISABLE);
1015:VS4210/keyremo.c **** 			MCUTimerActiveTimerEvent(SEC(Menu_Osd_Time_Out), _USER_TIMER_EVENT_OSD_DISABLE);
1016:VS4210/keyremo.c **** 		}
1017:VS4210/keyremo.c **** #endif
1018:VS4210/keyremo.c **** 		if ((bytAutoSleeping == ON) /*&& (GetDisplayedOSD() & (MENU|TVVOL))*/)
1019:VS4210/keyremo.c **** 		{
1020:VS4210/keyremo.c **** 			MCUTimerCancelTimerEvent(_SYSTEM_TIMER_EVENT_AUTO_SLEEPING_TIMEOUT);
1021:VS4210/keyremo.c **** 			MCUTimerActiveTimerEvent(SEC(10 - (bytStandByModeToTriggerMode * 5)), _SYSTEM_TIMER_EVENT_AUTO_S
1022:VS4210/keyremo.c **** 		}
1023:VS4210/keyremo.c **** 
1024:VS4210/keyremo.c **** 		MCUTimerCancelTimerEvent(_USER_TIMER_EVENT_SEQ_CHECK);
1025:VS4210/keyremo.c **** 
1026:VS4210/keyremo.c **** 		if (((GetDisplayedOSD() & _COC_OSD) == 0) && (ikey != SELECTKEY))
1027:VS4210/keyremo.c **** 			MenuTouchMode = 0;
1028:VS4210/keyremo.c **** 
1029:VS4210/keyremo.c **** 		switch (ikey)
1030:VS4210/keyremo.c **** 		{
1031:VS4210/keyremo.c **** 		case POWERKEY:
1032:VS4210/keyremo.c **** 			Printf("\r\nPOWER key ");
1033:VS4210/keyremo.c **** 			if (PowerFlag == ON)
1034:VS4210/keyremo.c **** 			{
1035:VS4210/keyremo.c **** 				PowerFlag = OFF;
1036:VS4210/keyremo.c **** 			}
1037:VS4210/keyremo.c **** 			else
1038:VS4210/keyremo.c **** 			{
1039:VS4210/keyremo.c **** 				PowerFlag = ON;
1040:VS4210/keyremo.c **** 			}
1041:VS4210/keyremo.c **** 
1042:VS4210/keyremo.c **** 			ret = 0;
1043:VS4210/keyremo.c **** 
1044:VS4210/keyremo.c **** 			if (bytStandByMode == 0)
1045:VS4210/keyremo.c **** 			{
1046:VS4210/keyremo.c **** 				WriteEEP(EEP_Powerflag, PowerFlag);
1047:VS4210/keyremo.c **** 			}
1048:VS4210/keyremo.c **** 
1049:VS4210/keyremo.c **** 			break;
ARM GAS  C:\Users\ryanc.HS\AppData\Local\Temp\ccZ9UySd.s 			page 22


1050:VS4210/keyremo.c **** 
1051:VS4210/keyremo.c **** 		case MENUKEY:
1052:VS4210/keyremo.c **** 			Printf("\r\nMENUKEY key ");
1053:VS4210/keyremo.c **** 			//	if(  GetDisplayedOSD() & MENU  )
1054:VS4210/keyremo.c **** 			//	DrawMenulist(0);
1055:VS4210/keyremo.c **** 			if (bytGrabberAdjust)
1056:VS4210/keyremo.c **** 			{
1057:VS4210/keyremo.c **** 				CLRGrabberMessage();
1058:VS4210/keyremo.c **** 				CloseOSDMenu();
1059:VS4210/keyremo.c **** 			}
1060:VS4210/keyremo.c **** 			else if (bytCOCAdjust == ON)
1061:VS4210/keyremo.c **** 			{
1062:VS4210/keyremo.c **** 				Printf("\r\n(COC Menu key)");
1063:VS4210/keyremo.c **** 				SetCOCCom(_COCOSD_BOX_Sel, SelectModeType);
1064:VS4210/keyremo.c **** 				SetCOCCom(_COCOSD_ENTER, SelectModeType);
1065:VS4210/keyremo.c **** 			}
1066:VS4210/keyremo.c **** 			else if (GetDisplayedOSD() & MENU)
1067:VS4210/keyremo.c **** 			{
1068:VS4210/keyremo.c **** 
1069:VS4210/keyremo.c **** 				if (OnChangingValue)
1070:VS4210/keyremo.c **** 				{
1071:VS4210/keyremo.c **** 					// ret = ActionRemo( REMO_MENU, 0 );
1072:VS4210/keyremo.c **** 					OnChangingValue = 0;
1073:VS4210/keyremo.c **** 
1074:VS4210/keyremo.c **** 					DisplayCursor();
1075:VS4210/keyremo.c **** 					// ret = ActionRemo( REMO_MENU, RepeatKey );
1076:VS4210/keyremo.c **** 				}
1077:VS4210/keyremo.c **** 				else
1078:VS4210/keyremo.c **** 					OSDSelect();
1079:VS4210/keyremo.c **** 			}
1080:VS4210/keyremo.c **** 			else
1081:VS4210/keyremo.c **** 			{
1082:VS4210/keyremo.c **** 
1083:VS4210/keyremo.c **** 				if (GetDisplayedOSD() & (TVVOL | _COC_OSD))
1084:VS4210/keyremo.c **** 					CloseOSDMenu();
1085:VS4210/keyremo.c **** #if 1
1086:VS4210/keyremo.c **** 				MCUTimerCancelTimerEvent(_USER_TIMER_EVENT_OSD_DISABLE);
1087:VS4210/keyremo.c **** 				MCUTimerActiveTimerEvent(SEC(Menu_Osd_Time_Out), _USER_TIMER_EVENT_OSD_DISABLE);
1088:VS4210/keyremo.c **** #endif
1089:VS4210/keyremo.c **** 				MCUTimerCancelTimerEvent(_SYSTEM_TIMER_EVENT_GRABBER_SETUP);
1090:VS4210/keyremo.c **** 				OpenOSDMenu(0);
1091:VS4210/keyremo.c **** 
1092:VS4210/keyremo.c **** 				MenuTouchMode = 1;
1093:VS4210/keyremo.c **** 				MenuTouchFlag = 1;
1094:VS4210/keyremo.c **** 			}
1095:VS4210/keyremo.c **** 
1096:VS4210/keyremo.c **** 			break;
1097:VS4210/keyremo.c **** 
1098:VS4210/keyremo.c **** 			//------------------------------------------------------------------------
1099:VS4210/keyremo.c **** 
1100:VS4210/keyremo.c **** 		case UPKEY:
1101:VS4210/keyremo.c **** 
1102:VS4210/keyremo.c **** 			if (bytCOCAdjust == ON)
1103:VS4210/keyremo.c **** 			{
1104:VS4210/keyremo.c **** 				Printf("\r\n(COC UP key)");
1105:VS4210/keyremo.c **** 				SetCOCCom(_COCOSD_BOX_Sel, SelectModeType);
1106:VS4210/keyremo.c **** 				SetCOCCom(_COCOSD_UP, SelectModeType);
ARM GAS  C:\Users\ryanc.HS\AppData\Local\Temp\ccZ9UySd.s 			page 23


1107:VS4210/keyremo.c **** 			}
1108:VS4210/keyremo.c **** 			else if (GetDisplayedOSD() & MENU)
1109:VS4210/keyremo.c **** 			{
1110:VS4210/keyremo.c **** 				if (OnChangingValue)
1111:VS4210/keyremo.c **** 				{
1112:VS4210/keyremo.c **** 					OSDValueUpDn(UP);
1113:VS4210/keyremo.c **** 				}
1114:VS4210/keyremo.c **** 				else
1115:VS4210/keyremo.c **** 				{
1116:VS4210/keyremo.c **** 					// if(OSDMenuLevel == 1||OSDMenuLevel == 2)
1117:VS4210/keyremo.c **** 					//    OSDCursorMove( DN);
1118:VS4210/keyremo.c **** 					// else
1119:VS4210/keyremo.c **** 					OSDCursorMove(UP);
1120:VS4210/keyremo.c **** 					// Printf("(2)");
1121:VS4210/keyremo.c **** 				}
1122:VS4210/keyremo.c **** 			}
1123:VS4210/keyremo.c **** 			else if (GetDisplayedOSD() & _RUN_TPMS_OSD)
1124:VS4210/keyremo.c **** 				;
1125:VS4210/keyremo.c **** 			else if (bytGaugeAdjust /*==DistanceGaugePosition*/)
1126:VS4210/keyremo.c **** 			{
1127:VS4210/keyremo.c **** 				// VXIS_fSetOsdOnOff(0 ,WINZOOMx2);
1128:VS4210/keyremo.c **** 				OSDValueUpDn(UP);
1129:VS4210/keyremo.c **** 				ShowGaugeOSD();
1130:VS4210/keyremo.c **** 			}
1131:VS4210/keyremo.c **** 			else if (bytGrabberAdjust)
1132:VS4210/keyremo.c **** 			{
1133:VS4210/keyremo.c **** 				OSDValueUpDn(UP);
1134:VS4210/keyremo.c **** 				ShowGrabberLinerOSD();
1135:VS4210/keyremo.c **** 			}
1136:VS4210/keyremo.c **** 			else
1137:VS4210/keyremo.c **** 			{
1138:VS4210/keyremo.c **** 				MCUTimerCancelTimerEvent(_SYSTEM_TIMER_EVENT_GRABBER_SETUP);
1139:VS4210/keyremo.c **** 				ChangeVol(UP);
1140:VS4210/keyremo.c **** 				DisplayVol();
1141:VS4210/keyremo.c **** 			}
1142:VS4210/keyremo.c **** 
1143:VS4210/keyremo.c **** 			/*
1144:VS4210/keyremo.c **** 				else
1145:VS4210/keyremo.c **** 				{
1146:VS4210/keyremo.c **** 					#ifdef Hs_debug
1147:VS4210/keyremo.c **** 					Printf("\r\nREMO_VOLUP",0);
1148:VS4210/keyremo.c **** 					#endif
1149:VS4210/keyremo.c **** 					ret=ActionRemo(REMO_VOLUP,0);
1150:VS4210/keyremo.c **** 					return 1;
1151:VS4210/keyremo.c **** 				}
1152:VS4210/keyremo.c **** 				*/
1153:VS4210/keyremo.c **** 			break;
1154:VS4210/keyremo.c **** 
1155:VS4210/keyremo.c **** 		case DOWNKEY:
1156:VS4210/keyremo.c **** 
1157:VS4210/keyremo.c **** 			if (bytCOCAdjust == ON)
1158:VS4210/keyremo.c **** 			{
1159:VS4210/keyremo.c **** 				Printf("\r\n(COC DOWN key)");
1160:VS4210/keyremo.c **** 				SetCOCCom(_COCOSD_BOX_Sel, SelectModeType);
1161:VS4210/keyremo.c **** 				SetCOCCom(_COCOSD_DOWN, SelectModeType);
1162:VS4210/keyremo.c **** 			}
1163:VS4210/keyremo.c **** 			else if (GetDisplayedOSD() & MENU)
ARM GAS  C:\Users\ryanc.HS\AppData\Local\Temp\ccZ9UySd.s 			page 24


1164:VS4210/keyremo.c **** 			{
1165:VS4210/keyremo.c **** 				if (OnChangingValue)
1166:VS4210/keyremo.c **** 					OSDValueUpDn(DN);
1167:VS4210/keyremo.c **** 				else
1168:VS4210/keyremo.c **** 				{
1169:VS4210/keyremo.c **** 					// if(OSDMenuLevel == 1||OSDMenuLevel == 2)
1170:VS4210/keyremo.c **** 					//    OSDCursorMove( UP);
1171:VS4210/keyremo.c **** 					// else
1172:VS4210/keyremo.c **** 					OSDCursorMove(DN);
1173:VS4210/keyremo.c **** 				}
1174:VS4210/keyremo.c **** 			}
1175:VS4210/keyremo.c **** 			else if (GetDisplayedOSD() & _RUN_TPMS_OSD)
1176:VS4210/keyremo.c **** 				;
1177:VS4210/keyremo.c **** 			else if (bytGaugeAdjust /*==DistanceGaugePosition*/)
1178:VS4210/keyremo.c **** 			{
1179:VS4210/keyremo.c **** 				// VXIS_fSetOsdOnOff(0 ,WINZOOMx2);
1180:VS4210/keyremo.c **** 				OSDValueUpDn(DN);
1181:VS4210/keyremo.c **** 				ShowGaugeOSD();
1182:VS4210/keyremo.c **** 			}
1183:VS4210/keyremo.c **** 			else if (bytGrabberAdjust)
1184:VS4210/keyremo.c **** 			{
1185:VS4210/keyremo.c **** 				OSDValueUpDn(DN);
1186:VS4210/keyremo.c **** 				ShowGrabberLinerOSD();
1187:VS4210/keyremo.c **** 			}
1188:VS4210/keyremo.c **** 			else
1189:VS4210/keyremo.c **** 			{
1190:VS4210/keyremo.c **** 				MCUTimerCancelTimerEvent(_SYSTEM_TIMER_EVENT_GRABBER_SETUP);
1191:VS4210/keyremo.c **** 				ChangeVol(DN);
1192:VS4210/keyremo.c **** 				DisplayVol();
1193:VS4210/keyremo.c **** 			}
1194:VS4210/keyremo.c **** 			/*
1195:VS4210/keyremo.c **** 				else
1196:VS4210/keyremo.c **** 				{
1197:VS4210/keyremo.c **** 					#ifdef Hs_debug
1198:VS4210/keyremo.c **** 					Printf("\r\nREMO_VOLDN",0);
1199:VS4210/keyremo.c **** 					#endif
1200:VS4210/keyremo.c **** 					ret=ActionRemo(REMO_VOLDN,0);
1201:VS4210/keyremo.c **** 					return 1;
1202:VS4210/keyremo.c **** 				}
1203:VS4210/keyremo.c **** 				*/
1204:VS4210/keyremo.c **** 			break;
1205:VS4210/keyremo.c **** 
1206:VS4210/keyremo.c **** 		case SELECTKEY:
1207:VS4210/keyremo.c **** 
1208:VS4210/keyremo.c **** 			if (bytCOCAdjust == ON)
1209:VS4210/keyremo.c **** 			{
1210:VS4210/keyremo.c **** 				Printf("\r\n(COC Right key)");
1211:VS4210/keyremo.c **** 				SetCOCCom(_COCOSD_BOX_Sel, SelectModeType);
1212:VS4210/keyremo.c **** 				SetCOCCom(_COCOSD_RIGHT, SelectModeType);
1213:VS4210/keyremo.c **** 			}
1214:VS4210/keyremo.c **** 			else if (bytGrabberAdjust)
1215:VS4210/keyremo.c **** 			{
1216:VS4210/keyremo.c **** 				if (bytGrabberAdjust == Grabber_Liner_Position)
1217:VS4210/keyremo.c **** 				{
1218:VS4210/keyremo.c **** 					bytGrabberAdjust = Grabber_Liner_Width;
1219:VS4210/keyremo.c **** 					ShowGrabberLinerOSD();
1220:VS4210/keyremo.c **** 				}
ARM GAS  C:\Users\ryanc.HS\AppData\Local\Temp\ccZ9UySd.s 			page 25


1221:VS4210/keyremo.c **** 			}
1222:VS4210/keyremo.c **** 			else
1223:VS4210/keyremo.c **** 			{
1224:VS4210/keyremo.c **** 				if (GetDisplayedOSD() & (MENU | TVVOL | _COC_OSD | _RUN_TPMS_OSD))
1225:VS4210/keyremo.c **** 					CloseOSDMenu();
1226:VS4210/keyremo.c **** 
1227:VS4210/keyremo.c **** 				SetSelectMode();
1228:VS4210/keyremo.c **** 			}
1229:VS4210/keyremo.c **** 
1230:VS4210/keyremo.c **** 			break;
1231:VS4210/keyremo.c **** 
1232:VS4210/keyremo.c **** 			//------------------------------------------------------------------------
1233:VS4210/keyremo.c **** 
1234:VS4210/keyremo.c **** 		case INPUTSOURCEKEY:
1235:VS4210/keyremo.c **** 			if (bytCOCAdjust == ON)
1236:VS4210/keyremo.c **** 			{
1237:VS4210/keyremo.c **** 
1238:VS4210/keyremo.c **** 				Printf("\r\n(COC Left key)");
1239:VS4210/keyremo.c **** 				SetCOCCom(_COCOSD_BOX_Sel, SelectModeType);
1240:VS4210/keyremo.c **** 				SetCOCCom(_COCOSD_LEFT, SelectModeType);
1241:VS4210/keyremo.c **** 			}
1242:VS4210/keyremo.c **** 			else if (bytGrabberAdjust)
1243:VS4210/keyremo.c **** 			{
1244:VS4210/keyremo.c **** 				if (bytGrabberAdjust == Grabber_Liner_Width)
1245:VS4210/keyremo.c **** 				{
1246:VS4210/keyremo.c **** 					bytGrabberAdjust = Grabber_Liner_Position;
1247:VS4210/keyremo.c **** 					ShowGrabberLinerOSD();
1248:VS4210/keyremo.c **** 				}
1249:VS4210/keyremo.c **** 			}
1250:VS4210/keyremo.c **** 			else if ((GetDisplayedOSD() & _COC_OSD) == 0)
1251:VS4210/keyremo.c **** 			{
1252:VS4210/keyremo.c **** 				if (GetDisplayedOSD() & (MENU | TVVOL | _RUN_TPMS_OSD))
1253:VS4210/keyremo.c **** 					CloseOSDMenu();
1254:VS4210/keyremo.c **** 
1255:VS4210/keyremo.c **** 				if (NowModeState == SelectMode)
1256:VS4210/keyremo.c **** 					NowModeState = JumpMode;
1257:VS4210/keyremo.c **** 				else
1258:VS4210/keyremo.c **** 					NowModeState = SelectMode;
1259:VS4210/keyremo.c **** 
1260:VS4210/keyremo.c **** 				MCUTimerCancelTimerEvent(_USER_TIMER_EVENT_SEQ_CHECK);
1261:VS4210/keyremo.c **** 
1262:VS4210/keyremo.c **** 				SetJumpMode();
1263:VS4210/keyremo.c **** 			}
1264:VS4210/keyremo.c **** 
1265:VS4210/keyremo.c **** 			break;
1266:VS4210/keyremo.c **** 		case TPMSKEY:
1267:VS4210/keyremo.c **** 
1268:VS4210/keyremo.c **** 			if (GetDisplayedOSD() & (TVVOL | _COC_OSD | MENU))
1269:VS4210/keyremo.c **** 				CloseOSDMenu();
1270:VS4210/keyremo.c **** 
1271:VS4210/keyremo.c **** 			ShowTPMSOSD();
1272:VS4210/keyremo.c **** 
1273:VS4210/keyremo.c **** 			MCUTimerCancelTimerEvent(_USER_TIMER_EVENT_OSD_DISABLE);
1274:VS4210/keyremo.c **** 			MCUTimerActiveTimerEvent(SEC(Menu_Osd_Time_Out), _USER_TIMER_EVENT_OSD_DISABLE);
1275:VS4210/keyremo.c **** 
1276:VS4210/keyremo.c **** 			break;
1277:VS4210/keyremo.c **** 
ARM GAS  C:\Users\ryanc.HS\AppData\Local\Temp\ccZ9UySd.s 			page 26


1278:VS4210/keyremo.c **** #if 0 // def QUAD
1279:VS4210/keyremo.c **** 			case  EVENTKEY:
1280:VS4210/keyremo.c **** 				Printf("\r\nEVENTKEY key pressed");
1281:VS4210/keyremo.c **** 		////	Hs_DvrTxCmdPaser(BOOKMARK);				
1282:VS4210/keyremo.c ****                	break;
1283:VS4210/keyremo.c **** #endif
1284:VS4210/keyremo.c **** 
1285:VS4210/keyremo.c **** #if 0 /// def SUPPORT_SDCARD  //Pinchi 20160929 disable for no DVR function
1286:VS4210/keyremo.c **** 			case VersionKEY:
1287:VS4210/keyremo.c **** #ifdef E_Wintek
1288:VS4210/keyremo.c **** 				FactoryMenu=1;
1289:VS4210/keyremo.c **** #endif
1290:VS4210/keyremo.c **** 				Printf("\r\nVersionKEY key pressed");
1291:VS4210/keyremo.c **** #ifdef SUPPORT_SDCARD	
1292:VS4210/keyremo.c **** 				if(DVR_Ready)
1293:VS4210/keyremo.c **** 				{
1294:VS4210/keyremo.c **** #if 1
1295:VS4210/keyremo.c **** 					if(AudioVol==15)
1296:VS4210/keyremo.c **** 					{
1297:VS4210/keyremo.c **** 						Hs_DvrTxCmdPaser(GetDVRVersion);
1298:VS4210/keyremo.c **** 					}
1299:VS4210/keyremo.c **** #ifndef SUPPORT_SDCARD
1300:VS4210/keyremo.c **** 					else
1301:VS4210/keyremo.c **** 						DisplayDVRStatus();
1302:VS4210/keyremo.c **** #endif
1303:VS4210/keyremo.c **** #endif
1304:VS4210/keyremo.c **** 				}
1305:VS4210/keyremo.c **** #else
1306:VS4210/keyremo.c **** 				if(AudioVol==15)
1307:VS4210/keyremo.c **** 				{
1308:VS4210/keyremo.c **** 					WriteDecoder(0xff, 0x01);
1309:VS4210/keyremo.c **** 					Wait_ms(5);
1310:VS4210/keyremo.c **** 					//WriteDecoder(0x82, 0x0c);
1311:VS4210/keyremo.c **** 					WriteDecoder(0x82, 0x01);
1312:VS4210/keyremo.c **** 					Wait_ms(5);
1313:VS4210/keyremo.c **** 					WriteDecoder(0xff, 0x00);
1314:VS4210/keyremo.c **** 					DisplayFWVersion();
1315:VS4210/keyremo.c **** 				}
1316:VS4210/keyremo.c **** #endif
1317:VS4210/keyremo.c **** 				//else
1318:VS4210/keyremo.c **** 				//	{
1319:VS4210/keyremo.c **** 				//	CloseOSDMenu();	
1320:VS4210/keyremo.c **** 				//	DisplayInput();
1321:VS4210/keyremo.c **** 				//	}
1322:VS4210/keyremo.c **** 				break;
1323:VS4210/keyremo.c **** #endif
1324:VS4210/keyremo.c **** 
1325:VS4210/keyremo.c **** #if 0 /// ef SUPPORT_2835_CLK_TUNE_BACK_DOOR  //Pinchi 20160929 add
1326:VS4210/keyremo.c **** 			case Tune2835ClkKEY :
1327:VS4210/keyremo.c **** 				if ((AudioVol == 20) && (IsEnter2835ClkTune == 1))
1328:VS4210/keyremo.c **** 				{
1329:VS4210/keyremo.c **** 					if (IsRun2835ClkTune == 1)
1330:VS4210/keyremo.c **** 					{
1331:VS4210/keyremo.c **** 						IsRun2835ClkTune = 0;
1332:VS4210/keyremo.c **** 						PowerLED(ON);
1333:VS4210/keyremo.c **** 						ClearDataCnt(INPUTINFO_ADDR, 2);
1334:VS4210/keyremo.c **** 						IsEnter2835ClkTune = 0;
ARM GAS  C:\Users\ryanc.HS\AppData\Local\Temp\ccZ9UySd.s 			page 27


1335:VS4210/keyremo.c **** 					}
1336:VS4210/keyremo.c **** 					else
1337:VS4210/keyremo.c **** 					{
1338:VS4210/keyremo.c **** 						IsRun2835ClkTune = 1;
1339:VS4210/keyremo.c **** 						PowerLED(2);
1340:VS4210/keyremo.c **** 						HS_Display2835ClkTuneVal(b2835ClkTuneVal);
1341:VS4210/keyremo.c **** 					}
1342:VS4210/keyremo.c **** 
1343:VS4210/keyremo.c **** 					Printf("\r\n[MSG]CheckKeyIn()=> IsRun2835ClkTune=%bx",(BYTE)IsRun2835ClkTune);
1344:VS4210/keyremo.c **** 				}
1345:VS4210/keyremo.c **** 				break;
1346:VS4210/keyremo.c **** 
1347:VS4210/keyremo.c **** 			case Enter2835TuneKEY :
1348:VS4210/keyremo.c **** 				/*
1349:VS4210/keyremo.c **** 				if (AudioVol == 23)
1350:VS4210/keyremo.c **** 				{
1351:VS4210/keyremo.c **** 					PowerLED(2);
1352:VS4210/keyremo.c **** 					Wait_ms(100);
1353:VS4210/keyremo.c **** 					PowerLED(ON);
1354:VS4210/keyremo.c **** 					Wait_ms(100);
1355:VS4210/keyremo.c **** 					PowerLED(2);
1356:VS4210/keyremo.c **** 					Wait_ms(100);
1357:VS4210/keyremo.c **** 					PowerLED(ON);
1358:VS4210/keyremo.c **** 					Wait_ms(100);
1359:VS4210/keyremo.c **** 					PowerLED(2);
1360:VS4210/keyremo.c **** 					Wait_ms(100);
1361:VS4210/keyremo.c **** 					PowerLED(ON);
1362:VS4210/keyremo.c **** 					IsEnter2835ClkTune = 1;
1363:VS4210/keyremo.c **** 					Enter2835TuneClock = SystemClock;
1364:VS4210/keyremo.c **** 				}
1365:VS4210/keyremo.c **** 				*/
1366:VS4210/keyremo.c **** 				break;
1367:VS4210/keyremo.c **** #endif
1368:VS4210/keyremo.c **** 		}
1369:VS4210/keyremo.c **** 	}
1370:VS4210/keyremo.c **** 	return (ret);
1371:VS4210/keyremo.c **** }
1372:VS4210/keyremo.c **** 
1373:VS4210/keyremo.c **** void BOX_SELECT_CHANNEL(BYTE index, BYTE action)
1374:VS4210/keyremo.c **** {
 158              		.loc 1 1374 1 is_stmt 1 view -0
 159              		.cfi_startproc
 160              		@ args = 0, pretend = 0, frame = 0
 161              		@ frame_needed = 0, uses_anonymous_args = 0
 162              		.loc 1 1374 1 is_stmt 0 view .LVU15
 163 0000 70B5     		push	{r4, r5, r6, lr}
 164              	.LCFI0:
 165              		.cfi_def_cfa_offset 16
 166              		.cfi_offset 4, -16
 167              		.cfi_offset 5, -12
 168              		.cfi_offset 6, -8
 169              		.cfi_offset 14, -4
 170 0002 0446     		mov	r4, r0
1375:VS4210/keyremo.c **** 	//	SetCOCCom(_COCOSD_BOXONLINE,SelectModeType);
1376:VS4210/keyremo.c **** 	//	Get_2824cIrq();
1377:VS4210/keyremo.c **** 
1378:VS4210/keyremo.c **** 	// if((Flisheye_CAM[SelectModeType]==FALSE))
ARM GAS  C:\Users\ryanc.HS\AppData\Local\Temp\ccZ9UySd.s 			page 28


1379:VS4210/keyremo.c **** 	{
1380:VS4210/keyremo.c **** 		if (action == UP)
 171              		.loc 1 1380 3 is_stmt 1 view .LVU16
 172              		.loc 1 1380 6 is_stmt 0 view .LVU17
 173 0004 0129     		cmp	r1, #1
 174 0006 1CD0     		beq	.L13
1381:VS4210/keyremo.c **** 		{
1382:VS4210/keyremo.c **** 			if (COCSelectModeType[SelectModeType] < 5)
1383:VS4210/keyremo.c **** 				COCSelectModeType[SelectModeType]++;
1384:VS4210/keyremo.c **** 			else
1385:VS4210/keyremo.c **** 				COCSelectModeType[SelectModeType] = 1;
1386:VS4210/keyremo.c **** 		}
1387:VS4210/keyremo.c **** 		else // action==DN
1388:VS4210/keyremo.c **** 		{
1389:VS4210/keyremo.c **** 			if (COCSelectModeType[SelectModeType] > 1)
 175              		.loc 1 1389 4 is_stmt 1 view .LVU18
 176              		.loc 1 1389 25 is_stmt 0 view .LVU19
 177 0008 174B     		ldr	r3, .L14
 178 000a 1A78     		ldrb	r2, [r3]	@ zero_extendqisi2
 179 000c 174B     		ldr	r3, .L14+4
 180 000e 9B5C     		ldrb	r3, [r3, r2]	@ zero_extendqisi2
 181              		.loc 1 1389 7 view .LVU20
 182 0010 012B     		cmp	r3, #1
 183 0012 24D9     		bls	.L11
1390:VS4210/keyremo.c **** 				COCSelectModeType[SelectModeType]--;
 184              		.loc 1 1390 5 is_stmt 1 view .LVU21
 185              		.loc 1 1390 38 is_stmt 0 view .LVU22
 186 0014 013B     		subs	r3, r3, #1
 187 0016 1549     		ldr	r1, .L14+4
 188              	.LVL3:
 189              		.loc 1 1390 38 view .LVU23
 190 0018 8B54     		strb	r3, [r1, r2]
 191              	.L10:
1391:VS4210/keyremo.c **** 			else
1392:VS4210/keyremo.c **** 				COCSelectModeType[SelectModeType] = 5;
1393:VS4210/keyremo.c **** 		}
1394:VS4210/keyremo.c **** 
1395:VS4210/keyremo.c **** 		SetCOCCom(_COCOSD_BOX_Sel, index);
 192              		.loc 1 1395 3 is_stmt 1 view .LVU24
 193 001a 2146     		mov	r1, r4
 194 001c 1920     		movs	r0, #25
 195              	.LVL4:
 196              		.loc 1 1395 3 is_stmt 0 view .LVU25
 197 001e FFF7FEFF 		bl	SetCOCCom
 198              	.LVL5:
1396:VS4210/keyremo.c **** 		SetCOCCom(_COCOSD_BOX_Channel_Sel, COCSelectModeType[SelectModeType]);
 199              		.loc 1 1396 3 is_stmt 1 view .LVU26
 200 0022 124D     		ldr	r5, .L14+4
 201 0024 104E     		ldr	r6, .L14
 202 0026 3378     		ldrb	r3, [r6]	@ zero_extendqisi2
 203 0028 E95C     		ldrb	r1, [r5, r3]	@ zero_extendqisi2
 204 002a 1A20     		movs	r0, #26
 205 002c FFF7FEFF 		bl	SetCOCCom
 206              	.LVL6:
1397:VS4210/keyremo.c **** 		Get_2824cIrq();
 207              		.loc 1 1397 3 view .LVU27
 208 0030 FFF7FEFF 		bl	Get_2824cIrq
ARM GAS  C:\Users\ryanc.HS\AppData\Local\Temp\ccZ9UySd.s 			page 29


 209              	.LVL7:
1398:VS4210/keyremo.c **** 		Printf("( _COCOSD_BOX_Channel_Sel=%02x SelectModeType=%02x)", (WORD)index, (WORD)COCSelectModeTyp
 210              		.loc 1 1398 3 view .LVU28
 211              		.loc 1 1398 101 is_stmt 0 view .LVU29
 212 0034 3378     		ldrb	r3, [r6]	@ zero_extendqisi2
 213              		.loc 1 1398 3 view .LVU30
 214 0036 EA5C     		ldrb	r2, [r5, r3]	@ zero_extendqisi2
 215 0038 2146     		mov	r1, r4
 216 003a 0D48     		ldr	r0, .L14+8
 217 003c FFF7FEFF 		bl	Printf
 218              	.LVL8:
1399:VS4210/keyremo.c **** 		/*
1400:VS4210/keyremo.c **** 			MCUTimerCancelTimerEvent(_USER_TIMER_EVENT_OSD_DISABLE);
1401:VS4210/keyremo.c **** 				MCUTimerActiveTimerEvent(SEC(Menu_Osd_Time_Out),_USER_TIMER_EVENT_OSD_DISABLE);
1402:VS4210/keyremo.c **** 		*/
1403:VS4210/keyremo.c **** 	}
1404:VS4210/keyremo.c **** }
 219              		.loc 1 1404 1 view .LVU31
 220 0040 70BD     		pop	{r4, r5, r6, pc}
 221              	.LVL9:
 222              	.L13:
1382:VS4210/keyremo.c **** 				COCSelectModeType[SelectModeType]++;
 223              		.loc 1 1382 4 is_stmt 1 view .LVU32
1382:VS4210/keyremo.c **** 				COCSelectModeType[SelectModeType]++;
 224              		.loc 1 1382 25 is_stmt 0 view .LVU33
 225 0042 094B     		ldr	r3, .L14
 226 0044 1A78     		ldrb	r2, [r3]	@ zero_extendqisi2
 227 0046 094B     		ldr	r3, .L14+4
 228 0048 9B5C     		ldrb	r3, [r3, r2]	@ zero_extendqisi2
1382:VS4210/keyremo.c **** 				COCSelectModeType[SelectModeType]++;
 229              		.loc 1 1382 7 view .LVU34
 230 004a 042B     		cmp	r3, #4
 231 004c 03D8     		bhi	.L9
1383:VS4210/keyremo.c **** 			else
 232              		.loc 1 1383 5 is_stmt 1 view .LVU35
1383:VS4210/keyremo.c **** 			else
 233              		.loc 1 1383 38 is_stmt 0 view .LVU36
 234 004e 0133     		adds	r3, r3, #1
 235 0050 0649     		ldr	r1, .L14+4
 236              	.LVL10:
1383:VS4210/keyremo.c **** 			else
 237              		.loc 1 1383 38 view .LVU37
 238 0052 8B54     		strb	r3, [r1, r2]
 239 0054 E1E7     		b	.L10
 240              	.LVL11:
 241              	.L9:
1385:VS4210/keyremo.c **** 		}
 242              		.loc 1 1385 5 is_stmt 1 view .LVU38
1385:VS4210/keyremo.c **** 		}
 243              		.loc 1 1385 39 is_stmt 0 view .LVU39
 244 0056 054B     		ldr	r3, .L14+4
 245 0058 0121     		movs	r1, #1
 246              	.LVL12:
1385:VS4210/keyremo.c **** 		}
 247              		.loc 1 1385 39 view .LVU40
 248 005a 9954     		strb	r1, [r3, r2]
 249 005c DDE7     		b	.L10
ARM GAS  C:\Users\ryanc.HS\AppData\Local\Temp\ccZ9UySd.s 			page 30


 250              	.LVL13:
 251              	.L11:
1392:VS4210/keyremo.c **** 		}
 252              		.loc 1 1392 5 is_stmt 1 view .LVU41
1392:VS4210/keyremo.c **** 		}
 253              		.loc 1 1392 39 is_stmt 0 view .LVU42
 254 005e 034B     		ldr	r3, .L14+4
 255 0060 0521     		movs	r1, #5
 256              	.LVL14:
1392:VS4210/keyremo.c **** 		}
 257              		.loc 1 1392 39 view .LVU43
 258 0062 9954     		strb	r1, [r3, r2]
 259 0064 D9E7     		b	.L10
 260              	.L15:
 261 0066 00BF     		.align	2
 262              	.L14:
 263 0068 00000000 		.word	SelectModeType
 264 006c 00000000 		.word	COCSelectModeType
 265 0070 00000000 		.word	.LC0
 266              		.cfi_endproc
 267              	.LFE75:
 269              		.section	.rodata.BOX_SET_CHANNEL.str1.4,"aMS",%progbits,1
 270              		.align	2
 271              	.LC1:
 272 0000 28205F43 		.ascii	"( _COCOSD_BOX_SET_CHANNEL=%02x ch=%02x)\000"
 272      4F434F53 
 272      445F424F 
 272      585F5345 
 272      545F4348 
 273              		.section	.text.BOX_SET_CHANNEL,"ax",%progbits
 274              		.align	1
 275              		.global	BOX_SET_CHANNEL
 276              		.syntax unified
 277              		.thumb
 278              		.thumb_func
 279              		.fpu softvfp
 281              	BOX_SET_CHANNEL:
 282              	.LVL15:
 283              	.LFB76:
1405:VS4210/keyremo.c **** 
1406:VS4210/keyremo.c **** void BOX_SET_CHANNEL(BYTE index, BYTE ch)
1407:VS4210/keyremo.c **** {
 284              		.loc 1 1407 1 is_stmt 1 view -0
 285              		.cfi_startproc
 286              		@ args = 0, pretend = 0, frame = 0
 287              		@ frame_needed = 0, uses_anonymous_args = 0
 288              		.loc 1 1407 1 is_stmt 0 view .LVU45
 289 0000 38B5     		push	{r3, r4, r5, lr}
 290              	.LCFI1:
 291              		.cfi_def_cfa_offset 16
 292              		.cfi_offset 3, -16
 293              		.cfi_offset 4, -12
 294              		.cfi_offset 5, -8
 295              		.cfi_offset 14, -4
 296 0002 0446     		mov	r4, r0
 297 0004 0D46     		mov	r5, r1
1408:VS4210/keyremo.c **** 	SetCOCCom(_COCOSD_BOX_Sel, index);
ARM GAS  C:\Users\ryanc.HS\AppData\Local\Temp\ccZ9UySd.s 			page 31


 298              		.loc 1 1408 2 is_stmt 1 view .LVU46
 299 0006 0146     		mov	r1, r0
 300              	.LVL16:
 301              		.loc 1 1408 2 is_stmt 0 view .LVU47
 302 0008 1920     		movs	r0, #25
 303              	.LVL17:
 304              		.loc 1 1408 2 view .LVU48
 305 000a FFF7FEFF 		bl	SetCOCCom
 306              	.LVL18:
1409:VS4210/keyremo.c **** 	SetCOCCom(_COCOSD_BOX_Channel_Sel, ch);
 307              		.loc 1 1409 2 is_stmt 1 view .LVU49
 308 000e 2946     		mov	r1, r5
 309 0010 1A20     		movs	r0, #26
 310 0012 FFF7FEFF 		bl	SetCOCCom
 311              	.LVL19:
1410:VS4210/keyremo.c **** 	Get_2824cIrq();
 312              		.loc 1 1410 2 view .LVU50
 313 0016 FFF7FEFF 		bl	Get_2824cIrq
 314              	.LVL20:
1411:VS4210/keyremo.c **** 	Printf("( _COCOSD_BOX_SET_CHANNEL=%02x ch=%02x)", (WORD)index, (WORD)ch);
 315              		.loc 1 1411 2 view .LVU51
 316 001a 2A46     		mov	r2, r5
 317 001c 2146     		mov	r1, r4
 318 001e 0348     		ldr	r0, .L18
 319 0020 FFF7FEFF 		bl	Printf
 320              	.LVL21:
1412:VS4210/keyremo.c **** 	BOX_Set_flag = TRUE;
 321              		.loc 1 1412 2 view .LVU52
 322              		.loc 1 1412 15 is_stmt 0 view .LVU53
 323 0024 024B     		ldr	r3, .L18+4
 324 0026 0122     		movs	r2, #1
 325 0028 1A70     		strb	r2, [r3]
1413:VS4210/keyremo.c **** }
 326              		.loc 1 1413 1 view .LVU54
 327 002a 38BD     		pop	{r3, r4, r5, pc}
 328              	.L19:
 329              		.align	2
 330              	.L18:
 331 002c 00000000 		.word	.LC1
 332 0030 00000000 		.word	.LANCHOR0
 333              		.cfi_endproc
 334              	.LFE76:
 336              		.section	.rodata.TouchSliderSetSelectMode.str1.4,"aMS",%progbits,1
 337              		.align	2
 338              	.LC2:
 339 0000 0D0A2851 		.ascii	"\015\012(QuadBoxMode==0)\000"
 339      75616442 
 339      6F784D6F 
 339      64653D3D 
 339      302900
 340 0013 00       		.align	2
 341              	.LC3:
 342 0014 0D0A5365 		.ascii	"\015\012SelectModeType=%d\000"
 342      6C656374 
 342      4D6F6465 
 342      54797065 
 342      3D256400 
ARM GAS  C:\Users\ryanc.HS\AppData\Local\Temp\ccZ9UySd.s 			page 32


 343              		.section	.text.TouchSliderSetSelectMode,"ax",%progbits
 344              		.align	1
 345              		.global	TouchSliderSetSelectMode
 346              		.syntax unified
 347              		.thumb
 348              		.thumb_func
 349              		.fpu softvfp
 351              	TouchSliderSetSelectMode:
 352              	.LVL22:
 353              	.LFB80:
1414:VS4210/keyremo.c **** 
1415:VS4210/keyremo.c **** #define SEQIndexNum 4
1416:VS4210/keyremo.c **** 
1417:VS4210/keyremo.c **** void SEQMode(void)
1418:VS4210/keyremo.c **** {
1419:VS4210/keyremo.c **** 	WORD usNum;
1420:VS4210/keyremo.c **** #if 0
1421:VS4210/keyremo.c **** 	//BYTE preSEQIndex;
1422:VS4210/keyremo.c **** 	//preSEQIndex=SEQIndex;
1423:VS4210/keyremo.c **** 	
1424:VS4210/keyremo.c **** 		if((SEQIndex<4)&&(QuadBoxId&(1<<SEQIndex))&&(COCSelectModeType[SEQIndex]<4)&&QuadBoxMode==ON)
1425:VS4210/keyremo.c **** 								{
1426:VS4210/keyremo.c **** 								COCSelectModeType[SEQIndex]++;
1427:VS4210/keyremo.c **** 								BOX_SET_CHANNEL(SEQIndex,COCSelectModeType[SEQIndex]);
1428:VS4210/keyremo.c **** 								}
1429:VS4210/keyremo.c **** 							else	if(SEQIndex>=3)
1430:VS4210/keyremo.c **** 								{
1431:VS4210/keyremo.c **** 								QuadBoxMode=0;
1432:VS4210/keyremo.c **** 								SEQIndex=0;		
1433:VS4210/keyremo.c **** 
1434:VS4210/keyremo.c **** 									if((SEQIndex<4)&&(QuadBoxId&(1<<SEQIndex))/*&&(QuadBoxMode==0)*/)
1435:VS4210/keyremo.c **** 									{
1436:VS4210/keyremo.c **** 									COCSelectModeType[SEQIndex]=1;
1437:VS4210/keyremo.c **** 									QuadBoxMode=TRUE;
1438:VS4210/keyremo.c **** 									BOX_SET_CHANNEL(SEQIndex,COCSelectModeType[SEQIndex]);				
1439:VS4210/keyremo.c **** 									}
1440:VS4210/keyremo.c **** 									
1441:VS4210/keyremo.c **** 								}
1442:VS4210/keyremo.c **** 							else
1443:VS4210/keyremo.c **** 								{
1444:VS4210/keyremo.c **** 								//QuadBoxMode=0;
1445:VS4210/keyremo.c **** 								//SEQIndex++;	
1446:VS4210/keyremo.c **** 								
1447:VS4210/keyremo.c **** 								if((SEQIndex<4)&&(QuadBoxId&(1<<SEQIndex))&&(QuadBoxMode==0))
1448:VS4210/keyremo.c **** 								{
1449:VS4210/keyremo.c **** 								COCSelectModeType[SEQIndex]=1;
1450:VS4210/keyremo.c **** 								QuadBoxMode=TRUE;
1451:VS4210/keyremo.c **** 								BOX_SET_CHANNEL(SEQIndex,COCSelectModeType[SEQIndex]);				
1452:VS4210/keyremo.c **** 								 Printf("\r\n(QuadBoxMode==0)");
1453:VS4210/keyremo.c **** 								 
1454:VS4210/keyremo.c **** 								}
1455:VS4210/keyremo.c **** 								else
1456:VS4210/keyremo.c **** 									{
1457:VS4210/keyremo.c **** 									SEQIndex++;										
1458:VS4210/keyremo.c **** 									QuadBoxMode=0;
1459:VS4210/keyremo.c **** 
1460:VS4210/keyremo.c **** 									if((SEQIndex<4)&&(QuadBoxId&(1<<SEQIndex))/*&&(QuadBoxMode==0)*/)
ARM GAS  C:\Users\ryanc.HS\AppData\Local\Temp\ccZ9UySd.s 			page 33


1461:VS4210/keyremo.c **** 									{
1462:VS4210/keyremo.c **** 									COCSelectModeType[SEQIndex]=1;
1463:VS4210/keyremo.c **** 									QuadBoxMode=TRUE;
1464:VS4210/keyremo.c **** 									BOX_SET_CHANNEL(SEQIndex,COCSelectModeType[SEQIndex]);				
1465:VS4210/keyremo.c **** 									}
1466:VS4210/keyremo.c **** 									
1467:VS4210/keyremo.c **** 									}
1468:VS4210/keyremo.c **** 								
1469:VS4210/keyremo.c **** 								
1470:VS4210/keyremo.c **** 								}
1471:VS4210/keyremo.c **** #else
1472:VS4210/keyremo.c **** 
1473:VS4210/keyremo.c **** #if 1
1474:VS4210/keyremo.c **** 
1475:VS4210/keyremo.c **** 	if (SEQIndex < SEQIndexNum)
1476:VS4210/keyremo.c **** 		SEQIndex++;
1477:VS4210/keyremo.c **** 	else
1478:VS4210/keyremo.c **** 		SEQIndex = 0;
1479:VS4210/keyremo.c **** 
1480:VS4210/keyremo.c **** #if (_DEBUG_MESSAGE_TP2824 == ON)
1481:VS4210/keyremo.c **** 	GraphicsPrint(YELLOW, "\r\n(SEQIndex ch=%02x)\r\n", (WORD)SEQIndex);
1482:VS4210/keyremo.c **** #endif
1483:VS4210/keyremo.c **** 
1484:VS4210/keyremo.c **** #if 0
1485:VS4210/keyremo.c **** 			if(SEQTable[SEQIndex]==VS4210_LOOP_MODE0_w0)
1486:VS4210/keyremo.c **** 			   {
1487:VS4210/keyremo.c **** 			   bytSelectCAMRD=SelectCameraR;   
1488:VS4210/keyremo.c **** 			   SetSelectCAMRD(SelectCameraR);
1489:VS4210/keyremo.c **** 			   }   
1490:VS4210/keyremo.c **** 			else if(SEQTable[SEQIndex]==VS4210_LOOP_MODE0_w3)
1491:VS4210/keyremo.c **** 				{
1492:VS4210/keyremo.c **** 				SetSelectCAMRD(SelectCameraD);				
1493:VS4210/keyremo.c **** 				}
1494:VS4210/keyremo.c **** 			else if(SEQTable[SEQIndex]==VS4210_LOOP_MODE0_w4)
1495:VS4210/keyremo.c **** 				{
1496:VS4210/keyremo.c **** 				bytSelectCAMRD=SelectCameraD;  
1497:VS4210/keyremo.c **** 				}
1498:VS4210/keyremo.c **** 
1499:VS4210/keyremo.c **** #else
1500:VS4210/keyremo.c **** 	if (SEQTable[SEQIndex] == SelectCameraD)
1501:VS4210/keyremo.c **** 	{
1502:VS4210/keyremo.c **** 
1503:VS4210/keyremo.c **** 		SetSelectCAMRD(SEQTable[SEQIndex]);
1504:VS4210/keyremo.c **** 		bytSelectCAMRD = SelectCameraD;
1505:VS4210/keyremo.c **** 	}
1506:VS4210/keyremo.c **** 	// else if((bytSelectCAMRD==SelectCameraD))
1507:VS4210/keyremo.c **** 	else if ((SEQTable[SEQIndex] == VS4210_LOOP_MODE0_w2))
1508:VS4210/keyremo.c **** 	{
1509:VS4210/keyremo.c **** 
1510:VS4210/keyremo.c **** 		SetSelectCAMRD(SEQTable[SEQIndex]);
1511:VS4210/keyremo.c **** 		bytSelectCAMRD = SelectCameraR;
1512:VS4210/keyremo.c **** 	}
1513:VS4210/keyremo.c **** #endif
1514:VS4210/keyremo.c **** 
1515:VS4210/keyremo.c **** #if 0
1516:VS4210/keyremo.c **** 										if(SEQTable[SEQIndex]==VS4210_LOOP_MODE0_w4)
1517:VS4210/keyremo.c **** 										{
ARM GAS  C:\Users\ryanc.HS\AppData\Local\Temp\ccZ9UySd.s 			page 34


1518:VS4210/keyremo.c **** 										bytSelectCAMRD=SelectCameraD;  
1519:VS4210/keyremo.c **** 										// Init_TP280x_CHx_RegSet(1,3);
1520:VS4210/keyremo.c **** 										}
1521:VS4210/keyremo.c **** 										else if(SEQTable[SEQIndex]==VS4210_LOOP_MODE0_w2)
1522:VS4210/keyremo.c **** 											{
1523:VS4210/keyremo.c **** 											bytSelectCAMRD=SelectCameraR;  
1524:VS4210/keyremo.c **** 											// Init_TP280x_CHx_RegSet(1,3);
1525:VS4210/keyremo.c **** 
1526:VS4210/keyremo.c **** 											}
1527:VS4210/keyremo.c **** #endif
1528:VS4210/keyremo.c **** 
1529:VS4210/keyremo.c **** 	setloopoutmode(SEQTable[SEQIndex]);
1530:VS4210/keyremo.c **** 	AudioMute(OFF);
1531:VS4210/keyremo.c **** #if 0
1532:VS4210/keyremo.c **** 						if(SEQTable[SEQIndex]==VS4210_LOOP_MODE0_w0)
1533:VS4210/keyremo.c **** 									   {
1534:VS4210/keyremo.c **** 									   //bytSelectCAMRD=SelectCameraR;   
1535:VS4210/keyremo.c **** 									   SetSelectCAMRD(SelectCameraR);
1536:VS4210/keyremo.c **** 									   }   
1537:VS4210/keyremo.c **** 									else if(SEQTable[SEQIndex]==VS4210_LOOP_MODE0_w3)
1538:VS4210/keyremo.c **** 										{
1539:VS4210/keyremo.c **** 										SetSelectCAMRD(SelectCameraD);				
1540:VS4210/keyremo.c **** 										}
1541:VS4210/keyremo.c **** 									//else if(SEQTable[SEQIndex]==VS4210_LOOP_MODE0_w4)
1542:VS4210/keyremo.c **** 									//	{
1543:VS4210/keyremo.c **** 									//	bytSelectCAMRD=SelectCameraD;  
1544:VS4210/keyremo.c **** 										//}
1545:VS4210/keyremo.c **** 
1546:VS4210/keyremo.c **** #endif
1547:VS4210/keyremo.c **** #if 1
1548:VS4210/keyremo.c **** 	if (((SEQTable[SEQIndex] == SelectCameraD) || (SEQTable[SEQIndex] == VS4210_LOOP_MODE0_w2)) && (Ti
1549:VS4210/keyremo.c **** 	{
1550:VS4210/keyremo.c **** 
1551:VS4210/keyremo.c **** 		usNum = 100;
1552:VS4210/keyremo.c **** 
1553:VS4210/keyremo.c **** 		g_bNotifyTimer0Int = _FALSE;
1554:VS4210/keyremo.c **** 
1555:VS4210/keyremo.c **** 		while (_TRUE)
1556:VS4210/keyremo.c **** 		{
1557:VS4210/keyremo.c **** 			if (g_bNotifyTimer0Int)
1558:VS4210/keyremo.c **** 			{
1559:VS4210/keyremo.c **** 				g_bNotifyTimer0Int = _FALSE;
1560:VS4210/keyremo.c **** 
1561:VS4210/keyremo.c **** 				if (--usNum)
1562:VS4210/keyremo.c **** 				{
1563:VS4210/keyremo.c **** 					EQ_Detect();
1564:VS4210/keyremo.c **** 				}
1565:VS4210/keyremo.c **** 				else
1566:VS4210/keyremo.c **** 				{
1567:VS4210/keyremo.c **** 					return;
1568:VS4210/keyremo.c **** 				}
1569:VS4210/keyremo.c **** 			}
1570:VS4210/keyremo.c **** 		}
1571:VS4210/keyremo.c **** 	}
1572:VS4210/keyremo.c **** #endif
1573:VS4210/keyremo.c **** #else
1574:VS4210/keyremo.c **** 	if (SEQIndex < 3)
ARM GAS  C:\Users\ryanc.HS\AppData\Local\Temp\ccZ9UySd.s 			page 35


1575:VS4210/keyremo.c **** 		SEQIndex++;
1576:VS4210/keyremo.c **** 	else
1577:VS4210/keyremo.c **** 		SEQIndex = 0;
1578:VS4210/keyremo.c **** 
1579:VS4210/keyremo.c **** 	setloopoutmode(SEQTable[SEQIndex]);
1580:VS4210/keyremo.c **** #endif
1581:VS4210/keyremo.c **** #endif
1582:VS4210/keyremo.c **** }
1583:VS4210/keyremo.c **** 
1584:VS4210/keyremo.c **** void SetJumpMode(void)
1585:VS4210/keyremo.c **** {
1586:VS4210/keyremo.c **** 	BYTE val, i;
1587:VS4210/keyremo.c **** 	// Printf("\r\nNowModeState",(WORD)NowModeState);
1588:VS4210/keyremo.c **** 	// LCDPowerOFF();
1589:VS4210/keyremo.c **** 	// MCUTimerActiveTimerEvent(SEC(_BACKLIGHT_ON_Time_out),  _USER_TIMER_EVENT_PANEL_BACKLIGHT_ON);
1590:VS4210/keyremo.c **** 
1591:VS4210/keyremo.c **** 	BackLightOFF();
1592:VS4210/keyremo.c **** 
1593:VS4210/keyremo.c **** 	if (NowModeState == JumpMode)
1594:VS4210/keyremo.c **** 	{
1595:VS4210/keyremo.c **** 		val = ReadEEP(EEP_JUMPMode);
1596:VS4210/keyremo.c **** 
1597:VS4210/keyremo.c **** 		if (val == 1)
1598:VS4210/keyremo.c **** 		{
1599:VS4210/keyremo.c **** 			SEQFlag = ON;
1600:VS4210/keyremo.c **** 			SEQIndex = 0;
1601:VS4210/keyremo.c **** 
1602:VS4210/keyremo.c **** 			for (i = 0; i < 4; i++)
1603:VS4210/keyremo.c **** 			{
1604:VS4210/keyremo.c **** 				if ((QuadBoxId & (1 << i)))
1605:VS4210/keyremo.c **** 				{
1606:VS4210/keyremo.c **** 					PreCOCSelectModeType[i] = COCSelectModeType[i];
1607:VS4210/keyremo.c **** 					// COCSelectModeType[i]=5;
1608:VS4210/keyremo.c **** 					// SetCOCCom(_COCOSD_BOX_Sel,i);
1609:VS4210/keyremo.c **** 					// SetCOCCom(_COCOSD_BOX_Channel_Sel,5);
1610:VS4210/keyremo.c **** 					// Get_2824cIrq();
1611:VS4210/keyremo.c **** 				}
1612:VS4210/keyremo.c **** 			}
1613:VS4210/keyremo.c **** 
1614:VS4210/keyremo.c **** 			MCUTimerCancelTimerEvent(_USER_TIMER_EVENT_SEQ_CHECK);
1615:VS4210/keyremo.c **** 			MCUTimerActiveTimerEvent(SEC(TimeStep), _USER_TIMER_EVENT_SEQ_CHECK);
1616:VS4210/keyremo.c **** 		}
1617:VS4210/keyremo.c **** 
1618:VS4210/keyremo.c **** 		if ((SEQIndex < 4) && (QuadBoxId & (1 << SEQIndex)) /*&&(QuadBoxMode==0)*/)
1619:VS4210/keyremo.c **** 		{
1620:VS4210/keyremo.c **** 			COCSelectModeType[SEQIndex] = 1;
1621:VS4210/keyremo.c **** 			QuadBoxMode = TRUE;
1622:VS4210/keyremo.c **** 			BOX_SET_CHANNEL(SEQIndex, COCSelectModeType[SEQIndex]);
1623:VS4210/keyremo.c **** 		}
1624:VS4210/keyremo.c **** 
1625:VS4210/keyremo.c **** 		SetSelectCAMRD(JumpTable[val]);
1626:VS4210/keyremo.c **** 
1627:VS4210/keyremo.c **** 		SetGarbberLinerMode(JumpTable[val]);
1628:VS4210/keyremo.c **** 
1629:VS4210/keyremo.c **** 		setloopoutmode(JumpTable[val]);
1630:VS4210/keyremo.c **** 
1631:VS4210/keyremo.c **** 		// if((JumpTable[val]==VS4210_LOOP_MODE0_w4))
ARM GAS  C:\Users\ryanc.HS\AppData\Local\Temp\ccZ9UySd.s 			page 36


1632:VS4210/keyremo.c **** 		// MCUTimerActiveTimerEvent(SEC(1.5),	_USER_TIMER_EVENT_BACKLIGHT_ON);
1633:VS4210/keyremo.c **** 		// else
1634:VS4210/keyremo.c **** 		{
1635:VS4210/keyremo.c **** 			BackLightON();
1636:VS4210/keyremo.c **** 			AudioMute(OFF);
1637:VS4210/keyremo.c **** 		}
1638:VS4210/keyremo.c **** 	}
1639:VS4210/keyremo.c **** 	else
1640:VS4210/keyremo.c **** 	{
1641:VS4210/keyremo.c **** 		val = ReadEEP(EEP_JUMPMode);
1642:VS4210/keyremo.c **** 		SEQFlag = OFF;
1643:VS4210/keyremo.c **** 
1644:VS4210/keyremo.c **** 		for (i = 0; i < 4; i++)
1645:VS4210/keyremo.c **** 		{
1646:VS4210/keyremo.c **** 			if ((QuadBoxId & (1 << i)))
1647:VS4210/keyremo.c **** 			{
1648:VS4210/keyremo.c **** 				COCSelectModeType[i] = PreCOCSelectModeType[i];
1649:VS4210/keyremo.c **** 				SetCOCCom(_COCOSD_BOX_Sel, i);
1650:VS4210/keyremo.c **** 				SetCOCCom(_COCOSD_BOX_Channel_Sel, COCSelectModeType[i]);
1651:VS4210/keyremo.c **** 				Get_2824cIrq();
1652:VS4210/keyremo.c **** 			}
1653:VS4210/keyremo.c **** 		}
1654:VS4210/keyremo.c **** 
1655:VS4210/keyremo.c **** 		// ryan@20210729 CloseOSDMenu();
1656:VS4210/keyremo.c **** 
1657:VS4210/keyremo.c **** 		// bytSelectCAMRD=MainSetSelectMode[SelectModeType];
1658:VS4210/keyremo.c **** 
1659:VS4210/keyremo.c **** 		// CAM_R_SW(OFF);
1660:VS4210/keyremo.c **** 		// CAM_D_SW(OFF);
1661:VS4210/keyremo.c **** 
1662:VS4210/keyremo.c **** 		SetSelectCAMRD(MainSetSelectMode[SelectModeType]);
1663:VS4210/keyremo.c **** 
1664:VS4210/keyremo.c **** 		SetGarbberLinerMode(MainSetSelectMode[SelectModeType]);
1665:VS4210/keyremo.c **** 
1666:VS4210/keyremo.c **** 		setloopoutmode(MainSetSelectMode[SelectModeType]);
1667:VS4210/keyremo.c **** 
1668:VS4210/keyremo.c **** 		if ((MainSetSelectMode[SelectModeType] == VS4210_LOOP_MODE0_w4))
1669:VS4210/keyremo.c **** 			MCUTimerActiveTimerEvent(SEC(0.2), _USER_TIMER_EVENT_BACKLIGHT_ON);
1670:VS4210/keyremo.c **** 		else
1671:VS4210/keyremo.c **** 		{
1672:VS4210/keyremo.c **** 			BackLightON();
1673:VS4210/keyremo.c **** 			AudioMute(OFF);
1674:VS4210/keyremo.c **** 		}
1675:VS4210/keyremo.c **** 	}
1676:VS4210/keyremo.c **** 
1677:VS4210/keyremo.c **** 	WriteEEP(EEP_NowModeState, NowModeState);
1678:VS4210/keyremo.c **** 
1679:VS4210/keyremo.c **** 	if (bytAutoSleeping == ON)
1680:VS4210/keyremo.c **** 	{
1681:VS4210/keyremo.c **** 		MCUTimerCancelTimerEvent(_SYSTEM_TIMER_EVENT_AUTO_SLEEPING_TIMEOUT);
1682:VS4210/keyremo.c **** 		MCUTimerActiveTimerEvent(SEC(10 - (bytStandByModeToTriggerMode * 5)), _SYSTEM_TIMER_EVENT_AUTO_SL
1683:VS4210/keyremo.c **** 	}
1684:VS4210/keyremo.c **** 
1685:VS4210/keyremo.c **** 	// BackLightON();
1686:VS4210/keyremo.c **** 	// AudioMute(OFF);
1687:VS4210/keyremo.c **** }
1688:VS4210/keyremo.c **** 
ARM GAS  C:\Users\ryanc.HS\AppData\Local\Temp\ccZ9UySd.s 			page 37


1689:VS4210/keyremo.c **** void SetSelectMode(void)
1690:VS4210/keyremo.c **** {
1691:VS4210/keyremo.c **** 
1692:VS4210/keyremo.c **** 	BYTE i;
1693:VS4210/keyremo.c **** 	// WORD usNum;
1694:VS4210/keyremo.c **** 
1695:VS4210/keyremo.c **** 	BYTE Maxsource;
1696:VS4210/keyremo.c **** 
1697:VS4210/keyremo.c **** 	if (Priority == _FALSE)
1698:VS4210/keyremo.c **** 		Maxsource = CAM_D;
1699:VS4210/keyremo.c **** 	else
1700:VS4210/keyremo.c **** 		Maxsource = CAM_RAB_H;
1701:VS4210/keyremo.c **** 
1702:VS4210/keyremo.c **** 	NowModeState = SelectMode;
1703:VS4210/keyremo.c **** 
1704:VS4210/keyremo.c **** 	SEQFlag = 0;
1705:VS4210/keyremo.c **** 
1706:VS4210/keyremo.c **** 	if (TouchResetSelectModeFlag == TRUE)
1707:VS4210/keyremo.c **** 	{
1708:VS4210/keyremo.c **** 		for (i = 0; i < 4; i++)
1709:VS4210/keyremo.c **** 		{
1710:VS4210/keyremo.c **** 			if ((QuadBoxId & (1 << i)))
1711:VS4210/keyremo.c **** 			{
1712:VS4210/keyremo.c **** 				COCSelectModeType[i] = PreCOCSelectModeType[i];
1713:VS4210/keyremo.c **** 				SetCOCCom(_COCOSD_BOX_Sel, i);
1714:VS4210/keyremo.c **** 				SetCOCCom(_COCOSD_BOX_Channel_Sel, COCSelectModeType[i]);
1715:VS4210/keyremo.c **** 				Get_2824cIrq();
1716:VS4210/keyremo.c **** 			}
1717:VS4210/keyremo.c **** 		}
1718:VS4210/keyremo.c **** 
1719:VS4210/keyremo.c **** 		TouchResetSelectModeFlag = FALSE;
1720:VS4210/keyremo.c **** 		SelectModeType = TouchPreSelectModeType;
1721:VS4210/keyremo.c **** 	}
1722:VS4210/keyremo.c **** 	else if ((SelectModeType < 4) && (QuadBoxId & (1 << SelectModeType)) && (COCSelectModeType[SelectM
1723:VS4210/keyremo.c **** 	{
1724:VS4210/keyremo.c **** 		BOX_SELECT_CHANNEL(SelectModeType, UP);
1725:VS4210/keyremo.c **** 	}
1726:VS4210/keyremo.c **** 	else
1727:VS4210/keyremo.c **** 	{
1728:VS4210/keyremo.c **** 
1729:VS4210/keyremo.c **** 		if (SelectModeType >= Maxsource)
1730:VS4210/keyremo.c **** 		{
1731:VS4210/keyremo.c **** 			QuadBoxMode = FALSE;
1732:VS4210/keyremo.c **** 			SelectModeType = CAM_A;
1733:VS4210/keyremo.c **** 		}
1734:VS4210/keyremo.c **** 		else
1735:VS4210/keyremo.c **** 		{
1736:VS4210/keyremo.c **** 			QuadBoxMode = FALSE;
1737:VS4210/keyremo.c **** 			SelectModeType++;
1738:VS4210/keyremo.c **** 		}
1739:VS4210/keyremo.c **** 
1740:VS4210/keyremo.c **** 		BackLightOFF();
1741:VS4210/keyremo.c **** #if 0	
1742:VS4210/keyremo.c **** 
1743:VS4210/keyremo.c **** 						 if(MainSetSelectMode[SelectModeType]==SelectCameraD)
1744:VS4210/keyremo.c **** 					 	{
1745:VS4210/keyremo.c **** 					 	bytSelectCAMRD=SelectCameraD;
ARM GAS  C:\Users\ryanc.HS\AppData\Local\Temp\ccZ9UySd.s 			page 38


1746:VS4210/keyremo.c **** 						CAM_R_SW(OFF);
1747:VS4210/keyremo.c **** 						CAM_D_SW(ON);
1748:VS4210/keyremo.c **** 						 VideoSave[3] = ReadEEP(EEP_TP2824_STD0+(4*3)+2);
1749:VS4210/keyremo.c **** 						if(VideoSave[3]==_TRUE)
1750:VS4210/keyremo.c **** 						Boot_Trigger_Function(3);	 
1751:VS4210/keyremo.c **** 					 	}
1752:VS4210/keyremo.c **** 					 else  if(bytSelectCAMRD==SelectCameraD)
1753:VS4210/keyremo.c **** 					 	{
1754:VS4210/keyremo.c **** 					 	bytSelectCAMRD=SelectCameraR;
1755:VS4210/keyremo.c **** 						CAM_R_SW(ON);
1756:VS4210/keyremo.c **** 						CAM_D_SW(OFF);
1757:VS4210/keyremo.c **** 						 VideoSave[3] = ReadEEP(EEP_TP2824_STD0+(3*3)+2);
1758:VS4210/keyremo.c **** 						 if(VideoSave[3]==_TRUE)
1759:VS4210/keyremo.c **** 						 Boot_Trigger_Function(3);						 
1760:VS4210/keyremo.c **** 					 	}
1761:VS4210/keyremo.c **** #endif
1762:VS4210/keyremo.c **** #if 1
1763:VS4210/keyremo.c **** 		if (MainSetSelectMode[SelectModeType] == SelectCameraD)
1764:VS4210/keyremo.c **** 		{
1765:VS4210/keyremo.c **** 
1766:VS4210/keyremo.c **** 			SetSelectCAMRD(MainSetSelectMode[SelectModeType]);
1767:VS4210/keyremo.c **** 			bytSelectCAMRD = SelectCameraD;
1768:VS4210/keyremo.c **** 		}
1769:VS4210/keyremo.c **** 		else if (bytSelectCAMRD == SelectCameraD)
1770:VS4210/keyremo.c **** 		{
1771:VS4210/keyremo.c **** 
1772:VS4210/keyremo.c **** 			SetSelectCAMRD(MainSetSelectMode[SelectModeType]);
1773:VS4210/keyremo.c **** 			bytSelectCAMRD = SelectCameraR;
1774:VS4210/keyremo.c **** 		}
1775:VS4210/keyremo.c **** 
1776:VS4210/keyremo.c **** #endif
1777:VS4210/keyremo.c **** 
1778:VS4210/keyremo.c **** 		// CAM_R_SW(OFF);
1779:VS4210/keyremo.c **** 		////CAM_D_SW(OFF);
1780:VS4210/keyremo.c **** 		//
1781:VS4210/keyremo.c **** 		// SetSelectCAMRD(MainSetSelectMode[SelectModeType]);
1782:VS4210/keyremo.c **** 
1783:VS4210/keyremo.c **** 		SetGarbberLinerMode(MainSetSelectMode[SelectModeType]);
1784:VS4210/keyremo.c **** 
1785:VS4210/keyremo.c **** 		setloopoutmode(MainSetSelectMode[SelectModeType]);
1786:VS4210/keyremo.c **** 
1787:VS4210/keyremo.c **** 		//				SetGarbberLinerMode(MainSetSelectMode[SelectModeType]);
1788:VS4210/keyremo.c **** 
1789:VS4210/keyremo.c **** 		// CheckGarbberLiner(MainSetSelectMode[SelectModeType]);
1790:VS4210/keyremo.c **** 
1791:VS4210/keyremo.c **** 		OSDStateFlg = 1;
1792:VS4210/keyremo.c **** 
1793:VS4210/keyremo.c **** 		PreSelectModeType = 12;
1794:VS4210/keyremo.c **** #if 1
1795:VS4210/keyremo.c **** 		if ((SelectModeType < 4) && (QuadBoxId & (1 << SelectModeType)) && (QuadBoxMode == 0))
1796:VS4210/keyremo.c **** 		{
1797:VS4210/keyremo.c **** 			COCSelectModeType[SelectModeType] = 1;
1798:VS4210/keyremo.c **** 			QuadBoxMode = TRUE;
1799:VS4210/keyremo.c **** 			BOX_SET_CHANNEL(SelectModeType, COCSelectModeType[SelectModeType]);
1800:VS4210/keyremo.c **** 
1801:VS4210/keyremo.c **** 			Printf("\r\n(QuadBoxMode==0)");
1802:VS4210/keyremo.c **** 		}
ARM GAS  C:\Users\ryanc.HS\AppData\Local\Temp\ccZ9UySd.s 			page 39


1803:VS4210/keyremo.c **** #endif
1804:VS4210/keyremo.c **** 
1805:VS4210/keyremo.c **** #if 0
1806:VS4210/keyremo.c **** 									if((MainSetSelectMode[SelectModeType]==VS4210_LOOP_MODE0_w3))
1807:VS4210/keyremo.c **** 										{
1808:VS4210/keyremo.c **** 										BackLightON();
1809:VS4210/keyremo.c **** 
1810:VS4210/keyremo.c **** 										SetSelectCAMRD(SelectCameraD);				
1811:VS4210/keyremo.c **** 										 Printf("(ReadyToCamD)");
1812:VS4210/keyremo.c **** 										usNum=100;
1813:VS4210/keyremo.c **** 						
1814:VS4210/keyremo.c **** 											g_bNotifyTimer0Int = _FALSE;
1815:VS4210/keyremo.c **** 						
1816:VS4210/keyremo.c **** 												while(_TRUE)
1817:VS4210/keyremo.c **** 												{
1818:VS4210/keyremo.c **** 															   if(g_bNotifyTimer0Int)
1819:VS4210/keyremo.c **** 															{
1820:VS4210/keyremo.c **** 																g_bNotifyTimer0Int = _FALSE;
1821:VS4210/keyremo.c **** 						
1822:VS4210/keyremo.c **** 																 if(--usNum)
1823:VS4210/keyremo.c **** 																	 {
1824:VS4210/keyremo.c **** 																	 EQ_Detect();
1825:VS4210/keyremo.c **** 																	 }
1826:VS4210/keyremo.c **** 																		 else
1827:VS4210/keyremo.c **** 																	 {
1828:VS4210/keyremo.c **** 																			   WriteEEP(EEP_SelectMode,SelectModeType);
1829:VS4210/keyremo.c **** 																			   WriteEEP(EEP_NowModeState,NowModeState);
1830:VS4210/keyremo.c **** 																			   BackLightON();
1831:VS4210/keyremo.c **** 																			   AudioMute(OFF);
1832:VS4210/keyremo.c **** 																			 
1833:VS4210/keyremo.c **** 																			 if(bytAutoSleeping==ON)
1834:VS4210/keyremo.c **** 																			 {
1835:VS4210/keyremo.c **** 																			 MCUTimerCancelTimerEvent(_SYSTEM_TIMER_EVENT_AUTO_SLEEPING_TIMEOUT);
1836:VS4210/keyremo.c **** 																			 MCUTimerActiveTimerEvent(SEC(10-(bytStandByModeToTriggerMode*5)), _SYSTEM_TIMER
1837:VS4210/keyremo.c **** 																			 }
1838:VS4210/keyremo.c **** 																			 
1839:VS4210/keyremo.c **** 																			  Printf("\r\nSelectModeType=%d",(WORD)SelectModeType);
1840:VS4210/keyremo.c **** 																			
1841:VS4210/keyremo.c **** 
1842:VS4210/keyremo.c **** 																	 
1843:VS4210/keyremo.c **** 																		return;
1844:VS4210/keyremo.c **** 
1845:VS4210/keyremo.c **** 																	 }
1846:VS4210/keyremo.c **** 														   }
1847:VS4210/keyremo.c **** 												  }
1848:VS4210/keyremo.c **** 								
1849:VS4210/keyremo.c **** 										}
1850:VS4210/keyremo.c **** 									else if((MainSetSelectMode[SelectModeType]==VS4210_LOOP_MODE0_w0))
1851:VS4210/keyremo.c **** 										{
1852:VS4210/keyremo.c **** 										BackLightON();
1853:VS4210/keyremo.c **** 										SetSelectCAMRD(SelectCameraR);				
1854:VS4210/keyremo.c **** 																				 Printf("(ReadyToCamR)");
1855:VS4210/keyremo.c **** 																				usNum=100;
1856:VS4210/keyremo.c **** 																
1857:VS4210/keyremo.c **** 																					g_bNotifyTimer0Int = _FALSE;
1858:VS4210/keyremo.c **** 																
1859:VS4210/keyremo.c **** 																						while(_TRUE)
ARM GAS  C:\Users\ryanc.HS\AppData\Local\Temp\ccZ9UySd.s 			page 40


1860:VS4210/keyremo.c **** 																						{
1861:VS4210/keyremo.c **** 																									   if(g_bNotifyTimer0Int)
1862:VS4210/keyremo.c **** 																									{
1863:VS4210/keyremo.c **** 																										g_bNotifyTimer0Int = _FALSE;
1864:VS4210/keyremo.c **** 																
1865:VS4210/keyremo.c **** 																										 if(--usNum)
1866:VS4210/keyremo.c **** 																											 {
1867:VS4210/keyremo.c **** 																											 EQ_Detect();
1868:VS4210/keyremo.c **** 																											 }
1869:VS4210/keyremo.c **** 																												 else
1870:VS4210/keyremo.c **** 																											 {
1871:VS4210/keyremo.c **** 																													   WriteEEP(EEP_SelectMode,SelectModeType);
1872:VS4210/keyremo.c **** 																													   WriteEEP(EEP_NowModeState,NowModeState);
1873:VS4210/keyremo.c **** 																													   BackLightON();
1874:VS4210/keyremo.c **** 																													   AudioMute(OFF);
1875:VS4210/keyremo.c **** 																													 
1876:VS4210/keyremo.c **** 																													 if(bytAutoSleeping==ON)
1877:VS4210/keyremo.c **** 																													 {
1878:VS4210/keyremo.c **** 																													 MCUTimerCancelTimerEvent(_SYSTEM_TIMER_EVENT_AUTO_SLEEPING_TIMEOUT);
1879:VS4210/keyremo.c **** 																													 MCUTimerActiveTimerEvent(SEC(10-(bytStandByModeToTriggerMode*5)), _SY
1880:VS4210/keyremo.c **** 																													 }
1881:VS4210/keyremo.c **** 																													 
1882:VS4210/keyremo.c **** 																													  Printf("\r\nSelectModeType=%d",(WORD)SelectModeType);
1883:VS4210/keyremo.c **** 																													
1884:VS4210/keyremo.c **** 										
1885:VS4210/keyremo.c **** 																											 
1886:VS4210/keyremo.c **** 																												return;
1887:VS4210/keyremo.c **** 										
1888:VS4210/keyremo.c **** 																											 }
1889:VS4210/keyremo.c **** 																								   }
1890:VS4210/keyremo.c **** 																						  }
1891:VS4210/keyremo.c **** 
1892:VS4210/keyremo.c **** 										}
1893:VS4210/keyremo.c **** 
1894:VS4210/keyremo.c **** #endif
1895:VS4210/keyremo.c **** 	}
1896:VS4210/keyremo.c **** 
1897:VS4210/keyremo.c **** 	WriteEEP(EEP_SelectMode, SelectModeType);
1898:VS4210/keyremo.c **** 	WriteEEP(EEP_NowModeState, NowModeState);
1899:VS4210/keyremo.c **** 
1900:VS4210/keyremo.c **** 	if (MainSetSelectMode[SelectModeType] == SelectCameraD)
1901:VS4210/keyremo.c **** 		MCUTimerActiveTimerEvent(SEC(0.2), _USER_TIMER_EVENT_BACKLIGHT_ON);
1902:VS4210/keyremo.c **** 	else
1903:VS4210/keyremo.c **** 	{
1904:VS4210/keyremo.c **** 		BackLightON();
1905:VS4210/keyremo.c **** 		AudioMute(OFF);
1906:VS4210/keyremo.c **** 	}
1907:VS4210/keyremo.c **** 	if (bytAutoSleeping == ON)
1908:VS4210/keyremo.c **** 	{
1909:VS4210/keyremo.c **** 		MCUTimerCancelTimerEvent(_SYSTEM_TIMER_EVENT_AUTO_SLEEPING_TIMEOUT);
1910:VS4210/keyremo.c **** 		MCUTimerActiveTimerEvent(SEC(10 - (bytStandByModeToTriggerMode * 5)), _SYSTEM_TIMER_EVENT_AUTO_SL
1911:VS4210/keyremo.c **** 	}
1912:VS4210/keyremo.c **** 
1913:VS4210/keyremo.c **** 	Printf("\r\nSelectModeType=%d", (WORD)SelectModeType);
1914:VS4210/keyremo.c **** }
1915:VS4210/keyremo.c **** 
1916:VS4210/keyremo.c **** void TouchSliderSetSelectMode(BYTE Action)
ARM GAS  C:\Users\ryanc.HS\AppData\Local\Temp\ccZ9UySd.s 			page 41


1917:VS4210/keyremo.c **** {
 354              		.loc 1 1917 1 is_stmt 1 view -0
 355              		.cfi_startproc
 356              		@ args = 0, pretend = 0, frame = 0
 357              		@ frame_needed = 0, uses_anonymous_args = 0
 358              		.loc 1 1917 1 is_stmt 0 view .LVU56
 359 0000 38B5     		push	{r3, r4, r5, lr}
 360              	.LCFI2:
 361              		.cfi_def_cfa_offset 16
 362              		.cfi_offset 3, -16
 363              		.cfi_offset 4, -12
 364              		.cfi_offset 5, -8
 365              		.cfi_offset 14, -4
1918:VS4210/keyremo.c **** 	BYTE i;
 366              		.loc 1 1918 2 is_stmt 1 view .LVU57
1919:VS4210/keyremo.c **** 	/*
1920:VS4210/keyremo.c **** 		CAM_A,         // 0
1921:VS4210/keyremo.c **** 		CAM_B,         // 1
1922:VS4210/keyremo.c **** 		CAM_C,         // 2
1923:VS4210/keyremo.c **** 		CAM_R,         // 3
1924:VS4210/keyremo.c **** 		CAM_AB,        // 4
1925:VS4210/keyremo.c **** 		CAM_CR,        // 8
1926:VS4210/keyremo.c **** 		CAM_AR,        // 9
1927:VS4210/keyremo.c **** 		CAM_RB,        // 10
1928:VS4210/keyremo.c **** 		CAM_AC,        // 11
1929:VS4210/keyremo.c **** 		CAM_CB,        // 12
1930:VS4210/keyremo.c **** 		CAM_RAB_T,     // 13
1931:VS4210/keyremo.c **** 		CAM_RAB_H,     // 14
1932:VS4210/keyremo.c **** 		CAM_QUAD,      // 15
1933:VS4210/keyremo.c **** 	*/
1934:VS4210/keyremo.c **** 	/*
1935:VS4210/keyremo.c **** 		if(Priority)
1936:VS4210/keyremo.c **** 			Maxsource=CAM_R;
1937:VS4210/keyremo.c **** 		else
1938:VS4210/keyremo.c **** 			Maxsource=CAM_RAB_H;
1939:VS4210/keyremo.c **** 	*/
1940:VS4210/keyremo.c **** 	BYTE Maxsource /*,tempsource*/; // VS4210_LOOP_MODE0_w0
 367              		.loc 1 1940 2 view .LVU58
1941:VS4210/keyremo.c **** 
1942:VS4210/keyremo.c **** 	if (Priority == _FALSE)
 368              		.loc 1 1942 2 view .LVU59
 369              		.loc 1 1942 15 is_stmt 0 view .LVU60
 370 0002 654B     		ldr	r3, .L43
 371 0004 1B78     		ldrb	r3, [r3]	@ zero_extendqisi2
 372              		.loc 1 1942 5 view .LVU61
 373 0006 002B     		cmp	r3, #0
 374 0008 48D1     		bne	.L33
1943:VS4210/keyremo.c **** 		Maxsource = CAM_R;
 375              		.loc 1 1943 13 view .LVU62
 376 000a 0321     		movs	r1, #3
 377              	.L21:
 378              	.LVL23:
1944:VS4210/keyremo.c **** 	else
1945:VS4210/keyremo.c **** 		Maxsource = CAM_RAB_H;
1946:VS4210/keyremo.c **** 
1947:VS4210/keyremo.c **** 	NowModeState = SelectMode;
 379              		.loc 1 1947 2 is_stmt 1 view .LVU63
ARM GAS  C:\Users\ryanc.HS\AppData\Local\Temp\ccZ9UySd.s 			page 42


 380              		.loc 1 1947 15 is_stmt 0 view .LVU64
 381 000c 0023     		movs	r3, #0
 382 000e 634A     		ldr	r2, .L43+4
 383 0010 1370     		strb	r3, [r2]
1948:VS4210/keyremo.c **** 
1949:VS4210/keyremo.c **** 	SEQFlag = 0;
 384              		.loc 1 1949 2 is_stmt 1 view .LVU65
 385              		.loc 1 1949 10 is_stmt 0 view .LVU66
 386 0012 634A     		ldr	r2, .L43+8
 387 0014 1370     		strb	r3, [r2]
1950:VS4210/keyremo.c **** 
1951:VS4210/keyremo.c **** 	// tempsource=SelectModeType;
1952:VS4210/keyremo.c **** 
1953:VS4210/keyremo.c **** 	if (Action == UP)
 388              		.loc 1 1953 2 is_stmt 1 view .LVU67
 389              		.loc 1 1953 5 is_stmt 0 view .LVU68
 390 0016 0128     		cmp	r0, #1
 391 0018 42D0     		beq	.L36
1954:VS4210/keyremo.c **** 	{
1955:VS4210/keyremo.c **** 
1956:VS4210/keyremo.c **** #if 1
1957:VS4210/keyremo.c **** 		/*
1958:VS4210/keyremo.c **** 				if((SelectModeType<4)&&(QuadBoxId&(1<<(SelectModeType)))&&(QuadBoxMode==0))
1959:VS4210/keyremo.c **** 					{
1960:VS4210/keyremo.c **** 					COCSelectModeType[(SelectModeType)]=1;
1961:VS4210/keyremo.c **** 					QuadBoxMode=TRUE;
1962:VS4210/keyremo.c **** 					BOX_SET_CHANNEL((SelectModeType),COCSelectModeType[(SelectModeType)]);
1963:VS4210/keyremo.c **** 
1964:VS4210/keyremo.c **** 						 Printf("\r\n(QuadBoxMode==0)");
1965:VS4210/keyremo.c **** 					}
1966:VS4210/keyremo.c **** 				else
1967:VS4210/keyremo.c **** 					*/
1968:VS4210/keyremo.c **** 		if ((SelectModeType < 4) && (QuadBoxId & (1 << SelectModeType)) && (COCSelectModeType[SelectModeT
1969:VS4210/keyremo.c **** 		{
1970:VS4210/keyremo.c **** 			BOX_SELECT_CHANNEL(SelectModeType, UP);
1971:VS4210/keyremo.c **** 		}
1972:VS4210/keyremo.c **** 		else if (SelectModeType >= Maxsource)
1973:VS4210/keyremo.c **** 		{
1974:VS4210/keyremo.c **** 			QuadBoxMode = FALSE;
1975:VS4210/keyremo.c **** 			SelectModeType = CAM_A;
1976:VS4210/keyremo.c **** 		}
1977:VS4210/keyremo.c **** 		else
1978:VS4210/keyremo.c **** 		{
1979:VS4210/keyremo.c **** 			QuadBoxMode = FALSE;
1980:VS4210/keyremo.c **** 			SelectModeType++;
1981:VS4210/keyremo.c **** 
1982:VS4210/keyremo.c **** 			if ((SelectModeType < 4) && (QuadBoxId & (1 << SelectModeType)) && (QuadBoxMode == 0))
1983:VS4210/keyremo.c **** 			{
1984:VS4210/keyremo.c **** 				COCSelectModeType[SelectModeType] = 1;
1985:VS4210/keyremo.c **** 				QuadBoxMode = TRUE;
1986:VS4210/keyremo.c **** 				BOX_SET_CHANNEL(SelectModeType, COCSelectModeType[SelectModeType]);
1987:VS4210/keyremo.c **** 
1988:VS4210/keyremo.c **** 				Printf("\r\n(QuadBoxMode==0)");
1989:VS4210/keyremo.c **** 			}
1990:VS4210/keyremo.c **** 		}
1991:VS4210/keyremo.c **** 
1992:VS4210/keyremo.c **** #else
ARM GAS  C:\Users\ryanc.HS\AppData\Local\Temp\ccZ9UySd.s 			page 43


1993:VS4210/keyremo.c **** 		if ((SelectModeType < 4) && (QuadBoxId & (1 << SelectModeType)) && (QuadBoxMode == 0))
1994:VS4210/keyremo.c **** 		{
1995:VS4210/keyremo.c **** 			COCSelectModeType[SelectModeType] = 1;
1996:VS4210/keyremo.c **** 			QuadBoxMode = TRUE;
1997:VS4210/keyremo.c **** 			BOX_SET_CHANNEL(SelectModeType, COCSelectModeType[SelectModeType]);
1998:VS4210/keyremo.c **** 
1999:VS4210/keyremo.c **** 			Printf("\r\n(QuadBoxMode==0)");
2000:VS4210/keyremo.c **** 		}
2001:VS4210/keyremo.c **** 		else if ((SelectModeType < 4) && (QuadBoxId & (1 << SelectModeType)) && (COCSelectModeType[Select
2002:VS4210/keyremo.c **** 		{
2003:VS4210/keyremo.c **** 			BOX_SELECT_CHANNEL(SelectModeType, UP);
2004:VS4210/keyremo.c **** 		}
2005:VS4210/keyremo.c **** 		else if (SelectModeType >= Maxsource)
2006:VS4210/keyremo.c **** 		{
2007:VS4210/keyremo.c **** 			QuadBoxMode = 0;
2008:VS4210/keyremo.c **** 			SelectModeType = CAM_A;
2009:VS4210/keyremo.c **** 		}
2010:VS4210/keyremo.c **** 		else
2011:VS4210/keyremo.c **** 		{
2012:VS4210/keyremo.c **** 			QuadBoxMode = 0;
2013:VS4210/keyremo.c **** 			SelectModeType++;
2014:VS4210/keyremo.c **** 		}
2015:VS4210/keyremo.c **** 
2016:VS4210/keyremo.c **** #endif
2017:VS4210/keyremo.c **** 	}
2018:VS4210/keyremo.c **** 	else
2019:VS4210/keyremo.c **** 	{
2020:VS4210/keyremo.c **** 		/*
2021:VS4210/keyremo.c **** 		if((SelectModeType<4)&&(QuadBoxId&(1<<SelectModeType))&&(QuadBoxMode==0))
2022:VS4210/keyremo.c **** 		{
2023:VS4210/keyremo.c **** 			COCSelectModeType[SelectModeType]=5;
2024:VS4210/keyremo.c **** 			QuadBoxMode=TRUE;
2025:VS4210/keyremo.c **** 			BOX_SET_CHANNEL(SelectModeType,COCSelectModeType[SelectModeType]);
2026:VS4210/keyremo.c **** 		}
2027:VS4210/keyremo.c **** 		else
2028:VS4210/keyremo.c **** 			*/
2029:VS4210/keyremo.c **** 		if ((SelectModeType < 4) && (QuadBoxId & (1 << SelectModeType)) && (COCSelectModeType[SelectModeT
 392              		.loc 1 2029 3 is_stmt 1 view .LVU69
 393              		.loc 1 2029 23 is_stmt 0 view .LVU70
 394 001a 624B     		ldr	r3, .L43+12
 395 001c 1878     		ldrb	r0, [r3]	@ zero_extendqisi2
 396              	.LVL24:
 397              		.loc 1 2029 6 view .LVU71
 398 001e 0328     		cmp	r0, #3
 399 0020 09D8     		bhi	.L26
 400              		.loc 1 2029 28 discriminator 1 view .LVU72
 401 0022 614B     		ldr	r3, .L43+16
 402 0024 1B78     		ldrb	r3, [r3]	@ zero_extendqisi2
 403 0026 0341     		asrs	r3, r3, r0
 404 0028 13F0010F 		tst	r3, #1
 405 002c 03D0     		beq	.L26
 406              		.loc 1 2029 88 discriminator 2 view .LVU73
 407 002e 5F4B     		ldr	r3, .L43+20
 408 0030 1B5C     		ldrb	r3, [r3, r0]	@ zero_extendqisi2
 409              		.loc 1 2029 67 discriminator 2 view .LVU74
 410 0032 012B     		cmp	r3, #1
 411 0034 68D1     		bne	.L37
ARM GAS  C:\Users\ryanc.HS\AppData\Local\Temp\ccZ9UySd.s 			page 44


 412              	.L26:
2030:VS4210/keyremo.c **** 		{
2031:VS4210/keyremo.c **** 			BOX_SELECT_CHANNEL(SelectModeType, DN);
2032:VS4210/keyremo.c **** 		}
2033:VS4210/keyremo.c **** 		else if (SelectModeType == 0)
 413              		.loc 1 2033 8 is_stmt 1 view .LVU75
 414              		.loc 1 2033 11 is_stmt 0 view .LVU76
 415 0036 0028     		cmp	r0, #0
 416 0038 6AD1     		bne	.L27
2034:VS4210/keyremo.c **** 		{
2035:VS4210/keyremo.c **** 			QuadBoxMode = 0;
 417              		.loc 1 2035 4 is_stmt 1 view .LVU77
 418              		.loc 1 2035 16 is_stmt 0 view .LVU78
 419 003a 5D4B     		ldr	r3, .L43+24
 420 003c 0022     		movs	r2, #0
 421 003e 1A70     		strb	r2, [r3]
2036:VS4210/keyremo.c **** 			SelectModeType = Maxsource;
 422              		.loc 1 2036 4 is_stmt 1 view .LVU79
 423              		.loc 1 2036 19 is_stmt 0 view .LVU80
 424 0040 584B     		ldr	r3, .L43+12
 425 0042 1970     		strb	r1, [r3]
 426              	.LVL25:
 427              	.L24:
2037:VS4210/keyremo.c **** 		}
2038:VS4210/keyremo.c **** 		else
2039:VS4210/keyremo.c **** 		{
2040:VS4210/keyremo.c **** 			QuadBoxMode = 0;
2041:VS4210/keyremo.c **** 			SelectModeType--;
2042:VS4210/keyremo.c **** 
2043:VS4210/keyremo.c **** 			if ((SelectModeType < 4) && (QuadBoxId & (1 << SelectModeType)) && (QuadBoxMode == 0))
2044:VS4210/keyremo.c **** 			{
2045:VS4210/keyremo.c **** 				COCSelectModeType[SelectModeType] = 5;
2046:VS4210/keyremo.c **** 				QuadBoxMode = TRUE;
2047:VS4210/keyremo.c **** 				BOX_SET_CHANNEL(SelectModeType, COCSelectModeType[SelectModeType]);
2048:VS4210/keyremo.c **** 			}
2049:VS4210/keyremo.c **** 		}
2050:VS4210/keyremo.c **** 	}
2051:VS4210/keyremo.c **** 
2052:VS4210/keyremo.c **** 	if (TouchResetSelectModeFlag == TRUE)
 428              		.loc 1 2052 2 is_stmt 1 view .LVU81
 429              		.loc 1 2052 31 is_stmt 0 view .LVU82
 430 0044 5B4B     		ldr	r3, .L43+28
 431 0046 1B78     		ldrb	r3, [r3]	@ zero_extendqisi2
 432              		.loc 1 2052 5 view .LVU83
 433 0048 012B     		cmp	r3, #1
 434 004a 00F09280 		beq	.L38
 435              	.L29:
2053:VS4210/keyremo.c **** 	{
2054:VS4210/keyremo.c **** 		for (i = 0; i < 4; i++)
2055:VS4210/keyremo.c **** 		{
2056:VS4210/keyremo.c **** 			if ((QuadBoxId & (1 << i)))
2057:VS4210/keyremo.c **** 			{
2058:VS4210/keyremo.c **** 				COCSelectModeType[i] = PreCOCSelectModeType[i];
2059:VS4210/keyremo.c **** 				SetCOCCom(_COCOSD_BOX_Sel, i);
2060:VS4210/keyremo.c **** 				SetCOCCom(_COCOSD_BOX_Channel_Sel, COCSelectModeType[i]);
2061:VS4210/keyremo.c **** 				Get_2824cIrq();
2062:VS4210/keyremo.c **** 			}
ARM GAS  C:\Users\ryanc.HS\AppData\Local\Temp\ccZ9UySd.s 			page 45


2063:VS4210/keyremo.c **** 		}
2064:VS4210/keyremo.c **** 
2065:VS4210/keyremo.c **** 		TouchResetSelectModeFlag = FALSE;
2066:VS4210/keyremo.c **** 		SelectModeType = TouchPreSelectModeType;
2067:VS4210/keyremo.c **** 	}
2068:VS4210/keyremo.c **** 
2069:VS4210/keyremo.c **** 	BackLightOFF();
 436              		.loc 1 2069 2 is_stmt 1 view .LVU84
 437 004e FFF7FEFF 		bl	BackLightOFF
 438              	.LVL26:
2070:VS4210/keyremo.c **** 
2071:VS4210/keyremo.c **** 	if ((SelectModeType < 4) && (Flisheye_CAM[SelectModeType] == TRUE))
 439              		.loc 1 2071 2 view .LVU85
 440              		.loc 1 2071 22 is_stmt 0 view .LVU86
 441 0052 544B     		ldr	r3, .L43+12
 442 0054 1978     		ldrb	r1, [r3]	@ zero_extendqisi2
 443              		.loc 1 2071 5 view .LVU87
 444 0056 0329     		cmp	r1, #3
 445 0058 04D8     		bhi	.L32
 446              		.loc 1 2071 43 discriminator 1 view .LVU88
 447 005a 574B     		ldr	r3, .L43+32
 448 005c 5B5C     		ldrb	r3, [r3, r1]	@ zero_extendqisi2
 449              		.loc 1 2071 27 discriminator 1 view .LVU89
 450 005e 012B     		cmp	r3, #1
 451 0060 00F09180 		beq	.L39
 452              	.L32:
2072:VS4210/keyremo.c **** 	{
2073:VS4210/keyremo.c **** 		SetCOCCom(_COCOSD_BOX_Sel, SelectModeType);
2074:VS4210/keyremo.c **** 		SetCOCCom(_COC_FLISHEYE_MODE1, Fisheye_no_save);
2075:VS4210/keyremo.c **** 	}
2076:VS4210/keyremo.c **** 
2077:VS4210/keyremo.c **** 	setloopoutmode(MainSetSelectMode[SelectModeType]);
 453              		.loc 1 2077 2 is_stmt 1 view .LVU90
 454              		.loc 1 2077 34 is_stmt 0 view .LVU91
 455 0064 4F4C     		ldr	r4, .L43+12
 456 0066 2378     		ldrb	r3, [r4]	@ zero_extendqisi2
 457 0068 544A     		ldr	r2, .L43+36
 458 006a D05C     		ldrb	r0, [r2, r3]	@ zero_extendqisi2
 459              		.loc 1 2077 2 view .LVU92
 460 006c FFF7FEFF 		bl	setloopoutmode
 461              	.LVL27:
2078:VS4210/keyremo.c **** 	OSDStateFlg = 1;
 462              		.loc 1 2078 2 is_stmt 1 view .LVU93
 463              		.loc 1 2078 14 is_stmt 0 view .LVU94
 464 0070 534B     		ldr	r3, .L43+40
 465 0072 0122     		movs	r2, #1
 466 0074 1A70     		strb	r2, [r3]
2079:VS4210/keyremo.c **** 
2080:VS4210/keyremo.c **** 	PreSelectModeType = 12;
 467              		.loc 1 2080 2 is_stmt 1 view .LVU95
 468              		.loc 1 2080 20 is_stmt 0 view .LVU96
 469 0076 534B     		ldr	r3, .L43+44
 470 0078 0C22     		movs	r2, #12
 471 007a 1A70     		strb	r2, [r3]
2081:VS4210/keyremo.c **** 
2082:VS4210/keyremo.c **** 	//	volatile
2083:VS4210/keyremo.c **** 
ARM GAS  C:\Users\ryanc.HS\AppData\Local\Temp\ccZ9UySd.s 			page 46


2084:VS4210/keyremo.c **** 	//   SetSourceMode(SelectModeType,Attr_A,Attr_B,Attr_C,Attr_R);
2085:VS4210/keyremo.c **** 
2086:VS4210/keyremo.c **** 	WriteEEP(EEP_SelectMode, SelectModeType);
 472              		.loc 1 2086 2 is_stmt 1 view .LVU97
 473 007c 2178     		ldrb	r1, [r4]	@ zero_extendqisi2
 474 007e B020     		movs	r0, #176
 475 0080 FFF7FEFF 		bl	WriteEEP
 476              	.LVL28:
2087:VS4210/keyremo.c **** 
2088:VS4210/keyremo.c **** 	WriteEEP(EEP_NowModeState, NowModeState);
 477              		.loc 1 2088 2 view .LVU98
 478 0084 454B     		ldr	r3, .L43+4
 479 0086 1978     		ldrb	r1, [r3]	@ zero_extendqisi2
 480 0088 AF20     		movs	r0, #175
 481 008a FFF7FEFF 		bl	WriteEEP
 482              	.LVL29:
2089:VS4210/keyremo.c **** 
2090:VS4210/keyremo.c **** 	BackLightON();
 483              		.loc 1 2090 2 view .LVU99
 484 008e FFF7FEFF 		bl	BackLightON
 485              	.LVL30:
2091:VS4210/keyremo.c **** 
2092:VS4210/keyremo.c **** 	// if (ReadEEP(EEP_COSDMode) == 1)
2093:VS4210/keyremo.c **** 	//	displayhold_flag = 3;
2094:VS4210/keyremo.c **** 	Printf("\r\nSelectModeType=%d", (WORD)SelectModeType);
 486              		.loc 1 2094 2 view .LVU100
 487 0092 2178     		ldrb	r1, [r4]	@ zero_extendqisi2
 488 0094 4C48     		ldr	r0, .L43+48
 489 0096 FFF7FEFF 		bl	Printf
 490              	.LVL31:
2095:VS4210/keyremo.c **** }
 491              		.loc 1 2095 1 is_stmt 0 view .LVU101
 492 009a 38BD     		pop	{r3, r4, r5, pc}
 493              	.LVL32:
 494              	.L33:
1945:VS4210/keyremo.c **** 
 495              		.loc 1 1945 13 view .LVU102
 496 009c 0C21     		movs	r1, #12
 497 009e B5E7     		b	.L21
 498              	.LVL33:
 499              	.L36:
1968:VS4210/keyremo.c **** 		{
 500              		.loc 1 1968 3 is_stmt 1 view .LVU103
1968:VS4210/keyremo.c **** 		{
 501              		.loc 1 1968 23 is_stmt 0 view .LVU104
 502 00a0 404B     		ldr	r3, .L43+12
 503 00a2 1878     		ldrb	r0, [r3]	@ zero_extendqisi2
 504              	.LVL34:
1968:VS4210/keyremo.c **** 		{
 505              		.loc 1 1968 6 view .LVU105
 506 00a4 0328     		cmp	r0, #3
 507 00a6 09D8     		bhi	.L23
1968:VS4210/keyremo.c **** 		{
 508              		.loc 1 1968 28 discriminator 1 view .LVU106
 509 00a8 3F4B     		ldr	r3, .L43+16
 510 00aa 1B78     		ldrb	r3, [r3]	@ zero_extendqisi2
 511 00ac 0341     		asrs	r3, r3, r0
ARM GAS  C:\Users\ryanc.HS\AppData\Local\Temp\ccZ9UySd.s 			page 47


 512 00ae 13F0010F 		tst	r3, #1
 513 00b2 03D0     		beq	.L23
1968:VS4210/keyremo.c **** 		{
 514              		.loc 1 1968 88 discriminator 2 view .LVU107
 515 00b4 3D4B     		ldr	r3, .L43+20
 516 00b6 1B5C     		ldrb	r3, [r3, r0]	@ zero_extendqisi2
1968:VS4210/keyremo.c **** 		{
 517              		.loc 1 1968 67 discriminator 2 view .LVU108
 518 00b8 052B     		cmp	r3, #5
 519 00ba 07D1     		bne	.L40
 520              	.L23:
1972:VS4210/keyremo.c **** 		{
 521              		.loc 1 1972 8 is_stmt 1 view .LVU109
1972:VS4210/keyremo.c **** 		{
 522              		.loc 1 1972 11 is_stmt 0 view .LVU110
 523 00bc 8842     		cmp	r0, r1
 524 00be 09D3     		bcc	.L25
1974:VS4210/keyremo.c **** 			SelectModeType = CAM_A;
 525              		.loc 1 1974 4 is_stmt 1 view .LVU111
1974:VS4210/keyremo.c **** 			SelectModeType = CAM_A;
 526              		.loc 1 1974 16 is_stmt 0 view .LVU112
 527 00c0 0023     		movs	r3, #0
 528 00c2 3B4A     		ldr	r2, .L43+24
 529 00c4 1370     		strb	r3, [r2]
1975:VS4210/keyremo.c **** 		}
 530              		.loc 1 1975 4 is_stmt 1 view .LVU113
1975:VS4210/keyremo.c **** 		}
 531              		.loc 1 1975 19 is_stmt 0 view .LVU114
 532 00c6 374A     		ldr	r2, .L43+12
 533 00c8 1370     		strb	r3, [r2]
 534 00ca BBE7     		b	.L24
 535              	.L40:
1970:VS4210/keyremo.c **** 		}
 536              		.loc 1 1970 4 is_stmt 1 view .LVU115
 537 00cc 0121     		movs	r1, #1
 538              	.LVL35:
1970:VS4210/keyremo.c **** 		}
 539              		.loc 1 1970 4 is_stmt 0 view .LVU116
 540 00ce FFF7FEFF 		bl	BOX_SELECT_CHANNEL
 541              	.LVL36:
 542 00d2 B7E7     		b	.L24
 543              	.LVL37:
 544              	.L25:
1979:VS4210/keyremo.c **** 			SelectModeType++;
 545              		.loc 1 1979 4 is_stmt 1 view .LVU117
1979:VS4210/keyremo.c **** 			SelectModeType++;
 546              		.loc 1 1979 16 is_stmt 0 view .LVU118
 547 00d4 364B     		ldr	r3, .L43+24
 548 00d6 0022     		movs	r2, #0
 549 00d8 1A70     		strb	r2, [r3]
1980:VS4210/keyremo.c **** 
 550              		.loc 1 1980 4 is_stmt 1 view .LVU119
1980:VS4210/keyremo.c **** 
 551              		.loc 1 1980 18 is_stmt 0 view .LVU120
 552 00da 0130     		adds	r0, r0, #1
 553 00dc C0B2     		uxtb	r0, r0
 554 00de 314B     		ldr	r3, .L43+12
ARM GAS  C:\Users\ryanc.HS\AppData\Local\Temp\ccZ9UySd.s 			page 48


 555 00e0 1870     		strb	r0, [r3]
1982:VS4210/keyremo.c **** 			{
 556              		.loc 1 1982 4 is_stmt 1 view .LVU121
1982:VS4210/keyremo.c **** 			{
 557              		.loc 1 1982 7 is_stmt 0 view .LVU122
 558 00e2 0328     		cmp	r0, #3
 559 00e4 AED8     		bhi	.L24
1982:VS4210/keyremo.c **** 			{
 560              		.loc 1 1982 29 discriminator 1 view .LVU123
 561 00e6 304B     		ldr	r3, .L43+16
 562 00e8 1B78     		ldrb	r3, [r3]	@ zero_extendqisi2
 563 00ea 0341     		asrs	r3, r3, r0
 564 00ec 13F0010F 		tst	r3, #1
 565 00f0 A8D0     		beq	.L24
1984:VS4210/keyremo.c **** 				QuadBoxMode = TRUE;
 566              		.loc 1 1984 5 is_stmt 1 view .LVU124
1984:VS4210/keyremo.c **** 				QuadBoxMode = TRUE;
 567              		.loc 1 1984 39 is_stmt 0 view .LVU125
 568 00f2 0121     		movs	r1, #1
 569              	.LVL38:
1984:VS4210/keyremo.c **** 				QuadBoxMode = TRUE;
 570              		.loc 1 1984 39 view .LVU126
 571 00f4 2D4B     		ldr	r3, .L43+20
 572 00f6 1954     		strb	r1, [r3, r0]
1985:VS4210/keyremo.c **** 				BOX_SET_CHANNEL(SelectModeType, COCSelectModeType[SelectModeType]);
 573              		.loc 1 1985 5 is_stmt 1 view .LVU127
1985:VS4210/keyremo.c **** 				BOX_SET_CHANNEL(SelectModeType, COCSelectModeType[SelectModeType]);
 574              		.loc 1 1985 17 is_stmt 0 view .LVU128
 575 00f8 2D4B     		ldr	r3, .L43+24
 576 00fa 1970     		strb	r1, [r3]
1986:VS4210/keyremo.c **** 
 577              		.loc 1 1986 5 is_stmt 1 view .LVU129
 578 00fc FFF7FEFF 		bl	BOX_SET_CHANNEL
 579              	.LVL39:
1988:VS4210/keyremo.c **** 			}
 580              		.loc 1 1988 5 view .LVU130
 581 0100 3248     		ldr	r0, .L43+52
 582 0102 FFF7FEFF 		bl	Printf
 583              	.LVL40:
 584 0106 9DE7     		b	.L24
 585              	.LVL41:
 586              	.L37:
2031:VS4210/keyremo.c **** 		}
 587              		.loc 1 2031 4 view .LVU131
 588 0108 0221     		movs	r1, #2
 589              	.LVL42:
2031:VS4210/keyremo.c **** 		}
 590              		.loc 1 2031 4 is_stmt 0 view .LVU132
 591 010a FFF7FEFF 		bl	BOX_SELECT_CHANNEL
 592              	.LVL43:
 593 010e 99E7     		b	.L24
 594              	.LVL44:
 595              	.L27:
2040:VS4210/keyremo.c **** 			SelectModeType--;
 596              		.loc 1 2040 4 is_stmt 1 view .LVU133
2040:VS4210/keyremo.c **** 			SelectModeType--;
 597              		.loc 1 2040 16 is_stmt 0 view .LVU134
ARM GAS  C:\Users\ryanc.HS\AppData\Local\Temp\ccZ9UySd.s 			page 49


 598 0110 274B     		ldr	r3, .L43+24
 599 0112 0022     		movs	r2, #0
 600 0114 1A70     		strb	r2, [r3]
2041:VS4210/keyremo.c **** 
 601              		.loc 1 2041 4 is_stmt 1 view .LVU135
2041:VS4210/keyremo.c **** 
 602              		.loc 1 2041 18 is_stmt 0 view .LVU136
 603 0116 0138     		subs	r0, r0, #1
 604 0118 C0B2     		uxtb	r0, r0
 605 011a 224B     		ldr	r3, .L43+12
 606 011c 1870     		strb	r0, [r3]
2043:VS4210/keyremo.c **** 			{
 607              		.loc 1 2043 4 is_stmt 1 view .LVU137
2043:VS4210/keyremo.c **** 			{
 608              		.loc 1 2043 7 is_stmt 0 view .LVU138
 609 011e 0328     		cmp	r0, #3
 610 0120 90D8     		bhi	.L24
2043:VS4210/keyremo.c **** 			{
 611              		.loc 1 2043 29 discriminator 1 view .LVU139
 612 0122 214B     		ldr	r3, .L43+16
 613 0124 1B78     		ldrb	r3, [r3]	@ zero_extendqisi2
 614 0126 0341     		asrs	r3, r3, r0
 615 0128 13F0010F 		tst	r3, #1
 616 012c 8AD0     		beq	.L24
2045:VS4210/keyremo.c **** 				QuadBoxMode = TRUE;
 617              		.loc 1 2045 5 is_stmt 1 view .LVU140
2045:VS4210/keyremo.c **** 				QuadBoxMode = TRUE;
 618              		.loc 1 2045 39 is_stmt 0 view .LVU141
 619 012e 0521     		movs	r1, #5
 620              	.LVL45:
2045:VS4210/keyremo.c **** 				QuadBoxMode = TRUE;
 621              		.loc 1 2045 39 view .LVU142
 622 0130 1E4B     		ldr	r3, .L43+20
 623 0132 1954     		strb	r1, [r3, r0]
2046:VS4210/keyremo.c **** 				BOX_SET_CHANNEL(SelectModeType, COCSelectModeType[SelectModeType]);
 624              		.loc 1 2046 5 is_stmt 1 view .LVU143
2046:VS4210/keyremo.c **** 				BOX_SET_CHANNEL(SelectModeType, COCSelectModeType[SelectModeType]);
 625              		.loc 1 2046 17 is_stmt 0 view .LVU144
 626 0134 1E4B     		ldr	r3, .L43+24
 627 0136 0122     		movs	r2, #1
 628 0138 1A70     		strb	r2, [r3]
2047:VS4210/keyremo.c **** 			}
 629              		.loc 1 2047 5 is_stmt 1 view .LVU145
 630 013a FFF7FEFF 		bl	BOX_SET_CHANNEL
 631              	.LVL46:
 632 013e 81E7     		b	.L24
 633              	.LVL47:
 634              	.L42:
2058:VS4210/keyremo.c **** 				SetCOCCom(_COCOSD_BOX_Sel, i);
 635              		.loc 1 2058 5 view .LVU146
2058:VS4210/keyremo.c **** 				SetCOCCom(_COCOSD_BOX_Sel, i);
 636              		.loc 1 2058 48 is_stmt 0 view .LVU147
 637 0140 234B     		ldr	r3, .L43+56
 638 0142 1B5D     		ldrb	r3, [r3, r4]	@ zero_extendqisi2
2058:VS4210/keyremo.c **** 				SetCOCCom(_COCOSD_BOX_Sel, i);
 639              		.loc 1 2058 26 view .LVU148
 640 0144 194D     		ldr	r5, .L43+20
ARM GAS  C:\Users\ryanc.HS\AppData\Local\Temp\ccZ9UySd.s 			page 50


 641 0146 2B55     		strb	r3, [r5, r4]
2059:VS4210/keyremo.c **** 				SetCOCCom(_COCOSD_BOX_Channel_Sel, COCSelectModeType[i]);
 642              		.loc 1 2059 5 is_stmt 1 view .LVU149
 643 0148 2146     		mov	r1, r4
 644 014a 1920     		movs	r0, #25
 645 014c FFF7FEFF 		bl	SetCOCCom
 646              	.LVL48:
2060:VS4210/keyremo.c **** 				Get_2824cIrq();
 647              		.loc 1 2060 5 view .LVU150
 648 0150 295D     		ldrb	r1, [r5, r4]	@ zero_extendqisi2
 649 0152 1A20     		movs	r0, #26
 650 0154 FFF7FEFF 		bl	SetCOCCom
 651              	.LVL49:
2061:VS4210/keyremo.c **** 			}
 652              		.loc 1 2061 5 view .LVU151
 653 0158 FFF7FEFF 		bl	Get_2824cIrq
 654              	.LVL50:
 655              	.L30:
2054:VS4210/keyremo.c **** 		{
 656              		.loc 1 2054 22 discriminator 2 view .LVU152
2054:VS4210/keyremo.c **** 		{
 657              		.loc 1 2054 23 is_stmt 0 discriminator 2 view .LVU153
 658 015c 0134     		adds	r4, r4, #1
 659              	.LVL51:
2054:VS4210/keyremo.c **** 		{
 660              		.loc 1 2054 23 discriminator 2 view .LVU154
 661 015e E4B2     		uxtb	r4, r4
 662              	.LVL52:
 663              	.L28:
2054:VS4210/keyremo.c **** 		{
 664              		.loc 1 2054 15 is_stmt 1 discriminator 1 view .LVU155
2054:VS4210/keyremo.c **** 		{
 665              		.loc 1 2054 3 is_stmt 0 discriminator 1 view .LVU156
 666 0160 032C     		cmp	r4, #3
 667 0162 08D8     		bhi	.L41
2056:VS4210/keyremo.c **** 			{
 668              		.loc 1 2056 4 is_stmt 1 view .LVU157
2056:VS4210/keyremo.c **** 			{
 669              		.loc 1 2056 8 is_stmt 0 view .LVU158
 670 0164 104B     		ldr	r3, .L43+16
 671 0166 1B78     		ldrb	r3, [r3]	@ zero_extendqisi2
 672 0168 2341     		asrs	r3, r3, r4
2056:VS4210/keyremo.c **** 			{
 673              		.loc 1 2056 7 view .LVU159
 674 016a 13F0010F 		tst	r3, #1
 675 016e F5D0     		beq	.L30
 676 0170 E6E7     		b	.L42
 677              	.LVL53:
 678              	.L38:
2054:VS4210/keyremo.c **** 		{
 679              		.loc 1 2054 10 view .LVU160
 680 0172 0024     		movs	r4, #0
 681 0174 F4E7     		b	.L28
 682              	.LVL54:
 683              	.L41:
2065:VS4210/keyremo.c **** 		SelectModeType = TouchPreSelectModeType;
 684              		.loc 1 2065 3 is_stmt 1 view .LVU161
ARM GAS  C:\Users\ryanc.HS\AppData\Local\Temp\ccZ9UySd.s 			page 51


2065:VS4210/keyremo.c **** 		SelectModeType = TouchPreSelectModeType;
 685              		.loc 1 2065 28 is_stmt 0 view .LVU162
 686 0176 0F4B     		ldr	r3, .L43+28
 687 0178 0022     		movs	r2, #0
 688 017a 1A70     		strb	r2, [r3]
2066:VS4210/keyremo.c **** 	}
 689              		.loc 1 2066 3 is_stmt 1 view .LVU163
2066:VS4210/keyremo.c **** 	}
 690              		.loc 1 2066 18 is_stmt 0 view .LVU164
 691 017c 154B     		ldr	r3, .L43+60
 692 017e 1A78     		ldrb	r2, [r3]	@ zero_extendqisi2
 693 0180 084B     		ldr	r3, .L43+12
 694 0182 1A70     		strb	r2, [r3]
 695 0184 63E7     		b	.L29
 696              	.LVL55:
 697              	.L39:
2073:VS4210/keyremo.c **** 		SetCOCCom(_COC_FLISHEYE_MODE1, Fisheye_no_save);
 698              		.loc 1 2073 3 is_stmt 1 view .LVU165
 699 0186 1920     		movs	r0, #25
 700 0188 FFF7FEFF 		bl	SetCOCCom
 701              	.LVL56:
2074:VS4210/keyremo.c **** 	}
 702              		.loc 1 2074 3 view .LVU166
 703 018c 0021     		movs	r1, #0
 704 018e 1B20     		movs	r0, #27
 705 0190 FFF7FEFF 		bl	SetCOCCom
 706              	.LVL57:
 707 0194 66E7     		b	.L32
 708              	.L44:
 709 0196 00BF     		.align	2
 710              	.L43:
 711 0198 00000000 		.word	Priority
 712 019c 00000000 		.word	NowModeState
 713 01a0 00000000 		.word	.LANCHOR1
 714 01a4 00000000 		.word	SelectModeType
 715 01a8 00000000 		.word	QuadBoxId
 716 01ac 00000000 		.word	COCSelectModeType
 717 01b0 00000000 		.word	QuadBoxMode
 718 01b4 00000000 		.word	.LANCHOR2
 719 01b8 00000000 		.word	Flisheye_CAM
 720 01bc 00000000 		.word	.LANCHOR4
 721 01c0 00000000 		.word	OSDStateFlg
 722 01c4 00000000 		.word	PreSelectModeType
 723 01c8 14000000 		.word	.LC3
 724 01cc 00000000 		.word	.LC2
 725 01d0 00000000 		.word	PreCOCSelectModeType
 726 01d4 00000000 		.word	.LANCHOR3
 727              		.cfi_endproc
 728              	.LFE80:
 730              		.section	.rodata.TouchSetSelectMode.str1.4,"aMS",%progbits,1
 731              		.align	2
 732              	.LC5:
 733 0000 0D0A546F 		.ascii	"\015\012TouchSelectModeType=%d\000"
 733      75636853 
 733      656C6563 
 733      744D6F64 
 733      65547970 
ARM GAS  C:\Users\ryanc.HS\AppData\Local\Temp\ccZ9UySd.s 			page 52


 734              		.section	.text.TouchSetSelectMode,"ax",%progbits
 735              		.align	1
 736              		.global	TouchSetSelectMode
 737              		.syntax unified
 738              		.thumb
 739              		.thumb_func
 740              		.fpu softvfp
 742              	TouchSetSelectMode:
 743              	.LVL58:
 744              	.LFB81:
2096:VS4210/keyremo.c **** 
2097:VS4210/keyremo.c **** void TouchSetSelectMode(BYTE index)
2098:VS4210/keyremo.c **** {
 745              		.loc 1 2098 1 view -0
 746              		.cfi_startproc
 747              		@ args = 0, pretend = 0, frame = 16
 748              		@ frame_needed = 0, uses_anonymous_args = 0
 749              		.loc 1 2098 1 is_stmt 0 view .LVU168
 750 0000 30B5     		push	{r4, r5, lr}
 751              	.LCFI3:
 752              		.cfi_def_cfa_offset 12
 753              		.cfi_offset 4, -12
 754              		.cfi_offset 5, -8
 755              		.cfi_offset 14, -4
 756 0002 85B0     		sub	sp, sp, #20
 757              	.LCFI4:
 758              		.cfi_def_cfa_offset 32
 759 0004 0446     		mov	r4, r0
2099:VS4210/keyremo.c **** 
2100:VS4210/keyremo.c **** 	BYTE Mirror_addr[16] = {3, 2, 1, 0, 7, 6, 5, 4, 11, 10, 9, 8, 15, 14, 13, 12}, i;
 760              		.loc 1 2100 2 is_stmt 1 view .LVU169
 761              		.loc 1 2100 7 is_stmt 0 view .LVU170
 762 0006 784B     		ldr	r3, .L69
 763 0008 0FCB     		ldm	r3, {r0, r1, r2, r3}
 764              	.LVL59:
 765              		.loc 1 2100 7 view .LVU171
 766 000a 04AD     		add	r5, sp, #16
 767 000c 05E90F00 		stmdb	r5, {r0, r1, r2, r3}
2101:VS4210/keyremo.c **** 	// LCDPowerOFF();
2102:VS4210/keyremo.c **** 	// MCUTimerActiveTimerEvent(SEC(_BACKLIGHT_ON_Time_out),  _USER_TIMER_EVENT_PANEL_BACKLIGHT_ON);
2103:VS4210/keyremo.c **** 	BackLightOFF();
 768              		.loc 1 2103 2 is_stmt 1 view .LVU172
 769 0010 FFF7FEFF 		bl	BackLightOFF
 770              	.LVL60:
2104:VS4210/keyremo.c **** 	//	MCUTimerActiveTimerEvent(SEC(_ONLY_BACKLIGHT_ON_Time_out),  _USER_TIMER_EVENT_BACKLIGHT_ON);
2105:VS4210/keyremo.c **** 
2106:VS4210/keyremo.c **** 	if (GetDisplayedOSD() & (MENU | TVVOL))
 771              		.loc 1 2106 2 view .LVU173
 772              		.loc 1 2106 6 is_stmt 0 view .LVU174
 773 0014 FFF7FEFF 		bl	GetDisplayedOSD
 774              	.LVL61:
 775              		.loc 1 2106 5 view .LVU175
 776 0018 10F0060F 		tst	r0, #6
 777 001c 38D1     		bne	.L64
 778              	.L46:
2107:VS4210/keyremo.c **** 		CloseOSDMenu();
2108:VS4210/keyremo.c **** 
ARM GAS  C:\Users\ryanc.HS\AppData\Local\Temp\ccZ9UySd.s 			page 53


2109:VS4210/keyremo.c **** 	//		 setloopoutmode(MainSetSelectMode[SelectModeType]);
2110:VS4210/keyremo.c **** 
2111:VS4210/keyremo.c **** 	if (SelectModeType > 3)
 779              		.loc 1 2111 2 is_stmt 1 view .LVU176
 780              		.loc 1 2111 21 is_stmt 0 view .LVU177
 781 001e 734B     		ldr	r3, .L69+4
 782 0020 1978     		ldrb	r1, [r3]	@ zero_extendqisi2
 783              		.loc 1 2111 5 view .LVU178
 784 0022 0329     		cmp	r1, #3
 785 0024 40F2AB80 		bls	.L47
2112:VS4210/keyremo.c **** 	{
2113:VS4210/keyremo.c **** 
2114:VS4210/keyremo.c **** 		PreSelectModeType = SelectModeType; // save state
 786              		.loc 1 2114 3 is_stmt 1 view .LVU179
 787              		.loc 1 2114 21 is_stmt 0 view .LVU180
 788 0028 714B     		ldr	r3, .L69+8
 789 002a 1970     		strb	r1, [r3]
2115:VS4210/keyremo.c **** 		SelectModeType = (MainTouchSetSelectMode[SelectModeType][index] & 0x0F);
 790              		.loc 1 2115 3 is_stmt 1 view .LVU181
 791              		.loc 1 2115 59 is_stmt 0 view .LVU182
 792 002c 714B     		ldr	r3, .L69+12
 793 002e 03EB0113 		add	r3, r3, r1, lsl #4
 794 0032 1B5D     		ldrb	r3, [r3, r4]	@ zero_extendqisi2
 795              		.loc 1 2115 67 view .LVU183
 796 0034 03F00F03 		and	r3, r3, #15
 797              		.loc 1 2115 18 view .LVU184
 798 0038 6C4A     		ldr	r2, .L69+4
 799 003a 1370     		strb	r3, [r2]
2116:VS4210/keyremo.c **** 
2117:VS4210/keyremo.c **** 		if (TouchResetSelectModeFlag == TRUE)
 800              		.loc 1 2117 3 is_stmt 1 view .LVU185
 801              		.loc 1 2117 32 is_stmt 0 view .LVU186
 802 003c 6E4A     		ldr	r2, .L69+16
 803 003e 1278     		ldrb	r2, [r2]	@ zero_extendqisi2
 804              		.loc 1 2117 6 view .LVU187
 805 0040 012A     		cmp	r2, #1
 806 0042 28D0     		beq	.L65
 807              	.L48:
2118:VS4210/keyremo.c **** 		{
2119:VS4210/keyremo.c **** 			if ((QuadBoxId & (1 << SelectModeType)) && (COCSelectModeType[SelectModeType] == 5))
2120:VS4210/keyremo.c **** 			{
2121:VS4210/keyremo.c **** 				switch (SelectModeType)
2122:VS4210/keyremo.c **** 				{
2123:VS4210/keyremo.c **** 				case 0:
2124:VS4210/keyremo.c **** 					if (CAMA_M)
2125:VS4210/keyremo.c **** 						BOX_SET_CHANNEL(SelectModeType, ((MainTouchSetSelectMode[PreSelectModeType][Mirror_addr[index
2126:VS4210/keyremo.c **** 					else
2127:VS4210/keyremo.c **** 						BOX_SET_CHANNEL(SelectModeType, ((MainTouchSetSelectMode[PreSelectModeType][index] & 0xF0) >>
2128:VS4210/keyremo.c **** 
2129:VS4210/keyremo.c **** 					break;
2130:VS4210/keyremo.c **** 				case 1:
2131:VS4210/keyremo.c **** 					if (CAMB_M)
2132:VS4210/keyremo.c **** 						BOX_SET_CHANNEL(SelectModeType, ((MainTouchSetSelectMode[PreSelectModeType][Mirror_addr[index
2133:VS4210/keyremo.c **** 					else
2134:VS4210/keyremo.c **** 						BOX_SET_CHANNEL(SelectModeType, ((MainTouchSetSelectMode[PreSelectModeType][index] & 0xF0) >>
2135:VS4210/keyremo.c **** 
2136:VS4210/keyremo.c **** 					break;
ARM GAS  C:\Users\ryanc.HS\AppData\Local\Temp\ccZ9UySd.s 			page 54


2137:VS4210/keyremo.c **** 				case 2:
2138:VS4210/keyremo.c **** 					if (CAMC_M)
2139:VS4210/keyremo.c **** 						BOX_SET_CHANNEL(SelectModeType, ((MainTouchSetSelectMode[PreSelectModeType][Mirror_addr[index
2140:VS4210/keyremo.c **** 					else
2141:VS4210/keyremo.c **** 						BOX_SET_CHANNEL(SelectModeType, ((MainTouchSetSelectMode[PreSelectModeType][index] & 0xF0) >>
2142:VS4210/keyremo.c **** 
2143:VS4210/keyremo.c **** 					break;
2144:VS4210/keyremo.c **** 				case 3:
2145:VS4210/keyremo.c **** 					if (CAMR_M)
2146:VS4210/keyremo.c **** 						BOX_SET_CHANNEL(SelectModeType, ((MainTouchSetSelectMode[PreSelectModeType][Mirror_addr[index
2147:VS4210/keyremo.c **** 					else
2148:VS4210/keyremo.c **** 						BOX_SET_CHANNEL(SelectModeType, ((MainTouchSetSelectMode[PreSelectModeType][index] & 0xF0) >>
2149:VS4210/keyremo.c **** 				}
2150:VS4210/keyremo.c **** 			}
2151:VS4210/keyremo.c **** 		}
2152:VS4210/keyremo.c **** 	}
2153:VS4210/keyremo.c **** 	else
2154:VS4210/keyremo.c **** 	{
2155:VS4210/keyremo.c **** 
2156:VS4210/keyremo.c **** 		SelectModeType = PreSelectModeType;
2157:VS4210/keyremo.c **** 
2158:VS4210/keyremo.c **** 		if (TouchResetSelectModeFlag == TRUE)
2159:VS4210/keyremo.c **** 		{
2160:VS4210/keyremo.c **** 			for (i = 0; i < 4; i++)
2161:VS4210/keyremo.c **** 			{
2162:VS4210/keyremo.c **** 				if ((QuadBoxId & (1 << i)))
2163:VS4210/keyremo.c **** 				{
2164:VS4210/keyremo.c **** 					COCSelectModeType[i] = PreCOCSelectModeType[i];
2165:VS4210/keyremo.c **** 					SetCOCCom(_COCOSD_BOX_Sel, i);
2166:VS4210/keyremo.c **** 					SetCOCCom(_COCOSD_BOX_Channel_Sel, COCSelectModeType[i]);
2167:VS4210/keyremo.c **** 					Get_2824cIrq();
2168:VS4210/keyremo.c **** 				}
2169:VS4210/keyremo.c **** 			}
2170:VS4210/keyremo.c **** 
2171:VS4210/keyremo.c **** 			TouchResetSelectModeFlag = FALSE;
2172:VS4210/keyremo.c **** 			SelectModeType = TouchPreSelectModeType;
2173:VS4210/keyremo.c **** 		}
2174:VS4210/keyremo.c **** 	}
2175:VS4210/keyremo.c **** 
2176:VS4210/keyremo.c **** 	//	 SetCOCCom(_COCOSD_BOXONLINE,SelectModeType);
2177:VS4210/keyremo.c **** 	//	 Get_2824cIrq();
2178:VS4210/keyremo.c **** 
2179:VS4210/keyremo.c **** 	if ((SelectModeType < 4) && (Flisheye_CAM[SelectModeType] == TRUE))
 808              		.loc 1 2179 2 is_stmt 1 view .LVU188
 809              		.loc 1 2179 22 is_stmt 0 view .LVU189
 810 0044 694B     		ldr	r3, .L69+4
 811 0046 1978     		ldrb	r1, [r3]	@ zero_extendqisi2
 812              		.loc 1 2179 5 view .LVU190
 813 0048 0329     		cmp	r1, #3
 814 004a 04D8     		bhi	.L61
 815              		.loc 1 2179 43 discriminator 1 view .LVU191
 816 004c 6B4B     		ldr	r3, .L69+20
 817 004e 5B5C     		ldrb	r3, [r3, r1]	@ zero_extendqisi2
 818              		.loc 1 2179 27 discriminator 1 view .LVU192
 819 0050 012B     		cmp	r3, #1
 820 0052 00F0C080 		beq	.L66
 821              	.L61:
ARM GAS  C:\Users\ryanc.HS\AppData\Local\Temp\ccZ9UySd.s 			page 55


2180:VS4210/keyremo.c **** 	{
2181:VS4210/keyremo.c **** 		SetCOCCom(_COCOSD_BOX_Sel, SelectModeType);
2182:VS4210/keyremo.c **** 		SetCOCCom(_COC_FLISHEYE_MODE1, Fisheye_no_save);
2183:VS4210/keyremo.c **** 	}
2184:VS4210/keyremo.c **** 	// else
2185:VS4210/keyremo.c **** 	//	Printf("\r\n2TouchSelectModeType=%d",(WORD)SelectModeType);
2186:VS4210/keyremo.c **** 
2187:VS4210/keyremo.c **** 	setloopoutmode(MainSetSelectMode[SelectModeType]);
 822              		.loc 1 2187 2 is_stmt 1 view .LVU193
 823              		.loc 1 2187 34 is_stmt 0 view .LVU194
 824 0056 654C     		ldr	r4, .L69+4
 825 0058 2378     		ldrb	r3, [r4]	@ zero_extendqisi2
 826 005a 694A     		ldr	r2, .L69+24
 827 005c D05C     		ldrb	r0, [r2, r3]	@ zero_extendqisi2
 828              		.loc 1 2187 2 view .LVU195
 829 005e FFF7FEFF 		bl	setloopoutmode
 830              	.LVL62:
2188:VS4210/keyremo.c **** 
2189:VS4210/keyremo.c **** 	OSDStateFlg = 1;
 831              		.loc 1 2189 2 is_stmt 1 view .LVU196
 832              		.loc 1 2189 14 is_stmt 0 view .LVU197
 833 0062 684B     		ldr	r3, .L69+28
 834 0064 0122     		movs	r2, #1
 835 0066 1A70     		strb	r2, [r3]
2190:VS4210/keyremo.c **** 
2191:VS4210/keyremo.c **** 	WriteEEP(EEP_SelectMode, SelectModeType);
 836              		.loc 1 2191 2 is_stmt 1 view .LVU198
 837 0068 2178     		ldrb	r1, [r4]	@ zero_extendqisi2
 838 006a B020     		movs	r0, #176
 839 006c FFF7FEFF 		bl	WriteEEP
 840              	.LVL63:
2192:VS4210/keyremo.c **** 	WriteEEP(EEP_NowModeState, NowModeState);
 841              		.loc 1 2192 2 view .LVU199
 842 0070 654B     		ldr	r3, .L69+32
 843 0072 1978     		ldrb	r1, [r3]	@ zero_extendqisi2
 844 0074 AF20     		movs	r0, #175
 845 0076 FFF7FEFF 		bl	WriteEEP
 846              	.LVL64:
2193:VS4210/keyremo.c **** 
2194:VS4210/keyremo.c **** 	QuadBoxMode = 0;
 847              		.loc 1 2194 2 view .LVU200
 848              		.loc 1 2194 14 is_stmt 0 view .LVU201
 849 007a 644B     		ldr	r3, .L69+36
 850 007c 0022     		movs	r2, #0
 851 007e 1A70     		strb	r2, [r3]
2195:VS4210/keyremo.c **** 
2196:VS4210/keyremo.c **** 	BackLightON();
 852              		.loc 1 2196 2 is_stmt 1 view .LVU202
 853 0080 FFF7FEFF 		bl	BackLightON
 854              	.LVL65:
2197:VS4210/keyremo.c **** 	Printf("\r\nTouchSelectModeType=%d", (WORD)SelectModeType);
 855              		.loc 1 2197 2 view .LVU203
 856 0084 2178     		ldrb	r1, [r4]	@ zero_extendqisi2
 857 0086 6248     		ldr	r0, .L69+40
 858 0088 FFF7FEFF 		bl	Printf
 859              	.LVL66:
2198:VS4210/keyremo.c **** }
ARM GAS  C:\Users\ryanc.HS\AppData\Local\Temp\ccZ9UySd.s 			page 56


 860              		.loc 1 2198 1 is_stmt 0 view .LVU204
 861 008c 05B0     		add	sp, sp, #20
 862              	.LCFI5:
 863              		.cfi_remember_state
 864              		.cfi_def_cfa_offset 12
 865              		@ sp needed
 866 008e 30BD     		pop	{r4, r5, pc}
 867              	.L64:
 868              	.LCFI6:
 869              		.cfi_restore_state
2107:VS4210/keyremo.c **** 
 870              		.loc 1 2107 3 is_stmt 1 view .LVU205
 871 0090 FFF7FEFF 		bl	CloseOSDMenu
 872              	.LVL67:
 873 0094 C3E7     		b	.L46
 874              	.L65:
2119:VS4210/keyremo.c **** 			{
 875              		.loc 1 2119 4 view .LVU206
2119:VS4210/keyremo.c **** 			{
 876              		.loc 1 2119 8 is_stmt 0 view .LVU207
 877 0096 5F4A     		ldr	r2, .L69+44
 878 0098 1278     		ldrb	r2, [r2]	@ zero_extendqisi2
 879 009a 1A41     		asrs	r2, r2, r3
2119:VS4210/keyremo.c **** 			{
 880              		.loc 1 2119 7 view .LVU208
 881 009c 12F0010F 		tst	r2, #1
 882 00a0 D0D0     		beq	.L48
2119:VS4210/keyremo.c **** 			{
 883              		.loc 1 2119 65 discriminator 1 view .LVU209
 884 00a2 5D4A     		ldr	r2, .L69+48
 885 00a4 D25C     		ldrb	r2, [r2, r3]	@ zero_extendqisi2
2119:VS4210/keyremo.c **** 			{
 886              		.loc 1 2119 44 discriminator 1 view .LVU210
 887 00a6 052A     		cmp	r2, #5
 888 00a8 CCD1     		bne	.L48
2121:VS4210/keyremo.c **** 				{
 889              		.loc 1 2121 5 is_stmt 1 view .LVU211
 890 00aa 032B     		cmp	r3, #3
 891 00ac CAD8     		bhi	.L48
 892 00ae DFE803F0 		tbb	[pc, r3]
 893              	.L50:
 894 00b2 02       		.byte	(.L53-.L50)/2
 895 00b3 1B       		.byte	(.L52-.L50)/2
 896 00b4 34       		.byte	(.L51-.L50)/2
 897 00b5 4D       		.byte	(.L49-.L50)/2
 898              		.p2align 1
 899              	.L53:
2124:VS4210/keyremo.c **** 						BOX_SET_CHANNEL(SelectModeType, ((MainTouchSetSelectMode[PreSelectModeType][Mirror_addr[index
 900              		.loc 1 2124 6 view .LVU212
2124:VS4210/keyremo.c **** 						BOX_SET_CHANNEL(SelectModeType, ((MainTouchSetSelectMode[PreSelectModeType][Mirror_addr[index
 901              		.loc 1 2124 10 is_stmt 0 view .LVU213
 902 00b6 594A     		ldr	r2, .L69+52
 903 00b8 1278     		ldrb	r2, [r2]	@ zero_extendqisi2
2124:VS4210/keyremo.c **** 						BOX_SET_CHANNEL(SelectModeType, ((MainTouchSetSelectMode[PreSelectModeType][Mirror_addr[index
 904              		.loc 1 2124 9 view .LVU214
 905 00ba 62B1     		cbz	r2, .L54
2125:VS4210/keyremo.c **** 					else
ARM GAS  C:\Users\ryanc.HS\AppData\Local\Temp\ccZ9UySd.s 			page 57


 906              		.loc 1 2125 7 is_stmt 1 view .LVU215
2125:VS4210/keyremo.c **** 					else
 907              		.loc 1 2125 94 is_stmt 0 view .LVU216
 908 00bc 04AA     		add	r2, sp, #16
 909 00be 1019     		adds	r0, r2, r4
 910 00c0 10F8100C 		ldrb	r0, [r0, #-16]	@ zero_extendqisi2
2125:VS4210/keyremo.c **** 					else
 911              		.loc 1 2125 82 view .LVU217
 912 00c4 4B4A     		ldr	r2, .L69+12
 913 00c6 02EB0111 		add	r1, r2, r1, lsl #4
 914 00ca 095C     		ldrb	r1, [r1, r0]	@ zero_extendqisi2
2125:VS4210/keyremo.c **** 					else
 915              		.loc 1 2125 7 view .LVU218
 916 00cc 0909     		lsrs	r1, r1, #4
 917 00ce 1846     		mov	r0, r3
 918 00d0 FFF7FEFF 		bl	BOX_SET_CHANNEL
 919              	.LVL68:
 920 00d4 B6E7     		b	.L48
 921              	.L54:
2127:VS4210/keyremo.c **** 
 922              		.loc 1 2127 7 is_stmt 1 view .LVU219
2127:VS4210/keyremo.c **** 
 923              		.loc 1 2127 82 is_stmt 0 view .LVU220
 924 00d6 474A     		ldr	r2, .L69+12
 925 00d8 02EB0111 		add	r1, r2, r1, lsl #4
 926 00dc 095D     		ldrb	r1, [r1, r4]	@ zero_extendqisi2
2127:VS4210/keyremo.c **** 
 927              		.loc 1 2127 7 view .LVU221
 928 00de 0909     		lsrs	r1, r1, #4
 929 00e0 1846     		mov	r0, r3
 930 00e2 FFF7FEFF 		bl	BOX_SET_CHANNEL
 931              	.LVL69:
 932 00e6 ADE7     		b	.L48
 933              	.L52:
2131:VS4210/keyremo.c **** 						BOX_SET_CHANNEL(SelectModeType, ((MainTouchSetSelectMode[PreSelectModeType][Mirror_addr[index
 934              		.loc 1 2131 6 is_stmt 1 view .LVU222
2131:VS4210/keyremo.c **** 						BOX_SET_CHANNEL(SelectModeType, ((MainTouchSetSelectMode[PreSelectModeType][Mirror_addr[index
 935              		.loc 1 2131 10 is_stmt 0 view .LVU223
 936 00e8 4D4A     		ldr	r2, .L69+56
 937 00ea 1278     		ldrb	r2, [r2]	@ zero_extendqisi2
2131:VS4210/keyremo.c **** 						BOX_SET_CHANNEL(SelectModeType, ((MainTouchSetSelectMode[PreSelectModeType][Mirror_addr[index
 938              		.loc 1 2131 9 view .LVU224
 939 00ec 62B1     		cbz	r2, .L55
2132:VS4210/keyremo.c **** 					else
 940              		.loc 1 2132 7 is_stmt 1 view .LVU225
2132:VS4210/keyremo.c **** 					else
 941              		.loc 1 2132 94 is_stmt 0 view .LVU226
 942 00ee 04AA     		add	r2, sp, #16
 943 00f0 1019     		adds	r0, r2, r4
 944 00f2 10F8100C 		ldrb	r0, [r0, #-16]	@ zero_extendqisi2
2132:VS4210/keyremo.c **** 					else
 945              		.loc 1 2132 82 view .LVU227
 946 00f6 3F4A     		ldr	r2, .L69+12
 947 00f8 02EB0111 		add	r1, r2, r1, lsl #4
 948 00fc 095C     		ldrb	r1, [r1, r0]	@ zero_extendqisi2
2132:VS4210/keyremo.c **** 					else
 949              		.loc 1 2132 7 view .LVU228
ARM GAS  C:\Users\ryanc.HS\AppData\Local\Temp\ccZ9UySd.s 			page 58


 950 00fe 0909     		lsrs	r1, r1, #4
 951 0100 1846     		mov	r0, r3
 952 0102 FFF7FEFF 		bl	BOX_SET_CHANNEL
 953              	.LVL70:
 954 0106 9DE7     		b	.L48
 955              	.L55:
2134:VS4210/keyremo.c **** 
 956              		.loc 1 2134 7 is_stmt 1 view .LVU229
2134:VS4210/keyremo.c **** 
 957              		.loc 1 2134 82 is_stmt 0 view .LVU230
 958 0108 3A4A     		ldr	r2, .L69+12
 959 010a 02EB0111 		add	r1, r2, r1, lsl #4
 960 010e 095D     		ldrb	r1, [r1, r4]	@ zero_extendqisi2
2134:VS4210/keyremo.c **** 
 961              		.loc 1 2134 7 view .LVU231
 962 0110 0909     		lsrs	r1, r1, #4
 963 0112 1846     		mov	r0, r3
 964 0114 FFF7FEFF 		bl	BOX_SET_CHANNEL
 965              	.LVL71:
 966 0118 94E7     		b	.L48
 967              	.L51:
2138:VS4210/keyremo.c **** 						BOX_SET_CHANNEL(SelectModeType, ((MainTouchSetSelectMode[PreSelectModeType][Mirror_addr[index
 968              		.loc 1 2138 6 is_stmt 1 view .LVU232
2138:VS4210/keyremo.c **** 						BOX_SET_CHANNEL(SelectModeType, ((MainTouchSetSelectMode[PreSelectModeType][Mirror_addr[index
 969              		.loc 1 2138 10 is_stmt 0 view .LVU233
 970 011a 424A     		ldr	r2, .L69+60
 971 011c 1278     		ldrb	r2, [r2]	@ zero_extendqisi2
2138:VS4210/keyremo.c **** 						BOX_SET_CHANNEL(SelectModeType, ((MainTouchSetSelectMode[PreSelectModeType][Mirror_addr[index
 972              		.loc 1 2138 9 view .LVU234
 973 011e 62B1     		cbz	r2, .L56
2139:VS4210/keyremo.c **** 					else
 974              		.loc 1 2139 7 is_stmt 1 view .LVU235
2139:VS4210/keyremo.c **** 					else
 975              		.loc 1 2139 94 is_stmt 0 view .LVU236
 976 0120 04AA     		add	r2, sp, #16
 977 0122 1019     		adds	r0, r2, r4
 978 0124 10F8100C 		ldrb	r0, [r0, #-16]	@ zero_extendqisi2
2139:VS4210/keyremo.c **** 					else
 979              		.loc 1 2139 82 view .LVU237
 980 0128 324A     		ldr	r2, .L69+12
 981 012a 02EB0111 		add	r1, r2, r1, lsl #4
 982 012e 095C     		ldrb	r1, [r1, r0]	@ zero_extendqisi2
2139:VS4210/keyremo.c **** 					else
 983              		.loc 1 2139 7 view .LVU238
 984 0130 0909     		lsrs	r1, r1, #4
 985 0132 1846     		mov	r0, r3
 986 0134 FFF7FEFF 		bl	BOX_SET_CHANNEL
 987              	.LVL72:
 988 0138 84E7     		b	.L48
 989              	.L56:
2141:VS4210/keyremo.c **** 
 990              		.loc 1 2141 7 is_stmt 1 view .LVU239
2141:VS4210/keyremo.c **** 
 991              		.loc 1 2141 82 is_stmt 0 view .LVU240
 992 013a 2E4A     		ldr	r2, .L69+12
 993 013c 02EB0111 		add	r1, r2, r1, lsl #4
 994 0140 095D     		ldrb	r1, [r1, r4]	@ zero_extendqisi2
ARM GAS  C:\Users\ryanc.HS\AppData\Local\Temp\ccZ9UySd.s 			page 59


2141:VS4210/keyremo.c **** 
 995              		.loc 1 2141 7 view .LVU241
 996 0142 0909     		lsrs	r1, r1, #4
 997 0144 1846     		mov	r0, r3
 998 0146 FFF7FEFF 		bl	BOX_SET_CHANNEL
 999              	.LVL73:
 1000 014a 7BE7     		b	.L48
 1001              	.L49:
2145:VS4210/keyremo.c **** 						BOX_SET_CHANNEL(SelectModeType, ((MainTouchSetSelectMode[PreSelectModeType][Mirror_addr[index
 1002              		.loc 1 2145 6 is_stmt 1 view .LVU242
2145:VS4210/keyremo.c **** 						BOX_SET_CHANNEL(SelectModeType, ((MainTouchSetSelectMode[PreSelectModeType][Mirror_addr[index
 1003              		.loc 1 2145 10 is_stmt 0 view .LVU243
 1004 014c 364A     		ldr	r2, .L69+64
 1005 014e 1278     		ldrb	r2, [r2]	@ zero_extendqisi2
2145:VS4210/keyremo.c **** 						BOX_SET_CHANNEL(SelectModeType, ((MainTouchSetSelectMode[PreSelectModeType][Mirror_addr[index
 1006              		.loc 1 2145 9 view .LVU244
 1007 0150 62B1     		cbz	r2, .L57
2146:VS4210/keyremo.c **** 					else
 1008              		.loc 1 2146 7 is_stmt 1 view .LVU245
2146:VS4210/keyremo.c **** 					else
 1009              		.loc 1 2146 94 is_stmt 0 view .LVU246
 1010 0152 04AA     		add	r2, sp, #16
 1011 0154 1019     		adds	r0, r2, r4
 1012 0156 10F8100C 		ldrb	r0, [r0, #-16]	@ zero_extendqisi2
2146:VS4210/keyremo.c **** 					else
 1013              		.loc 1 2146 82 view .LVU247
 1014 015a 264A     		ldr	r2, .L69+12
 1015 015c 02EB0111 		add	r1, r2, r1, lsl #4
 1016 0160 095C     		ldrb	r1, [r1, r0]	@ zero_extendqisi2
2146:VS4210/keyremo.c **** 					else
 1017              		.loc 1 2146 7 view .LVU248
 1018 0162 0909     		lsrs	r1, r1, #4
 1019 0164 1846     		mov	r0, r3
 1020 0166 FFF7FEFF 		bl	BOX_SET_CHANNEL
 1021              	.LVL74:
 1022 016a 6BE7     		b	.L48
 1023              	.L57:
2148:VS4210/keyremo.c **** 				}
 1024              		.loc 1 2148 7 is_stmt 1 view .LVU249
2148:VS4210/keyremo.c **** 				}
 1025              		.loc 1 2148 82 is_stmt 0 view .LVU250
 1026 016c 214A     		ldr	r2, .L69+12
 1027 016e 02EB0111 		add	r1, r2, r1, lsl #4
 1028 0172 095D     		ldrb	r1, [r1, r4]	@ zero_extendqisi2
2148:VS4210/keyremo.c **** 				}
 1029              		.loc 1 2148 7 view .LVU251
 1030 0174 0909     		lsrs	r1, r1, #4
 1031 0176 1846     		mov	r0, r3
 1032 0178 FFF7FEFF 		bl	BOX_SET_CHANNEL
 1033              	.LVL75:
 1034 017c 62E7     		b	.L48
 1035              	.L47:
2156:VS4210/keyremo.c **** 
 1036              		.loc 1 2156 3 is_stmt 1 view .LVU252
2156:VS4210/keyremo.c **** 
 1037              		.loc 1 2156 18 is_stmt 0 view .LVU253
 1038 017e 1C4B     		ldr	r3, .L69+8
ARM GAS  C:\Users\ryanc.HS\AppData\Local\Temp\ccZ9UySd.s 			page 60


 1039 0180 1A78     		ldrb	r2, [r3]	@ zero_extendqisi2
 1040 0182 1A4B     		ldr	r3, .L69+4
 1041 0184 1A70     		strb	r2, [r3]
2158:VS4210/keyremo.c **** 		{
 1042              		.loc 1 2158 3 is_stmt 1 view .LVU254
2158:VS4210/keyremo.c **** 		{
 1043              		.loc 1 2158 32 is_stmt 0 view .LVU255
 1044 0186 1C4B     		ldr	r3, .L69+16
 1045 0188 1B78     		ldrb	r3, [r3]	@ zero_extendqisi2
2158:VS4210/keyremo.c **** 		{
 1046              		.loc 1 2158 6 view .LVU256
 1047 018a 012B     		cmp	r3, #1
 1048 018c 7FF45AAF 		bne	.L48
2160:VS4210/keyremo.c **** 			{
 1049              		.loc 1 2160 11 view .LVU257
 1050 0190 0024     		movs	r4, #0
 1051 0192 0FE0     		b	.L58
 1052              	.LVL76:
 1053              	.L68:
2164:VS4210/keyremo.c **** 					SetCOCCom(_COCOSD_BOX_Sel, i);
 1054              		.loc 1 2164 6 is_stmt 1 view .LVU258
2164:VS4210/keyremo.c **** 					SetCOCCom(_COCOSD_BOX_Sel, i);
 1055              		.loc 1 2164 49 is_stmt 0 view .LVU259
 1056 0194 254B     		ldr	r3, .L69+68
 1057 0196 1B5D     		ldrb	r3, [r3, r4]	@ zero_extendqisi2
2164:VS4210/keyremo.c **** 					SetCOCCom(_COCOSD_BOX_Sel, i);
 1058              		.loc 1 2164 27 view .LVU260
 1059 0198 1F4D     		ldr	r5, .L69+48
 1060 019a 2B55     		strb	r3, [r5, r4]
2165:VS4210/keyremo.c **** 					SetCOCCom(_COCOSD_BOX_Channel_Sel, COCSelectModeType[i]);
 1061              		.loc 1 2165 6 is_stmt 1 view .LVU261
 1062 019c 2146     		mov	r1, r4
 1063 019e 1920     		movs	r0, #25
 1064 01a0 FFF7FEFF 		bl	SetCOCCom
 1065              	.LVL77:
2166:VS4210/keyremo.c **** 					Get_2824cIrq();
 1066              		.loc 1 2166 6 view .LVU262
 1067 01a4 295D     		ldrb	r1, [r5, r4]	@ zero_extendqisi2
 1068 01a6 1A20     		movs	r0, #26
 1069 01a8 FFF7FEFF 		bl	SetCOCCom
 1070              	.LVL78:
2167:VS4210/keyremo.c **** 				}
 1071              		.loc 1 2167 6 view .LVU263
 1072 01ac FFF7FEFF 		bl	Get_2824cIrq
 1073              	.LVL79:
 1074              	.L59:
2160:VS4210/keyremo.c **** 			{
 1075              		.loc 1 2160 23 discriminator 2 view .LVU264
2160:VS4210/keyremo.c **** 			{
 1076              		.loc 1 2160 24 is_stmt 0 discriminator 2 view .LVU265
 1077 01b0 0134     		adds	r4, r4, #1
 1078              	.LVL80:
2160:VS4210/keyremo.c **** 			{
 1079              		.loc 1 2160 24 discriminator 2 view .LVU266
 1080 01b2 E4B2     		uxtb	r4, r4
 1081              	.LVL81:
 1082              	.L58:
ARM GAS  C:\Users\ryanc.HS\AppData\Local\Temp\ccZ9UySd.s 			page 61


2160:VS4210/keyremo.c **** 			{
 1083              		.loc 1 2160 16 is_stmt 1 discriminator 1 view .LVU267
2160:VS4210/keyremo.c **** 			{
 1084              		.loc 1 2160 4 is_stmt 0 discriminator 1 view .LVU268
 1085 01b4 032C     		cmp	r4, #3
 1086 01b6 06D8     		bhi	.L67
2162:VS4210/keyremo.c **** 				{
 1087              		.loc 1 2162 5 is_stmt 1 view .LVU269
2162:VS4210/keyremo.c **** 				{
 1088              		.loc 1 2162 9 is_stmt 0 view .LVU270
 1089 01b8 164B     		ldr	r3, .L69+44
 1090 01ba 1B78     		ldrb	r3, [r3]	@ zero_extendqisi2
 1091 01bc 2341     		asrs	r3, r3, r4
2162:VS4210/keyremo.c **** 				{
 1092              		.loc 1 2162 8 view .LVU271
 1093 01be 13F0010F 		tst	r3, #1
 1094 01c2 F5D0     		beq	.L59
 1095 01c4 E6E7     		b	.L68
 1096              	.L67:
2171:VS4210/keyremo.c **** 			SelectModeType = TouchPreSelectModeType;
 1097              		.loc 1 2171 4 is_stmt 1 view .LVU272
2171:VS4210/keyremo.c **** 			SelectModeType = TouchPreSelectModeType;
 1098              		.loc 1 2171 29 is_stmt 0 view .LVU273
 1099 01c6 0C4B     		ldr	r3, .L69+16
 1100 01c8 0022     		movs	r2, #0
 1101 01ca 1A70     		strb	r2, [r3]
2172:VS4210/keyremo.c **** 		}
 1102              		.loc 1 2172 4 is_stmt 1 view .LVU274
2172:VS4210/keyremo.c **** 		}
 1103              		.loc 1 2172 19 is_stmt 0 view .LVU275
 1104 01cc 184B     		ldr	r3, .L69+72
 1105 01ce 1A78     		ldrb	r2, [r3]	@ zero_extendqisi2
 1106 01d0 064B     		ldr	r3, .L69+4
 1107 01d2 1A70     		strb	r2, [r3]
 1108 01d4 36E7     		b	.L48
 1109              	.LVL82:
 1110              	.L66:
2181:VS4210/keyremo.c **** 		SetCOCCom(_COC_FLISHEYE_MODE1, Fisheye_no_save);
 1111              		.loc 1 2181 3 is_stmt 1 view .LVU276
 1112 01d6 1920     		movs	r0, #25
 1113 01d8 FFF7FEFF 		bl	SetCOCCom
 1114              	.LVL83:
2182:VS4210/keyremo.c **** 	}
 1115              		.loc 1 2182 3 view .LVU277
 1116 01dc 0021     		movs	r1, #0
 1117 01de 1B20     		movs	r0, #27
 1118 01e0 FFF7FEFF 		bl	SetCOCCom
 1119              	.LVL84:
 1120 01e4 37E7     		b	.L61
 1121              	.L70:
 1122 01e6 00BF     		.align	2
 1123              	.L69:
 1124 01e8 00000000 		.word	.LANCHOR5
 1125 01ec 00000000 		.word	SelectModeType
 1126 01f0 00000000 		.word	PreSelectModeType
 1127 01f4 00000000 		.word	.LANCHOR6
 1128 01f8 00000000 		.word	.LANCHOR2
ARM GAS  C:\Users\ryanc.HS\AppData\Local\Temp\ccZ9UySd.s 			page 62


 1129 01fc 00000000 		.word	Flisheye_CAM
 1130 0200 00000000 		.word	.LANCHOR4
 1131 0204 00000000 		.word	OSDStateFlg
 1132 0208 00000000 		.word	NowModeState
 1133 020c 00000000 		.word	QuadBoxMode
 1134 0210 00000000 		.word	.LC5
 1135 0214 00000000 		.word	QuadBoxId
 1136 0218 00000000 		.word	COCSelectModeType
 1137 021c 00000000 		.word	CAMA_M
 1138 0220 00000000 		.word	CAMB_M
 1139 0224 00000000 		.word	CAMC_M
 1140 0228 00000000 		.word	CAMR_M
 1141 022c 00000000 		.word	PreCOCSelectModeType
 1142 0230 00000000 		.word	.LANCHOR3
 1143              		.cfi_endproc
 1144              	.LFE81:
 1146              		.section	.rodata.TouchResetSelectMode.str1.4,"aMS",%progbits,1
 1147              		.align	2
 1148              	.LC6:
 1149 0000 0D0A546F 		.ascii	"\015\012TouchResetSelectModeType=%d\000"
 1149      75636852 
 1149      65736574 
 1149      53656C65 
 1149      63744D6F 
 1150              		.section	.text.TouchResetSelectMode,"ax",%progbits
 1151              		.align	1
 1152              		.global	TouchResetSelectMode
 1153              		.syntax unified
 1154              		.thumb
 1155              		.thumb_func
 1156              		.fpu softvfp
 1158              	TouchResetSelectMode:
 1159              	.LFB82:
2199:VS4210/keyremo.c **** 
2200:VS4210/keyremo.c **** void TouchResetSelectMode(void)
2201:VS4210/keyremo.c **** {
 1160              		.loc 1 2201 1 view -0
 1161              		.cfi_startproc
 1162              		@ args = 0, pretend = 0, frame = 0
 1163              		@ frame_needed = 0, uses_anonymous_args = 0
 1164 0000 38B5     		push	{r3, r4, r5, lr}
 1165              	.LCFI7:
 1166              		.cfi_def_cfa_offset 16
 1167              		.cfi_offset 3, -16
 1168              		.cfi_offset 4, -12
 1169              		.cfi_offset 5, -8
 1170              		.cfi_offset 14, -4
2202:VS4210/keyremo.c **** 	BYTE i;
 1171              		.loc 1 2202 2 view .LVU279
2203:VS4210/keyremo.c **** 
2204:VS4210/keyremo.c **** 	BackLightOFF();
 1172              		.loc 1 2204 2 view .LVU280
 1173 0002 FFF7FEFF 		bl	BackLightOFF
 1174              	.LVL85:
2205:VS4210/keyremo.c **** 
2206:VS4210/keyremo.c **** 	if (GetDisplayedOSD() & (MENU | TVVOL | _COC_OSD))
 1175              		.loc 1 2206 2 view .LVU281
ARM GAS  C:\Users\ryanc.HS\AppData\Local\Temp\ccZ9UySd.s 			page 63


 1176              		.loc 1 2206 6 is_stmt 0 view .LVU282
 1177 0006 FFF7FEFF 		bl	GetDisplayedOSD
 1178              	.LVL86:
 1179              		.loc 1 2206 5 view .LVU283
 1180 000a 10F0260F 		tst	r0, #38
 1181 000e 01D1     		bne	.L77
 1182              	.L72:
2201:VS4210/keyremo.c **** 	BYTE i;
 1183              		.loc 1 2201 1 discriminator 1 view .LVU284
 1184 0010 0024     		movs	r4, #0
 1185 0012 14E0     		b	.L74
 1186              	.L77:
2207:VS4210/keyremo.c **** 		CloseOSDMenu();
 1187              		.loc 1 2207 3 is_stmt 1 view .LVU285
 1188 0014 FFF7FEFF 		bl	CloseOSDMenu
 1189              	.LVL87:
 1190 0018 FAE7     		b	.L72
 1191              	.LVL88:
 1192              	.L79:
2208:VS4210/keyremo.c **** 
2209:VS4210/keyremo.c **** 	for (i = 0; i < 4; i++)
2210:VS4210/keyremo.c **** 	{
2211:VS4210/keyremo.c **** 		if ((QuadBoxId & (1 << i)))
2212:VS4210/keyremo.c **** 		{
2213:VS4210/keyremo.c **** 			PreCOCSelectModeType[i] = COCSelectModeType[i];
 1193              		.loc 1 2213 4 view .LVU286
 1194              		.loc 1 2213 47 is_stmt 0 view .LVU287
 1195 001a 1D4B     		ldr	r3, .L80
 1196 001c 195D     		ldrb	r1, [r3, r4]	@ zero_extendqisi2
 1197              		.loc 1 2213 28 view .LVU288
 1198 001e 1D4A     		ldr	r2, .L80+4
 1199 0020 1155     		strb	r1, [r2, r4]
2214:VS4210/keyremo.c **** 			COCSelectModeType[i] = 5;
 1200              		.loc 1 2214 4 is_stmt 1 view .LVU289
 1201              		.loc 1 2214 25 is_stmt 0 view .LVU290
 1202 0022 0525     		movs	r5, #5
 1203 0024 1D55     		strb	r5, [r3, r4]
2215:VS4210/keyremo.c **** 			SetCOCCom(_COCOSD_BOX_Sel, i);
 1204              		.loc 1 2215 4 is_stmt 1 view .LVU291
 1205 0026 2146     		mov	r1, r4
 1206 0028 1920     		movs	r0, #25
 1207 002a FFF7FEFF 		bl	SetCOCCom
 1208              	.LVL89:
2216:VS4210/keyremo.c **** 			SetCOCCom(_COCOSD_BOX_Channel_Sel, 5);
 1209              		.loc 1 2216 4 view .LVU292
 1210 002e 2946     		mov	r1, r5
 1211 0030 1A20     		movs	r0, #26
 1212 0032 FFF7FEFF 		bl	SetCOCCom
 1213              	.LVL90:
2217:VS4210/keyremo.c **** 			Get_2824cIrq();
 1214              		.loc 1 2217 4 view .LVU293
 1215 0036 FFF7FEFF 		bl	Get_2824cIrq
 1216              	.LVL91:
 1217              	.L73:
2209:VS4210/keyremo.c **** 	{
 1218              		.loc 1 2209 21 discriminator 2 view .LVU294
2209:VS4210/keyremo.c **** 	{
ARM GAS  C:\Users\ryanc.HS\AppData\Local\Temp\ccZ9UySd.s 			page 64


 1219              		.loc 1 2209 22 is_stmt 0 discriminator 2 view .LVU295
 1220 003a 0134     		adds	r4, r4, #1
 1221              	.LVL92:
2209:VS4210/keyremo.c **** 	{
 1222              		.loc 1 2209 22 discriminator 2 view .LVU296
 1223 003c E4B2     		uxtb	r4, r4
 1224              	.LVL93:
 1225              	.L74:
2209:VS4210/keyremo.c **** 	{
 1226              		.loc 1 2209 14 is_stmt 1 discriminator 1 view .LVU297
2209:VS4210/keyremo.c **** 	{
 1227              		.loc 1 2209 2 is_stmt 0 discriminator 1 view .LVU298
 1228 003e 032C     		cmp	r4, #3
 1229 0040 06D8     		bhi	.L78
2211:VS4210/keyremo.c **** 		{
 1230              		.loc 1 2211 3 is_stmt 1 view .LVU299
2211:VS4210/keyremo.c **** 		{
 1231              		.loc 1 2211 7 is_stmt 0 view .LVU300
 1232 0042 154B     		ldr	r3, .L80+8
 1233 0044 1B78     		ldrb	r3, [r3]	@ zero_extendqisi2
 1234 0046 2341     		asrs	r3, r3, r4
2211:VS4210/keyremo.c **** 		{
 1235              		.loc 1 2211 6 view .LVU301
 1236 0048 13F0010F 		tst	r3, #1
 1237 004c F5D0     		beq	.L73
 1238 004e E4E7     		b	.L79
 1239              	.L78:
2218:VS4210/keyremo.c **** 		}
2219:VS4210/keyremo.c **** 	}
2220:VS4210/keyremo.c **** 
2221:VS4210/keyremo.c **** 	TouchPreSelectModeType = SelectModeType;
 1240              		.loc 1 2221 2 is_stmt 1 view .LVU302
 1241              		.loc 1 2221 25 is_stmt 0 view .LVU303
 1242 0050 124C     		ldr	r4, .L80+12
 1243              	.LVL94:
 1244              		.loc 1 2221 25 view .LVU304
 1245 0052 2278     		ldrb	r2, [r4]	@ zero_extendqisi2
 1246 0054 124B     		ldr	r3, .L80+16
 1247 0056 1A70     		strb	r2, [r3]
2222:VS4210/keyremo.c **** 	TouchResetSelectModeFlag = TRUE;
 1248              		.loc 1 2222 2 is_stmt 1 view .LVU305
 1249              		.loc 1 2222 27 is_stmt 0 view .LVU306
 1250 0058 0125     		movs	r5, #1
 1251 005a 124B     		ldr	r3, .L80+20
 1252 005c 1D70     		strb	r5, [r3]
2223:VS4210/keyremo.c **** 
2224:VS4210/keyremo.c **** 	SelectModeType = 12;
 1253              		.loc 1 2224 2 is_stmt 1 view .LVU307
 1254              		.loc 1 2224 17 is_stmt 0 view .LVU308
 1255 005e 0C23     		movs	r3, #12
 1256 0060 2370     		strb	r3, [r4]
2225:VS4210/keyremo.c **** 	setloopoutmode(MainSetSelectMode[SelectModeType]);
 1257              		.loc 1 2225 2 is_stmt 1 view .LVU309
 1258              		.loc 1 2225 34 is_stmt 0 view .LVU310
 1259 0062 114B     		ldr	r3, .L80+24
 1260 0064 187B     		ldrb	r0, [r3, #12]	@ zero_extendqisi2
 1261              		.loc 1 2225 2 view .LVU311
ARM GAS  C:\Users\ryanc.HS\AppData\Local\Temp\ccZ9UySd.s 			page 65


 1262 0066 FFF7FEFF 		bl	setloopoutmode
 1263              	.LVL95:
2226:VS4210/keyremo.c **** 
2227:VS4210/keyremo.c **** 	OSDStateFlg = 1;
 1264              		.loc 1 2227 2 is_stmt 1 view .LVU312
 1265              		.loc 1 2227 14 is_stmt 0 view .LVU313
 1266 006a 104B     		ldr	r3, .L80+28
 1267 006c 1D70     		strb	r5, [r3]
2228:VS4210/keyremo.c **** 
2229:VS4210/keyremo.c **** 	WriteEEP(EEP_SelectMode, SelectModeType);
 1268              		.loc 1 2229 2 is_stmt 1 view .LVU314
 1269 006e 2178     		ldrb	r1, [r4]	@ zero_extendqisi2
 1270 0070 B020     		movs	r0, #176
 1271 0072 FFF7FEFF 		bl	WriteEEP
 1272              	.LVL96:
2230:VS4210/keyremo.c **** 	WriteEEP(EEP_NowModeState, NowModeState);
 1273              		.loc 1 2230 2 view .LVU315
 1274 0076 0E4B     		ldr	r3, .L80+32
 1275 0078 1978     		ldrb	r1, [r3]	@ zero_extendqisi2
 1276 007a AF20     		movs	r0, #175
 1277 007c FFF7FEFF 		bl	WriteEEP
 1278              	.LVL97:
2231:VS4210/keyremo.c **** 
2232:VS4210/keyremo.c **** 	BackLightON();
 1279              		.loc 1 2232 2 view .LVU316
 1280 0080 FFF7FEFF 		bl	BackLightON
 1281              	.LVL98:
2233:VS4210/keyremo.c **** 	Printf("\r\nTouchResetSelectModeType=%d", (WORD)SelectModeType);
 1282              		.loc 1 2233 2 view .LVU317
 1283 0084 2178     		ldrb	r1, [r4]	@ zero_extendqisi2
 1284 0086 0B48     		ldr	r0, .L80+36
 1285 0088 FFF7FEFF 		bl	Printf
 1286              	.LVL99:
2234:VS4210/keyremo.c **** }
 1287              		.loc 1 2234 1 is_stmt 0 view .LVU318
 1288 008c 38BD     		pop	{r3, r4, r5, pc}
 1289              	.L81:
 1290 008e 00BF     		.align	2
 1291              	.L80:
 1292 0090 00000000 		.word	COCSelectModeType
 1293 0094 00000000 		.word	PreCOCSelectModeType
 1294 0098 00000000 		.word	QuadBoxId
 1295 009c 00000000 		.word	SelectModeType
 1296 00a0 00000000 		.word	.LANCHOR3
 1297 00a4 00000000 		.word	.LANCHOR2
 1298 00a8 00000000 		.word	.LANCHOR4
 1299 00ac 00000000 		.word	OSDStateFlg
 1300 00b0 00000000 		.word	NowModeState
 1301 00b4 00000000 		.word	.LC6
 1302              		.cfi_endproc
 1303              	.LFE82:
 1305              		.section	.text.GetKey,"ax",%progbits
 1306              		.align	1
 1307              		.global	GetKey
 1308              		.syntax unified
 1309              		.thumb
 1310              		.thumb_func
ARM GAS  C:\Users\ryanc.HS\AppData\Local\Temp\ccZ9UySd.s 			page 66


 1311              		.fpu softvfp
 1313              	GetKey:
 1314              	.LVL100:
 1315              	.LFB83:
2235:VS4210/keyremo.c **** 
2236:VS4210/keyremo.c **** //=============================================================================
2237:VS4210/keyremo.c **** //		Get Key
2238:VS4210/keyremo.c **** //=============================================================================
2239:VS4210/keyremo.c **** #define CUPKEY DOWNKEY
2240:VS4210/keyremo.c **** #define CDOWNKEY UPKEY
2241:VS4210/keyremo.c **** 
2242:VS4210/keyremo.c **** BYTE GetKey(BYTE repeat)
2243:VS4210/keyremo.c **** {
 1316              		.loc 1 2243 1 is_stmt 1 view -0
 1317              		.cfi_startproc
 1318              		@ args = 0, pretend = 0, frame = 0
 1319              		@ frame_needed = 0, uses_anonymous_args = 0
 1320              		@ link register save eliminated.
2244:VS4210/keyremo.c **** 
2245:VS4210/keyremo.c **** 	bit ready;
 1321              		.loc 1 2245 2 view .LVU320
2246:VS4210/keyremo.c **** 	// BYTE KeyBuffer2;  //Pinchi disable for compiler warning
2247:VS4210/keyremo.c **** 	ready = KeyReady;
 1322              		.loc 1 2247 2 view .LVU321
 1323              		.loc 1 2247 8 is_stmt 0 view .LVU322
 1324 0000 244B     		ldr	r3, .L96
 1325 0002 1968     		ldr	r1, [r3]
 1326              	.LVL101:
2248:VS4210/keyremo.c **** 	KeyReady = 0;
 1327              		.loc 1 2248 2 is_stmt 1 view .LVU323
 1328              		.loc 1 2248 11 is_stmt 0 view .LVU324
 1329 0004 0022     		movs	r2, #0
 1330 0006 1A60     		str	r2, [r3]
2249:VS4210/keyremo.c **** 
2250:VS4210/keyremo.c **** 	//	#if 1//ryan@20170914
2251:VS4210/keyremo.c **** 
2252:VS4210/keyremo.c **** 	// if((ChangeKey==1)&&(Key==0))
2253:VS4210/keyremo.c **** 
2254:VS4210/keyremo.c **** 	if ((ChangeKey == 1) && (Key == 0))
 1331              		.loc 1 2254 2 is_stmt 1 view .LVU325
 1332              		.loc 1 2254 17 is_stmt 0 view .LVU326
 1333 0008 234B     		ldr	r3, .L96+4
 1334 000a 1B68     		ldr	r3, [r3]
 1335              		.loc 1 2254 5 view .LVU327
 1336 000c 012B     		cmp	r3, #1
 1337 000e 08D0     		beq	.L91
 1338              	.L83:
2255:VS4210/keyremo.c **** 	{
2256:VS4210/keyremo.c **** #if 1
2257:VS4210/keyremo.c **** 		ready = 1;
2258:VS4210/keyremo.c **** 
2259:VS4210/keyremo.c **** 		/*
2260:VS4210/keyremo.c **** 			if((updn_reg[0] == 3) && (updn_reg[1] == 2)&& (updn_reg[2] == 0)&& (updn_reg[3] == 1))  		//Up K
2261:VS4210/keyremo.c **** 					Key=DOWNKEY;
2262:VS4210/keyremo.c **** 				else	if((updn_reg[0] ==0) && (updn_reg[1] == 2)&& (updn_reg[2] == 3)&& (updn_reg[3] == 1))  //D
2263:VS4210/keyremo.c **** 					Key=UPKEY;
2264:VS4210/keyremo.c **** 		*/
ARM GAS  C:\Users\ryanc.HS\AppData\Local\Temp\ccZ9UySd.s 			page 67


2265:VS4210/keyremo.c **** #if 1
2266:VS4210/keyremo.c **** 		if ((updn_reg[0] == 1) && (updn_reg[1] == 3) && (updn_reg[2] == 2) && (updn_reg[3] == 0)) // Up K
2267:VS4210/keyremo.c **** 			Key |= DOWNKEY;
2268:VS4210/keyremo.c **** #else
2269:VS4210/keyremo.c **** 		if ((updn_reg[0] == 3) && (updn_reg[1] == 2) && (updn_reg[2] == 0) && (updn_reg[3] == 1)) // Up K
2270:VS4210/keyremo.c **** 			Key |= DOWNKEY;
2271:VS4210/keyremo.c **** #endif
2272:VS4210/keyremo.c **** 		//	else if((updn_reg[0] == 2) && (updn_reg[1] == 0)&& (updn_reg[2] == 1)&& (updn_reg[3] == 3))  /
2273:VS4210/keyremo.c **** 		//		Key|=DOWNKEY;
2274:VS4210/keyremo.c **** 		//	else if((updn_reg[0] == 0) && (updn_reg[1] == 1) && (updn_reg[2] == 3)&& (updn_reg[3] == 2))  
2275:VS4210/keyremo.c **** 		//		Key|=DOWNKEY;
2276:VS4210/keyremo.c **** 		//	else if((updn_reg[0] == 1) && (updn_reg[1] == 3)&& (updn_reg[2] == 2)&& (updn_reg[3] == 0))  /
2277:VS4210/keyremo.c **** 		//		Key|=DOWNKEY;
2278:VS4210/keyremo.c **** 		//	else if((updn_reg[0] == 0) && (updn_reg[1] == 2)&& (updn_reg[2] == 3)&& (updn_reg[3] == 1))  /
2279:VS4210/keyremo.c **** 		//			Key|=UPKEY;
2280:VS4210/keyremo.c **** 		//	else if((updn_reg[0] == 3) && (updn_reg[1] == 1)&& (updn_reg[2] == 0)&& (updn_reg[3] == 2))  /
2281:VS4210/keyremo.c **** 		//			Key|=UPKEY;
2282:VS4210/keyremo.c **** 		else if ((updn_reg[0] == 2) && (updn_reg[1] == 3) && (updn_reg[2] == 1) && (updn_reg[3] == 0)) //
2283:VS4210/keyremo.c **** 			Key |= UPKEY;
2284:VS4210/keyremo.c **** 			//	else if((updn_reg[0] == 1) && (updn_reg[1] == 0)&& (updn_reg[2] == 2)&& (updn_reg[3] == 3)) /
2285:VS4210/keyremo.c **** 			//			Key|=UPKEY;
2286:VS4210/keyremo.c **** 
2287:VS4210/keyremo.c **** #else
2288:VS4210/keyremo.c **** 		ready = 1;
2289:VS4210/keyremo.c **** 		if ((updn_reg[0] == 3) && (updn_reg[1] == 2) && (updn_reg[2] == 0) && (updn_reg[3] == 1)) // Up K
2290:VS4210/keyremo.c **** 			Key |= DOWNKEY;
2291:VS4210/keyremo.c **** 		else if ((updn_reg[0] == 2) && (updn_reg[1] == 0) && (updn_reg[2] == 1) && (updn_reg[3] == 3)) //
2292:VS4210/keyremo.c **** 			Key |= DOWNKEY;
2293:VS4210/keyremo.c **** 		else if ((updn_reg[0] == 0) && (updn_reg[1] == 1) && (updn_reg[2] == 3) && (updn_reg[3] == 2)) //
2294:VS4210/keyremo.c **** 			Key |= DOWNKEY;
2295:VS4210/keyremo.c **** 		else if ((updn_reg[0] == 1) && (updn_reg[1] == 3) && (updn_reg[2] == 2) && (updn_reg[3] == 0)) //
2296:VS4210/keyremo.c **** 			Key |= DOWNKEY;
2297:VS4210/keyremo.c **** 		else if ((updn_reg[0] == 0) && (updn_reg[1] == 2) && (updn_reg[2] == 3) && (updn_reg[3] == 1)) //
2298:VS4210/keyremo.c **** 			Key |= UPKEY;
2299:VS4210/keyremo.c **** 		else if ((updn_reg[0] == 3) && (updn_reg[1] == 1) && (updn_reg[2] == 0) && (updn_reg[3] == 2)) //
2300:VS4210/keyremo.c **** 			Key |= UPKEY;
2301:VS4210/keyremo.c **** 		else if ((updn_reg[0] == 2) && (updn_reg[1] == 3) && (updn_reg[2] == 1) && (updn_reg[3] == 0)) //
2302:VS4210/keyremo.c **** 			Key |= UPKEY;
2303:VS4210/keyremo.c **** 		else if ((updn_reg[0] == 1) && (updn_reg[1] == 0) && (updn_reg[2] == 2) && (updn_reg[3] == 3)) //
2304:VS4210/keyremo.c **** 			Key |= UPKEY;
2305:VS4210/keyremo.c **** #endif
2306:VS4210/keyremo.c **** 		/*
2307:VS4210/keyremo.c **** 		if(Encoder_flag==OFF)
2308:VS4210/keyremo.c **** 		{
2309:VS4210/keyremo.c **** 			Key=0;
2310:VS4210/keyremo.c **** 				Printf("(Encoder_flag==OFF)");
2311:VS4210/keyremo.c **** 		}
2312:VS4210/keyremo.c **** 		else
2313:VS4210/keyremo.c **** 		{
2314:VS4210/keyremo.c **** 			Printf("(Encoder_flag==ON)");
2315:VS4210/keyremo.c **** 			Encoder_flag=OFF;
2316:VS4210/keyremo.c **** 			//MCUTimerActiveTimerEvent(SEC(0.2), _USER_TIMER_EVENT_Encoder_Loop);
2317:VS4210/keyremo.c **** 		}
2318:VS4210/keyremo.c **** 		*/
2319:VS4210/keyremo.c **** 		ChangeKey = 0;
2320:VS4210/keyremo.c **** 	}
2321:VS4210/keyremo.c **** 
ARM GAS  C:\Users\ryanc.HS\AppData\Local\Temp\ccZ9UySd.s 			page 68


2322:VS4210/keyremo.c **** #if 0 // elif 0
2323:VS4210/keyremo.c **** 	if(ChangeKey==1)
2324:VS4210/keyremo.c **** 	{
2325:VS4210/keyremo.c **** 
2326:VS4210/keyremo.c **** 		ready=1;
2327:VS4210/keyremo.c **** 		
2328:VS4210/keyremo.c **** 		if((updn_reg[0] == 1) && (updn_reg[1] == 3) && (updn_reg[2] == 2)&& (updn_reg[3] == 0))  //UP Key
2329:VS4210/keyremo.c **** 			Key|=CUPKEY;
2330:VS4210/keyremo.c **** 		//else if((updn_reg[0] == 3) && (updn_reg[1] == 2)&& (updn_reg[2] == 0)&& (updn_reg[3] == 1))  //
2331:VS4210/keyremo.c **** 		//	Key|=CUPKEY;
2332:VS4210/keyremo.c **** 
2333:VS4210/keyremo.c **** 		if((updn_reg[0] == 1) && (updn_reg[1] == 0)&& (updn_reg[2] == 2)&& (updn_reg[3] == 3))  //DN Key
2334:VS4210/keyremo.c **** 			Key|=CDOWNKEY;
2335:VS4210/keyremo.c **** 		//else if((updn_reg[0] == 3) && (updn_reg[1] == 1)&& (updn_reg[2] == 0)&& (updn_reg[3] == 2))  //
2336:VS4210/keyremo.c **** 		//	Key|=CDOWNKEY;
2337:VS4210/keyremo.c **** 		
2338:VS4210/keyremo.c **** 		ChangeKey = 0;	
2339:VS4210/keyremo.c **** 
2340:VS4210/keyremo.c **** 		
2341:VS4210/keyremo.c **** 	}   
2342:VS4210/keyremo.c **** 	
2343:VS4210/keyremo.c **** 
2344:VS4210/keyremo.c **** 	//#else
2345:VS4210/keyremo.c **** 	if(ChangeKey==1)//Kane @HS 2007 0814 Ver1.31<<<<
2346:VS4210/keyremo.c **** 	{
2347:VS4210/keyremo.c **** 		ready=1;
2348:VS4210/keyremo.c **** 
2349:VS4210/keyremo.c **** 		if((updn_reg[0] == 0) && (updn_reg[1] == 1) && (updn_reg[2] == 3)&& (updn_reg[3] == 2))  //UP Key
2350:VS4210/keyremo.c **** 			Key|=UPKEY;
2351:VS4210/keyremo.c **** 		if((updn_reg[0] == 3) && (updn_reg[1] == 2)&& (updn_reg[2] == 0)&& (updn_reg[3] == 1))  //UP Key
2352:VS4210/keyremo.c **** 			Key|=UPKEY;
2353:VS4210/keyremo.c **** 
2354:VS4210/keyremo.c **** 		if((updn_reg[0] == 0) && (updn_reg[1] == 2)&& (updn_reg[2] == 3)&& (updn_reg[3] == 1))  //DN Key
2355:VS4210/keyremo.c **** 			Key|=DOWNKEY;
2356:VS4210/keyremo.c **** 		if((updn_reg[0] == 3) && (updn_reg[1] == 1)&& (updn_reg[2] == 0)&& (updn_reg[3] == 2))  //DN Key
2357:VS4210/keyremo.c **** 			Key|=DOWNKEY;
2358:VS4210/keyremo.c **** 		 
2359:VS4210/keyremo.c **** 		//if(OnChangingValue==1)
2360:VS4210/keyremo.c **** 		if ((GetDisplayedOSD() & MENU) == 0) 	//william-v1.42-961203
2361:VS4210/keyremo.c **** 		{
2362:VS4210/keyremo.c **** 			if((updn_reg[0] == 1) && (updn_reg[1] == 3)&& (updn_reg[2] == 2)&& (updn_reg[3] == 0))  //UP Key
2363:VS4210/keyremo.c **** 				Key|=UPKEY;
2364:VS4210/keyremo.c **** 			if((updn_reg[0] == 2) && (updn_reg[1] == 0)&& (updn_reg[2] == 1)&& (updn_reg[3] == 3))  //UP Key
2365:VS4210/keyremo.c **** 				Key|=UPKEY;
2366:VS4210/keyremo.c **** 			if((updn_reg[0] == 2) && (updn_reg[1] == 3)&& (updn_reg[2] == 1)&& (updn_reg[3] == 0))  //DN Key
2367:VS4210/keyremo.c **** 				Key|=DOWNKEY;
2368:VS4210/keyremo.c **** 			if((updn_reg[0] == 1) && (updn_reg[1] == 0)&& (updn_reg[2] == 2)&& (updn_reg[3] == 3))  //DN Key
2369:VS4210/keyremo.c **** 				Key|=DOWNKEY;
2370:VS4210/keyremo.c **** 		}
2371:VS4210/keyremo.c **** 		ChangeKey = 0;		//william-v1.42-961130
2372:VS4210/keyremo.c **** 	}
2373:VS4210/keyremo.c **** 
2374:VS4210/keyremo.c **** #endif
2375:VS4210/keyremo.c **** 
2376:VS4210/keyremo.c **** 	if (!ready)
 1339              		.loc 1 2376 2 is_stmt 1 view .LVU328
 1340              		.loc 1 2376 5 is_stmt 0 view .LVU329
ARM GAS  C:\Users\ryanc.HS\AppData\Local\Temp\ccZ9UySd.s 			page 69


 1341 0010 0029     		cmp	r1, #0
 1342 0012 3CD0     		beq	.L89
 1343              	.LVL102:
 1344              	.L86:
2377:VS4210/keyremo.c **** 		return 0;
2378:VS4210/keyremo.c **** 	if (repeat)
 1345              		.loc 1 2378 2 is_stmt 1 view .LVU330
 1346              		.loc 1 2378 5 is_stmt 0 view .LVU331
 1347 0014 0028     		cmp	r0, #0
 1348 0016 34D1     		bne	.L92
2379:VS4210/keyremo.c **** 		return Key;
2380:VS4210/keyremo.c **** 	if (!RepeatKey)
 1349              		.loc 1 2380 2 is_stmt 1 view .LVU332
 1350              		.loc 1 2380 6 is_stmt 0 view .LVU333
 1351 0018 204B     		ldr	r3, .L96+8
 1352 001a 1B68     		ldr	r3, [r3]
 1353              		.loc 1 2380 5 view .LVU334
 1354 001c 002B     		cmp	r3, #0
 1355 001e 33D0     		beq	.L93
 1356              	.LVL103:
 1357              	.L87:
2381:VS4210/keyremo.c **** 		return Key;
2382:VS4210/keyremo.c **** 
2383:VS4210/keyremo.c **** 	return 0;
2384:VS4210/keyremo.c **** }
 1358              		.loc 1 2384 1 view .LVU335
 1359 0020 7047     		bx	lr
 1360              	.LVL104:
 1361              	.L91:
2254:VS4210/keyremo.c **** 	{
 1362              		.loc 1 2254 31 discriminator 1 view .LVU336
 1363 0022 1F4B     		ldr	r3, .L96+12
 1364 0024 1B78     		ldrb	r3, [r3]	@ zero_extendqisi2
2254:VS4210/keyremo.c **** 	{
 1365              		.loc 1 2254 23 discriminator 1 view .LVU337
 1366 0026 002B     		cmp	r3, #0
 1367 0028 F2D1     		bne	.L83
2257:VS4210/keyremo.c **** 
 1368              		.loc 1 2257 3 is_stmt 1 view .LVU338
 1369              	.LVL105:
2266:VS4210/keyremo.c **** 			Key |= DOWNKEY;
 1370              		.loc 1 2266 3 view .LVU339
2266:VS4210/keyremo.c **** 			Key |= DOWNKEY;
 1371              		.loc 1 2266 16 is_stmt 0 view .LVU340
 1372 002a 1E4A     		ldr	r2, .L96+16
 1373 002c 1278     		ldrb	r2, [r2]	@ zero_extendqisi2
2266:VS4210/keyremo.c **** 			Key |= DOWNKEY;
 1374              		.loc 1 2266 6 view .LVU341
 1375 002e 012A     		cmp	r2, #1
 1376 0030 05D0     		beq	.L94
 1377              	.L84:
2282:VS4210/keyremo.c **** 			Key |= UPKEY;
 1378              		.loc 1 2282 8 is_stmt 1 view .LVU342
2282:VS4210/keyremo.c **** 			Key |= UPKEY;
 1379              		.loc 1 2282 11 is_stmt 0 view .LVU343
 1380 0032 022A     		cmp	r2, #2
 1381 0034 14D0     		beq	.L95
ARM GAS  C:\Users\ryanc.HS\AppData\Local\Temp\ccZ9UySd.s 			page 70


 1382              	.L85:
2319:VS4210/keyremo.c **** 	}
 1383              		.loc 1 2319 3 is_stmt 1 view .LVU344
2319:VS4210/keyremo.c **** 	}
 1384              		.loc 1 2319 13 is_stmt 0 view .LVU345
 1385 0036 184B     		ldr	r3, .L96+4
 1386 0038 0022     		movs	r2, #0
 1387 003a 1A60     		str	r2, [r3]
2376:VS4210/keyremo.c **** 		return 0;
 1388              		.loc 1 2376 2 is_stmt 1 view .LVU346
 1389 003c EAE7     		b	.L86
 1390              	.L94:
2266:VS4210/keyremo.c **** 			Key |= DOWNKEY;
 1391              		.loc 1 2266 38 is_stmt 0 discriminator 1 view .LVU347
 1392 003e 1949     		ldr	r1, .L96+16
 1393 0040 4978     		ldrb	r1, [r1, #1]	@ zero_extendqisi2
2266:VS4210/keyremo.c **** 			Key |= DOWNKEY;
 1394              		.loc 1 2266 26 discriminator 1 view .LVU348
 1395 0042 0329     		cmp	r1, #3
 1396 0044 F5D1     		bne	.L84
2266:VS4210/keyremo.c **** 			Key |= DOWNKEY;
 1397              		.loc 1 2266 60 discriminator 2 view .LVU349
 1398 0046 1749     		ldr	r1, .L96+16
 1399 0048 8978     		ldrb	r1, [r1, #2]	@ zero_extendqisi2
2266:VS4210/keyremo.c **** 			Key |= DOWNKEY;
 1400              		.loc 1 2266 48 discriminator 2 view .LVU350
 1401 004a 0229     		cmp	r1, #2
 1402 004c F1D1     		bne	.L84
2266:VS4210/keyremo.c **** 			Key |= DOWNKEY;
 1403              		.loc 1 2266 82 discriminator 3 view .LVU351
 1404 004e 1549     		ldr	r1, .L96+16
 1405 0050 C978     		ldrb	r1, [r1, #3]	@ zero_extendqisi2
2266:VS4210/keyremo.c **** 			Key |= DOWNKEY;
 1406              		.loc 1 2266 70 discriminator 3 view .LVU352
 1407 0052 0029     		cmp	r1, #0
 1408 0054 EDD1     		bne	.L84
2267:VS4210/keyremo.c **** #else
 1409              		.loc 1 2267 4 is_stmt 1 view .LVU353
2267:VS4210/keyremo.c **** #else
 1410              		.loc 1 2267 8 is_stmt 0 view .LVU354
 1411 0056 43F00203 		orr	r3, r3, #2
 1412 005a 114A     		ldr	r2, .L96+12
 1413 005c 1370     		strb	r3, [r2]
 1414 005e EAE7     		b	.L85
 1415              	.L95:
2282:VS4210/keyremo.c **** 			Key |= UPKEY;
 1416              		.loc 1 2282 43 discriminator 1 view .LVU355
 1417 0060 104A     		ldr	r2, .L96+16
 1418 0062 5278     		ldrb	r2, [r2, #1]	@ zero_extendqisi2
2282:VS4210/keyremo.c **** 			Key |= UPKEY;
 1419              		.loc 1 2282 31 discriminator 1 view .LVU356
 1420 0064 032A     		cmp	r2, #3
 1421 0066 E6D1     		bne	.L85
2282:VS4210/keyremo.c **** 			Key |= UPKEY;
 1422              		.loc 1 2282 65 discriminator 2 view .LVU357
 1423 0068 0E4A     		ldr	r2, .L96+16
 1424 006a 9278     		ldrb	r2, [r2, #2]	@ zero_extendqisi2
ARM GAS  C:\Users\ryanc.HS\AppData\Local\Temp\ccZ9UySd.s 			page 71


2282:VS4210/keyremo.c **** 			Key |= UPKEY;
 1425              		.loc 1 2282 53 discriminator 2 view .LVU358
 1426 006c 012A     		cmp	r2, #1
 1427 006e E2D1     		bne	.L85
2282:VS4210/keyremo.c **** 			Key |= UPKEY;
 1428              		.loc 1 2282 87 discriminator 3 view .LVU359
 1429 0070 0C4A     		ldr	r2, .L96+16
 1430 0072 D278     		ldrb	r2, [r2, #3]	@ zero_extendqisi2
2282:VS4210/keyremo.c **** 			Key |= UPKEY;
 1431              		.loc 1 2282 75 discriminator 3 view .LVU360
 1432 0074 002A     		cmp	r2, #0
 1433 0076 DED1     		bne	.L85
2283:VS4210/keyremo.c **** 			//	else if((updn_reg[0] == 1) && (updn_reg[1] == 0)&& (updn_reg[2] == 2)&& (updn_reg[3] == 3)) /
 1434              		.loc 1 2283 4 is_stmt 1 view .LVU361
2283:VS4210/keyremo.c **** 			//	else if((updn_reg[0] == 1) && (updn_reg[1] == 0)&& (updn_reg[2] == 2)&& (updn_reg[3] == 3)) /
 1435              		.loc 1 2283 8 is_stmt 0 view .LVU362
 1436 0078 43F00103 		orr	r3, r3, #1
 1437 007c 084A     		ldr	r2, .L96+12
 1438 007e 1370     		strb	r3, [r2]
 1439 0080 D9E7     		b	.L85
 1440              	.LVL106:
 1441              	.L92:
2379:VS4210/keyremo.c **** 	if (!RepeatKey)
 1442              		.loc 1 2379 3 is_stmt 1 view .LVU363
2379:VS4210/keyremo.c **** 	if (!RepeatKey)
 1443              		.loc 1 2379 10 is_stmt 0 view .LVU364
 1444 0082 074B     		ldr	r3, .L96+12
 1445 0084 1878     		ldrb	r0, [r3]	@ zero_extendqisi2
 1446              	.LVL107:
2379:VS4210/keyremo.c **** 	if (!RepeatKey)
 1447              		.loc 1 2379 10 view .LVU365
 1448 0086 7047     		bx	lr
 1449              	.LVL108:
 1450              	.L93:
2381:VS4210/keyremo.c **** 
 1451              		.loc 1 2381 3 is_stmt 1 view .LVU366
2381:VS4210/keyremo.c **** 
 1452              		.loc 1 2381 10 is_stmt 0 view .LVU367
 1453 0088 054B     		ldr	r3, .L96+12
 1454 008a 1878     		ldrb	r0, [r3]	@ zero_extendqisi2
 1455              	.LVL109:
2381:VS4210/keyremo.c **** 
 1456              		.loc 1 2381 10 view .LVU368
 1457 008c 7047     		bx	lr
 1458              	.LVL110:
 1459              	.L89:
2377:VS4210/keyremo.c **** 	if (repeat)
 1460              		.loc 1 2377 10 view .LVU369
 1461 008e 0020     		movs	r0, #0
 1462              	.LVL111:
2377:VS4210/keyremo.c **** 	if (repeat)
 1463              		.loc 1 2377 10 view .LVU370
 1464 0090 C6E7     		b	.L87
 1465              	.L97:
 1466 0092 00BF     		.align	2
 1467              	.L96:
 1468 0094 00000000 		.word	KeyReady
ARM GAS  C:\Users\ryanc.HS\AppData\Local\Temp\ccZ9UySd.s 			page 72


 1469 0098 00000000 		.word	ChangeKey
 1470 009c 00000000 		.word	RepeatKey
 1471 00a0 00000000 		.word	Key
 1472 00a4 00000000 		.word	.LANCHOR7
 1473              		.cfi_endproc
 1474              	.LFE83:
 1476              		.section	.rodata.SetSelectCAMRD.str1.4,"aMS",%progbits,1
 1477              		.align	2
 1478              	.LC7:
 1479 0000 28536574 		.ascii	"(SetSelectCAMRD..)\015\012\000"
 1479      53656C65 
 1479      63744341 
 1479      4D52442E 
 1479      2E290D0A 
 1480 0015 000000   		.align	2
 1481              	.LC8:
 1482 0018 285A3129 		.ascii	"(Z1) index=%02x\015\012\000"
 1482      20696E64 
 1482      65783D25 
 1482      3032780D 
 1482      0A00
 1483 002a 0000     		.align	2
 1484              	.LC9:
 1485 002c 285A3229 		.ascii	"(Z2) index=%02x\015\012\000"
 1485      20696E64 
 1485      65783D25 
 1485      3032780D 
 1485      0A00
 1486 003e 0000     		.align	2
 1487              	.LC10:
 1488 0040 282A4348 		.ascii	"(*CHange D index=%02x SEQFlag=%02x VideoD=%02x)\015"
 1488      616E6765 
 1488      20442069 
 1488      6E646578 
 1488      3D253032 
 1489 0070 0A00     		.ascii	"\012\000"
 1490 0072 0000     		.align	2
 1491              	.LC11:
 1492 0074 2843414D 		.ascii	"(CAMD)\015\012\000"
 1492      44290D0A 
 1492      00
 1493 007d 000000   		.align	2
 1494              	.LC12:
 1495 0080 28526573 		.ascii	"(Reset CAMD)\015\012\000"
 1495      65742043 
 1495      414D4429 
 1495      0D0A00
 1496 008f 00       		.align	2
 1497              	.LC13:
 1498 0090 282A4368 		.ascii	"(*Change C index=%02x VideoR=%02x)\000"
 1498      616E6765 
 1498      20432069 
 1498      6E646578 
 1498      3D253032 
 1499 00b3 00       		.align	2
 1500              	.LC14:
 1501 00b4 2843414D 		.ascii	"(CAMR)\015\012\000"
ARM GAS  C:\Users\ryanc.HS\AppData\Local\Temp\ccZ9UySd.s 			page 73


 1501      52290D0A 
 1501      00
 1502 00bd 000000   		.align	2
 1503              	.LC15:
 1504 00c0 28526573 		.ascii	"(Reset CAMR)\015\012\000"
 1504      65742043 
 1504      414D5229 
 1504      0D0A00
 1505 00cf 00       		.align	2
 1506              	.LC16:
 1507 00d0 282A5031 		.ascii	"(*P1)\000"
 1507      2900
 1508 00d6 0000     		.align	2
 1509              	.LC17:
 1510 00d8 282A5032 		.ascii	"(*P2)\000"
 1510      2900
 1511              		.section	.text.SetSelectCAMRD,"ax",%progbits
 1512              		.align	1
 1513              		.global	SetSelectCAMRD
 1514              		.syntax unified
 1515              		.thumb
 1516              		.thumb_func
 1517              		.fpu softvfp
 1519              	SetSelectCAMRD:
 1520              	.LVL112:
 1521              	.LFB85:
2385:VS4210/keyremo.c **** 
2386:VS4210/keyremo.c **** //=============================================================================
2387:VS4210/keyremo.c **** //		CheckRemo
2388:VS4210/keyremo.c **** //=============================================================================
2389:VS4210/keyremo.c **** #if 0 // def REMO_RC5
2390:VS4210/keyremo.c **** 
2391:VS4210/keyremo.c **** BYTE IsRemoDataReady(BYTE *DataCode, BYTE *AutoKey)
2392:VS4210/keyremo.c **** {
2393:VS4210/keyremo.c **** 	bit togglebit;
2394:VS4210/keyremo.c **** 	static bit	LastToggle=0;
2395:VS4210/keyremo.c **** 	static BYTE AutoWait=0;
2396:VS4210/keyremo.c **** 
2397:VS4210/keyremo.c **** 	BYTE _RemoSystemCode, _RemoDataCode, _RemoDataReady;
2398:VS4210/keyremo.c **** 
2399:VS4210/keyremo.c **** 	if( !RemoDataReady ) return 0;
2400:VS4210/keyremo.c **** 
2401:VS4210/keyremo.c **** 	_RemoDataReady = RemoDataReady;
2402:VS4210/keyremo.c **** 	_RemoDataCode = RemoDataCode;
2403:VS4210/keyremo.c **** 	_RemoSystemCode = RemoSystemCode;
2404:VS4210/keyremo.c **** 
2405:VS4210/keyremo.c **** 	*AutoKey = 0;
2406:VS4210/keyremo.c **** 
2407:VS4210/keyremo.c **** 	EnableRemoconInt();
2408:VS4210/keyremo.c **** 
2409:VS4210/keyremo.c **** #ifdef DEBUG_KEYREMO
2410:VS4210/keyremo.c **** 	dPrintf("\r\n(CheckRemo)R-S:%02x, R-D:%02x", (WORD)_RemoSystemCode, (WORD)_RemoDataCode);
2411:VS4210/keyremo.c **** #endif
2412:VS4210/keyremo.c **** 
2413:VS4210/keyremo.c **** 	if( (_RemoSystemCode & 0xc0) != 0xc0 ) return 0;
2414:VS4210/keyremo.c **** 	if( (_RemoSystemCode & 0x1f) != REMO_CUSTOM ) return 0;
2415:VS4210/keyremo.c **** 
ARM GAS  C:\Users\ryanc.HS\AppData\Local\Temp\ccZ9UySd.s 			page 74


2416:VS4210/keyremo.c **** 	togglebit = LastToggle;
2417:VS4210/keyremo.c **** 	if( _RemoSystemCode & 0x20 ) LastToggle = 1;
2418:VS4210/keyremo.c **** 	else LastToggle = 0;
2419:VS4210/keyremo.c **** 
2420:VS4210/keyremo.c **** #ifdef DEBUG_KEYREMO
2421:VS4210/keyremo.c **** 	dPrintf("**** %d  %d ", (WORD)LastToggle, (WORD)_RemoDataReady);
2422:VS4210/keyremo.c **** #endif
2423:VS4210/keyremo.c **** 
2424:VS4210/keyremo.c **** 	if( LastToggle != togglebit ) {			// new key
2425:VS4210/keyremo.c **** 		AutoWait =  0;
2426:VS4210/keyremo.c **** 	}
2427:VS4210/keyremo.c **** 	else if( AutoWait>=4 ) {				// auto key
2428:VS4210/keyremo.c **** 		AutoWait++;
2429:VS4210/keyremo.c **** 		if( AutoWait>=6 ) {
2430:VS4210/keyremo.c **** 			AutoWait = 4;
2431:VS4210/keyremo.c **** 			*AutoKey = 1;
2432:VS4210/keyremo.c **** 		}
2433:VS4210/keyremo.c **** 		else return 0;
2434:VS4210/keyremo.c **** 	}
2435:VS4210/keyremo.c **** 	else {									// wait auto key
2436:VS4210/keyremo.c **** 		AutoWait++;
2437:VS4210/keyremo.c **** 		return 0;
2438:VS4210/keyremo.c **** 	}
2439:VS4210/keyremo.c **** 
2440:VS4210/keyremo.c **** #ifdef DEBUG_KEYREMO
2441:VS4210/keyremo.c **** 	if( *AutoKey ) {
2442:VS4210/keyremo.c **** 		dPuts(" ---> AutoKey ");
2443:VS4210/keyremo.c **** 	}
2444:VS4210/keyremo.c **** 	else {
2445:VS4210/keyremo.c **** 		dPuts(" ---> New Key ");
2446:VS4210/keyremo.c **** 	}
2447:VS4210/keyremo.c **** #endif
2448:VS4210/keyremo.c **** 
2449:VS4210/keyremo.c **** 	*DataCode = _RemoDataCode;
2450:VS4210/keyremo.c **** 	return 1;
2451:VS4210/keyremo.c **** }
2452:VS4210/keyremo.c **** 
2453:VS4210/keyremo.c **** ///#elif defined REMO_NEC
2454:VS4210/keyremo.c **** extern DATA		BYTE	 RemoData[4];
2455:VS4210/keyremo.c **** 
2456:VS4210/keyremo.c **** BYTE IsRemoDataReady(BYTE *DataCode, BYTE *AutoKey)
2457:VS4210/keyremo.c **** {
2458:VS4210/keyremo.c **** 	static BYTE AutoWait=0;
2459:VS4210/keyremo.c **** 	static IDATA BYTE LastDataCode=0xff;
2460:VS4210/keyremo.c **** 	static IDATA BYTE repeatcnt=0;
2461:VS4210/keyremo.c **** 	BYTE ret =0 ;
2462:VS4210/keyremo.c **** 
2463:VS4210/keyremo.c **** 	*AutoKey = 0;
2464:VS4210/keyremo.c **** 	switch ( RemoDataReady ) {
2465:VS4210/keyremo.c **** 
2466:VS4210/keyremo.c **** 	case 0: return 0;
2467:VS4210/keyremo.c **** 
2468:VS4210/keyremo.c **** 	case 1:
2469:VS4210/keyremo.c **** #ifdef DEBUG_KEYREMO
2470:VS4210/keyremo.c **** 		dPrintf("\r\nNEC RemoData = %02x %02x %02x %02x", (WORD)RemoData[0], (WORD)RemoData[1], (WORD)Rem
2471:VS4210/keyremo.c **** #endif
2472:VS4210/keyremo.c **** 		if( (RemoData[0]==REMO_CUSTOM1) && (RemoData[1]==REMO_CUSTOM2 ) && (RemoData[2]+RemoData[3])==0xf
ARM GAS  C:\Users\ryanc.HS\AppData\Local\Temp\ccZ9UySd.s 			page 75


2473:VS4210/keyremo.c **** 			RemoDataCode = RemoData[2];
2474:VS4210/keyremo.c **** 			LastDataCode = RemoDataCode;
2475:VS4210/keyremo.c **** 			AutoWait = 0;
2476:VS4210/keyremo.c **** 			*AutoKey = 0;
2477:VS4210/keyremo.c **** 			repeatcnt = 0;
2478:VS4210/keyremo.c **** 		}
2479:VS4210/keyremo.c **** 		else {
2480:VS4210/keyremo.c **** 			RemoDataCode = 0xff;
2481:VS4210/keyremo.c **** 			LastDataCode = 0xff;
2482:VS4210/keyremo.c **** 
2483:VS4210/keyremo.c **** 			EnableRemoconInt();		//
2484:VS4210/keyremo.c **** 			return 0;
2485:VS4210/keyremo.c **** 		}
2486:VS4210/keyremo.c **** 		break;
2487:VS4210/keyremo.c **** 
2488:VS4210/keyremo.c **** 	case 2:
2489:VS4210/keyremo.c **** 		AutoWait++;
2490:VS4210/keyremo.c **** 		if( AutoWait>=6 ) {
2491:VS4210/keyremo.c **** 			RemoDataCode = LastDataCode;
2492:VS4210/keyremo.c **** 			repeatcnt++;
2493:VS4210/keyremo.c **** 			if( repeatcnt>=5 ) {
2494:VS4210/keyremo.c **** 				AutoWait = 5;
2495:VS4210/keyremo.c **** 			}
2496:VS4210/keyremo.c **** 			else
2497:VS4210/keyremo.c **** 				AutoWait = 4;
2498:VS4210/keyremo.c **** 
2499:VS4210/keyremo.c **** 			*AutoKey = 1;
2500:VS4210/keyremo.c **** 		}
2501:VS4210/keyremo.c **** 		else {
2502:VS4210/keyremo.c **** 			EnableRemoconInt();		//
2503:VS4210/keyremo.c **** 			return 0;
2504:VS4210/keyremo.c **** 		}
2505:VS4210/keyremo.c **** 		break;
2506:VS4210/keyremo.c **** 
2507:VS4210/keyremo.c **** 	}
2508:VS4210/keyremo.c **** 
2509:VS4210/keyremo.c **** 	EnableRemoconInt();		////LJY052902
2510:VS4210/keyremo.c **** 	if( RemoDataCode==0xff )	return 0;
2511:VS4210/keyremo.c **** 
2512:VS4210/keyremo.c **** #ifdef DEBUG_KEYREMO
2513:VS4210/keyremo.c **** 	dPrintf("(R-D:%02x)  ", (WORD)RemoDataCode);
2514:VS4210/keyremo.c **** #endif
2515:VS4210/keyremo.c **** 
2516:VS4210/keyremo.c **** 	*DataCode = RemoDataCode;
2517:VS4210/keyremo.c **** 	return 1;
2518:VS4210/keyremo.c **** }
2519:VS4210/keyremo.c **** 
2520:VS4210/keyremo.c **** #endif // REMO_NEC
2521:VS4210/keyremo.c **** 
2522:VS4210/keyremo.c **** #if 0 // def SUPPORT_2835_CLK_TUNE_BACK_DOOR  //Pinchi 20160929 add
2523:VS4210/keyremo.c **** void HS_Display2835ClkTuneVal(WORD val)
2524:VS4210/keyremo.c **** {
2525:VS4210/keyremo.c **** 	BYTE mstr[]={ ' ',' ' };
2526:VS4210/keyremo.c **** 	//Printf("\r\n[MSG]Display2835ClkTuneVal()=> enter to draw 2835ClkTuneVal",0);  //pinchi test
2527:VS4210/keyremo.c **** 	mstr[1] =  val % 10 + '0';	 val /= 10;
2528:VS4210/keyremo.c **** 	mstr[0] = val + '0';
2529:VS4210/keyremo.c **** 
ARM GAS  C:\Users\ryanc.HS\AppData\Local\Temp\ccZ9UySd.s 			page 76


2530:VS4210/keyremo.c **** 	InitOSDWindow(Init_Osd_DisplayInput_B);
2531:VS4210/keyremo.c **** 	SetDisplayedOSD(INPUTINFO);
2532:VS4210/keyremo.c **** 	ClearDataCnt(INPUTINFO_ADDR, 2);
2533:VS4210/keyremo.c **** 	DrawAttrCnt(INPUTINFO_ADDR , BG_COLOR_CYAN|CH_COLOR_WHITE, 2);
2534:VS4210/keyremo.c **** 	WriteStringToAddr(INPUTINFO_ADDR , mstr, 2);
2535:VS4210/keyremo.c **** 	
2536:VS4210/keyremo.c **** 	ShowOSDWindow(INPUTINFO_OSDWIN-1,TRUE);
2537:VS4210/keyremo.c **** 	ShowOSDWindowAll(1);  //0x09c  4bit : OSD ON, 1: OSD OFF
2538:VS4210/keyremo.c **** }
2539:VS4210/keyremo.c **** #endif
2540:VS4210/keyremo.c **** void CheckCAMDInputVideo(BYTE index)
2541:VS4210/keyremo.c **** {
2542:VS4210/keyremo.c **** 	WORD usNum;
2543:VS4210/keyremo.c **** 
2544:VS4210/keyremo.c **** 	SetSelectCAMRD(index);
2545:VS4210/keyremo.c **** 	Printf("(\r\n(*CheckCAMDInputVideo=%d)", (WORD)index);
2546:VS4210/keyremo.c **** //	usNum=100;
2547:VS4210/keyremo.c **** #if (RECALL_SORUCE_RESET == OFF)
2548:VS4210/keyremo.c **** 	usNum = 50;
2549:VS4210/keyremo.c **** #else
2550:VS4210/keyremo.c **** 	usNum = 20;
2551:VS4210/keyremo.c **** #endif
2552:VS4210/keyremo.c **** 	g_bNotifyTimer0Int = _FALSE;
2553:VS4210/keyremo.c **** 
2554:VS4210/keyremo.c **** 	while (_TRUE)
2555:VS4210/keyremo.c **** 	{
2556:VS4210/keyremo.c **** 		if (g_bNotifyTimer0Int)
2557:VS4210/keyremo.c **** 		{
2558:VS4210/keyremo.c **** 			g_bNotifyTimer0Int = _FALSE;
2559:VS4210/keyremo.c **** 
2560:VS4210/keyremo.c **** 			if (--usNum)
2561:VS4210/keyremo.c **** 			{
2562:VS4210/keyremo.c **** 				EQ_Detect();
2563:VS4210/keyremo.c **** 			}
2564:VS4210/keyremo.c **** 			else
2565:VS4210/keyremo.c **** 			{
2566:VS4210/keyremo.c **** 
2567:VS4210/keyremo.c **** 				return;
2568:VS4210/keyremo.c **** 			}
2569:VS4210/keyremo.c **** 		}
2570:VS4210/keyremo.c **** 	}
2571:VS4210/keyremo.c **** }
2572:VS4210/keyremo.c **** 
2573:VS4210/keyremo.c **** void SetSelectCAMRD(BYTE index)
2574:VS4210/keyremo.c **** {
 1522              		.loc 1 2574 1 is_stmt 1 view -0
 1523              		.cfi_startproc
 1524              		@ args = 0, pretend = 0, frame = 0
 1525              		@ frame_needed = 0, uses_anonymous_args = 0
 1526              		.loc 1 2574 1 is_stmt 0 view .LVU372
 1527 0000 2DE9F84F 		push	{r3, r4, r5, r6, r7, r8, r9, r10, fp, lr}
 1528              	.LCFI8:
 1529              		.cfi_def_cfa_offset 40
 1530              		.cfi_offset 3, -40
 1531              		.cfi_offset 4, -36
 1532              		.cfi_offset 5, -32
 1533              		.cfi_offset 6, -28
ARM GAS  C:\Users\ryanc.HS\AppData\Local\Temp\ccZ9UySd.s 			page 77


 1534              		.cfi_offset 7, -24
 1535              		.cfi_offset 8, -20
 1536              		.cfi_offset 9, -16
 1537              		.cfi_offset 10, -12
 1538              		.cfi_offset 11, -8
 1539              		.cfi_offset 14, -4
 1540 0004 0446     		mov	r4, r0
2575:VS4210/keyremo.c **** 
2576:VS4210/keyremo.c **** 	BYTE modeR, stdR;
 1541              		.loc 1 2576 2 is_stmt 1 view .LVU373
2577:VS4210/keyremo.c **** 	BYTE modeD, stdD;
 1542              		.loc 1 2577 2 view .LVU374
2578:VS4210/keyremo.c **** 	BYTE VideoD, VideoR;
 1543              		.loc 1 2578 2 view .LVU375
2579:VS4210/keyremo.c **** 	BYTE change = 0;
 1544              		.loc 1 2579 2 view .LVU376
 1545              	.LVL113:
2580:VS4210/keyremo.c **** 
2581:VS4210/keyremo.c **** 	stdR = ReadEEP(EEP_TP2824_STD3);
 1546              		.loc 1 2581 2 view .LVU377
 1547              		.loc 1 2581 9 is_stmt 0 view .LVU378
 1548 0006 D020     		movs	r0, #208
 1549              	.LVL114:
 1550              		.loc 1 2581 9 view .LVU379
 1551 0008 FFF7FEFF 		bl	ReadEEP
 1552              	.LVL115:
 1553 000c 8246     		mov	r10, r0
 1554              	.LVL116:
2582:VS4210/keyremo.c **** 	modeR = ReadEEP(EEP_TP2824_MODE3);
 1555              		.loc 1 2582 2 is_stmt 1 view .LVU380
 1556              		.loc 1 2582 10 is_stmt 0 view .LVU381
 1557 000e D120     		movs	r0, #209
 1558 0010 FFF7FEFF 		bl	ReadEEP
 1559              	.LVL117:
 1560 0014 8046     		mov	r8, r0
 1561              	.LVL118:
2583:VS4210/keyremo.c **** 	VideoR = ReadEEP(EEP_TP2824_SAVE3);
 1562              		.loc 1 2583 2 is_stmt 1 view .LVU382
 1563              		.loc 1 2583 11 is_stmt 0 view .LVU383
 1564 0016 D220     		movs	r0, #210
 1565 0018 FFF7FEFF 		bl	ReadEEP
 1566              	.LVL119:
 1567 001c 0546     		mov	r5, r0
 1568              	.LVL120:
2584:VS4210/keyremo.c **** 
2585:VS4210/keyremo.c **** 	stdD = ReadEEP(EEP_TP2824_STD4);
 1569              		.loc 1 2585 2 is_stmt 1 view .LVU384
 1570              		.loc 1 2585 9 is_stmt 0 view .LVU385
 1571 001e D320     		movs	r0, #211
 1572 0020 FFF7FEFF 		bl	ReadEEP
 1573              	.LVL121:
 1574 0024 8146     		mov	r9, r0
 1575              	.LVL122:
2586:VS4210/keyremo.c **** 	modeD = ReadEEP(EEP_TP2824_MODE4);
 1576              		.loc 1 2586 2 is_stmt 1 view .LVU386
 1577              		.loc 1 2586 10 is_stmt 0 view .LVU387
 1578 0026 D420     		movs	r0, #212
ARM GAS  C:\Users\ryanc.HS\AppData\Local\Temp\ccZ9UySd.s 			page 78


 1579 0028 FFF7FEFF 		bl	ReadEEP
 1580              	.LVL123:
 1581 002c 0746     		mov	r7, r0
 1582              	.LVL124:
2587:VS4210/keyremo.c **** 	VideoD = ReadEEP(EEP_TP2824_SAVE4);
 1583              		.loc 1 2587 2 is_stmt 1 view .LVU388
 1584              		.loc 1 2587 11 is_stmt 0 view .LVU389
 1585 002e D520     		movs	r0, #213
 1586 0030 FFF7FEFF 		bl	ReadEEP
 1587              	.LVL125:
 1588 0034 0646     		mov	r6, r0
 1589              	.LVL126:
2588:VS4210/keyremo.c **** 
2589:VS4210/keyremo.c **** #if (_DEBUG_MESSAGE_Source_Change == ON)
2590:VS4210/keyremo.c **** 	GraphicsPrint(YELLOW, "(SetSelectCAMRD..)\r\n");
 1590              		.loc 1 2590 2 is_stmt 1 view .LVU390
 1591 0036 6D49     		ldr	r1, .L123
 1592 0038 0320     		movs	r0, #3
 1593 003a FFF7FEFF 		bl	GraphicsPrint
 1594              	.LVL127:
2591:VS4210/keyremo.c **** #endif
2592:VS4210/keyremo.c **** 
2593:VS4210/keyremo.c **** 	switch (index)
 1595              		.loc 1 2593 2 view .LVU391
 1596 003e 372C     		cmp	r4, #55
 1597 0040 45D8     		bhi	.L113
 1598 0042 DFE804F0 		tbb	[pc, r4]
 1599              	.L101:
 1600 0046 1C       		.byte	(.L100-.L101)/2
 1601 0047 1C       		.byte	(.L100-.L101)/2
 1602 0048 1C       		.byte	(.L100-.L101)/2
 1603 0049 1C       		.byte	(.L100-.L101)/2
 1604 004a 3D       		.byte	(.L102-.L101)/2
 1605 004b 1C       		.byte	(.L100-.L101)/2
 1606 004c 1C       		.byte	(.L100-.L101)/2
 1607 004d 1C       		.byte	(.L100-.L101)/2
 1608 004e 1C       		.byte	(.L100-.L101)/2
 1609 004f 1C       		.byte	(.L100-.L101)/2
 1610 0050 1C       		.byte	(.L100-.L101)/2
 1611 0051 1C       		.byte	(.L100-.L101)/2
 1612 0052 1C       		.byte	(.L100-.L101)/2
 1613 0053 44       		.byte	(.L113-.L101)/2
 1614 0054 1C       		.byte	(.L100-.L101)/2
 1615 0055 1C       		.byte	(.L100-.L101)/2
 1616 0056 1C       		.byte	(.L100-.L101)/2
 1617 0057 1C       		.byte	(.L100-.L101)/2
 1618 0058 1C       		.byte	(.L100-.L101)/2
 1619 0059 1C       		.byte	(.L100-.L101)/2
 1620 005a 1C       		.byte	(.L100-.L101)/2
 1621 005b 1C       		.byte	(.L100-.L101)/2
 1622 005c 1C       		.byte	(.L100-.L101)/2
 1623 005d 1C       		.byte	(.L100-.L101)/2
 1624 005e 1C       		.byte	(.L100-.L101)/2
 1625 005f 1C       		.byte	(.L100-.L101)/2
 1626 0060 1C       		.byte	(.L100-.L101)/2
 1627 0061 1C       		.byte	(.L100-.L101)/2
 1628 0062 1C       		.byte	(.L100-.L101)/2
ARM GAS  C:\Users\ryanc.HS\AppData\Local\Temp\ccZ9UySd.s 			page 79


 1629 0063 1C       		.byte	(.L100-.L101)/2
 1630 0064 1C       		.byte	(.L100-.L101)/2
 1631 0065 1C       		.byte	(.L100-.L101)/2
 1632 0066 1C       		.byte	(.L100-.L101)/2
 1633 0067 1C       		.byte	(.L100-.L101)/2
 1634 0068 1C       		.byte	(.L100-.L101)/2
 1635 0069 1C       		.byte	(.L100-.L101)/2
 1636 006a 1C       		.byte	(.L100-.L101)/2
 1637 006b 1C       		.byte	(.L100-.L101)/2
 1638 006c 1C       		.byte	(.L100-.L101)/2
 1639 006d 1C       		.byte	(.L100-.L101)/2
 1640 006e 1C       		.byte	(.L100-.L101)/2
 1641 006f 1C       		.byte	(.L100-.L101)/2
 1642 0070 1C       		.byte	(.L100-.L101)/2
 1643 0071 1C       		.byte	(.L100-.L101)/2
 1644 0072 1C       		.byte	(.L100-.L101)/2
 1645 0073 1C       		.byte	(.L100-.L101)/2
 1646 0074 1C       		.byte	(.L100-.L101)/2
 1647 0075 1C       		.byte	(.L100-.L101)/2
 1648 0076 1C       		.byte	(.L100-.L101)/2
 1649 0077 1C       		.byte	(.L100-.L101)/2
 1650 0078 1C       		.byte	(.L100-.L101)/2
 1651 0079 1C       		.byte	(.L100-.L101)/2
 1652 007a 1C       		.byte	(.L100-.L101)/2
 1653 007b 1C       		.byte	(.L100-.L101)/2
 1654 007c 1C       		.byte	(.L100-.L101)/2
 1655 007d 1C       		.byte	(.L100-.L101)/2
 1656              		.p2align 1
 1657              	.L100:
2594:VS4210/keyremo.c **** 	{
2595:VS4210/keyremo.c **** 	case VS4210_LOOP_MODE0_w0:
2596:VS4210/keyremo.c **** 	case VS4210_LOOP_MODE0_w1:
2597:VS4210/keyremo.c **** 	case VS4210_LOOP_MODE0_w2:
2598:VS4210/keyremo.c **** 	case VS4210_LOOP_MODE0_w3:
2599:VS4210/keyremo.c **** 	case VS4210_LOOP_MODE1:
2600:VS4210/keyremo.c **** 	case VS4210_LOOP_MODE2:
2601:VS4210/keyremo.c **** 	case VS4210_LOOP_MODE10_123:
2602:VS4210/keyremo.c **** 	case VS4210_LOOP_MODE8:
2603:VS4210/keyremo.c **** 	case VS4210_LOOP_MODE9:
2604:VS4210/keyremo.c **** 	case VS4210_LOOP_MODE12_12:
2605:VS4210/keyremo.c **** 	case VS4210_LOOP_MODE12_34:
2606:VS4210/keyremo.c **** 	case VS4210_LOOP_MODE12_14:
2607:VS4210/keyremo.c **** 	case VS4210_LOOP_MODE12_42:
2608:VS4210/keyremo.c **** 	case VS4210_LOOP_MODE12_43:
2609:VS4210/keyremo.c **** 	case VS4210_LOOP_MODE12_21:
2610:VS4210/keyremo.c **** 	case VS4210_LOOP_MODE12_23:
2611:VS4210/keyremo.c **** 	case VS4210_LOOP_MODE12_24:
2612:VS4210/keyremo.c **** 	case VS4210_LOOP_MODE12_13:
2613:VS4210/keyremo.c **** 	case VS4210_LOOP_MODE12_31:
2614:VS4210/keyremo.c **** 	case VS4210_LOOP_MODE12_32:
2615:VS4210/keyremo.c **** 	case VS4210_LOOP_MODE8_412:
2616:VS4210/keyremo.c **** 	case VS4210_LOOP_MODE8_123:
2617:VS4210/keyremo.c **** 	case VS4210_LOOP_MODE8_124:
2618:VS4210/keyremo.c **** 	case VS4210_LOOP_MODE8_134:
2619:VS4210/keyremo.c **** 	case VS4210_LOOP_MODE8_213:
2620:VS4210/keyremo.c **** 	case VS4210_LOOP_MODE8_214:
2621:VS4210/keyremo.c **** 	case VS4210_LOOP_MODE8_234:
ARM GAS  C:\Users\ryanc.HS\AppData\Local\Temp\ccZ9UySd.s 			page 80


2622:VS4210/keyremo.c **** 	case VS4210_LOOP_MODE8_312:
2623:VS4210/keyremo.c **** 	case VS4210_LOOP_MODE8_314:
2624:VS4210/keyremo.c **** 	case VS4210_LOOP_MODE8_324:
2625:VS4210/keyremo.c **** 	case VS4210_LOOP_MODE10_412:
2626:VS4210/keyremo.c **** 	case VS4210_LOOP_MODE10_413:
2627:VS4210/keyremo.c **** 	case VS4210_LOOP_MODE10_423:
2628:VS4210/keyremo.c **** 	case VS4210_LOOP_MODE8_413:
2629:VS4210/keyremo.c **** 	case VS4210_LOOP_MODE8_423:
2630:VS4210/keyremo.c **** 	case VS4210_LOOP_MODE14:
2631:VS4210/keyremo.c **** 	case VS4210_LOOP_MODE9_412:
2632:VS4210/keyremo.c **** 	case VS4210_LOOP_MODE9_123:
2633:VS4210/keyremo.c **** 	case VS4210_LOOP_MODE9_124:
2634:VS4210/keyremo.c **** 	case VS4210_LOOP_MODE9_134:
2635:VS4210/keyremo.c **** 	case VS4210_LOOP_MODE9_213:
2636:VS4210/keyremo.c **** 	case VS4210_LOOP_MODE9_214:
2637:VS4210/keyremo.c **** 	case VS4210_LOOP_MODE9_234:
2638:VS4210/keyremo.c **** 	case VS4210_LOOP_MODE9_312:
2639:VS4210/keyremo.c **** 	case VS4210_LOOP_MODE9_314:
2640:VS4210/keyremo.c **** 	case VS4210_LOOP_MODE9_324:
2641:VS4210/keyremo.c **** 	case VS4210_LOOP_MODE10_124:
2642:VS4210/keyremo.c **** 	case VS4210_LOOP_MODE10_134:
2643:VS4210/keyremo.c **** 	case VS4210_LOOP_MODE10_213:
2644:VS4210/keyremo.c **** 	case VS4210_LOOP_MODE10_214:
2645:VS4210/keyremo.c **** 	case VS4210_LOOP_MODE10_234:
2646:VS4210/keyremo.c **** 	case VS4210_LOOP_MODE10_312:
2647:VS4210/keyremo.c **** 	case VS4210_LOOP_MODE10_314:
2648:VS4210/keyremo.c **** 	case VS4210_LOOP_MODE10_324:
2649:VS4210/keyremo.c **** 
2650:VS4210/keyremo.c **** 		change = SelectCameraR;
 1658              		.loc 1 2650 3 view .LVU392
 1659              	.LVL128:
2651:VS4210/keyremo.c **** #if (_DEBUG_MESSAGE_Source_Change == ON)
2652:VS4210/keyremo.c **** 		GraphicsPrint(RED, "(Z1) index=%02x\r\n", (WORD)index);
 1660              		.loc 1 2652 3 view .LVU393
 1661 007e 2246     		mov	r2, r4
 1662 0080 5B49     		ldr	r1, .L123+4
 1663 0082 0120     		movs	r0, #1
 1664 0084 FFF7FEFF 		bl	GraphicsPrint
 1665              	.LVL129:
2653:VS4210/keyremo.c **** #endif
2654:VS4210/keyremo.c **** 		break;
 1666              		.loc 1 2654 3 view .LVU394
2650:VS4210/keyremo.c **** #if (_DEBUG_MESSAGE_Source_Change == ON)
 1667              		.loc 1 2650 10 is_stmt 0 view .LVU395
 1668 0088 0322     		movs	r2, #3
 1669              	.LVL130:
 1670              	.L99:
2655:VS4210/keyremo.c **** 	case VS4210_LOOP_MODE0_w4:
2656:VS4210/keyremo.c **** 		change = SelectCameraD;
2657:VS4210/keyremo.c **** #if (_DEBUG_MESSAGE_Source_Change == ON)
2658:VS4210/keyremo.c **** 		GraphicsPrint(RED, "(Z2) index=%02x\r\n", (WORD)index);
2659:VS4210/keyremo.c **** #endif
2660:VS4210/keyremo.c **** 
2661:VS4210/keyremo.c **** 		break;
2662:VS4210/keyremo.c **** 	}
2663:VS4210/keyremo.c **** 
2664:VS4210/keyremo.c **** 	if ((bytSelectCAMRD != SelectCameraD) && (change == SelectCameraD)) /// CMAERA D
ARM GAS  C:\Users\ryanc.HS\AppData\Local\Temp\ccZ9UySd.s 			page 81


 1671              		.loc 1 2664 2 is_stmt 1 view .LVU396
 1672              		.loc 1 2664 22 is_stmt 0 view .LVU397
 1673 008a 5A4B     		ldr	r3, .L123+8
 1674 008c 1B78     		ldrb	r3, [r3]	@ zero_extendqisi2
 1675              		.loc 1 2664 5 view .LVU398
 1676 008e 042B     		cmp	r3, #4
 1677 0090 01D0     		beq	.L103
 1678              		.loc 1 2664 40 discriminator 1 view .LVU399
 1679 0092 042A     		cmp	r2, #4
 1680 0094 1DD0     		beq	.L115
 1681              	.L103:
2665:VS4210/keyremo.c **** 	{
2666:VS4210/keyremo.c **** #if (_DEBUG_MESSAGE_Source_Change == ON)
2667:VS4210/keyremo.c **** 		Printf("(*CHange D index=%02x SEQFlag=%02x VideoD=%02x)\r\n", (WORD)index, (WORD)SEQFlag, (WORD)V
2668:VS4210/keyremo.c **** #endif
2669:VS4210/keyremo.c **** 
2670:VS4210/keyremo.c **** 		// if(TriggerFlag==0)
2671:VS4210/keyremo.c **** 		// if((SEQFlag==0))
2672:VS4210/keyremo.c **** 		bytSelectCAMRD = SelectCameraD;
2673:VS4210/keyremo.c **** 
2674:VS4210/keyremo.c **** 		CAM_R_SW(OFF);
2675:VS4210/keyremo.c **** 		CAM_D_SW(ON);
2676:VS4210/keyremo.c **** 
2677:VS4210/keyremo.c **** 		VideoSave[3] = VideoD;
2678:VS4210/keyremo.c **** 		// if((VideoD==_TRUE)&&(stdD!=stdR)&&(modeD!=modeR))
2679:VS4210/keyremo.c **** 		if ((BOOT_ISSUE == 0) && (VideoD == _TRUE) && ((modeD != modeR) || (index == VS4210_LOOP_MODE0_w4
2680:VS4210/keyremo.c **** 		{
2681:VS4210/keyremo.c **** 			// VideoSave[3]= VideoD;
2682:VS4210/keyremo.c **** 			Boot_Trigger_Function(3);
2683:VS4210/keyremo.c **** // Printf("\r\n(SetSelectCAMD)");
2684:VS4210/keyremo.c **** /*
2685:VS4210/keyremo.c **** if((stdD==1)&&(modeD==2))
2686:VS4210/keyremo.c ****    {
2687:VS4210/keyremo.c **** 	tp28xx_byte_write(0x40, 0x03);
2688:VS4210/keyremo.c **** 	 tp28xx_byte_write(0xfb, 0x88);
2689:VS4210/keyremo.c ****    }
2690:VS4210/keyremo.c **** */
2691:VS4210/keyremo.c **** #if (_DEBUG_MESSAGE_Source_Change == ON)
2692:VS4210/keyremo.c **** 			GraphicsPrint(RED, "(CAMD)\r\n");
2693:VS4210/keyremo.c **** #endif
2694:VS4210/keyremo.c **** 		}
2695:VS4210/keyremo.c **** 		else if ((VideoD == 0xFF) && (VideoR == _TRUE))
2696:VS4210/keyremo.c **** 		{
2697:VS4210/keyremo.c **** #if (_DEBUG_MESSAGE_Source_Change == ON)
2698:VS4210/keyremo.c **** 			GraphicsPrint(YELLOW, "(Reset CAMD)\r\n");
2699:VS4210/keyremo.c **** #endif
2700:VS4210/keyremo.c **** 			if (TriggerFlag)
2701:VS4210/keyremo.c **** 				VS4210_Rx_NoSignal(3); // blue screen
2702:VS4210/keyremo.c **** 			SETChannelReset(3);
2703:VS4210/keyremo.c **** 		}
2704:VS4210/keyremo.c **** 	}
2705:VS4210/keyremo.c **** 	else if (((change == SelectCameraR) && (bytSelectCAMRD != SelectCameraR)) /*||(TriggerStatus==4)*/
 1682              		.loc 1 2705 7 is_stmt 1 view .LVU400
 1683              		.loc 1 2705 10 is_stmt 0 view .LVU401
 1684 0096 032A     		cmp	r2, #3
 1685 0098 59D0     		beq	.L116
 1686              	.L108:
ARM GAS  C:\Users\ryanc.HS\AppData\Local\Temp\ccZ9UySd.s 			page 82


2706:VS4210/keyremo.c **** 	{
2707:VS4210/keyremo.c **** 
2708:VS4210/keyremo.c **** #if (_DEBUG_MESSAGE_Source_Change == ON)
2709:VS4210/keyremo.c **** 		Printf("(*Change C index=%02x VideoR=%02x)", (WORD)index, (WORD)VideoR);
2710:VS4210/keyremo.c **** #endif
2711:VS4210/keyremo.c **** 
2712:VS4210/keyremo.c **** 		// if(TriggerFlag==0)
2713:VS4210/keyremo.c **** 		bytSelectCAMRD = SelectCameraR;
2714:VS4210/keyremo.c **** 
2715:VS4210/keyremo.c **** 		CAM_R_SW(ON);
2716:VS4210/keyremo.c **** 		CAM_D_SW(OFF);
2717:VS4210/keyremo.c **** 
2718:VS4210/keyremo.c **** 		VideoSave[3] = VideoR;
2719:VS4210/keyremo.c **** 		//	if((VideoR==_TRUE)&&(stdD!=stdR)&&(modeD!=modeR))
2720:VS4210/keyremo.c **** 		if ((BOOT_ISSUE == 0) && (VideoR == _TRUE) && ((modeD != modeR) || (index != VS4210_LOOP_MODE0_w4
2721:VS4210/keyremo.c **** 		{
2722:VS4210/keyremo.c **** 			// VideoSave[3]= VideoR;
2723:VS4210/keyremo.c **** 			Boot_Trigger_Function(3);
2724:VS4210/keyremo.c **** 			// Printf("\r\n(SetSelectCAMR)");
2725:VS4210/keyremo.c **** 			/*
2726:VS4210/keyremo.c **** 			  if((stdR==1)&&(modeR==2))
2727:VS4210/keyremo.c **** 			   {
2728:VS4210/keyremo.c **** 				  tp28xx_byte_write(0x40, 0x03);
2729:VS4210/keyremo.c **** 			   tp28xx_byte_write(0xfb, 0x88);
2730:VS4210/keyremo.c **** 			   }
2731:VS4210/keyremo.c **** 			  */
2732:VS4210/keyremo.c **** #if (_DEBUG_MESSAGE_Source_Change == ON)
2733:VS4210/keyremo.c **** 			GraphicsPrint(RED, "(CAMR)\r\n");
2734:VS4210/keyremo.c **** #endif
2735:VS4210/keyremo.c **** 		}
2736:VS4210/keyremo.c **** 		else if ((VideoR == 0xFF) && (VideoD == _TRUE))
2737:VS4210/keyremo.c **** 		{
2738:VS4210/keyremo.c **** #if (_DEBUG_MESSAGE_Source_Change == ON)
2739:VS4210/keyremo.c **** 			GraphicsPrint(YELLOW, "(Reset CAMR)\r\n");
2740:VS4210/keyremo.c **** #endif
2741:VS4210/keyremo.c **** 			if (TriggerFlag)
2742:VS4210/keyremo.c **** 				VS4210_Rx_NoSignal(3); // blue screen
2743:VS4210/keyremo.c **** 			SETChannelReset(3);
2744:VS4210/keyremo.c **** 		}
2745:VS4210/keyremo.c **** 	}
2746:VS4210/keyremo.c **** 	else
2747:VS4210/keyremo.c **** 	{
2748:VS4210/keyremo.c **** 
2749:VS4210/keyremo.c **** 		if (bytSelectCAMRD == SelectCameraD)
 1687              		.loc 1 2749 3 is_stmt 1 view .LVU402
 1688              		.loc 1 2749 6 is_stmt 0 view .LVU403
 1689 009a 042B     		cmp	r3, #4
 1690 009c 00F09680 		beq	.L117
2750:VS4210/keyremo.c **** 		{
2751:VS4210/keyremo.c **** 			CAM_R_SW(OFF);
2752:VS4210/keyremo.c **** 			CAM_D_SW(ON);
2753:VS4210/keyremo.c **** #if (_DEBUG_MESSAGE_Source_Change == ON)
2754:VS4210/keyremo.c **** 			Printf("(*P1)");
2755:VS4210/keyremo.c **** #endif
2756:VS4210/keyremo.c **** 		}
2757:VS4210/keyremo.c **** 		else
2758:VS4210/keyremo.c **** 		{
ARM GAS  C:\Users\ryanc.HS\AppData\Local\Temp\ccZ9UySd.s 			page 83


2759:VS4210/keyremo.c **** 			CAM_R_SW(ON);
 1691              		.loc 1 2759 4 is_stmt 1 view .LVU404
 1692 00a0 554C     		ldr	r4, .L123+12
 1693 00a2 0122     		movs	r2, #1
 1694              	.LVL131:
 1695              		.loc 1 2759 4 is_stmt 0 view .LVU405
 1696 00a4 1146     		mov	r1, r2
 1697 00a6 2046     		mov	r0, r4
 1698 00a8 FFF7FEFF 		bl	HAL_GPIO_WritePin
 1699              	.LVL132:
2760:VS4210/keyremo.c **** 			CAM_D_SW(OFF);
 1700              		.loc 1 2760 4 is_stmt 1 view .LVU406
 1701 00ac 0022     		movs	r2, #0
 1702 00ae 0221     		movs	r1, #2
 1703 00b0 2046     		mov	r0, r4
 1704 00b2 FFF7FEFF 		bl	HAL_GPIO_WritePin
 1705              	.LVL133:
2761:VS4210/keyremo.c **** #if (_DEBUG_MESSAGE_Source_Change == ON)
2762:VS4210/keyremo.c **** 			Printf("(*P2)");
 1706              		.loc 1 2762 4 view .LVU407
 1707 00b6 5148     		ldr	r0, .L123+16
 1708 00b8 FFF7FEFF 		bl	Printf
 1709              	.LVL134:
 1710              	.L98:
2763:VS4210/keyremo.c **** #endif
2764:VS4210/keyremo.c **** 		}
2765:VS4210/keyremo.c **** 	}
2766:VS4210/keyremo.c **** }
 1711              		.loc 1 2766 1 is_stmt 0 view .LVU408
 1712 00bc BDE8F88F 		pop	{r3, r4, r5, r6, r7, r8, r9, r10, fp, pc}
 1713              	.LVL135:
 1714              	.L102:
2656:VS4210/keyremo.c **** #if (_DEBUG_MESSAGE_Source_Change == ON)
 1715              		.loc 1 2656 3 is_stmt 1 view .LVU409
2658:VS4210/keyremo.c **** #endif
 1716              		.loc 1 2658 3 view .LVU410
 1717 00c0 2246     		mov	r2, r4
 1718 00c2 4F49     		ldr	r1, .L123+20
 1719 00c4 0120     		movs	r0, #1
 1720 00c6 FFF7FEFF 		bl	GraphicsPrint
 1721              	.LVL136:
2661:VS4210/keyremo.c **** 	}
 1722              		.loc 1 2661 3 view .LVU411
2656:VS4210/keyremo.c **** #if (_DEBUG_MESSAGE_Source_Change == ON)
 1723              		.loc 1 2656 10 is_stmt 0 view .LVU412
 1724 00ca 2246     		mov	r2, r4
2661:VS4210/keyremo.c **** 	}
 1725              		.loc 1 2661 3 view .LVU413
 1726 00cc DDE7     		b	.L99
 1727              	.LVL137:
 1728              	.L113:
2590:VS4210/keyremo.c **** #endif
 1729              		.loc 1 2590 2 view .LVU414
 1730 00ce 0022     		movs	r2, #0
 1731 00d0 DBE7     		b	.L99
 1732              	.LVL138:
 1733              	.L115:
ARM GAS  C:\Users\ryanc.HS\AppData\Local\Temp\ccZ9UySd.s 			page 84


2667:VS4210/keyremo.c **** #endif
 1734              		.loc 1 2667 3 is_stmt 1 view .LVU415
 1735 00d2 3346     		mov	r3, r6
 1736 00d4 4B4A     		ldr	r2, .L123+24
 1737              	.LVL139:
2667:VS4210/keyremo.c **** #endif
 1738              		.loc 1 2667 3 is_stmt 0 view .LVU416
 1739 00d6 1278     		ldrb	r2, [r2]	@ zero_extendqisi2
 1740 00d8 2146     		mov	r1, r4
 1741 00da 4B48     		ldr	r0, .L123+28
 1742 00dc FFF7FEFF 		bl	Printf
 1743              	.LVL140:
2672:VS4210/keyremo.c **** 
 1744              		.loc 1 2672 3 is_stmt 1 view .LVU417
2672:VS4210/keyremo.c **** 
 1745              		.loc 1 2672 18 is_stmt 0 view .LVU418
 1746 00e0 444B     		ldr	r3, .L123+8
 1747 00e2 0422     		movs	r2, #4
 1748 00e4 1A70     		strb	r2, [r3]
2674:VS4210/keyremo.c **** 		CAM_D_SW(ON);
 1749              		.loc 1 2674 3 is_stmt 1 view .LVU419
 1750 00e6 DFF810B1 		ldr	fp, .L123+12
 1751 00ea 0022     		movs	r2, #0
 1752 00ec 0121     		movs	r1, #1
 1753 00ee 5846     		mov	r0, fp
 1754 00f0 FFF7FEFF 		bl	HAL_GPIO_WritePin
 1755              	.LVL141:
2675:VS4210/keyremo.c **** 
 1756              		.loc 1 2675 3 view .LVU420
 1757 00f4 0122     		movs	r2, #1
 1758 00f6 0221     		movs	r1, #2
 1759 00f8 5846     		mov	r0, fp
 1760 00fa FFF7FEFF 		bl	HAL_GPIO_WritePin
 1761              	.LVL142:
2677:VS4210/keyremo.c **** 		// if((VideoD==_TRUE)&&(stdD!=stdR)&&(modeD!=modeR))
 1762              		.loc 1 2677 3 view .LVU421
2677:VS4210/keyremo.c **** 		// if((VideoD==_TRUE)&&(stdD!=stdR)&&(modeD!=modeR))
 1763              		.loc 1 2677 16 is_stmt 0 view .LVU422
 1764 00fe 434B     		ldr	r3, .L123+32
 1765 0100 DE70     		strb	r6, [r3, #3]
2679:VS4210/keyremo.c **** 		{
 1766              		.loc 1 2679 3 is_stmt 1 view .LVU423
2679:VS4210/keyremo.c **** 		{
 1767              		.loc 1 2679 19 is_stmt 0 view .LVU424
 1768 0102 434B     		ldr	r3, .L123+36
 1769 0104 1B78     		ldrb	r3, [r3]	@ zero_extendqisi2
2679:VS4210/keyremo.c **** 		{
 1770              		.loc 1 2679 6 view .LVU425
 1771 0106 0BB9     		cbnz	r3, .L104
2679:VS4210/keyremo.c **** 		{
 1772              		.loc 1 2679 25 discriminator 1 view .LVU426
 1773 0108 012E     		cmp	r6, #1
 1774 010a 0ED0     		beq	.L118
 1775              	.L104:
2695:VS4210/keyremo.c **** 		{
 1776              		.loc 1 2695 8 is_stmt 1 view .LVU427
2695:VS4210/keyremo.c **** 		{
ARM GAS  C:\Users\ryanc.HS\AppData\Local\Temp\ccZ9UySd.s 			page 85


 1777              		.loc 1 2695 11 is_stmt 0 view .LVU428
 1778 010c FF2E     		cmp	r6, #255
 1779 010e D5D1     		bne	.L98
2695:VS4210/keyremo.c **** 		{
 1780              		.loc 1 2695 29 discriminator 1 view .LVU429
 1781 0110 012D     		cmp	r5, #1
 1782 0112 D3D1     		bne	.L98
2698:VS4210/keyremo.c **** #endif
 1783              		.loc 1 2698 4 is_stmt 1 view .LVU430
 1784 0114 3F49     		ldr	r1, .L123+40
 1785 0116 0320     		movs	r0, #3
 1786 0118 FFF7FEFF 		bl	GraphicsPrint
 1787              	.LVL143:
2700:VS4210/keyremo.c **** 				VS4210_Rx_NoSignal(3); // blue screen
 1788              		.loc 1 2700 4 view .LVU431
2700:VS4210/keyremo.c **** 				VS4210_Rx_NoSignal(3); // blue screen
 1789              		.loc 1 2700 8 is_stmt 0 view .LVU432
 1790 011c 3E4B     		ldr	r3, .L123+44
 1791 011e 1B78     		ldrb	r3, [r3]	@ zero_extendqisi2
2700:VS4210/keyremo.c **** 				VS4210_Rx_NoSignal(3); // blue screen
 1792              		.loc 1 2700 7 view .LVU433
 1793 0120 8BB9     		cbnz	r3, .L119
 1794              	.L107:
2702:VS4210/keyremo.c **** 		}
 1795              		.loc 1 2702 4 is_stmt 1 view .LVU434
 1796 0122 0320     		movs	r0, #3
 1797 0124 FFF7FEFF 		bl	SETChannelReset
 1798              	.LVL144:
 1799 0128 C8E7     		b	.L98
 1800              	.L118:
2679:VS4210/keyremo.c **** 		{
 1801              		.loc 1 2679 46 is_stmt 0 discriminator 2 view .LVU435
 1802 012a B845     		cmp	r8, r7
 1803 012c 03D1     		bne	.L105
2679:VS4210/keyremo.c **** 		{
 1804              		.loc 1 2679 67 discriminator 3 view .LVU436
 1805 012e 042C     		cmp	r4, #4
 1806 0130 01D0     		beq	.L105
2679:VS4210/keyremo.c **** 		{
 1807              		.loc 1 2679 102 discriminator 4 view .LVU437
 1808 0132 CA45     		cmp	r10, r9
 1809 0134 EAD0     		beq	.L104
 1810              	.L105:
2682:VS4210/keyremo.c **** // Printf("\r\n(SetSelectCAMD)");
 1811              		.loc 1 2682 4 is_stmt 1 view .LVU438
 1812 0136 0320     		movs	r0, #3
 1813 0138 FFF7FEFF 		bl	Boot_Trigger_Function
 1814              	.LVL145:
2692:VS4210/keyremo.c **** #endif
 1815              		.loc 1 2692 4 view .LVU439
 1816 013c 3749     		ldr	r1, .L123+48
 1817 013e 0120     		movs	r0, #1
 1818 0140 FFF7FEFF 		bl	GraphicsPrint
 1819              	.LVL146:
 1820 0144 BAE7     		b	.L98
 1821              	.L119:
2701:VS4210/keyremo.c **** 			SETChannelReset(3);
ARM GAS  C:\Users\ryanc.HS\AppData\Local\Temp\ccZ9UySd.s 			page 86


 1822              		.loc 1 2701 5 view .LVU440
 1823 0146 0320     		movs	r0, #3
 1824 0148 FFF7FEFF 		bl	VS4210_Rx_NoSignal
 1825              	.LVL147:
 1826 014c E9E7     		b	.L107
 1827              	.LVL148:
 1828              	.L116:
2705:VS4210/keyremo.c **** 	{
 1829              		.loc 1 2705 38 is_stmt 0 discriminator 1 view .LVU441
 1830 014e 032B     		cmp	r3, #3
 1831 0150 A3D0     		beq	.L108
2709:VS4210/keyremo.c **** #endif
 1832              		.loc 1 2709 3 is_stmt 1 view .LVU442
 1833 0152 2A46     		mov	r2, r5
 1834              	.LVL149:
2709:VS4210/keyremo.c **** #endif
 1835              		.loc 1 2709 3 is_stmt 0 view .LVU443
 1836 0154 2146     		mov	r1, r4
 1837 0156 3248     		ldr	r0, .L123+52
 1838 0158 FFF7FEFF 		bl	Printf
 1839              	.LVL150:
2713:VS4210/keyremo.c **** 
 1840              		.loc 1 2713 3 is_stmt 1 view .LVU444
2713:VS4210/keyremo.c **** 
 1841              		.loc 1 2713 18 is_stmt 0 view .LVU445
 1842 015c 254B     		ldr	r3, .L123+8
 1843 015e 0322     		movs	r2, #3
 1844 0160 1A70     		strb	r2, [r3]
2715:VS4210/keyremo.c **** 		CAM_D_SW(OFF);
 1845              		.loc 1 2715 3 is_stmt 1 view .LVU446
 1846 0162 DFF894B0 		ldr	fp, .L123+12
 1847 0166 0122     		movs	r2, #1
 1848 0168 1146     		mov	r1, r2
 1849 016a 5846     		mov	r0, fp
 1850 016c FFF7FEFF 		bl	HAL_GPIO_WritePin
 1851              	.LVL151:
2716:VS4210/keyremo.c **** 
 1852              		.loc 1 2716 3 view .LVU447
 1853 0170 0022     		movs	r2, #0
 1854 0172 0221     		movs	r1, #2
 1855 0174 5846     		mov	r0, fp
 1856 0176 FFF7FEFF 		bl	HAL_GPIO_WritePin
 1857              	.LVL152:
2718:VS4210/keyremo.c **** 		//	if((VideoR==_TRUE)&&(stdD!=stdR)&&(modeD!=modeR))
 1858              		.loc 1 2718 3 view .LVU448
2718:VS4210/keyremo.c **** 		//	if((VideoR==_TRUE)&&(stdD!=stdR)&&(modeD!=modeR))
 1859              		.loc 1 2718 16 is_stmt 0 view .LVU449
 1860 017a 244B     		ldr	r3, .L123+32
 1861 017c DD70     		strb	r5, [r3, #3]
2720:VS4210/keyremo.c **** 		{
 1862              		.loc 1 2720 3 is_stmt 1 view .LVU450
2720:VS4210/keyremo.c **** 		{
 1863              		.loc 1 2720 19 is_stmt 0 view .LVU451
 1864 017e 244B     		ldr	r3, .L123+36
 1865 0180 1B78     		ldrb	r3, [r3]	@ zero_extendqisi2
2720:VS4210/keyremo.c **** 		{
 1866              		.loc 1 2720 6 view .LVU452
ARM GAS  C:\Users\ryanc.HS\AppData\Local\Temp\ccZ9UySd.s 			page 87


 1867 0182 0BB9     		cbnz	r3, .L109
2720:VS4210/keyremo.c **** 		{
 1868              		.loc 1 2720 25 discriminator 1 view .LVU453
 1869 0184 012D     		cmp	r5, #1
 1870 0186 0ED0     		beq	.L120
 1871              	.L109:
2736:VS4210/keyremo.c **** 		{
 1872              		.loc 1 2736 8 is_stmt 1 view .LVU454
2736:VS4210/keyremo.c **** 		{
 1873              		.loc 1 2736 11 is_stmt 0 view .LVU455
 1874 0188 FF2D     		cmp	r5, #255
 1875 018a 97D1     		bne	.L98
2736:VS4210/keyremo.c **** 		{
 1876              		.loc 1 2736 29 discriminator 1 view .LVU456
 1877 018c 012E     		cmp	r6, #1
 1878 018e 95D1     		bne	.L98
2739:VS4210/keyremo.c **** #endif
 1879              		.loc 1 2739 4 is_stmt 1 view .LVU457
 1880 0190 2449     		ldr	r1, .L123+56
 1881 0192 0320     		movs	r0, #3
 1882 0194 FFF7FEFF 		bl	GraphicsPrint
 1883              	.LVL153:
2741:VS4210/keyremo.c **** 				VS4210_Rx_NoSignal(3); // blue screen
 1884              		.loc 1 2741 4 view .LVU458
2741:VS4210/keyremo.c **** 				VS4210_Rx_NoSignal(3); // blue screen
 1885              		.loc 1 2741 8 is_stmt 0 view .LVU459
 1886 0198 1F4B     		ldr	r3, .L123+44
 1887 019a 1B78     		ldrb	r3, [r3]	@ zero_extendqisi2
2741:VS4210/keyremo.c **** 				VS4210_Rx_NoSignal(3); // blue screen
 1888              		.loc 1 2741 7 view .LVU460
 1889 019c 93B9     		cbnz	r3, .L121
 1890              	.L111:
2743:VS4210/keyremo.c **** 		}
 1891              		.loc 1 2743 4 is_stmt 1 view .LVU461
 1892 019e 0320     		movs	r0, #3
 1893 01a0 FFF7FEFF 		bl	SETChannelReset
 1894              	.LVL154:
 1895 01a4 8AE7     		b	.L98
 1896              	.L120:
2720:VS4210/keyremo.c **** 		{
 1897              		.loc 1 2720 46 is_stmt 0 discriminator 2 view .LVU462
 1898 01a6 B845     		cmp	r8, r7
 1899 01a8 01D1     		bne	.L110
2720:VS4210/keyremo.c **** 		{
 1900              		.loc 1 2720 67 discriminator 3 view .LVU463
 1901 01aa 042C     		cmp	r4, #4
 1902 01ac 07D0     		beq	.L122
 1903              	.L110:
2723:VS4210/keyremo.c **** 			// Printf("\r\n(SetSelectCAMR)");
 1904              		.loc 1 2723 4 is_stmt 1 view .LVU464
 1905 01ae 0320     		movs	r0, #3
 1906 01b0 FFF7FEFF 		bl	Boot_Trigger_Function
 1907              	.LVL155:
2733:VS4210/keyremo.c **** #endif
 1908              		.loc 1 2733 4 view .LVU465
 1909 01b4 1C49     		ldr	r1, .L123+60
 1910 01b6 0120     		movs	r0, #1
ARM GAS  C:\Users\ryanc.HS\AppData\Local\Temp\ccZ9UySd.s 			page 88


 1911 01b8 FFF7FEFF 		bl	GraphicsPrint
 1912              	.LVL156:
 1913 01bc 7EE7     		b	.L98
 1914              	.L122:
2720:VS4210/keyremo.c **** 		{
 1915              		.loc 1 2720 102 is_stmt 0 discriminator 4 view .LVU466
 1916 01be CA45     		cmp	r10, r9
 1917 01c0 F5D1     		bne	.L110
 1918 01c2 E1E7     		b	.L109
 1919              	.L121:
2742:VS4210/keyremo.c **** 			SETChannelReset(3);
 1920              		.loc 1 2742 5 is_stmt 1 view .LVU467
 1921 01c4 0320     		movs	r0, #3
 1922 01c6 FFF7FEFF 		bl	VS4210_Rx_NoSignal
 1923              	.LVL157:
 1924 01ca E8E7     		b	.L111
 1925              	.LVL158:
 1926              	.L117:
2751:VS4210/keyremo.c **** 			CAM_D_SW(ON);
 1927              		.loc 1 2751 4 view .LVU468
 1928 01cc 0A4C     		ldr	r4, .L123+12
 1929 01ce 0022     		movs	r2, #0
 1930              	.LVL159:
2751:VS4210/keyremo.c **** 			CAM_D_SW(ON);
 1931              		.loc 1 2751 4 is_stmt 0 view .LVU469
 1932 01d0 0121     		movs	r1, #1
 1933 01d2 2046     		mov	r0, r4
 1934 01d4 FFF7FEFF 		bl	HAL_GPIO_WritePin
 1935              	.LVL160:
2752:VS4210/keyremo.c **** #if (_DEBUG_MESSAGE_Source_Change == ON)
 1936              		.loc 1 2752 4 is_stmt 1 view .LVU470
 1937 01d8 0122     		movs	r2, #1
 1938 01da 0221     		movs	r1, #2
 1939 01dc 2046     		mov	r0, r4
 1940 01de FFF7FEFF 		bl	HAL_GPIO_WritePin
 1941              	.LVL161:
2754:VS4210/keyremo.c **** #endif
 1942              		.loc 1 2754 4 view .LVU471
 1943 01e2 1248     		ldr	r0, .L123+64
 1944 01e4 FFF7FEFF 		bl	Printf
 1945              	.LVL162:
 1946 01e8 68E7     		b	.L98
 1947              	.L124:
 1948 01ea 00BF     		.align	2
 1949              	.L123:
 1950 01ec 00000000 		.word	.LC7
 1951 01f0 18000000 		.word	.LC8
 1952 01f4 00000000 		.word	bytSelectCAMRD
 1953 01f8 00100140 		.word	1073811456
 1954 01fc D8000000 		.word	.LC17
 1955 0200 2C000000 		.word	.LC9
 1956 0204 00000000 		.word	.LANCHOR1
 1957 0208 40000000 		.word	.LC10
 1958 020c 00000000 		.word	VideoSave
 1959 0210 00000000 		.word	BOOT_ISSUE
 1960 0214 80000000 		.word	.LC12
 1961 0218 00000000 		.word	.LANCHOR8
ARM GAS  C:\Users\ryanc.HS\AppData\Local\Temp\ccZ9UySd.s 			page 89


 1962 021c 74000000 		.word	.LC11
 1963 0220 90000000 		.word	.LC13
 1964 0224 C0000000 		.word	.LC15
 1965 0228 B4000000 		.word	.LC14
 1966 022c D0000000 		.word	.LC16
 1967              		.cfi_endproc
 1968              	.LFE85:
 1970              		.section	.rodata.SEQMode.str1.4,"aMS",%progbits,1
 1971              		.align	2
 1972              	.LC18:
 1973 0000 0D0A2853 		.ascii	"\015\012(SEQIndex ch=%02x)\015\012\000"
 1973      4551496E 
 1973      64657820 
 1973      63683D25 
 1973      30327829 
 1974              		.section	.text.SEQMode,"ax",%progbits
 1975              		.align	1
 1976              		.global	SEQMode
 1977              		.syntax unified
 1978              		.thumb
 1979              		.thumb_func
 1980              		.fpu softvfp
 1982              	SEQMode:
 1983              	.LFB77:
1418:VS4210/keyremo.c **** 	WORD usNum;
 1984              		.loc 1 1418 1 view -0
 1985              		.cfi_startproc
 1986              		@ args = 0, pretend = 0, frame = 0
 1987              		@ frame_needed = 0, uses_anonymous_args = 0
 1988 0000 38B5     		push	{r3, r4, r5, lr}
 1989              	.LCFI9:
 1990              		.cfi_def_cfa_offset 16
 1991              		.cfi_offset 3, -16
 1992              		.cfi_offset 4, -12
 1993              		.cfi_offset 5, -8
 1994              		.cfi_offset 14, -4
1419:VS4210/keyremo.c **** #if 0
 1995              		.loc 1 1419 2 view .LVU473
1475:VS4210/keyremo.c **** 		SEQIndex++;
 1996              		.loc 1 1475 2 view .LVU474
1475:VS4210/keyremo.c **** 		SEQIndex++;
 1997              		.loc 1 1475 15 is_stmt 0 view .LVU475
 1998 0002 244B     		ldr	r3, .L137
 1999 0004 1B78     		ldrb	r3, [r3]	@ zero_extendqisi2
1475:VS4210/keyremo.c **** 		SEQIndex++;
 2000              		.loc 1 1475 5 view .LVU476
 2001 0006 032B     		cmp	r3, #3
 2002 0008 1FD8     		bhi	.L126
1476:VS4210/keyremo.c **** 	else
 2003              		.loc 1 1476 3 is_stmt 1 view .LVU477
1476:VS4210/keyremo.c **** 	else
 2004              		.loc 1 1476 11 is_stmt 0 view .LVU478
 2005 000a 0133     		adds	r3, r3, #1
 2006 000c 214A     		ldr	r2, .L137
 2007 000e 1370     		strb	r3, [r2]
 2008              	.L127:
1481:VS4210/keyremo.c **** #endif
ARM GAS  C:\Users\ryanc.HS\AppData\Local\Temp\ccZ9UySd.s 			page 90


 2009              		.loc 1 1481 2 is_stmt 1 view .LVU479
 2010 0010 204C     		ldr	r4, .L137
 2011 0012 2278     		ldrb	r2, [r4]	@ zero_extendqisi2
 2012 0014 2049     		ldr	r1, .L137+4
 2013 0016 0320     		movs	r0, #3
 2014 0018 FFF7FEFF 		bl	GraphicsPrint
 2015              	.LVL163:
1500:VS4210/keyremo.c **** 	{
 2016              		.loc 1 1500 2 view .LVU480
1500:VS4210/keyremo.c **** 	{
 2017              		.loc 1 1500 14 is_stmt 0 view .LVU481
 2018 001c 2378     		ldrb	r3, [r4]	@ zero_extendqisi2
 2019 001e 1F4A     		ldr	r2, .L137+8
 2020 0020 D05C     		ldrb	r0, [r2, r3]	@ zero_extendqisi2
1500:VS4210/keyremo.c **** 	{
 2021              		.loc 1 1500 5 view .LVU482
 2022 0022 0428     		cmp	r0, #4
 2023 0024 15D0     		beq	.L135
1507:VS4210/keyremo.c **** 	{
 2024              		.loc 1 1507 7 is_stmt 1 view .LVU483
1507:VS4210/keyremo.c **** 	{
 2025              		.loc 1 1507 10 is_stmt 0 view .LVU484
 2026 0026 0228     		cmp	r0, #2
 2027 0028 19D0     		beq	.L136
 2028              	.L129:
1529:VS4210/keyremo.c **** 	AudioMute(OFF);
 2029              		.loc 1 1529 2 is_stmt 1 view .LVU485
1529:VS4210/keyremo.c **** 	AudioMute(OFF);
 2030              		.loc 1 1529 25 is_stmt 0 view .LVU486
 2031 002a 1C4C     		ldr	r4, .L137+8
 2032 002c 194D     		ldr	r5, .L137
 2033 002e 2B78     		ldrb	r3, [r5]	@ zero_extendqisi2
1529:VS4210/keyremo.c **** 	AudioMute(OFF);
 2034              		.loc 1 1529 2 view .LVU487
 2035 0030 E05C     		ldrb	r0, [r4, r3]	@ zero_extendqisi2
 2036 0032 FFF7FEFF 		bl	setloopoutmode
 2037              	.LVL164:
1530:VS4210/keyremo.c **** #if 0
 2038              		.loc 1 1530 2 is_stmt 1 view .LVU488
 2039 0036 0020     		movs	r0, #0
 2040 0038 FFF7FEFF 		bl	AudioMute
 2041              	.LVL165:
1548:VS4210/keyremo.c **** 	{
 2042              		.loc 1 1548 2 view .LVU489
1548:VS4210/keyremo.c **** 	{
 2043              		.loc 1 1548 16 is_stmt 0 view .LVU490
 2044 003c 2B78     		ldrb	r3, [r5]	@ zero_extendqisi2
 2045 003e E35C     		ldrb	r3, [r4, r3]	@ zero_extendqisi2
1548:VS4210/keyremo.c **** 	{
 2046              		.loc 1 1548 5 view .LVU491
 2047 0040 042B     		cmp	r3, #4
 2048 0042 12D0     		beq	.L130
1548:VS4210/keyremo.c **** 	{
 2049              		.loc 1 1548 45 discriminator 2 view .LVU492
 2050 0044 022B     		cmp	r3, #2
 2051 0046 10D0     		beq	.L130
 2052              	.L125:
ARM GAS  C:\Users\ryanc.HS\AppData\Local\Temp\ccZ9UySd.s 			page 91


1582:VS4210/keyremo.c **** 
 2053              		.loc 1 1582 1 view .LVU493
 2054 0048 38BD     		pop	{r3, r4, r5, pc}
 2055              	.L126:
1478:VS4210/keyremo.c **** 
 2056              		.loc 1 1478 3 is_stmt 1 view .LVU494
1478:VS4210/keyremo.c **** 
 2057              		.loc 1 1478 12 is_stmt 0 view .LVU495
 2058 004a 124B     		ldr	r3, .L137
 2059 004c 0022     		movs	r2, #0
 2060 004e 1A70     		strb	r2, [r3]
 2061 0050 DEE7     		b	.L127
 2062              	.L135:
1503:VS4210/keyremo.c **** 		bytSelectCAMRD = SelectCameraD;
 2063              		.loc 1 1503 3 is_stmt 1 view .LVU496
 2064 0052 FFF7FEFF 		bl	SetSelectCAMRD
 2065              	.LVL166:
1504:VS4210/keyremo.c **** 	}
 2066              		.loc 1 1504 3 view .LVU497
1504:VS4210/keyremo.c **** 	}
 2067              		.loc 1 1504 18 is_stmt 0 view .LVU498
 2068 0056 124B     		ldr	r3, .L137+12
 2069 0058 0422     		movs	r2, #4
 2070 005a 1A70     		strb	r2, [r3]
 2071 005c E5E7     		b	.L129
 2072              	.L136:
1510:VS4210/keyremo.c **** 		bytSelectCAMRD = SelectCameraR;
 2073              		.loc 1 1510 3 is_stmt 1 view .LVU499
 2074 005e FFF7FEFF 		bl	SetSelectCAMRD
 2075              	.LVL167:
1511:VS4210/keyremo.c **** 	}
 2076              		.loc 1 1511 3 view .LVU500
1511:VS4210/keyremo.c **** 	}
 2077              		.loc 1 1511 18 is_stmt 0 view .LVU501
 2078 0062 0F4B     		ldr	r3, .L137+12
 2079 0064 0322     		movs	r2, #3
 2080 0066 1A70     		strb	r2, [r3]
 2081 0068 DFE7     		b	.L129
 2082              	.L130:
1548:VS4210/keyremo.c **** 	{
 2083              		.loc 1 1548 107 discriminator 3 view .LVU502
 2084 006a 0E4B     		ldr	r3, .L137+16
 2085 006c 1B78     		ldrb	r3, [r3]	@ zero_extendqisi2
1548:VS4210/keyremo.c **** 	{
 2086              		.loc 1 1548 94 discriminator 3 view .LVU503
 2087 006e 032B     		cmp	r3, #3
 2088 0070 EAD8     		bhi	.L125
1551:VS4210/keyremo.c **** 
 2089              		.loc 1 1551 3 is_stmt 1 view .LVU504
 2090              	.LVL168:
1553:VS4210/keyremo.c **** 
 2091              		.loc 1 1553 3 view .LVU505
1553:VS4210/keyremo.c **** 
 2092              		.loc 1 1553 22 is_stmt 0 view .LVU506
 2093 0072 0D4B     		ldr	r3, .L137+20
 2094 0074 0022     		movs	r2, #0
 2095 0076 1A60     		str	r2, [r3]
ARM GAS  C:\Users\ryanc.HS\AppData\Local\Temp\ccZ9UySd.s 			page 92


1551:VS4210/keyremo.c **** 
 2096              		.loc 1 1551 9 view .LVU507
 2097 0078 6424     		movs	r4, #100
 2098              	.LVL169:
 2099              	.L132:
1555:VS4210/keyremo.c **** 		{
 2100              		.loc 1 1555 3 is_stmt 1 view .LVU508
1557:VS4210/keyremo.c **** 			{
 2101              		.loc 1 1557 4 view .LVU509
1557:VS4210/keyremo.c **** 			{
 2102              		.loc 1 1557 8 is_stmt 0 view .LVU510
 2103 007a 0B4B     		ldr	r3, .L137+20
 2104 007c 1B68     		ldr	r3, [r3]
1557:VS4210/keyremo.c **** 			{
 2105              		.loc 1 1557 7 view .LVU511
 2106 007e 002B     		cmp	r3, #0
 2107 0080 FBD0     		beq	.L132
1559:VS4210/keyremo.c **** 
 2108              		.loc 1 1559 5 is_stmt 1 view .LVU512
1559:VS4210/keyremo.c **** 
 2109              		.loc 1 1559 24 is_stmt 0 view .LVU513
 2110 0082 094B     		ldr	r3, .L137+20
 2111 0084 0022     		movs	r2, #0
 2112 0086 1A60     		str	r2, [r3]
1561:VS4210/keyremo.c **** 				{
 2113              		.loc 1 1561 5 is_stmt 1 view .LVU514
 2114              	.LVL170:
1561:VS4210/keyremo.c **** 				{
 2115              		.loc 1 1561 8 is_stmt 0 view .LVU515
 2116 0088 013C     		subs	r4, r4, #1
 2117              	.LVL171:
1561:VS4210/keyremo.c **** 				{
 2118              		.loc 1 1561 8 view .LVU516
 2119 008a DDD0     		beq	.L125
1563:VS4210/keyremo.c **** 				}
 2120              		.loc 1 1563 6 is_stmt 1 view .LVU517
 2121 008c FFF7FEFF 		bl	EQ_Detect
 2122              	.LVL172:
 2123 0090 F3E7     		b	.L132
 2124              	.L138:
 2125 0092 00BF     		.align	2
 2126              	.L137:
 2127 0094 00000000 		.word	SEQIndex
 2128 0098 00000000 		.word	.LC18
 2129 009c 00000000 		.word	.LANCHOR9
 2130 00a0 00000000 		.word	bytSelectCAMRD
 2131 00a4 00000000 		.word	TimeStep
 2132 00a8 00000000 		.word	g_bNotifyTimer0Int
 2133              		.cfi_endproc
 2134              	.LFE77:
 2136              		.section	.text.SetJumpMode,"ax",%progbits
 2137              		.align	1
 2138              		.global	SetJumpMode
 2139              		.syntax unified
 2140              		.thumb
 2141              		.thumb_func
 2142              		.fpu softvfp
ARM GAS  C:\Users\ryanc.HS\AppData\Local\Temp\ccZ9UySd.s 			page 93


 2144              	SetJumpMode:
 2145              	.LFB78:
1585:VS4210/keyremo.c **** 	BYTE val, i;
 2146              		.loc 1 1585 1 view -0
 2147              		.cfi_startproc
 2148              		@ args = 0, pretend = 0, frame = 0
 2149              		@ frame_needed = 0, uses_anonymous_args = 0
 2150 0000 38B5     		push	{r3, r4, r5, lr}
 2151              	.LCFI10:
 2152              		.cfi_def_cfa_offset 16
 2153              		.cfi_offset 3, -16
 2154              		.cfi_offset 4, -12
 2155              		.cfi_offset 5, -8
 2156              		.cfi_offset 14, -4
1586:VS4210/keyremo.c **** 	// Printf("\r\nNowModeState",(WORD)NowModeState);
 2157              		.loc 1 1586 2 view .LVU519
1591:VS4210/keyremo.c **** 
 2158              		.loc 1 1591 2 view .LVU520
 2159 0002 FFF7FEFF 		bl	BackLightOFF
 2160              	.LVL173:
1593:VS4210/keyremo.c **** 	{
 2161              		.loc 1 1593 2 view .LVU521
1593:VS4210/keyremo.c **** 	{
 2162              		.loc 1 1593 19 is_stmt 0 view .LVU522
 2163 0006 544B     		ldr	r3, .L161
 2164 0008 1B78     		ldrb	r3, [r3]	@ zero_extendqisi2
1593:VS4210/keyremo.c **** 	{
 2165              		.loc 1 1593 5 view .LVU523
 2166 000a 012B     		cmp	r3, #1
 2167 000c 06D0     		beq	.L153
1641:VS4210/keyremo.c **** 		SEQFlag = OFF;
 2168              		.loc 1 1641 3 is_stmt 1 view .LVU524
1641:VS4210/keyremo.c **** 		SEQFlag = OFF;
 2169              		.loc 1 1641 9 is_stmt 0 view .LVU525
 2170 000e AE20     		movs	r0, #174
 2171 0010 FFF7FEFF 		bl	ReadEEP
 2172              	.LVL174:
1642:VS4210/keyremo.c **** 
 2173              		.loc 1 1642 3 is_stmt 1 view .LVU526
1642:VS4210/keyremo.c **** 
 2174              		.loc 1 1642 11 is_stmt 0 view .LVU527
 2175 0014 0024     		movs	r4, #0
 2176 0016 514B     		ldr	r3, .L161+4
 2177 0018 1C70     		strb	r4, [r3]
1644:VS4210/keyremo.c **** 		{
 2178              		.loc 1 1644 3 is_stmt 1 view .LVU528
 2179              	.LVL175:
1644:VS4210/keyremo.c **** 		{
 2180              		.loc 1 1644 3 is_stmt 0 view .LVU529
 2181 001a 5AE0     		b	.L147
 2182              	.LVL176:
 2183              	.L153:
1595:VS4210/keyremo.c **** 
 2184              		.loc 1 1595 3 is_stmt 1 view .LVU530
1595:VS4210/keyremo.c **** 
 2185              		.loc 1 1595 9 is_stmt 0 view .LVU531
 2186 001c AE20     		movs	r0, #174
ARM GAS  C:\Users\ryanc.HS\AppData\Local\Temp\ccZ9UySd.s 			page 94


 2187 001e FFF7FEFF 		bl	ReadEEP
 2188              	.LVL177:
 2189 0022 0446     		mov	r4, r0
 2190              	.LVL178:
1597:VS4210/keyremo.c **** 		{
 2191              		.loc 1 1597 3 is_stmt 1 view .LVU532
1597:VS4210/keyremo.c **** 		{
