ARM GAS  C:\Users\ryanc.HS\AppData\Local\Temp\ccqk5gur.s 			page 1


   1              		.cpu cortex-m3
   2              		.eabi_attribute 20, 1
   3              		.eabi_attribute 21, 1
   4              		.eabi_attribute 23, 3
   5              		.eabi_attribute 24, 1
   6              		.eabi_attribute 25, 1
   7              		.eabi_attribute 26, 1
   8              		.eabi_attribute 30, 1
   9              		.eabi_attribute 34, 1
  10              		.eabi_attribute 18, 4
  11              		.file	"Printf.c"
  12              		.text
  13              	.Ltext0:
  14              		.cfi_sections	.debug_frame
  15              		.section	.text.DoPrint,"ax",%progbits
  16              		.align	1
  17              		.global	DoPrint
  18              		.arch armv7-m
  19              		.syntax unified
  20              		.thumb
  21              		.thumb_func
  22              		.fpu softvfp
  24              	DoPrint:
  25              	.LVL0:
  26              	.LFB3:
  27              		.file 1 "VS4210/Printf.c"
   1:VS4210/Printf.c **** /*****************************************************************************/
   2:VS4210/Printf.c **** /*                                                                           										*/
   3:VS4210/Printf.c **** /*  TELI ML070I   MCU                    													*/
   4:VS4210/Printf.c **** /*                                                                           										*/
   5:VS4210/Printf.c **** /*  Printf.c		                                            										*/
   6:VS4210/Printf.c **** /*                                                                           										*/
   7:VS4210/Printf.c **** /*****************************************************************************/
   8:VS4210/Printf.c **** 
   9:VS4210/Printf.c **** #include "VXIS_Extern_Define.h"
  10:VS4210/Printf.c **** 
  11:VS4210/Printf.c **** #include "tpinc/Device_Rx.h"
  12:VS4210/Printf.c **** #include "tpinc/TP2802.h"
  13:VS4210/Printf.c **** #include "stdlib.h"
  14:VS4210/Printf.c **** #include "VX_swi2c.h"
  15:VS4210/Printf.c **** #include "VS4210.h"
  16:VS4210/Printf.c **** 
  17:VS4210/Printf.c **** //#include "Config.h"
  18:VS4210/Printf.c **** 
  19:VS4210/Printf.c **** //#ifdef SERIAL
  20:VS4210/Printf.c **** 
  21:VS4210/Printf.c **** //#include "reg.h"
  22:VS4210/Printf.c **** //#include "Typedefs.h"
  23:VS4210/Printf.c **** //#include "debug.h"
  24:VS4210/Printf.c **** //#include "main.h"
  25:VS4210/Printf.c **** #include "printf.h"
  26:VS4210/Printf.c **** #include "monitor.h"
  27:VS4210/Printf.c **** 
  28:VS4210/Printf.c **** #include <stdarg.h>
  29:VS4210/Printf.c **** 
  30:VS4210/Printf.c **** #if (_DEBUG_MESSAGE_COLOR_MESSAGE == ON)
  31:VS4210/Printf.c **** 
ARM GAS  C:\Users\ryanc.HS\AppData\Local\Temp\ccqk5gur.s 			page 2


  32:VS4210/Printf.c **** static const char *_PrintColor[] = {
  33:VS4210/Printf.c **** 	"\033[0m",
  34:VS4210/Printf.c **** 	"\033[0;31m",
  35:VS4210/Printf.c **** 	"\033[0;32m",
  36:VS4210/Printf.c **** 	"\033[0;33m",
  37:VS4210/Printf.c **** 	"\033[0;34m",
  38:VS4210/Printf.c **** 	"\033[0;35m",
  39:VS4210/Printf.c **** 	"\033[0;36m",
  40:VS4210/Printf.c **** 	"\033[0;37m",
  41:VS4210/Printf.c **** };
  42:VS4210/Printf.c **** #endif
  43:VS4210/Printf.c **** CODE tByte Hex[] = "0123456789ABCDEF";
  44:VS4210/Printf.c **** extern bit RS_Xbusy; // bit RS_Xbusy=0;
  45:VS4210/Printf.c **** extern tByte DebugLevel;
  46:VS4210/Printf.c **** extern BYTE Monitor_flag;
  47:VS4210/Printf.c **** 
  48:VS4210/Printf.c **** void DoPrint(const char CODE_P *fmt, va_list ap)
  49:VS4210/Printf.c **** {
  28              		.loc 1 49 1 view -0
  29              		.cfi_startproc
  30              		@ args = 0, pretend = 0, frame = 8
  31              		@ frame_needed = 0, uses_anonymous_args = 0
  32              		.loc 1 49 1 is_stmt 0 view .LVU1
  33 0000 2DE9F041 		push	{r4, r5, r6, r7, r8, lr}
  34              	.LCFI0:
  35              		.cfi_def_cfa_offset 24
  36              		.cfi_offset 4, -24
  37              		.cfi_offset 5, -20
  38              		.cfi_offset 6, -16
  39              		.cfi_offset 7, -12
  40              		.cfi_offset 8, -8
  41              		.cfi_offset 14, -4
  42 0004 82B0     		sub	sp, sp, #8
  43              	.LCFI1:
  44              		.cfi_def_cfa_offset 32
  45 0006 0446     		mov	r4, r0
  46 0008 0191     		str	r1, [sp, #4]
  50:VS4210/Printf.c **** 	char ch;
  47              		.loc 1 50 2 is_stmt 1 view .LVU2
  51:VS4210/Printf.c **** 	char i;
  48              		.loc 1 51 2 view .LVU3
  52:VS4210/Printf.c **** 	long value = _FALSE;
  49              		.loc 1 52 2 view .LVU4
  50              	.LVL1:
  53:VS4210/Printf.c **** 	bit fl_zero;
  51              		.loc 1 53 2 view .LVU5
  54:VS4210/Printf.c **** 	//	bit   fl_num;
  55:VS4210/Printf.c **** 	BYTE fl_len;
  52              		.loc 1 55 2 view .LVU6
  56:VS4210/Printf.c **** 	BYTE cnt;
  53              		.loc 1 56 2 view .LVU7
  57:VS4210/Printf.c **** 	DWORD mask = 1;
  54              		.loc 1 57 2 view .LVU8
  52:VS4210/Printf.c **** 	bit fl_zero;
  55              		.loc 1 52 7 is_stmt 0 view .LVU9
  56 000a 0025     		movs	r5, #0
  57 000c 03E0     		b	.L2
ARM GAS  C:\Users\ryanc.HS\AppData\Local\Temp\ccqk5gur.s 			page 3


  58              	.LVL2:
  59              	.L48:
  58:VS4210/Printf.c **** 
  59:VS4210/Printf.c **** #ifdef KEILC
  60:VS4210/Printf.c **** 	char *ptr;
  61:VS4210/Printf.c **** #endif
  62:VS4210/Printf.c **** 
  63:VS4210/Printf.c **** 	while (1)
  64:VS4210/Printf.c **** 	{
  65:VS4210/Printf.c **** 
  66:VS4210/Printf.c **** 		//----- Find Formatter % -----
  67:VS4210/Printf.c **** 
  68:VS4210/Printf.c **** 		switch (ch = *fmt++)
  69:VS4210/Printf.c **** 		{
  70:VS4210/Printf.c **** 		case 0:
  71:VS4210/Printf.c **** 			return;
  72:VS4210/Printf.c **** 		case '%':
  73:VS4210/Printf.c **** 			if (*fmt != '%')
  74:VS4210/Printf.c **** 				break;
  75:VS4210/Printf.c **** 			fmt++;
  60              		.loc 1 75 4 is_stmt 1 view .LVU10
  61              		.loc 1 75 7 is_stmt 0 view .LVU11
  62 000e A61C     		adds	r6, r4, #2
  63              	.LVL3:
  64              	.L4:
  76:VS4210/Printf.c **** 		default:
  77:VS4210/Printf.c **** 			_outchar(ch);
  65              		.loc 1 77 4 is_stmt 1 view .LVU12
  66 0010 FFF7FEFF 		bl	RS_tx
  67              	.LVL4:
  78:VS4210/Printf.c **** 			continue;
  68              		.loc 1 78 4 view .LVU13
  69 0014 3446     		mov	r4, r6
  70              	.LVL5:
  71              	.L2:
  60:VS4210/Printf.c **** #endif
  72              		.loc 1 60 2 view .LVU14
  63:VS4210/Printf.c **** 	{
  73              		.loc 1 63 2 view .LVU15
  68:VS4210/Printf.c **** 		{
  74              		.loc 1 68 3 view .LVU16
  68:VS4210/Printf.c **** 		{
  75              		.loc 1 68 20 is_stmt 0 view .LVU17
  76 0016 2646     		mov	r6, r4
  77              	.LVL6:
  68:VS4210/Printf.c **** 		{
  78              		.loc 1 68 14 view .LVU18
  79 0018 16F8010B 		ldrb	r0, [r6], #1	@ zero_extendqisi2
  80              	.LVL7:
  68:VS4210/Printf.c **** 		{
  81              		.loc 1 68 3 view .LVU19
  82 001c 0028     		cmp	r0, #0
  83 001e 00F00081 		beq	.L1
  84 0022 2528     		cmp	r0, #37
  85 0024 F4D1     		bne	.L4
  73:VS4210/Printf.c **** 				break;
  86              		.loc 1 73 4 is_stmt 1 view .LVU20
ARM GAS  C:\Users\ryanc.HS\AppData\Local\Temp\ccqk5gur.s 			page 4


  73:VS4210/Printf.c **** 				break;
  87              		.loc 1 73 8 is_stmt 0 view .LVU21
  88 0026 6378     		ldrb	r3, [r4, #1]	@ zero_extendqisi2
  73:VS4210/Printf.c **** 				break;
  89              		.loc 1 73 7 view .LVU22
  90 0028 252B     		cmp	r3, #37
  91 002a F0D0     		beq	.L48
  79:VS4210/Printf.c **** 		}
  80:VS4210/Printf.c **** 
  81:VS4210/Printf.c **** 		//----- Get Count -------------
  82:VS4210/Printf.c **** 
  83:VS4210/Printf.c **** 		fl_zero = 0;
  92              		.loc 1 83 3 is_stmt 1 view .LVU23
  93              	.LVL8:
  84:VS4210/Printf.c **** 		// fl_num = 0;
  85:VS4210/Printf.c **** 		cnt = 0;
  94              		.loc 1 85 3 view .LVU24
  86:VS4210/Printf.c **** 
  87:VS4210/Printf.c **** 		ch = *fmt++;
  95              		.loc 1 87 3 view .LVU25
  96              		.loc 1 87 12 is_stmt 0 view .LVU26
  97 002c A21C     		adds	r2, r4, #2
  98              	.LVL9:
  88:VS4210/Printf.c **** 
  89:VS4210/Printf.c **** 		if (ch == '0')
  99              		.loc 1 89 3 is_stmt 1 view .LVU27
 100              		.loc 1 89 6 is_stmt 0 view .LVU28
 101 002e 302B     		cmp	r3, #48
 102 0030 09D0     		beq	.L49
  90:VS4210/Printf.c **** 		{
  91:VS4210/Printf.c **** 			fl_zero = 1;
  92:VS4210/Printf.c **** 			ch = *fmt++;
  93:VS4210/Printf.c **** 			cnt = ch - '0';
  94:VS4210/Printf.c **** 			ch = *fmt++;
  95:VS4210/Printf.c **** 		}
  96:VS4210/Printf.c **** 		else if (ch >= '0' && ch <= '9')
 103              		.loc 1 96 8 is_stmt 1 view .LVU29
 104              		.loc 1 96 22 is_stmt 0 view .LVU30
 105 0032 A3F13006 		sub	r6, r3, #48
 106 0036 F6B2     		uxtb	r6, r6
 107              		.loc 1 96 11 view .LVU31
 108 0038 092E     		cmp	r6, #9
 109 003a 16D8     		bhi	.L41
  97:VS4210/Printf.c **** 		{
  98:VS4210/Printf.c **** 			cnt = ch - '0';
 110              		.loc 1 98 4 is_stmt 1 view .LVU32
 111              	.LVL10:
  99:VS4210/Printf.c **** 			ch = *fmt++;
 112              		.loc 1 99 4 view .LVU33
 113              		.loc 1 99 7 is_stmt 0 view .LVU34
 114 003c A378     		ldrb	r3, [r4, #2]	@ zero_extendqisi2
 115              	.LVL11:
 116              		.loc 1 99 13 view .LVU35
 117 003e 0334     		adds	r4, r4, #3
 118              	.LVL12:
  83:VS4210/Printf.c **** 		// fl_num = 0;
 119              		.loc 1 83 11 view .LVU36
ARM GAS  C:\Users\ryanc.HS\AppData\Local\Temp\ccqk5gur.s 			page 5


 120 0040 4FF00008 		mov	r8, #0
 121 0044 06E0     		b	.L8
 122              	.LVL13:
 123              	.L49:
  91:VS4210/Printf.c **** 			ch = *fmt++;
 124              		.loc 1 91 4 is_stmt 1 view .LVU37
  92:VS4210/Printf.c **** 			cnt = ch - '0';
 125              		.loc 1 92 4 view .LVU38
  92:VS4210/Printf.c **** 			cnt = ch - '0';
 126              		.loc 1 92 7 is_stmt 0 view .LVU39
 127 0046 A678     		ldrb	r6, [r4, #2]	@ zero_extendqisi2
 128              	.LVL14:
  93:VS4210/Printf.c **** 			ch = *fmt++;
 129              		.loc 1 93 4 is_stmt 1 view .LVU40
  93:VS4210/Printf.c **** 			ch = *fmt++;
 130              		.loc 1 93 8 is_stmt 0 view .LVU41
 131 0048 303E     		subs	r6, r6, #48
 132              	.LVL15:
  93:VS4210/Printf.c **** 			ch = *fmt++;
 133              		.loc 1 93 8 view .LVU42
 134 004a F6B2     		uxtb	r6, r6
 135              	.LVL16:
  94:VS4210/Printf.c **** 		}
 136              		.loc 1 94 4 is_stmt 1 view .LVU43
  94:VS4210/Printf.c **** 		}
 137              		.loc 1 94 7 is_stmt 0 view .LVU44
 138 004c E378     		ldrb	r3, [r4, #3]	@ zero_extendqisi2
 139              	.LVL17:
  94:VS4210/Printf.c **** 		}
 140              		.loc 1 94 13 view .LVU45
 141 004e 0434     		adds	r4, r4, #4
 142              	.LVL18:
  91:VS4210/Printf.c **** 			ch = *fmt++;
 143              		.loc 1 91 12 view .LVU46
 144 0050 4FF00108 		mov	r8, #1
 145              	.LVL19:
 146              	.L8:
 100:VS4210/Printf.c **** 		}
 101:VS4210/Printf.c **** 
 102:VS4210/Printf.c **** 		//----- Get char(B) / int / long(L) ----------------
 103:VS4210/Printf.c **** 
 104:VS4210/Printf.c **** 		fl_len = 2;
 147              		.loc 1 104 3 is_stmt 1 view .LVU47
 105:VS4210/Printf.c **** 
 106:VS4210/Printf.c **** 		switch (ch)
 148              		.loc 1 106 3 view .LVU48
 149 0054 622B     		cmp	r3, #98
 150 0056 29D0     		beq	.L9
 151              		.loc 1 106 3 is_stmt 0 view .LVU49
 152 0058 0DD8     		bhi	.L10
 153 005a 422B     		cmp	r3, #66
 154 005c 26D0     		beq	.L9
 155 005e 4C2B     		cmp	r3, #76
 156 0060 07D1     		bne	.L50
 157              	.L11:
 107:VS4210/Printf.c **** 		{
 108:VS4210/Printf.c **** 		case 'l':
ARM GAS  C:\Users\ryanc.HS\AppData\Local\Temp\ccqk5gur.s 			page 6


 109:VS4210/Printf.c **** 		case 'L':
 110:VS4210/Printf.c **** 			ch = *fmt++;
 158              		.loc 1 110 4 is_stmt 1 view .LVU50
 159              	.LVL20:
 160              		.loc 1 110 7 is_stmt 0 view .LVU51
 161 0062 14F8013B 		ldrb	r3, [r4], #1	@ zero_extendqisi2
 162              	.LVL21:
 111:VS4210/Printf.c **** 			fl_len = 4;
 163              		.loc 1 111 4 is_stmt 1 view .LVU52
 112:VS4210/Printf.c **** 			break;
 164              		.loc 1 112 4 view .LVU53
 111:VS4210/Printf.c **** 			fl_len = 4;
 165              		.loc 1 111 11 is_stmt 0 view .LVU54
 166 0066 0421     		movs	r1, #4
 167              		.loc 1 112 4 view .LVU55
 168 0068 08E0     		b	.L12
 169              	.LVL22:
 170              	.L41:
  87:VS4210/Printf.c **** 
 171              		.loc 1 87 12 view .LVU56
 172 006a 1446     		mov	r4, r2
  85:VS4210/Printf.c **** 
 173              		.loc 1 85 7 view .LVU57
 174 006c 0026     		movs	r6, #0
  83:VS4210/Printf.c **** 		// fl_num = 0;
 175              		.loc 1 83 11 view .LVU58
 176 006e B046     		mov	r8, r6
 177 0070 F0E7     		b	.L8
 178              	.LVL23:
 179              	.L50:
 106:VS4210/Printf.c **** 		{
 180              		.loc 1 106 3 view .LVU59
 181 0072 0221     		movs	r1, #2
 182 0074 02E0     		b	.L12
 183              	.L10:
 184 0076 6C2B     		cmp	r3, #108
 185 0078 F3D0     		beq	.L11
 186 007a 0221     		movs	r1, #2
 187              	.LVL24:
 188              	.L12:
 113:VS4210/Printf.c **** 		case 'b':
 114:VS4210/Printf.c **** 		case 'B':
 115:VS4210/Printf.c **** 			ch = *fmt++;
 116:VS4210/Printf.c **** 			fl_len = 1;
 117:VS4210/Printf.c **** 			break;
 118:VS4210/Printf.c **** 		}
 119:VS4210/Printf.c **** 
 120:VS4210/Printf.c **** 		//----- Get Type Discriptor -----
 121:VS4210/Printf.c **** 
 122:VS4210/Printf.c **** 		switch (ch)
 189              		.loc 1 122 3 is_stmt 1 view .LVU60
 190 007c A3F15802 		sub	r2, r3, #88
 191 0080 202A     		cmp	r2, #32
 192 0082 00F2C980 		bhi	.L13
 193 0086 DFE802F0 		tbb	[pc, r2]
 194              	.L15:
 195 008a 8A       		.byte	(.L14-.L15)/2
ARM GAS  C:\Users\ryanc.HS\AppData\Local\Temp\ccqk5gur.s 			page 7


 196 008b C7       		.byte	(.L13-.L15)/2
 197 008c C7       		.byte	(.L13-.L15)/2
 198 008d C7       		.byte	(.L13-.L15)/2
 199 008e C7       		.byte	(.L13-.L15)/2
 200 008f C7       		.byte	(.L13-.L15)/2
 201 0090 C7       		.byte	(.L13-.L15)/2
 202 0091 C7       		.byte	(.L13-.L15)/2
 203 0092 C7       		.byte	(.L13-.L15)/2
 204 0093 C7       		.byte	(.L13-.L15)/2
 205 0094 C7       		.byte	(.L13-.L15)/2
 206 0095 BF       		.byte	(.L18-.L15)/2
 207 0096 15       		.byte	(.L16-.L15)/2
 208 0097 C7       		.byte	(.L13-.L15)/2
 209 0098 C7       		.byte	(.L13-.L15)/2
 210 0099 C7       		.byte	(.L13-.L15)/2
 211 009a C7       		.byte	(.L13-.L15)/2
 212 009b C7       		.byte	(.L13-.L15)/2
 213 009c C7       		.byte	(.L13-.L15)/2
 214 009d C7       		.byte	(.L13-.L15)/2
 215 009e C7       		.byte	(.L13-.L15)/2
 216 009f C7       		.byte	(.L13-.L15)/2
 217 00a0 C7       		.byte	(.L13-.L15)/2
 218 00a1 C7       		.byte	(.L13-.L15)/2
 219 00a2 C7       		.byte	(.L13-.L15)/2
 220 00a3 C7       		.byte	(.L13-.L15)/2
 221 00a4 C7       		.byte	(.L13-.L15)/2
 222 00a5 B3       		.byte	(.L17-.L15)/2
 223 00a6 C7       		.byte	(.L13-.L15)/2
 224 00a7 15       		.byte	(.L16-.L15)/2
 225 00a8 C7       		.byte	(.L13-.L15)/2
 226 00a9 C7       		.byte	(.L13-.L15)/2
 227 00aa 8A       		.byte	(.L14-.L15)/2
 228              	.LVL25:
 229 00ab 00       		.p2align 1
 230              	.L9:
 115:VS4210/Printf.c **** 			fl_len = 1;
 231              		.loc 1 115 4 view .LVU61
 115:VS4210/Printf.c **** 			fl_len = 1;
 232              		.loc 1 115 7 is_stmt 0 view .LVU62
 233 00ac 14F8013B 		ldrb	r3, [r4], #1	@ zero_extendqisi2
 234              	.LVL26:
 116:VS4210/Printf.c **** 			break;
 235              		.loc 1 116 4 is_stmt 1 view .LVU63
 117:VS4210/Printf.c **** 		}
 236              		.loc 1 117 4 view .LVU64
 116:VS4210/Printf.c **** 			break;
 237              		.loc 1 116 11 is_stmt 0 view .LVU65
 238 00b0 0121     		movs	r1, #1
 117:VS4210/Printf.c **** 		}
 239              		.loc 1 117 4 view .LVU66
 240 00b2 E3E7     		b	.L12
 241              	.LVL27:
 242              	.L16:
 123:VS4210/Printf.c **** 		{
 124:VS4210/Printf.c **** 
 125:VS4210/Printf.c **** 		case 'd':
 126:VS4210/Printf.c **** 		case 'u':
ARM GAS  C:\Users\ryanc.HS\AppData\Local\Temp\ccqk5gur.s 			page 8


 127:VS4210/Printf.c **** 
 128:VS4210/Printf.c **** 			switch (fl_len)
 243              		.loc 1 128 4 is_stmt 1 view .LVU67
 244 00b4 0229     		cmp	r1, #2
 245 00b6 19D0     		beq	.L19
 246 00b8 0429     		cmp	r1, #4
 247 00ba 23D0     		beq	.L20
 248 00bc 0129     		cmp	r1, #1
 249 00be 09D0     		beq	.L51
 250              	.LVL28:
 251              	.L21:
 129:VS4210/Printf.c **** 			{
 130:VS4210/Printf.c **** 			case 1:
 131:VS4210/Printf.c **** #if 1 // ryan@20200511
 132:VS4210/Printf.c **** 				if (ch == 'd')
 133:VS4210/Printf.c **** 					value = (int)va_arg(ap, int);
 134:VS4210/Printf.c **** 				else
 135:VS4210/Printf.c **** 					value = (int)va_arg(ap, int);
 136:VS4210/Printf.c **** 
 137:VS4210/Printf.c **** #else
 138:VS4210/Printf.c **** 				if (ch == 'd')
 139:VS4210/Printf.c **** 					value = (char)va_arg(ap, char);
 140:VS4210/Printf.c **** 				else
 141:VS4210/Printf.c **** 					value = (BYTE)va_arg(ap, BYTE);
 142:VS4210/Printf.c **** #endif
 143:VS4210/Printf.c **** 				break;
 144:VS4210/Printf.c **** 
 145:VS4210/Printf.c **** 			case 2:
 146:VS4210/Printf.c **** 				if (ch == 'd')
 147:VS4210/Printf.c **** 					value = (int)va_arg(ap, int);
 148:VS4210/Printf.c **** 				else
 149:VS4210/Printf.c **** 					value = (WORD)va_arg(ap, WORD);
 150:VS4210/Printf.c **** 				break;
 151:VS4210/Printf.c **** 
 152:VS4210/Printf.c **** 			case 4:
 153:VS4210/Printf.c **** 				if (ch == 'd')
 154:VS4210/Printf.c **** 					value = (long)va_arg(ap, long);
 155:VS4210/Printf.c **** 				else
 156:VS4210/Printf.c **** 					value = (DWORD)va_arg(ap, DWORD);
 157:VS4210/Printf.c **** 				break;
 158:VS4210/Printf.c **** 			}
 159:VS4210/Printf.c **** 
 160:VS4210/Printf.c **** 			if (value < 0)
 252              		.loc 1 160 4 view .LVU68
 253              		.loc 1 160 7 is_stmt 0 view .LVU69
 254 00c0 002D     		cmp	r5, #0
 255 00c2 2BDB     		blt	.L52
 256              	.LVL29:
 257              	.L25:
 161:VS4210/Printf.c **** 			{
 162:VS4210/Printf.c **** 				_outchar('-');
 163:VS4210/Printf.c **** 				value = value * (-1);
 164:VS4210/Printf.c **** 			}
 165:VS4210/Printf.c **** 
 166:VS4210/Printf.c **** 			if (cnt == 0)
 258              		.loc 1 166 4 is_stmt 1 view .LVU70
 259              		.loc 1 166 7 is_stmt 0 view .LVU71
ARM GAS  C:\Users\ryanc.HS\AppData\Local\Temp\ccqk5gur.s 			page 9


 260 00c4 002E     		cmp	r6, #0
 261 00c6 37D1     		bne	.L26
 167:VS4210/Printf.c **** 			{
 168:VS4210/Printf.c **** 				if (value == 0)
 262              		.loc 1 168 5 is_stmt 1 view .LVU72
 263              		.loc 1 168 8 is_stmt 0 view .LVU73
 264 00c8 002D     		cmp	r5, #0
 265 00ca 38D1     		bne	.L43
 169:VS4210/Printf.c **** 				{
 170:VS4210/Printf.c **** 					_outchar('0');
 266              		.loc 1 170 6 is_stmt 1 view .LVU74
 267 00cc 3020     		movs	r0, #48
 268 00ce FFF7FEFF 		bl	RS_tx
 269              	.LVL30:
 171:VS4210/Printf.c **** 					continue;
 270              		.loc 1 171 6 view .LVU75
 271 00d2 A0E7     		b	.L2
 272              	.LVL31:
 273              	.L51:
 132:VS4210/Printf.c **** 					value = (int)va_arg(ap, int);
 274              		.loc 1 132 5 view .LVU76
 132:VS4210/Printf.c **** 					value = (int)va_arg(ap, int);
 275              		.loc 1 132 8 is_stmt 0 view .LVU77
 276 00d4 642B     		cmp	r3, #100
 277 00d6 04D0     		beq	.L53
 135:VS4210/Printf.c **** 
 278              		.loc 1 135 6 is_stmt 1 view .LVU78
 135:VS4210/Printf.c **** 
 279              		.loc 1 135 12 is_stmt 0 view .LVU79
 280 00d8 019B     		ldr	r3, [sp, #4]
 281              	.LVL32:
 135:VS4210/Printf.c **** 
 282              		.loc 1 135 12 view .LVU80
 283 00da 1A1D     		adds	r2, r3, #4
 284 00dc 0192     		str	r2, [sp, #4]
 285 00de 1D68     		ldr	r5, [r3]
 286              	.LVL33:
 135:VS4210/Printf.c **** 
 287              		.loc 1 135 12 view .LVU81
 288 00e0 EEE7     		b	.L21
 289              	.LVL34:
 290              	.L53:
 133:VS4210/Printf.c **** 				else
 291              		.loc 1 133 6 is_stmt 1 view .LVU82
 133:VS4210/Printf.c **** 				else
 292              		.loc 1 133 12 is_stmt 0 view .LVU83
 293 00e2 019B     		ldr	r3, [sp, #4]
 294              	.LVL35:
 133:VS4210/Printf.c **** 				else
 295              		.loc 1 133 12 view .LVU84
 296 00e4 1A1D     		adds	r2, r3, #4
 297 00e6 0192     		str	r2, [sp, #4]
 298 00e8 1D68     		ldr	r5, [r3]
 299              	.LVL36:
 133:VS4210/Printf.c **** 				else
 300              		.loc 1 133 12 view .LVU85
 301 00ea E9E7     		b	.L21
ARM GAS  C:\Users\ryanc.HS\AppData\Local\Temp\ccqk5gur.s 			page 10


 302              	.LVL37:
 303              	.L19:
 146:VS4210/Printf.c **** 					value = (int)va_arg(ap, int);
 304              		.loc 1 146 5 is_stmt 1 view .LVU86
 146:VS4210/Printf.c **** 					value = (int)va_arg(ap, int);
 305              		.loc 1 146 8 is_stmt 0 view .LVU87
 306 00ec 642B     		cmp	r3, #100
 307 00ee 04D0     		beq	.L54
 149:VS4210/Printf.c **** 				break;
 308              		.loc 1 149 6 is_stmt 1 view .LVU88
 149:VS4210/Printf.c **** 				break;
 309              		.loc 1 149 20 is_stmt 0 view .LVU89
 310 00f0 019B     		ldr	r3, [sp, #4]
 311              	.LVL38:
 149:VS4210/Printf.c **** 				break;
 312              		.loc 1 149 20 view .LVU90
 313 00f2 1A1D     		adds	r2, r3, #4
 314 00f4 0192     		str	r2, [sp, #4]
 315 00f6 1D68     		ldr	r5, [r3]
 316              	.LVL39:
 149:VS4210/Printf.c **** 				break;
 317              		.loc 1 149 20 view .LVU91
 318 00f8 E2E7     		b	.L21
 319              	.LVL40:
 320              	.L54:
 147:VS4210/Printf.c **** 				else
 321              		.loc 1 147 6 is_stmt 1 view .LVU92
 147:VS4210/Printf.c **** 				else
 322              		.loc 1 147 12 is_stmt 0 view .LVU93
 323 00fa 019B     		ldr	r3, [sp, #4]
 324              	.LVL41:
 147:VS4210/Printf.c **** 				else
 325              		.loc 1 147 12 view .LVU94
 326 00fc 1A1D     		adds	r2, r3, #4
 327 00fe 0192     		str	r2, [sp, #4]
 328 0100 1D68     		ldr	r5, [r3]
 329              	.LVL42:
 147:VS4210/Printf.c **** 				else
 330              		.loc 1 147 12 view .LVU95
 331 0102 DDE7     		b	.L21
 332              	.LVL43:
 333              	.L20:
 153:VS4210/Printf.c **** 					value = (long)va_arg(ap, long);
 334              		.loc 1 153 5 is_stmt 1 view .LVU96
 153:VS4210/Printf.c **** 					value = (long)va_arg(ap, long);
 335              		.loc 1 153 8 is_stmt 0 view .LVU97
 336 0104 642B     		cmp	r3, #100
 337 0106 04D0     		beq	.L55
 156:VS4210/Printf.c **** 				break;
 338              		.loc 1 156 6 is_stmt 1 view .LVU98
 156:VS4210/Printf.c **** 				break;
 339              		.loc 1 156 21 is_stmt 0 view .LVU99
 340 0108 019B     		ldr	r3, [sp, #4]
 341              	.LVL44:
 156:VS4210/Printf.c **** 				break;
 342              		.loc 1 156 21 view .LVU100
 343 010a 1A1D     		adds	r2, r3, #4
ARM GAS  C:\Users\ryanc.HS\AppData\Local\Temp\ccqk5gur.s 			page 11


 344 010c 0192     		str	r2, [sp, #4]
 345 010e 1D68     		ldr	r5, [r3]
 346              	.LVL45:
 156:VS4210/Printf.c **** 				break;
 347              		.loc 1 156 21 view .LVU101
 348 0110 D6E7     		b	.L21
 349              	.LVL46:
 350              	.L55:
 154:VS4210/Printf.c **** 				else
 351              		.loc 1 154 6 is_stmt 1 view .LVU102
 154:VS4210/Printf.c **** 				else
 352              		.loc 1 154 12 is_stmt 0 view .LVU103
 353 0112 019B     		ldr	r3, [sp, #4]
 354              	.LVL47:
 154:VS4210/Printf.c **** 				else
 355              		.loc 1 154 12 view .LVU104
 356 0114 1A1D     		adds	r2, r3, #4
 357 0116 0192     		str	r2, [sp, #4]
 358 0118 1D68     		ldr	r5, [r3]
 359              	.LVL48:
 154:VS4210/Printf.c **** 				else
 360              		.loc 1 154 12 view .LVU105
 361 011a D1E7     		b	.L21
 362              	.LVL49:
 363              	.L52:
 162:VS4210/Printf.c **** 				value = value * (-1);
 364              		.loc 1 162 5 is_stmt 1 view .LVU106
 365 011c 2D20     		movs	r0, #45
 366 011e FFF7FEFF 		bl	RS_tx
 367              	.LVL50:
 163:VS4210/Printf.c **** 			}
 368              		.loc 1 163 5 view .LVU107
 163:VS4210/Printf.c **** 			}
 369              		.loc 1 163 11 is_stmt 0 view .LVU108
 370 0122 6D42     		rsbs	r5, r5, #0
 371              	.LVL51:
 163:VS4210/Printf.c **** 			}
 372              		.loc 1 163 11 view .LVU109
 373 0124 CEE7     		b	.L25
 374              	.LVL52:
 375              	.L56:
 172:VS4210/Printf.c **** 				}
 173:VS4210/Printf.c **** 
 174:VS4210/Printf.c **** 				for (cnt = 0, mask = 1; cnt < 10; cnt++)
 175:VS4210/Printf.c **** 				{
 176:VS4210/Printf.c **** 					if ((value / mask) == 0)
 177:VS4210/Printf.c **** 						break;
 178:VS4210/Printf.c **** 					mask = mask * 10;
 376              		.loc 1 178 6 is_stmt 1 discriminator 2 view .LVU110
 377              		.loc 1 178 11 is_stmt 0 discriminator 2 view .LVU111
 378 0126 03EB8303 		add	r3, r3, r3, lsl #2
 379              	.LVL53:
 380              		.loc 1 178 11 discriminator 2 view .LVU112
 381 012a 5B00     		lsls	r3, r3, #1
 382              	.LVL54:
 174:VS4210/Printf.c **** 				{
 383              		.loc 1 174 39 is_stmt 1 discriminator 2 view .LVU113
ARM GAS  C:\Users\ryanc.HS\AppData\Local\Temp\ccqk5gur.s 			page 12


 174:VS4210/Printf.c **** 				{
 384              		.loc 1 174 42 is_stmt 0 discriminator 2 view .LVU114
 385 012c 0136     		adds	r6, r6, #1
 386              	.LVL55:
 174:VS4210/Printf.c **** 				{
 387              		.loc 1 174 42 discriminator 2 view .LVU115
 388 012e F6B2     		uxtb	r6, r6
 389              	.LVL56:
 390              	.L27:
 174:VS4210/Printf.c **** 				{
 391              		.loc 1 174 29 is_stmt 1 discriminator 1 view .LVU116
 174:VS4210/Printf.c **** 				{
 392              		.loc 1 174 5 is_stmt 0 discriminator 1 view .LVU117
 393 0130 092E     		cmp	r6, #9
 394 0132 01D8     		bhi	.L26
 176:VS4210/Printf.c **** 						break;
 395              		.loc 1 176 6 is_stmt 1 view .LVU118
 176:VS4210/Printf.c **** 						break;
 396              		.loc 1 176 9 is_stmt 0 view .LVU119
 397 0134 9D42     		cmp	r5, r3
 398 0136 F6D2     		bcs	.L56
 399              	.LVL57:
 400              	.L26:
 179:VS4210/Printf.c **** 				}
 180:VS4210/Printf.c **** 			}
 181:VS4210/Printf.c **** 
 182:VS4210/Printf.c **** 			for (i = 0, mask = 1; i < cnt - 1; i++)
 401              		.loc 1 182 4 is_stmt 1 view .LVU120
 402              		.loc 1 182 21 is_stmt 0 view .LVU121
 403 0138 0127     		movs	r7, #1
 404              		.loc 1 182 11 view .LVU122
 405 013a 0023     		movs	r3, #0
 406              		.loc 1 182 4 view .LVU123
 407 013c 06E0     		b	.L29
 408              	.LVL58:
 409              	.L43:
 174:VS4210/Printf.c **** 				{
 410              		.loc 1 174 24 view .LVU124
 411 013e 0123     		movs	r3, #1
 412 0140 F6E7     		b	.L27
 413              	.LVL59:
 414              	.L30:
 183:VS4210/Printf.c **** 				mask = mask * 10;
 415              		.loc 1 183 5 is_stmt 1 discriminator 3 view .LVU125
 416              		.loc 1 183 10 is_stmt 0 discriminator 3 view .LVU126
 417 0142 07EB8707 		add	r7, r7, r7, lsl #2
 418              	.LVL60:
 419              		.loc 1 183 10 discriminator 3 view .LVU127
 420 0146 7F00     		lsls	r7, r7, #1
 421              	.LVL61:
 182:VS4210/Printf.c **** 				mask = mask * 10;
 422              		.loc 1 182 39 is_stmt 1 discriminator 3 view .LVU128
 182:VS4210/Printf.c **** 				mask = mask * 10;
 423              		.loc 1 182 40 is_stmt 0 discriminator 3 view .LVU129
 424 0148 0133     		adds	r3, r3, #1
 425              	.LVL62:
 182:VS4210/Printf.c **** 				mask = mask * 10;
ARM GAS  C:\Users\ryanc.HS\AppData\Local\Temp\ccqk5gur.s 			page 13


 426              		.loc 1 182 40 discriminator 3 view .LVU130
 427 014a DBB2     		uxtb	r3, r3
 428              	.LVL63:
 429              	.L29:
 182:VS4210/Printf.c **** 				mask = mask * 10;
 430              		.loc 1 182 26 is_stmt 1 discriminator 1 view .LVU131
 182:VS4210/Printf.c **** 				mask = mask * 10;
 431              		.loc 1 182 34 is_stmt 0 discriminator 1 view .LVU132
 432 014c 721E     		subs	r2, r6, #1
 182:VS4210/Printf.c **** 				mask = mask * 10;
 433              		.loc 1 182 4 discriminator 1 view .LVU133
 434 014e 9342     		cmp	r3, r2
 435 0150 F7DB     		blt	.L30
 436 0152 19E0     		b	.L32
 437              	.LVL64:
 438              	.L58:
 184:VS4210/Printf.c **** 
 185:VS4210/Printf.c **** 			while (1)
 186:VS4210/Printf.c **** 			{
 187:VS4210/Printf.c **** 				ch = (value / mask) + '0';
 188:VS4210/Printf.c **** 				if (ch == '0' && fl_zero == 0 && mask != 1)
 439              		.loc 1 188 19 discriminator 1 view .LVU134
 440 0154 B8F1000F 		cmp	r8, #0
 441 0158 06D1     		bne	.L45
 442              		.loc 1 188 35 discriminator 2 view .LVU135
 443 015a 012F     		cmp	r7, #1
 444 015c 01D0     		beq	.L57
 189:VS4210/Printf.c **** 					ch = ' ';
 445              		.loc 1 189 9 view .LVU136
 446 015e 2020     		movs	r0, #32
 447              	.LVL65:
 448              		.loc 1 189 9 view .LVU137
 449 0160 04E0     		b	.L31
 450              	.LVL66:
 451              	.L57:
 190:VS4210/Printf.c **** 				else
 191:VS4210/Printf.c **** 					fl_zero = 1;
 452              		.loc 1 191 14 view .LVU138
 453 0162 4FF00108 		mov	r8, #1
 454              	.LVL67:
 455              		.loc 1 191 14 view .LVU139
 456 0166 01E0     		b	.L31
 457              	.LVL68:
 458              	.L45:
 459              		.loc 1 191 14 view .LVU140
 460 0168 4FF00108 		mov	r8, #1
 461              	.LVL69:
 462              	.L31:
 192:VS4210/Printf.c **** 				_outchar(ch);
 463              		.loc 1 192 5 is_stmt 1 view .LVU141
 464 016c FFF7FEFF 		bl	RS_tx
 465              	.LVL70:
 193:VS4210/Printf.c **** 
 194:VS4210/Printf.c **** 				value = value % (mask);
 466              		.loc 1 194 5 view .LVU142
 467              		.loc 1 194 19 is_stmt 0 view .LVU143
 468 0170 B6FBF7F5 		udiv	r5, r6, r7
ARM GAS  C:\Users\ryanc.HS\AppData\Local\Temp\ccqk5gur.s 			page 14


 469              	.LVL71:
 470              		.loc 1 194 19 view .LVU144
 471 0174 07FB1565 		mls	r5, r7, r5, r6
 472              	.LVL72:
 195:VS4210/Printf.c **** 				mask = mask / 10;
 473              		.loc 1 195 5 is_stmt 1 view .LVU145
 474              		.loc 1 195 10 is_stmt 0 view .LVU146
 475 0178 2B4B     		ldr	r3, .L60
 476 017a A3FB0723 		umull	r2, r3, r3, r7
 477 017e DB08     		lsrs	r3, r3, #3
 478              	.LVL73:
 196:VS4210/Printf.c **** 
 197:VS4210/Printf.c **** 				if (mask == 0)
 479              		.loc 1 197 5 is_stmt 1 view .LVU147
 480              		.loc 1 197 8 is_stmt 0 view .LVU148
 481 0180 092F     		cmp	r7, #9
 482 0182 7FF648AF 		bls	.L2
 195:VS4210/Printf.c **** 				mask = mask / 10;
 483              		.loc 1 195 10 view .LVU149
 484 0186 1F46     		mov	r7, r3
 485              	.LVL74:
 486              	.L32:
 185:VS4210/Printf.c **** 			{
 487              		.loc 1 185 4 is_stmt 1 view .LVU150
 187:VS4210/Printf.c **** 				if (ch == '0' && fl_zero == 0 && mask != 1)
 488              		.loc 1 187 5 view .LVU151
 187:VS4210/Printf.c **** 				if (ch == '0' && fl_zero == 0 && mask != 1)
 489              		.loc 1 187 17 is_stmt 0 view .LVU152
 490 0188 2E46     		mov	r6, r5
 491 018a B5FBF7F0 		udiv	r0, r5, r7
 187:VS4210/Printf.c **** 				if (ch == '0' && fl_zero == 0 && mask != 1)
 492              		.loc 1 187 25 view .LVU153
 493 018e C0B2     		uxtb	r0, r0
 187:VS4210/Printf.c **** 				if (ch == '0' && fl_zero == 0 && mask != 1)
 494              		.loc 1 187 8 view .LVU154
 495 0190 3030     		adds	r0, r0, #48
 496 0192 C0B2     		uxtb	r0, r0
 497              	.LVL75:
 188:VS4210/Printf.c **** 					ch = ' ';
 498              		.loc 1 188 5 is_stmt 1 view .LVU155
 188:VS4210/Printf.c **** 					ch = ' ';
 499              		.loc 1 188 8 is_stmt 0 view .LVU156
 500 0194 3028     		cmp	r0, #48
 501 0196 DDD0     		beq	.L58
 191:VS4210/Printf.c **** 				_outchar(ch);
 502              		.loc 1 191 14 view .LVU157
 503 0198 4FF00108 		mov	r8, #1
 504              	.LVL76:
 191:VS4210/Printf.c **** 				_outchar(ch);
 505              		.loc 1 191 14 view .LVU158
 506 019c E6E7     		b	.L31
 507              	.LVL77:
 508              	.L14:
 198:VS4210/Printf.c **** 					break;
 199:VS4210/Printf.c **** 			}
 200:VS4210/Printf.c **** 			continue;
 201:VS4210/Printf.c **** 
ARM GAS  C:\Users\ryanc.HS\AppData\Local\Temp\ccqk5gur.s 			page 15


 202:VS4210/Printf.c **** 		case 'x':
 203:VS4210/Printf.c **** 		case 'X':
 204:VS4210/Printf.c **** 
 205:VS4210/Printf.c **** 			switch (fl_len)
 509              		.loc 1 205 4 is_stmt 1 view .LVU159
 510 019e 0229     		cmp	r1, #2
 511 01a0 1CD0     		beq	.L33
 512 01a2 0429     		cmp	r1, #4
 513 01a4 1FD0     		beq	.L34
 514 01a6 0129     		cmp	r1, #1
 515 01a8 13D0     		beq	.L59
 516              	.LVL78:
 517              	.L35:
 206:VS4210/Printf.c **** 			{
 207:VS4210/Printf.c **** #if 1 // ryan@20200511
 208:VS4210/Printf.c **** 			case 1:
 209:VS4210/Printf.c **** 				value = (int)va_arg(ap, int);
 210:VS4210/Printf.c **** 				break;
 211:VS4210/Printf.c **** #else
 212:VS4210/Printf.c **** 			case 1:
 213:VS4210/Printf.c **** 				value = (BYTE)va_arg(ap, BYTE);
 214:VS4210/Printf.c **** 				break;
 215:VS4210/Printf.c **** #endif
 216:VS4210/Printf.c **** 			case 2:
 217:VS4210/Printf.c **** 				value = (WORD)va_arg(ap, WORD);
 218:VS4210/Printf.c **** 				break;
 219:VS4210/Printf.c **** 			case 4:
 220:VS4210/Printf.c **** 				value = (DWORD)va_arg(ap, DWORD);
 221:VS4210/Printf.c **** 				break;
 222:VS4210/Printf.c **** 			}
 223:VS4210/Printf.c **** 
 224:VS4210/Printf.c **** 			if (cnt == 0)
 518              		.loc 1 224 4 view .LVU160
 519              		.loc 1 224 7 is_stmt 0 view .LVU161
 520 01aa 06B9     		cbnz	r6, .L36
 225:VS4210/Printf.c **** 				cnt = fl_len * 2;
 521              		.loc 1 225 5 is_stmt 1 view .LVU162
 522              		.loc 1 225 9 is_stmt 0 view .LVU163
 523 01ac 4E00     		lsls	r6, r1, #1
 524              	.LVL79:
 525              	.L36:
 226:VS4210/Printf.c **** 
 227:VS4210/Printf.c **** 			for (i = 0; i < cnt; i++)
 526              		.loc 1 227 4 is_stmt 1 view .LVU164
 527              		.loc 1 227 11 is_stmt 0 view .LVU165
 528 01ae 0027     		movs	r7, #0
 529              	.LVL80:
 530              	.L37:
 531              		.loc 1 227 16 is_stmt 1 discriminator 1 view .LVU166
 532              		.loc 1 227 4 is_stmt 0 discriminator 1 view .LVU167
 533 01b0 B742     		cmp	r7, r6
 534 01b2 BFF430AF 		bcs	.L2
 228:VS4210/Printf.c **** 			{
 229:VS4210/Printf.c **** 				_outchar(Hex[(value >> (cnt - i - 1) * 4) & 0x000f]);
 535              		.loc 1 229 5 is_stmt 1 discriminator 3 view .LVU168
 536 01b6 F31B     		subs	r3, r6, r7
 537 01b8 013B     		subs	r3, r3, #1
ARM GAS  C:\Users\ryanc.HS\AppData\Local\Temp\ccqk5gur.s 			page 16


 538 01ba 9B00     		lsls	r3, r3, #2
 539 01bc 45FA03F3 		asr	r3, r5, r3
 540 01c0 03F00F03 		and	r3, r3, #15
 541 01c4 194A     		ldr	r2, .L60+4
 542 01c6 D05C     		ldrb	r0, [r2, r3]	@ zero_extendqisi2
 543 01c8 FFF7FEFF 		bl	RS_tx
 544              	.LVL81:
 227:VS4210/Printf.c **** 			{
 545              		.loc 1 227 25 discriminator 3 view .LVU169
 227:VS4210/Printf.c **** 			{
 546              		.loc 1 227 26 is_stmt 0 discriminator 3 view .LVU170
 547 01cc 0137     		adds	r7, r7, #1
 548              	.LVL82:
 227:VS4210/Printf.c **** 			{
 549              		.loc 1 227 26 discriminator 3 view .LVU171
 550 01ce FFB2     		uxtb	r7, r7
 551              	.LVL83:
 227:VS4210/Printf.c **** 			{
 552              		.loc 1 227 26 discriminator 3 view .LVU172
 553 01d0 EEE7     		b	.L37
 554              	.LVL84:
 555              	.L59:
 209:VS4210/Printf.c **** 				break;
 556              		.loc 1 209 5 is_stmt 1 view .LVU173
 209:VS4210/Printf.c **** 				break;
 557              		.loc 1 209 11 is_stmt 0 view .LVU174
 558 01d2 019B     		ldr	r3, [sp, #4]
 559              	.LVL85:
 209:VS4210/Printf.c **** 				break;
 560              		.loc 1 209 11 view .LVU175
 561 01d4 1A1D     		adds	r2, r3, #4
 562 01d6 0192     		str	r2, [sp, #4]
 563 01d8 1D68     		ldr	r5, [r3]
 564              	.LVL86:
 210:VS4210/Printf.c **** #else
 565              		.loc 1 210 5 is_stmt 1 view .LVU176
 566 01da E6E7     		b	.L35
 567              	.LVL87:
 568              	.L33:
 217:VS4210/Printf.c **** 				break;
 569              		.loc 1 217 5 view .LVU177
 217:VS4210/Printf.c **** 				break;
 570              		.loc 1 217 19 is_stmt 0 view .LVU178
 571 01dc 019B     		ldr	r3, [sp, #4]
 572              	.LVL88:
 217:VS4210/Printf.c **** 				break;
 573              		.loc 1 217 19 view .LVU179
 574 01de 1A1D     		adds	r2, r3, #4
 575 01e0 0192     		str	r2, [sp, #4]
 576 01e2 1D68     		ldr	r5, [r3]
 577              	.LVL89:
 218:VS4210/Printf.c **** 			case 4:
 578              		.loc 1 218 5 is_stmt 1 view .LVU180
 579 01e4 E1E7     		b	.L35
 580              	.LVL90:
 581              	.L34:
 220:VS4210/Printf.c **** 				break;
ARM GAS  C:\Users\ryanc.HS\AppData\Local\Temp\ccqk5gur.s 			page 17


 582              		.loc 1 220 5 view .LVU181
 220:VS4210/Printf.c **** 				break;
 583              		.loc 1 220 20 is_stmt 0 view .LVU182
 584 01e6 019B     		ldr	r3, [sp, #4]
 585              	.LVL91:
 220:VS4210/Printf.c **** 				break;
 586              		.loc 1 220 20 view .LVU183
 587 01e8 1A1D     		adds	r2, r3, #4
 588 01ea 0192     		str	r2, [sp, #4]
 589 01ec 1D68     		ldr	r5, [r3]
 590              	.LVL92:
 221:VS4210/Printf.c **** 			}
 591              		.loc 1 221 5 is_stmt 1 view .LVU184
 592 01ee DCE7     		b	.L35
 593              	.LVL93:
 594              	.L17:
 230:VS4210/Printf.c **** 			}
 231:VS4210/Printf.c **** 			continue;
 232:VS4210/Printf.c **** 
 233:VS4210/Printf.c **** 		case 's':
 234:VS4210/Printf.c **** 
 235:VS4210/Printf.c **** #ifdef TASKINGC
 236:VS4210/Printf.c **** 
 237:VS4210/Printf.c **** 			value = (WORD)va_arg(ap, WORD);
 238:VS4210/Printf.c **** 			while (*(char CODE_P *)value != '\0')
 239:VS4210/Printf.c **** 				_outchar(*(char CODE_P *)value++);
 240:VS4210/Printf.c **** 			continue;
 241:VS4210/Printf.c **** 
 242:VS4210/Printf.c **** #elif defined KEILC
 243:VS4210/Printf.c **** 
 244:VS4210/Printf.c **** 			ptr = (char *)va_arg(ap, char *);
 595              		.loc 1 244 4 view .LVU185
 596              		.loc 1 244 8 is_stmt 0 view .LVU186
 597 01f0 019B     		ldr	r3, [sp, #4]
 598              	.LVL94:
 599              		.loc 1 244 8 view .LVU187
 600 01f2 1A1D     		adds	r2, r3, #4
 601 01f4 0192     		str	r2, [sp, #4]
 602 01f6 1E68     		ldr	r6, [r3]
 603              	.LVL95:
 245:VS4210/Printf.c **** 			while (*ptr != '\0')
 604              		.loc 1 245 4 is_stmt 1 view .LVU188
 605              	.L39:
 606              		.loc 1 245 10 view .LVU189
 607              		.loc 1 245 11 is_stmt 0 view .LVU190
 608 01f8 3078     		ldrb	r0, [r6]	@ zero_extendqisi2
 609              		.loc 1 245 10 view .LVU191
 610 01fa 0028     		cmp	r0, #0
 611 01fc 3FF40BAF 		beq	.L2
 246:VS4210/Printf.c **** 				_outchar(*ptr++);
 612              		.loc 1 246 5 is_stmt 1 view .LVU192
 613 0200 0136     		adds	r6, r6, #1
 614              	.LVL96:
 615              		.loc 1 246 5 is_stmt 0 view .LVU193
 616 0202 FFF7FEFF 		bl	RS_tx
 617              	.LVL97:
 618 0206 F7E7     		b	.L39
ARM GAS  C:\Users\ryanc.HS\AppData\Local\Temp\ccqk5gur.s 			page 18


 619              	.LVL98:
 620              	.L18:
 247:VS4210/Printf.c **** 			continue;
 248:VS4210/Printf.c **** 
 249:VS4210/Printf.c **** #endif
 250:VS4210/Printf.c **** 
 251:VS4210/Printf.c **** 		case 'c':
 252:VS4210/Printf.c **** 			value = va_arg(ap, int);
 621              		.loc 1 252 4 is_stmt 1 view .LVU194
 622              		.loc 1 252 10 is_stmt 0 view .LVU195
 623 0208 019B     		ldr	r3, [sp, #4]
 624              	.LVL99:
 625              		.loc 1 252 10 view .LVU196
 626 020a 1A1D     		adds	r2, r3, #4
 627 020c 0192     		str	r2, [sp, #4]
 628 020e 1D68     		ldr	r5, [r3]
 629              	.LVL100:
 253:VS4210/Printf.c **** 			_outchar((BYTE)value);
 630              		.loc 1 253 4 is_stmt 1 view .LVU197
 631 0210 E8B2     		uxtb	r0, r5
 632 0212 FFF7FEFF 		bl	RS_tx
 633              	.LVL101:
 254:VS4210/Printf.c **** 			continue;
 634              		.loc 1 254 4 view .LVU198
 635 0216 FEE6     		b	.L2
 636              	.LVL102:
 637              	.L13:
 255:VS4210/Printf.c **** 
 256:VS4210/Printf.c **** 		default:
 257:VS4210/Printf.c **** 			value = (WORD)va_arg(ap, int);
 638              		.loc 1 257 4 view .LVU199
 639              		.loc 1 257 10 is_stmt 0 view .LVU200
 640 0218 019B     		ldr	r3, [sp, #4]
 641              	.LVL103:
 642              		.loc 1 257 10 view .LVU201
 643 021a 1A1D     		adds	r2, r3, #4
 644 021c 0192     		str	r2, [sp, #4]
 645 021e 1D68     		ldr	r5, [r3]
 646              	.LVL104:
 258:VS4210/Printf.c **** 			continue;
 647              		.loc 1 258 4 is_stmt 1 view .LVU202
 648 0220 F9E6     		b	.L2
 649              	.LVL105:
 650              	.L1:
 259:VS4210/Printf.c **** 		}
 260:VS4210/Printf.c **** 	}
 261:VS4210/Printf.c **** }
 651              		.loc 1 261 1 is_stmt 0 view .LVU203
 652 0222 02B0     		add	sp, sp, #8
 653              	.LCFI2:
 654              		.cfi_def_cfa_offset 24
 655              		@ sp needed
 656 0224 BDE8F081 		pop	{r4, r5, r6, r7, r8, pc}
 657              	.LVL106:
 658              	.L61:
 659              		.loc 1 261 1 view .LVU204
 660              		.align	2
ARM GAS  C:\Users\ryanc.HS\AppData\Local\Temp\ccqk5gur.s 			page 19


 661              	.L60:
 662 0228 CDCCCCCC 		.word	-858993459
 663 022c 00000000 		.word	.LANCHOR0
 664              		.cfi_endproc
 665              	.LFE3:
 667              		.section	.text.Printf,"ax",%progbits
 668              		.align	1
 669              		.global	Printf
 670              		.syntax unified
 671              		.thumb
 672              		.thumb_func
 673              		.fpu softvfp
 675              	Printf:
 676              	.LVL107:
 677              	.LFB4:
 262:VS4210/Printf.c **** 
 263:VS4210/Printf.c **** //===========================================================================//
 264:VS4210/Printf.c **** //                                                                           //
 265:VS4210/Printf.c **** //===========================================================================//
 266:VS4210/Printf.c **** // va_list ap;
 267:VS4210/Printf.c **** 
 268:VS4210/Printf.c **** void Printf(const char CODE_P *fmt, ...)
 269:VS4210/Printf.c **** {
 678              		.loc 1 269 1 is_stmt 1 view -0
 679              		.cfi_startproc
 680              		@ args = 4, pretend = 16, frame = 8
 681              		@ frame_needed = 0, uses_anonymous_args = 1
 682              		.loc 1 269 1 is_stmt 0 view .LVU206
 683 0000 0FB4     		push	{r0, r1, r2, r3}
 684              	.LCFI3:
 685              		.cfi_def_cfa_offset 16
 686              		.cfi_offset 0, -16
 687              		.cfi_offset 1, -12
 688              		.cfi_offset 2, -8
 689              		.cfi_offset 3, -4
 690 0002 00B5     		push	{lr}
 691              	.LCFI4:
 692              		.cfi_def_cfa_offset 20
 693              		.cfi_offset 14, -20
 694 0004 83B0     		sub	sp, sp, #12
 695              	.LCFI5:
 696              		.cfi_def_cfa_offset 32
 697 0006 04A9     		add	r1, sp, #16
 698 0008 51F8040B 		ldr	r0, [r1], #4
 270:VS4210/Printf.c **** 	va_list ap;
 699              		.loc 1 270 2 is_stmt 1 view .LVU207
 271:VS4210/Printf.c **** 
 272:VS4210/Printf.c **** 	va_start(ap, fmt);
 700              		.loc 1 272 2 view .LVU208
 701 000c 0191     		str	r1, [sp, #4]
 273:VS4210/Printf.c **** 	DoPrint(fmt, ap);
 702              		.loc 1 273 2 view .LVU209
 703 000e FFF7FEFF 		bl	DoPrint
 704              	.LVL108:
 274:VS4210/Printf.c **** 	va_end(ap);
 705              		.loc 1 274 2 view .LVU210
 275:VS4210/Printf.c **** }
ARM GAS  C:\Users\ryanc.HS\AppData\Local\Temp\ccqk5gur.s 			page 20


 706              		.loc 1 275 1 is_stmt 0 view .LVU211
 707 0012 03B0     		add	sp, sp, #12
 708              	.LCFI6:
 709              		.cfi_def_cfa_offset 20
 710              		@ sp needed
 711 0014 5DF804EB 		ldr	lr, [sp], #4
 712              	.LCFI7:
 713              		.cfi_restore 14
 714              		.cfi_def_cfa_offset 16
 715 0018 04B0     		add	sp, sp, #16
 716              	.LCFI8:
 717              		.cfi_restore 3
 718              		.cfi_restore 2
 719              		.cfi_restore 1
 720              		.cfi_restore 0
 721              		.cfi_def_cfa_offset 0
 722 001a 7047     		bx	lr
 723              		.cfi_endproc
 724              	.LFE4:
 726              		.section	.text.DEBUG_MESSAGE,"ax",%progbits
 727              		.align	1
 728              		.global	DEBUG_MESSAGE
 729              		.syntax unified
 730              		.thumb
 731              		.thumb_func
 732              		.fpu softvfp
 734              	DEBUG_MESSAGE:
 735              	.LVL109:
 736              	.LFB5:
 276:VS4210/Printf.c **** 
 277:VS4210/Printf.c **** void DEBUG_MESSAGE(const char CODE_P *fmt, ...)
 278:VS4210/Printf.c **** {
 737              		.loc 1 278 1 is_stmt 1 view -0
 738              		.cfi_startproc
 739              		@ args = 4, pretend = 16, frame = 8
 740              		@ frame_needed = 0, uses_anonymous_args = 1
 741              		.loc 1 278 1 is_stmt 0 view .LVU213
 742 0000 0FB4     		push	{r0, r1, r2, r3}
 743              	.LCFI9:
 744              		.cfi_def_cfa_offset 16
 745              		.cfi_offset 0, -16
 746              		.cfi_offset 1, -12
 747              		.cfi_offset 2, -8
 748              		.cfi_offset 3, -4
 749 0002 00B5     		push	{lr}
 750              	.LCFI10:
 751              		.cfi_def_cfa_offset 20
 752              		.cfi_offset 14, -20
 753 0004 83B0     		sub	sp, sp, #12
 754              	.LCFI11:
 755              		.cfi_def_cfa_offset 32
 756 0006 04A9     		add	r1, sp, #16
 757 0008 51F8040B 		ldr	r0, [r1], #4
 279:VS4210/Printf.c **** 	va_list ap;
 758              		.loc 1 279 2 is_stmt 1 view .LVU214
 280:VS4210/Printf.c **** 	va_start(ap, fmt);
 759              		.loc 1 280 2 view .LVU215
ARM GAS  C:\Users\ryanc.HS\AppData\Local\Temp\ccqk5gur.s 			page 21


 760 000c 0191     		str	r1, [sp, #4]
 281:VS4210/Printf.c **** #if (HS_DEBUG == ON)
 282:VS4210/Printf.c **** 	DoPrint(fmt, ap);
 761              		.loc 1 282 2 view .LVU216
 762 000e FFF7FEFF 		bl	DoPrint
 763              	.LVL110:
 283:VS4210/Printf.c **** #endif
 284:VS4210/Printf.c **** 	va_end(ap);
 764              		.loc 1 284 2 view .LVU217
 285:VS4210/Printf.c **** }
 765              		.loc 1 285 1 is_stmt 0 view .LVU218
 766 0012 03B0     		add	sp, sp, #12
 767              	.LCFI12:
 768              		.cfi_def_cfa_offset 20
 769              		@ sp needed
 770 0014 5DF804EB 		ldr	lr, [sp], #4
 771              	.LCFI13:
 772              		.cfi_restore 14
 773              		.cfi_def_cfa_offset 16
 774 0018 04B0     		add	sp, sp, #16
 775              	.LCFI14:
 776              		.cfi_restore 3
 777              		.cfi_restore 2
 778              		.cfi_restore 1
 779              		.cfi_restore 0
 780              		.cfi_def_cfa_offset 0
 781 001a 7047     		bx	lr
 782              		.cfi_endproc
 783              	.LFE5:
 785              		.section	.text.Puts,"ax",%progbits
 786              		.align	1
 787              		.global	Puts
 788              		.syntax unified
 789              		.thumb
 790              		.thumb_func
 791              		.fpu softvfp
 793              	Puts:
 794              	.LVL111:
 795              	.LFB6:
 286:VS4210/Printf.c **** 
 287:VS4210/Printf.c **** void Puts(CODE_P char *ptr)
 288:VS4210/Printf.c **** {
 796              		.loc 1 288 1 is_stmt 1 view -0
 797              		.cfi_startproc
 798              		@ args = 0, pretend = 0, frame = 0
 799              		@ frame_needed = 0, uses_anonymous_args = 0
 800              		.loc 1 288 1 is_stmt 0 view .LVU220
 801 0000 10B5     		push	{r4, lr}
 802              	.LCFI15:
 803              		.cfi_def_cfa_offset 8
 804              		.cfi_offset 4, -8
 805              		.cfi_offset 14, -4
 806 0002 0446     		mov	r4, r0
 289:VS4210/Printf.c **** 	while (*ptr != '\0')
 807              		.loc 1 289 2 is_stmt 1 view .LVU221
 808              	.LVL112:
 809              	.L67:
ARM GAS  C:\Users\ryanc.HS\AppData\Local\Temp\ccqk5gur.s 			page 22


 810              		.loc 1 289 8 view .LVU222
 811              		.loc 1 289 9 is_stmt 0 view .LVU223
 812 0004 2078     		ldrb	r0, [r4]	@ zero_extendqisi2
 813              		.loc 1 289 8 view .LVU224
 814 0006 18B1     		cbz	r0, .L70
 290:VS4210/Printf.c **** 		RS_tx(*ptr++);
 815              		.loc 1 290 3 is_stmt 1 view .LVU225
 816              		.loc 1 290 13 is_stmt 0 view .LVU226
 817 0008 0134     		adds	r4, r4, #1
 818              	.LVL113:
 819              		.loc 1 290 3 view .LVU227
 820 000a FFF7FEFF 		bl	RS_tx
 821              	.LVL114:
 822 000e F9E7     		b	.L67
 823              	.L70:
 291:VS4210/Printf.c **** }
 824              		.loc 1 291 1 view .LVU228
 825 0010 10BD     		pop	{r4, pc}
 826              		.loc 1 291 1 view .LVU229
 827              		.cfi_endproc
 828              	.LFE6:
 830              		.section	.rodata.GraphicsPrint.str1.4,"aMS",%progbits,1
 831              		.align	2
 832              	.LC0:
 833 0000 1B5B306D 		.ascii	"\033[0m\000"
 833      00
 834              		.section	.text.GraphicsPrint,"ax",%progbits
 835              		.align	1
 836              		.global	GraphicsPrint
 837              		.syntax unified
 838              		.thumb
 839              		.thumb_func
 840              		.fpu softvfp
 842              	GraphicsPrint:
 843              	.LVL115:
 844              	.LFB7:
 292:VS4210/Printf.c **** 
 293:VS4210/Printf.c **** //===========================================================================//
 294:VS4210/Printf.c **** //                                                                           //
 295:VS4210/Printf.c **** //===========================================================================//
 296:VS4210/Printf.c **** #ifdef DEBUG
 297:VS4210/Printf.c **** 
 298:VS4210/Printf.c **** void dPrintf(const char CODE_P *fmt, ...)
 299:VS4210/Printf.c **** {
 300:VS4210/Printf.c **** 	va_list ap;
 301:VS4210/Printf.c **** 
 302:VS4210/Printf.c **** 	if (DebugLevel >= DEBUG_INFO)
 303:VS4210/Printf.c **** 	{
 304:VS4210/Printf.c **** 		va_start(ap, fmt);
 305:VS4210/Printf.c **** 		DoPrint(fmt, ap);
 306:VS4210/Printf.c **** 		va_end(ap);
 307:VS4210/Printf.c **** 	}
 308:VS4210/Printf.c **** }
 309:VS4210/Printf.c **** /*
 310:VS4210/Printf.c **** void wPrintf( const char CODE_P *fmt, ... )
 311:VS4210/Printf.c **** {
 312:VS4210/Printf.c **** 	va_list ap;
ARM GAS  C:\Users\ryanc.HS\AppData\Local\Temp\ccqk5gur.s 			page 23


 313:VS4210/Printf.c **** 
 314:VS4210/Printf.c **** 	if( DebugLevel >= DEBUG_WARN ) {
 315:VS4210/Printf.c **** 		va_start(ap, fmt);
 316:VS4210/Printf.c **** 		DoPrint( fmt, ap );
 317:VS4210/Printf.c **** 		va_end( ap );
 318:VS4210/Printf.c **** 	}
 319:VS4210/Printf.c **** }
 320:VS4210/Printf.c **** */
 321:VS4210/Printf.c **** 
 322:VS4210/Printf.c **** /*
 323:VS4210/Printf.c **** 
 324:VS4210/Printf.c **** void ePrintf( const char CODE_P *fmt, ... )
 325:VS4210/Printf.c **** {
 326:VS4210/Printf.c **** 	va_list ap;
 327:VS4210/Printf.c **** 
 328:VS4210/Printf.c **** 	if( DebugLevel >= DEBUG_ERR ) {
 329:VS4210/Printf.c **** 		va_start(ap, fmt);
 330:VS4210/Printf.c **** 		DoPrint( fmt, ap );
 331:VS4210/Printf.c **** 		va_end( ap );
 332:VS4210/Printf.c **** 	}
 333:VS4210/Printf.c **** }
 334:VS4210/Printf.c **** */
 335:VS4210/Printf.c **** //===========================================================================//
 336:VS4210/Printf.c **** //                                                                           //
 337:VS4210/Printf.c **** //===========================================================================//
 338:VS4210/Printf.c **** void dPuts(CODE_P char *ptr)
 339:VS4210/Printf.c **** {
 340:VS4210/Printf.c **** 	if (DebugLevel >= DEBUG_INFO)
 341:VS4210/Printf.c **** 	{
 342:VS4210/Printf.c **** 		while (*ptr != '\0')
 343:VS4210/Printf.c **** 			RS_tx(*ptr++);
 344:VS4210/Printf.c **** 	}
 345:VS4210/Printf.c **** }
 346:VS4210/Printf.c **** 
 347:VS4210/Printf.c **** #if defined(SUPPORT_PC) || defined(SUPPORT_DTV) || defined(DEBUG_SETPANEL)
 348:VS4210/Printf.c **** void wPuts(CODE_P char *ptr)
 349:VS4210/Printf.c **** {
 350:VS4210/Printf.c **** 	if (DebugLevel >= DEBUG_WARN)
 351:VS4210/Printf.c **** 	{
 352:VS4210/Printf.c **** 		while (*ptr != '\0')
 353:VS4210/Printf.c **** 			RS_tx(*ptr++);
 354:VS4210/Printf.c **** 	}
 355:VS4210/Printf.c **** }
 356:VS4210/Printf.c **** 
 357:VS4210/Printf.c **** void ePuts(CODE_P char *ptr)
 358:VS4210/Printf.c **** {
 359:VS4210/Printf.c **** 	if (DebugLevel >= DEBUG_ERR)
 360:VS4210/Printf.c **** 	{
 361:VS4210/Printf.c **** 		while (*ptr != '\0')
 362:VS4210/Printf.c **** 			RS_tx(*ptr++);
 363:VS4210/Printf.c **** 	}
 364:VS4210/Printf.c **** }
 365:VS4210/Printf.c **** #endif
 366:VS4210/Printf.c **** 
 367:VS4210/Printf.c **** #endif // DEBUG
 368:VS4210/Printf.c **** 
 369:VS4210/Printf.c **** //===========================================================================//
ARM GAS  C:\Users\ryanc.HS\AppData\Local\Temp\ccqk5gur.s 			page 24


 370:VS4210/Printf.c **** //                                                                          GraphicsPrint
 371:VS4210/Printf.c **** //===========================================================================//
 372:VS4210/Printf.c **** 
 373:VS4210/Printf.c **** void GraphicsPrint(PRINT_COLOR_e mode, const char *Message, ...)
 374:VS4210/Printf.c **** {
 845              		.loc 1 374 1 is_stmt 1 view -0
 846              		.cfi_startproc
 847              		@ args = 4, pretend = 12, frame = 8
 848              		@ frame_needed = 0, uses_anonymous_args = 1
 849              		.loc 1 374 1 is_stmt 0 view .LVU231
 850 0000 0EB4     		push	{r1, r2, r3}
 851              	.LCFI16:
 852              		.cfi_def_cfa_offset 12
 853              		.cfi_offset 1, -12
 854              		.cfi_offset 2, -8
 855              		.cfi_offset 3, -4
 856 0002 00B5     		push	{lr}
 857              	.LCFI17:
 858              		.cfi_def_cfa_offset 16
 859              		.cfi_offset 14, -16
 860 0004 82B0     		sub	sp, sp, #8
 861              	.LCFI18:
 862              		.cfi_def_cfa_offset 24
 375:VS4210/Printf.c **** #if (_DEBUG_MESSAGE_COLOR_MESSAGE == ON)
 376:VS4210/Printf.c **** 
 377:VS4210/Printf.c **** 	va_list ap;
 863              		.loc 1 377 2 is_stmt 1 view .LVU232
 378:VS4210/Printf.c **** 
 379:VS4210/Printf.c **** #if (_DEBUG_MESSAGE_Monitor == ON)
 380:VS4210/Printf.c **** 	if (Monitor_flag == _TRUE)
 864              		.loc 1 380 2 view .LVU233
 865              		.loc 1 380 19 is_stmt 0 view .LVU234
 866 0006 0B4B     		ldr	r3, .L75
 867 0008 1B78     		ldrb	r3, [r3]	@ zero_extendqisi2
 868              		.loc 1 380 5 view .LVU235
 869 000a 012B     		cmp	r3, #1
 870 000c 04D1     		bne	.L74
 871              	.LVL116:
 872              	.L71:
 381:VS4210/Printf.c **** 		;
 382:VS4210/Printf.c **** 	else
 383:VS4210/Printf.c **** #endif
 384:VS4210/Printf.c **** 	{
 385:VS4210/Printf.c **** 
 386:VS4210/Printf.c **** 		DEBUG_MESSAGE(_PrintColor[mode]);
 387:VS4210/Printf.c **** 		va_start(ap, Message);
 388:VS4210/Printf.c **** 		DoPrint(Message, ap);
 389:VS4210/Printf.c **** 		va_end(ap);
 390:VS4210/Printf.c **** 		DEBUG_MESSAGE(_PrintColor[PRINT_COLOR_BLACK]);
 391:VS4210/Printf.c **** 	}
 392:VS4210/Printf.c **** #else
 393:VS4210/Printf.c **** 	va_list ap;
 394:VS4210/Printf.c **** 	va_start(ap, Message);
 395:VS4210/Printf.c **** 	DoPrint(Message, ap);
 396:VS4210/Printf.c **** 	va_end(ap);
 397:VS4210/Printf.c **** 	mode = 1;
 398:VS4210/Printf.c **** 
ARM GAS  C:\Users\ryanc.HS\AppData\Local\Temp\ccqk5gur.s 			page 25


 399:VS4210/Printf.c **** #endif
 400:VS4210/Printf.c **** }
 873              		.loc 1 400 1 view .LVU236
 874 000e 02B0     		add	sp, sp, #8
 875              	.LCFI19:
 876              		.cfi_remember_state
 877              		.cfi_def_cfa_offset 16
 878              		@ sp needed
 879 0010 5DF804EB 		ldr	lr, [sp], #4
 880              	.LCFI20:
 881              		.cfi_restore 14
 882              		.cfi_def_cfa_offset 12
 883 0014 03B0     		add	sp, sp, #12
 884              	.LCFI21:
 885              		.cfi_restore 3
 886              		.cfi_restore 2
 887              		.cfi_restore 1
 888              		.cfi_def_cfa_offset 0
 889 0016 7047     		bx	lr
 890              	.LVL117:
 891              	.L74:
 892              	.LCFI22:
 893              		.cfi_restore_state
 386:VS4210/Printf.c **** 		va_start(ap, Message);
 894              		.loc 1 386 3 is_stmt 1 view .LVU237
 895 0018 074B     		ldr	r3, .L75+4
 896 001a 53F82000 		ldr	r0, [r3, r0, lsl #2]
 897              	.LVL118:
 386:VS4210/Printf.c **** 		va_start(ap, Message);
 898              		.loc 1 386 3 is_stmt 0 view .LVU238
 899 001e FFF7FEFF 		bl	DEBUG_MESSAGE
 900              	.LVL119:
 387:VS4210/Printf.c **** 		DoPrint(Message, ap);
 901              		.loc 1 387 3 is_stmt 1 view .LVU239
 902 0022 04A9     		add	r1, sp, #16
 903 0024 0191     		str	r1, [sp, #4]
 388:VS4210/Printf.c **** 		va_end(ap);
 904              		.loc 1 388 3 view .LVU240
 905 0026 0398     		ldr	r0, [sp, #12]
 906 0028 FFF7FEFF 		bl	DoPrint
 907              	.LVL120:
 389:VS4210/Printf.c **** 		DEBUG_MESSAGE(_PrintColor[PRINT_COLOR_BLACK]);
 908              		.loc 1 389 3 view .LVU241
 390:VS4210/Printf.c **** 	}
 909              		.loc 1 390 3 view .LVU242
 910 002c 0348     		ldr	r0, .L75+8
 911 002e FFF7FEFF 		bl	DEBUG_MESSAGE
 912              	.LVL121:
 913              		.loc 1 400 1 is_stmt 0 view .LVU243
 914 0032 ECE7     		b	.L71
 915              	.L76:
 916              		.align	2
 917              	.L75:
 918 0034 00000000 		.word	Monitor_flag
 919 0038 00000000 		.word	.LANCHOR1
 920 003c 00000000 		.word	.LC0
 921              		.cfi_endproc
ARM GAS  C:\Users\ryanc.HS\AppData\Local\Temp\ccqk5gur.s 			page 26


 922              	.LFE7:
 924              		.global	Hex
 925              		.section	.rodata.str1.4,"aMS",%progbits,1
 926              		.align	2
 927              	.LC1:
 928 0000 1B5B303B 		.ascii	"\033[0;31m\000"
 928      33316D00 
 929              		.align	2
 930              	.LC2:
 931 0008 1B5B303B 		.ascii	"\033[0;32m\000"
 931      33326D00 
 932              		.align	2
 933              	.LC3:
 934 0010 1B5B303B 		.ascii	"\033[0;33m\000"
 934      33336D00 
 935              		.align	2
 936              	.LC4:
 937 0018 1B5B303B 		.ascii	"\033[0;34m\000"
 937      33346D00 
 938              		.align	2
 939              	.LC5:
 940 0020 1B5B303B 		.ascii	"\033[0;35m\000"
 940      33356D00 
 941              		.align	2
 942              	.LC6:
 943 0028 1B5B303B 		.ascii	"\033[0;36m\000"
 943      33366D00 
 944              		.align	2
 945              	.LC7:
 946 0030 1B5B303B 		.ascii	"\033[0;37m\000"
 946      33376D00 
 947              		.section	.data.Hex,"aw"
 948              		.align	2
 949              		.set	.LANCHOR0,. + 0
 952              	Hex:
 953 0000 30313233 		.ascii	"0123456789ABCDEF\000"
 953      34353637 
 953      38394142 
 953      43444546 
 953      00
 954              		.section	.rodata._PrintColor,"a"
 955              		.align	2
 956              		.set	.LANCHOR1,. + 0
 959              	_PrintColor:
 960 0000 00000000 		.word	.LC0
 961 0004 00000000 		.word	.LC1
 962 0008 08000000 		.word	.LC2
 963 000c 10000000 		.word	.LC3
 964 0010 18000000 		.word	.LC4
 965 0014 20000000 		.word	.LC5
 966 0018 28000000 		.word	.LC6
 967 001c 30000000 		.word	.LC7
 968              		.text
 969              	.Letext0:
 970              		.file 2 "c:\\program files (x86)\\gnu tools arm embedded\\9 2019-q4-major\\arm-none-eabi\\include\
 971              		.file 3 "c:\\program files (x86)\\gnu tools arm embedded\\9 2019-q4-major\\arm-none-eabi\\include\
 972              		.file 4 "c:\\program files (x86)\\gnu tools arm embedded\\9 2019-q4-major\\lib\\gcc\\arm-none-eabi
ARM GAS  C:\Users\ryanc.HS\AppData\Local\Temp\ccqk5gur.s 			page 27


 973              		.file 5 "c:\\program files (x86)\\gnu tools arm embedded\\9 2019-q4-major\\arm-none-eabi\\include\
 974              		.file 6 "c:\\program files (x86)\\gnu tools arm embedded\\9 2019-q4-major\\lib\\gcc\\arm-none-eabi
 975              		.file 7 "c:\\program files (x86)\\gnu tools arm embedded\\9 2019-q4-major\\arm-none-eabi\\include\
 976              		.file 8 "VS4210/VXIS_Extern_Define.h"
 977              		.file 9 "c:\\program files (x86)\\gnu tools arm embedded\\9 2019-q4-major\\arm-none-eabi\\include\
 978              		.file 10 "sw_i2c/VX_swi2c.h"
 979              		.file 11 "VS4210/VS4210.h"
 980              		.file 12 "VS4210/printf.h"
 981              		.file 13 "<built-in>"
ARM GAS  C:\Users\ryanc.HS\AppData\Local\Temp\ccqk5gur.s 			page 28

