ARM GAS  C:\Users\ryanc.HS\AppData\Local\Temp\ccysXWgI.s 			page 1


   1              		.cpu cortex-m3
   2              		.eabi_attribute 20, 1
   3              		.eabi_attribute 21, 1
   4              		.eabi_attribute 23, 3
   5              		.eabi_attribute 24, 1
   6              		.eabi_attribute 25, 1
   7              		.eabi_attribute 26, 1
   8              		.eabi_attribute 30, 1
   9              		.eabi_attribute 34, 1
  10              		.eabi_attribute 18, 4
  11              		.file	"SysTimer.c"
  12              		.text
  13              	.Ltext0:
  14              		.cfi_sections	.debug_frame
  15              		.section	.text.MCUTimerDelayXms,"ax",%progbits
  16              		.align	1
  17              		.global	MCUTimerDelayXms
  18              		.arch armv7-m
  19              		.syntax unified
  20              		.thumb
  21              		.thumb_func
  22              		.fpu softvfp
  24              	MCUTimerDelayXms:
  25              	.LVL0:
  26              	.LFB68:
  27              		.file 1 "VS4210/SysTimer.c"
   1:VS4210/SysTimer.c **** /*****************************************************************************/
   2:VS4210/SysTimer.c **** /*                                                                           										*/
   3:VS4210/SysTimer.c **** /*  TELI ML070I   MCU                    													*/
   4:VS4210/SysTimer.c **** /*                                                                           										*/
   5:VS4210/SysTimer.c **** /*  SysTimer.c                                          											*/
   6:VS4210/SysTimer.c **** /*                                                                           										*/
   7:VS4210/SysTimer.c **** /*****************************************************************************/
   8:VS4210/SysTimer.c **** 
   9:VS4210/SysTimer.c **** #include "VXIS_Extern_Define.h"
  10:VS4210/SysTimer.c **** 
  11:VS4210/SysTimer.c **** #include "tpinc/Device_Rx.h"
  12:VS4210/SysTimer.c **** #include "tpinc/TP2802.h"
  13:VS4210/SysTimer.c **** #include "stdlib.h"
  14:VS4210/SysTimer.c **** #include "VX_swi2c.h"
  15:VS4210/SysTimer.c **** #include "VS4210.h"
  16:VS4210/SysTimer.c **** #include "VX_OSD_Simple.h"
  17:VS4210/SysTimer.c **** 
  18:VS4210/SysTimer.c **** //#include "config.h"
  19:VS4210/SysTimer.c **** 
  20:VS4210/SysTimer.c **** //#ifdef SERIAL
  21:VS4210/SysTimer.c **** 
  22:VS4210/SysTimer.c **** //#include "typedefs.h"
  23:VS4210/SysTimer.c **** #include "main.h"
  24:VS4210/SysTimer.c **** //#include "i2c.h"
  25:VS4210/SysTimer.c **** //#include "reg.h"
  26:VS4210/SysTimer.c **** #include "printf.h"
  27:VS4210/SysTimer.c **** //#include "etc_eep.h"
  28:VS4210/SysTimer.c **** #include "monitor.h"
  29:VS4210/SysTimer.c **** //#include "cpu.h"
  30:VS4210/SysTimer.c **** //#include "Adc.h"
  31:VS4210/SysTimer.c **** 
ARM GAS  C:\Users\ryanc.HS\AppData\Local\Temp\ccysXWgI.s 			page 2


  32:VS4210/SysTimer.c **** #include <math.h>
  33:VS4210/SysTimer.c **** #include <stdio.h>
  34:VS4210/SysTimer.c **** #include "keyremo.h"
  35:VS4210/SysTimer.c **** #include "GT911.h"
  36:VS4210/SysTimer.c **** 
  37:VS4210/SysTimer.c **** /*
  38:VS4210/SysTimer.c **** #include "Config.h"
  39:VS4210/SysTimer.c **** 
  40:VS4210/SysTimer.c **** #include "reg.h"
  41:VS4210/SysTimer.c **** #include "typedefs.h"
  42:VS4210/SysTimer.c **** #include "main.h"
  43:VS4210/SysTimer.c **** //#include "tw88.h"
  44:VS4210/SysTimer.c **** #include "i2c.h"
  45:VS4210/SysTimer.c **** #include "adc.h"
  46:VS4210/SysTimer.c **** //#include "osdbasic.h"
  47:VS4210/SysTimer.c **** //#include "dispinfo.h"
  48:VS4210/SysTimer.c **** //#include "debug.h"
  49:VS4210/SysTimer.c **** #include "etc_eep.h"
  50:VS4210/SysTimer.c **** //#include "measure.h"
  51:VS4210/SysTimer.c **** #include "Printf.h"
  52:VS4210/SysTimer.c **** //#include "audio.h"
  53:VS4210/SysTimer.c **** //#include "osdmenu.h"
  54:VS4210/SysTimer.c **** //#include "pc_eep.h"
  55:VS4210/SysTimer.c **** #include "KeyRemo.h"
  56:VS4210/SysTimer.c **** #include "Monitor.h"
  57:VS4210/SysTimer.c **** #include "CPU.h"
  58:VS4210/SysTimer.c **** //#include "HS_keyremo.h"
  59:VS4210/SysTimer.c **** //#include "HS_DisplayOSD.h"
  60:VS4210/SysTimer.c **** //#include "rgbmix.h"
  61:VS4210/SysTimer.c **** //#include "panel.h"
  62:VS4210/SysTimer.c **** //#include "HS_IOdef.h"
  63:VS4210/SysTimer.c **** #include "HS_DVRProtocol.h"
  64:VS4210/SysTimer.c **** */
  65:VS4210/SysTimer.c **** 
  66:VS4210/SysTimer.c **** //****************************************************************************
  67:VS4210/SysTimer.c **** // DEFINITIONS / MACROS
  68:VS4210/SysTimer.c **** //****************************************************************************
  69:VS4210/SysTimer.c **** #define GET_EVENT_VALID(x) (g_stTimerEvent[x].b1EventValid)
  70:VS4210/SysTimer.c **** #define SET_EVENT_VALID(x) (g_stTimerEvent[x].b1EventValid = _TRUE)
  71:VS4210/SysTimer.c **** #define CLR_EVENT_VALID(x) (g_stTimerEvent[x].b1EventValid = _FALSE)
  72:VS4210/SysTimer.c **** 
  73:VS4210/SysTimer.c **** #define GET_EVENT_ID(x) (g_stTimerEvent[x].b7EventID)
  74:VS4210/SysTimer.c **** #define SET_EVENT_ID(x, y) (g_stTimerEvent[x].b7EventID = y)
  75:VS4210/SysTimer.c **** 
  76:VS4210/SysTimer.c **** #define GET_EVENT_TIME(x) (g_stTimerEvent[x].usTime)
  77:VS4210/SysTimer.c **** #define SET_EVENT_TIME(x, y) (g_stTimerEvent[x].usTime = y)
  78:VS4210/SysTimer.c **** 
  79:VS4210/SysTimer.c **** //****************************************************************************
  80:VS4210/SysTimer.c **** // VARIABLE DECLARATIONS
  81:VS4210/SysTimer.c **** //****************************************************************************
  82:VS4210/SysTimer.c **** volatile bit g_bNotifyTimer0Int = _FALSE;
  83:VS4210/SysTimer.c **** BYTE tic02 = 0;
  84:VS4210/SysTimer.c **** WORD tic03 = 0, tic04 = 0;
  85:VS4210/SysTimer.c **** WORD standby_count = 0;
  86:VS4210/SysTimer.c **** volatile WORD g_usTimerCounter = 0;
  87:VS4210/SysTimer.c **** StructTimerEventTableType g_stTimerEvent[_TIMER_EVENT_COUNT];
  88:VS4210/SysTimer.c **** WORD BatteryBTH, BatteryVoltage;
ARM GAS  C:\Users\ryanc.HS\AppData\Local\Temp\ccysXWgI.s 			page 3


  89:VS4210/SysTimer.c **** BYTE PSW_Flag = 0;
  90:VS4210/SysTimer.c **** BYTE WDT_Echo_Count = 0;
  91:VS4210/SysTimer.c **** BYTE CameraVolt;
  92:VS4210/SysTimer.c **** BYTE year1 = 0, year2 = 0, month = 0, day = 0, hour = 0, minute = 0, second = 0;
  93:VS4210/SysTimer.c **** BYTE BOX_ISSUE;
  94:VS4210/SysTimer.c **** extern BYTE Monitor_flag;
  95:VS4210/SysTimer.c **** extern tByte DayNightLevel;
  96:VS4210/SysTimer.c **** extern void EQ_Detect();
  97:VS4210/SysTimer.c **** extern tWord LightSensor_ADC;
  98:VS4210/SysTimer.c **** extern ADC_HandleTypeDef hadc1;
  99:VS4210/SysTimer.c **** extern volatile BYTE Encoder_flag;
 100:VS4210/SysTimer.c **** extern tByte DisplayedOSD;
 101:VS4210/SysTimer.c **** extern BYTE bytAutoSleeping;
 102:VS4210/SysTimer.c **** extern tByte bytVideoInput;
 103:VS4210/SysTimer.c **** extern BYTE bytStandByMode;
 104:VS4210/SysTimer.c **** extern BYTE bytStandByModeToTriggerMode;
 105:VS4210/SysTimer.c **** 
 106:VS4210/SysTimer.c **** extern WORD GetItemValue(BYTE id);
 107:VS4210/SysTimer.c **** extern BYTE TimeStep;
 108:VS4210/SysTimer.c **** extern BYTE TriggerFlag;
 109:VS4210/SysTimer.c **** extern BYTE PowerFlag;
 110:VS4210/SysTimer.c **** extern BYTE SEQFlag;
 111:VS4210/SysTimer.c **** extern BYTE PWMLevel;
 112:VS4210/SysTimer.c **** extern BYTE TriggerStatus;
 113:VS4210/SysTimer.c **** extern volatile BYTE MainSetSelectMode[13];
 114:VS4210/SysTimer.c **** extern BYTE SelectModeType;
 115:VS4210/SysTimer.c **** extern BYTE NowModeState;
 116:VS4210/SysTimer.c **** extern tByte gaHDMI_MapWindowIndex[4];
 117:VS4210/SysTimer.c **** extern BYTE BOOT_ISSUE;
 118:VS4210/SysTimer.c **** extern BYTE CURRENT_CH;
 119:VS4210/SysTimer.c **** extern BYTE TP_ACTION;
 120:VS4210/SysTimer.c **** extern BYTE slider_event;
 121:VS4210/SysTimer.c **** extern BYTE Flisheye_CAM[4];
 122:VS4210/SysTimer.c **** extern WORD BAT_VOLTAGE, BAT_ADC, BAT_StartupVOLT;
 123:VS4210/SysTimer.c **** extern BYTE bytSelectCAMRD;
 124:VS4210/SysTimer.c **** extern BYTE bytGarbberLinerMode;
 125:VS4210/SysTimer.c **** 
 126:VS4210/SysTimer.c **** extern BYTE bytResetOSDValue;
 127:VS4210/SysTimer.c **** extern BYTE RUN_DIMMER;
 128:VS4210/SysTimer.c **** 
 129:VS4210/SysTimer.c **** // extern StructBatteryInfoType g_stBatteryInfo;
 130:VS4210/SysTimer.c **** /*
 131:VS4210/SysTimer.c **** extern BYTE EncorderCountPN;
 132:VS4210/SysTimer.c **** extern BYTE EncorderLenint;
 133:VS4210/SysTimer.c **** extern short EncorderCount;
 134:VS4210/SysTimer.c **** extern WORD EncorderLenfloaat;
 135:VS4210/SysTimer.c **** */
 136:VS4210/SysTimer.c **** // StructPowerInfoType idata g_stPowerInfo;
 137:VS4210/SysTimer.c **** StructPowerInfoType g_stPowerInfo;
 138:VS4210/SysTimer.c **** //--------------------------------------------------
 139:VS4210/SysTimer.c **** // Definitions of Timer2
 140:VS4210/SysTimer.c **** //--------------------------------------------------
 141:VS4210/SysTimer.c **** #define _EVENT_TIME_MAX 61000 // Please do not modify this value.
 142:VS4210/SysTimer.c **** 
 143:VS4210/SysTimer.c **** //****************************************************************************
 144:VS4210/SysTimer.c **** // CODE TABLES
 145:VS4210/SysTimer.c **** //****************************************************************************
ARM GAS  C:\Users\ryanc.HS\AppData\Local\Temp\ccysXWgI.s 			page 4


 146:VS4210/SysTimer.c **** 
 147:VS4210/SysTimer.c **** //****************************************************************************
 148:VS4210/SysTimer.c **** // FUNCTION DECLARATIONS
 149:VS4210/SysTimer.c **** //****************************************************************************
 150:VS4210/SysTimer.c **** void SysTimerHandler(void);
 151:VS4210/SysTimer.c **** void SysTimerEventProc(EnumSystemTimerEventID enumEventID);
 152:VS4210/SysTimer.c **** void SysTimerIntProc0(void);
 153:VS4210/SysTimer.c **** void SysTimerIntProc1(void);
 154:VS4210/SysTimer.c **** void SysTimerIntProc2(void);
 155:VS4210/SysTimer.c **** void MCUTimerInitialTimerEvent(void);
 156:VS4210/SysTimer.c **** void MCUTimerActiveTimerEvent(WORD usTime, BYTE ucEventID);
 157:VS4210/SysTimer.c **** void MCUTimerCancelTimerEvent(BYTE ucEventID);
 158:VS4210/SysTimer.c **** void MCUTimerDelayXms(WORD usNum);
 159:VS4210/SysTimer.c **** void PowerLED(EnumSystemTimerEventID flag);
 160:VS4210/SysTimer.c **** 
 161:VS4210/SysTimer.c **** extern void ShowWorkingTimer(void);
 162:VS4210/SysTimer.c **** extern void GraphicsPrint(PRINT_COLOR_e mode, const char *Message, ...);
 163:VS4210/SysTimer.c **** extern void AdjustAutoDayNight(BYTE val);
 164:VS4210/SysTimer.c **** extern BYTE CheckKeyIn(void);
 165:VS4210/SysTimer.c **** extern BYTE GET_PCA9554PW(BYTE reg);
 166:VS4210/SysTimer.c **** extern void AudioMute(bit mute);
 167:VS4210/SysTimer.c **** extern void SET_VX8812_SD_Video_Out(tByte tbMode);
 168:VS4210/SysTimer.c **** extern void BackLightON(void);
 169:VS4210/SysTimer.c **** extern void TVI_BOX_Set(void);
 170:VS4210/SysTimer.c **** 
 171:VS4210/SysTimer.c **** /*
 172:VS4210/SysTimer.c **** extern WORD GetBatteryBTH(void);
 173:VS4210/SysTimer.c **** extern WORD GetBatteryVoltage(void);
 174:VS4210/SysTimer.c **** extern void SetAD5110Step(BYTE newv) ;
 175:VS4210/SysTimer.c **** extern void UserInterfacePowerSwitch(EnumPowerAction enumSwitch);
 176:VS4210/SysTimer.c **** */
 177:VS4210/SysTimer.c **** 
 178:VS4210/SysTimer.c **** //****************************************************************************
 179:VS4210/SysTimer.c **** // FUNCTION DEFINITIONS
 180:VS4210/SysTimer.c **** //****************************************************************************
 181:VS4210/SysTimer.c **** //--------------------------------------------------
 182:VS4210/SysTimer.c **** // Description  : Timer Delay
 183:VS4210/SysTimer.c **** // Input Value  : usNum --> Delay in ms
 184:VS4210/SysTimer.c **** // Output Value : None
 185:VS4210/SysTimer.c **** //--------------------------------------------------
 186:VS4210/SysTimer.c **** void MCUTimerDelayXms(WORD usNum)
 187:VS4210/SysTimer.c **** {
  28              		.loc 1 187 1 view -0
  29              		.cfi_startproc
  30              		@ args = 0, pretend = 0, frame = 0
  31              		@ frame_needed = 0, uses_anonymous_args = 0
  32              		@ link register save eliminated.
 188:VS4210/SysTimer.c **** 	if (usNum)
  33              		.loc 1 188 2 view .LVU1
  34              		.loc 1 188 5 is_stmt 0 view .LVU2
  35 0000 0246     		mov	r2, r0
  36 0002 00B9     		cbnz	r0, .L5
  37              	.LVL1:
  38              	.L1:
 189:VS4210/SysTimer.c **** 	{
 190:VS4210/SysTimer.c **** 		g_bNotifyTimer0Int = _FALSE;
 191:VS4210/SysTimer.c **** 
ARM GAS  C:\Users\ryanc.HS\AppData\Local\Temp\ccysXWgI.s 			page 5


 192:VS4210/SysTimer.c **** 		while (_TRUE)
 193:VS4210/SysTimer.c **** 		{
 194:VS4210/SysTimer.c **** 			if (g_bNotifyTimer0Int)
 195:VS4210/SysTimer.c **** 			{
 196:VS4210/SysTimer.c **** 				g_bNotifyTimer0Int = _FALSE;
 197:VS4210/SysTimer.c **** 
 198:VS4210/SysTimer.c **** 				if (--usNum)
 199:VS4210/SysTimer.c **** 				{
 200:VS4210/SysTimer.c **** 				}
 201:VS4210/SysTimer.c **** 				else
 202:VS4210/SysTimer.c **** 				{
 203:VS4210/SysTimer.c **** 					return;
 204:VS4210/SysTimer.c **** 				}
 205:VS4210/SysTimer.c **** 			}
 206:VS4210/SysTimer.c **** 		}
 207:VS4210/SysTimer.c **** 	}
 208:VS4210/SysTimer.c **** }
  39              		.loc 1 208 1 view .LVU3
  40 0004 7047     		bx	lr
  41              	.LVL2:
  42              	.L5:
 190:VS4210/SysTimer.c **** 
  43              		.loc 1 190 3 is_stmt 1 view .LVU4
 190:VS4210/SysTimer.c **** 
  44              		.loc 1 190 22 is_stmt 0 view .LVU5
  45 0006 064B     		ldr	r3, .L6
  46 0008 0021     		movs	r1, #0
  47 000a 1960     		str	r1, [r3]
  48              	.LVL3:
  49              	.L3:
 192:VS4210/SysTimer.c **** 		{
  50              		.loc 1 192 3 is_stmt 1 view .LVU6
 194:VS4210/SysTimer.c **** 			{
  51              		.loc 1 194 4 view .LVU7
 194:VS4210/SysTimer.c **** 			{
  52              		.loc 1 194 8 is_stmt 0 view .LVU8
  53 000c 044B     		ldr	r3, .L6
  54 000e 1B68     		ldr	r3, [r3]
 194:VS4210/SysTimer.c **** 			{
  55              		.loc 1 194 7 view .LVU9
  56 0010 002B     		cmp	r3, #0
  57 0012 FBD0     		beq	.L3
 196:VS4210/SysTimer.c **** 
  58              		.loc 1 196 5 is_stmt 1 view .LVU10
 196:VS4210/SysTimer.c **** 
  59              		.loc 1 196 24 is_stmt 0 view .LVU11
  60 0014 024B     		ldr	r3, .L6
  61 0016 0021     		movs	r1, #0
  62 0018 1960     		str	r1, [r3]
 198:VS4210/SysTimer.c **** 				{
  63              		.loc 1 198 5 is_stmt 1 view .LVU12
  64              	.LVL4:
 198:VS4210/SysTimer.c **** 				{
  65              		.loc 1 198 8 is_stmt 0 view .LVU13
  66 001a 013A     		subs	r2, r2, #1
  67              	.LVL5:
 198:VS4210/SysTimer.c **** 				{
ARM GAS  C:\Users\ryanc.HS\AppData\Local\Temp\ccysXWgI.s 			page 6


  68              		.loc 1 198 8 view .LVU14
  69 001c F6D1     		bne	.L3
  70 001e F1E7     		b	.L1
  71              	.L7:
  72              		.align	2
  73              	.L6:
  74 0020 00000000 		.word	.LANCHOR0
  75              		.cfi_endproc
  76              	.LFE68:
  78              		.section	.text.MCUTimerGetEventTime,"ax",%progbits
  79              		.align	1
  80              		.global	MCUTimerGetEventTime
  81              		.syntax unified
  82              		.thumb
  83              		.thumb_func
  84              		.fpu softvfp
  86              	MCUTimerGetEventTime:
  87              	.LVL6:
  88              	.LFB69:
 209:VS4210/SysTimer.c **** 
 210:VS4210/SysTimer.c **** //--------------------------------------------------
 211:VS4210/SysTimer.c **** // Description  : Get Event Time
 212:VS4210/SysTimer.c **** // Input Value  : ucEventIndex --> Event which time is needed
 213:VS4210/SysTimer.c **** // Output Value : Event Time
 214:VS4210/SysTimer.c **** //--------------------------------------------------
 215:VS4210/SysTimer.c **** WORD MCUTimerGetEventTime(BYTE ucEventIndex)
 216:VS4210/SysTimer.c **** {
  89              		.loc 1 216 1 is_stmt 1 view -0
  90              		.cfi_startproc
  91              		@ args = 0, pretend = 0, frame = 0
  92              		@ frame_needed = 0, uses_anonymous_args = 0
  93              		@ link register save eliminated.
 217:VS4210/SysTimer.c **** 	return GET_EVENT_TIME(ucEventIndex);
  94              		.loc 1 217 2 view .LVU16
  95              		.loc 1 217 9 is_stmt 0 view .LVU17
  96 0000 024B     		ldr	r3, .L9
  97 0002 03EBC003 		add	r3, r3, r0, lsl #3
 218:VS4210/SysTimer.c **** }
  98              		.loc 1 218 1 view .LVU18
  99 0006 5868     		ldr	r0, [r3, #4]
 100              	.LVL7:
 101              		.loc 1 218 1 view .LVU19
 102 0008 7047     		bx	lr
 103              	.L10:
 104 000a 00BF     		.align	2
 105              	.L9:
 106 000c 00000000 		.word	g_stTimerEvent
 107              		.cfi_endproc
 108              	.LFE69:
 110              		.section	.text.MCUTimerGetEventID,"ax",%progbits
 111              		.align	1
 112              		.global	MCUTimerGetEventID
 113              		.syntax unified
 114              		.thumb
 115              		.thumb_func
 116              		.fpu softvfp
 118              	MCUTimerGetEventID:
ARM GAS  C:\Users\ryanc.HS\AppData\Local\Temp\ccysXWgI.s 			page 7


 119              	.LVL8:
 120              	.LFB70:
 219:VS4210/SysTimer.c **** 
 220:VS4210/SysTimer.c **** //--------------------------------------------------
 221:VS4210/SysTimer.c **** // Description  : Get Event ID
 222:VS4210/SysTimer.c **** // Input Value  : Referenced Event Index
 223:VS4210/SysTimer.c **** // Output Value : Stored Event ID
 224:VS4210/SysTimer.c **** //--------------------------------------------------
 225:VS4210/SysTimer.c **** BYTE MCUTimerGetEventID(BYTE ucEventIndex)
 226:VS4210/SysTimer.c **** {
 121              		.loc 1 226 1 is_stmt 1 view -0
 122              		.cfi_startproc
 123              		@ args = 0, pretend = 0, frame = 0
 124              		@ frame_needed = 0, uses_anonymous_args = 0
 125              		@ link register save eliminated.
 227:VS4210/SysTimer.c **** 	return GET_EVENT_ID(ucEventIndex);
 126              		.loc 1 227 2 view .LVU21
 127              		.loc 1 227 9 is_stmt 0 view .LVU22
 128 0000 024B     		ldr	r3, .L12
 129 0002 13F83000 		ldrb	r0, [r3, r0, lsl #3]	@ zero_extendqisi2
 130              	.LVL9:
 228:VS4210/SysTimer.c **** }
 131              		.loc 1 228 1 view .LVU23
 132 0006 4008     		lsrs	r0, r0, #1
 133 0008 7047     		bx	lr
 134              	.L13:
 135 000a 00BF     		.align	2
 136              	.L12:
 137 000c 00000000 		.word	g_stTimerEvent
 138              		.cfi_endproc
 139              	.LFE70:
 141              		.section	.text.MCUTimerClrEventValid,"ax",%progbits
 142              		.align	1
 143              		.global	MCUTimerClrEventValid
 144              		.syntax unified
 145              		.thumb
 146              		.thumb_func
 147              		.fpu softvfp
 149              	MCUTimerClrEventValid:
 150              	.LVL10:
 151              	.LFB71:
 229:VS4210/SysTimer.c **** 
 230:VS4210/SysTimer.c **** //--------------------------------------------------
 231:VS4210/SysTimer.c **** // Description  : Clear Event Time
 232:VS4210/SysTimer.c **** // Input Value  : ucEventIndex --> Event which time is needed to be cleared
 233:VS4210/SysTimer.c **** // Output Value : None
 234:VS4210/SysTimer.c **** //--------------------------------------------------
 235:VS4210/SysTimer.c **** 
 236:VS4210/SysTimer.c **** void MCUTimerClrEventValid(BYTE ucEventIndex)
 237:VS4210/SysTimer.c **** {
 152              		.loc 1 237 1 is_stmt 1 view -0
 153              		.cfi_startproc
 154              		@ args = 0, pretend = 0, frame = 0
 155              		@ frame_needed = 0, uses_anonymous_args = 0
 156              		@ link register save eliminated.
 238:VS4210/SysTimer.c **** 	CLR_EVENT_VALID(ucEventIndex);
 157              		.loc 1 238 2 view .LVU25
ARM GAS  C:\Users\ryanc.HS\AppData\Local\Temp\ccysXWgI.s 			page 8


 158 0000 034B     		ldr	r3, .L15
 159 0002 13F83020 		ldrb	r2, [r3, r0, lsl #3]	@ zero_extendqisi2
 160 0006 6FF30002 		bfc	r2, #0, #1
 161 000a 03F83020 		strb	r2, [r3, r0, lsl #3]
 239:VS4210/SysTimer.c **** }
 162              		.loc 1 239 1 is_stmt 0 view .LVU26
 163 000e 7047     		bx	lr
 164              	.L16:
 165              		.align	2
 166              	.L15:
 167 0010 00000000 		.word	g_stTimerEvent
 168              		.cfi_endproc
 169              	.LFE71:
 171              		.section	.text.MCUTimerCheckEventValid,"ax",%progbits
 172              		.align	1
 173              		.global	MCUTimerCheckEventValid
 174              		.syntax unified
 175              		.thumb
 176              		.thumb_func
 177              		.fpu softvfp
 179              	MCUTimerCheckEventValid:
 180              	.LVL11:
 181              	.LFB72:
 240:VS4210/SysTimer.c **** 
 241:VS4210/SysTimer.c **** //--------------------------------------------------
 242:VS4210/SysTimer.c **** // Description  : Check if Event is Valid
 243:VS4210/SysTimer.c **** // Input Value  : ucEventIndex --> Event to be checked
 244:VS4210/SysTimer.c **** // Output Value : Validity(_TRUE/_FALSE)
 245:VS4210/SysTimer.c **** //--------------------------------------------------
 246:VS4210/SysTimer.c **** bit MCUTimerCheckEventValid(BYTE ucEventIndex)
 247:VS4210/SysTimer.c **** {
 182              		.loc 1 247 1 is_stmt 1 view -0
 183              		.cfi_startproc
 184              		@ args = 0, pretend = 0, frame = 0
 185              		@ frame_needed = 0, uses_anonymous_args = 0
 186              		@ link register save eliminated.
 248:VS4210/SysTimer.c **** 	return GET_EVENT_VALID(ucEventIndex);
 187              		.loc 1 248 2 view .LVU28
 249:VS4210/SysTimer.c **** 	;
 188              		.loc 1 249 2 view .LVU29
 248:VS4210/SysTimer.c **** 	return GET_EVENT_VALID(ucEventIndex);
 189              		.loc 1 248 9 is_stmt 0 view .LVU30
 190 0000 024B     		ldr	r3, .L18
 191 0002 13F83000 		ldrb	r0, [r3, r0, lsl #3]	@ zero_extendqisi2
 192              	.LVL12:
 250:VS4210/SysTimer.c **** }
 193              		.loc 1 250 1 view .LVU31
 194 0006 00F00100 		and	r0, r0, #1
 195 000a 7047     		bx	lr
 196              	.L19:
 197              		.align	2
 198              	.L18:
 199 000c 00000000 		.word	g_stTimerEvent
 200              		.cfi_endproc
 201              	.LFE72:
 203              		.section	.text.MCUTimerGetTimerCounter,"ax",%progbits
 204              		.align	1
ARM GAS  C:\Users\ryanc.HS\AppData\Local\Temp\ccysXWgI.s 			page 9


 205              		.global	MCUTimerGetTimerCounter
 206              		.syntax unified
 207              		.thumb
 208              		.thumb_func
 209              		.fpu softvfp
 211              	MCUTimerGetTimerCounter:
 212              	.LFB73:
 251:VS4210/SysTimer.c **** 
 252:VS4210/SysTimer.c **** //--------------------------------------------------
 253:VS4210/SysTimer.c **** // Description  : Get Timer Counter.
 254:VS4210/SysTimer.c **** // Input Value  : None
 255:VS4210/SysTimer.c **** // Output Value : Timer Counter
 256:VS4210/SysTimer.c **** //--------------------------------------------------
 257:VS4210/SysTimer.c **** WORD MCUTimerGetTimerCounter(void)
 258:VS4210/SysTimer.c **** {
 213              		.loc 1 258 1 is_stmt 1 view -0
 214              		.cfi_startproc
 215              		@ args = 0, pretend = 0, frame = 0
 216              		@ frame_needed = 0, uses_anonymous_args = 0
 217              		@ link register save eliminated.
 259:VS4210/SysTimer.c **** 	WORD usPresentTime = g_usTimerCounter;
 218              		.loc 1 259 2 view .LVU33
 219              		.loc 1 259 7 is_stmt 0 view .LVU34
 220 0000 054B     		ldr	r3, .L22
 221 0002 1868     		ldr	r0, [r3]
 222              	.LVL13:
 260:VS4210/SysTimer.c **** 
 261:VS4210/SysTimer.c **** 	// When get counter,timer interrupt maybe change counter.
 262:VS4210/SysTimer.c **** 	// Get twice to avoid it.
 263:VS4210/SysTimer.c **** 	if (abs(g_usTimerCounter - usPresentTime) > 0x7F)
 223              		.loc 1 263 2 is_stmt 1 view .LVU35
 224              		.loc 1 263 27 is_stmt 0 view .LVU36
 225 0004 1B68     		ldr	r3, [r3]
 226 0006 1B1A     		subs	r3, r3, r0
 227              		.loc 1 263 6 view .LVU37
 228 0008 002B     		cmp	r3, #0
 229 000a B8BF     		it	lt
 230 000c 5B42     		rsblt	r3, r3, #0
 231              		.loc 1 263 5 view .LVU38
 232 000e 7F2B     		cmp	r3, #127
 233 0010 01DD     		ble	.L20
 264:VS4210/SysTimer.c **** 	{
 265:VS4210/SysTimer.c **** 		usPresentTime = g_usTimerCounter;
 234              		.loc 1 265 3 is_stmt 1 view .LVU39
 235              		.loc 1 265 17 is_stmt 0 view .LVU40
 236 0012 014B     		ldr	r3, .L22
 237 0014 1868     		ldr	r0, [r3]
 238              	.LVL14:
 266:VS4210/SysTimer.c **** 	}
 267:VS4210/SysTimer.c **** 
 268:VS4210/SysTimer.c **** 	return usPresentTime;
 239              		.loc 1 268 2 is_stmt 1 view .LVU41
 240              	.L20:
 269:VS4210/SysTimer.c **** }
 241              		.loc 1 269 1 is_stmt 0 view .LVU42
 242 0016 7047     		bx	lr
 243              	.L23:
ARM GAS  C:\Users\ryanc.HS\AppData\Local\Temp\ccysXWgI.s 			page 10


 244              		.align	2
 245              	.L22:
 246 0018 00000000 		.word	.LANCHOR1
 247              		.cfi_endproc
 248              	.LFE73:
 250              		.section	.text.MCUTimerCheckTimerEvent,"ax",%progbits
 251              		.align	1
 252              		.global	MCUTimerCheckTimerEvent
 253              		.syntax unified
 254              		.thumb
 255              		.thumb_func
 256              		.fpu softvfp
 258              	MCUTimerCheckTimerEvent:
 259              	.LVL15:
 260              	.LFB74:
 270:VS4210/SysTimer.c **** //--------------------------------------------------
 271:VS4210/SysTimer.c **** // Description  : Check timer and events. We have to run this function when setting up a timer for 
 272:VS4210/SysTimer.c **** // Input Value  : usTime    --> Unit in 1ms, range in 0.001 ~ 61sec
 273:VS4210/SysTimer.c **** // Output Value : Return usPresentTime
 274:VS4210/SysTimer.c **** //--------------------------------------------------
 275:VS4210/SysTimer.c **** WORD MCUTimerCheckTimerEvent(WORD usTime)
 276:VS4210/SysTimer.c **** {
 261              		.loc 1 276 1 is_stmt 1 view -0
 262              		.cfi_startproc
 263              		@ args = 0, pretend = 0, frame = 0
 264              		@ frame_needed = 0, uses_anonymous_args = 0
 265              		.loc 1 276 1 is_stmt 0 view .LVU44
 266 0000 10B5     		push	{r4, lr}
 267              	.LCFI0:
 268              		.cfi_def_cfa_offset 8
 269              		.cfi_offset 4, -8
 270              		.cfi_offset 14, -4
 271 0002 0446     		mov	r4, r0
 277:VS4210/SysTimer.c **** 	BYTE ucTimerEventCnt = 0;
 272              		.loc 1 277 2 is_stmt 1 view .LVU45
 273              	.LVL16:
 278:VS4210/SysTimer.c **** 	WORD usPresentTime = 0;
 274              		.loc 1 278 2 view .LVU46
 279:VS4210/SysTimer.c **** 
 280:VS4210/SysTimer.c **** 	usPresentTime = MCUTimerGetTimerCounter();
 275              		.loc 1 280 2 view .LVU47
 276              		.loc 1 280 18 is_stmt 0 view .LVU48
 277 0004 FFF7FEFF 		bl	MCUTimerGetTimerCounter
 278              	.LVL17:
 281:VS4210/SysTimer.c **** 
 282:VS4210/SysTimer.c **** 	if (usTime > _EVENT_TIME_MAX)
 279              		.loc 1 282 2 is_stmt 1 view .LVU49
 280              		.loc 1 282 5 is_stmt 0 view .LVU50
 281 0008 4EF64863 		movw	r3, #61000
 282 000c 9C42     		cmp	r4, r3
 283 000e 00D9     		bls	.L25
 283:VS4210/SysTimer.c **** 	{
 284:VS4210/SysTimer.c **** 		usTime = _EVENT_TIME_MAX;
 284              		.loc 1 284 10 view .LVU51
 285 0010 1C46     		mov	r4, r3
 286              	.LVL18:
 287              	.L25:
ARM GAS  C:\Users\ryanc.HS\AppData\Local\Temp\ccysXWgI.s 			page 11


 285:VS4210/SysTimer.c **** 	}
 286:VS4210/SysTimer.c **** 
 287:VS4210/SysTimer.c **** 	if (((usPresentTime + usTime) > _EVENT_TIME_MAX) || // Size Limit of Timer Counter
 288              		.loc 1 287 2 is_stmt 1 view .LVU52
 289              		.loc 1 287 22 is_stmt 0 view .LVU53
 290 0012 0444     		add	r4, r4, r0
 291              	.LVL19:
 292              		.loc 1 287 5 view .LVU54
 293 0014 4EF64863 		movw	r3, #61000
 294 0018 9C42     		cmp	r4, r3
 295 001a 01D8     		bhi	.L26
 296              		.loc 1 287 51 discriminator 1 view .LVU55
 297 001c 8442     		cmp	r4, r0
 298 001e 1FD2     		bcs	.L24
 299              	.L26:
 288:VS4210/SysTimer.c **** 		((usPresentTime + usTime) < usPresentTime))		// Timer Counter Overflow
 289:VS4210/SysTimer.c **** 	{
 290:VS4210/SysTimer.c **** 		g_usTimerCounter = 0;
 300              		.loc 1 290 3 is_stmt 1 view .LVU56
 301              		.loc 1 290 20 is_stmt 0 view .LVU57
 302 0020 0023     		movs	r3, #0
 303 0022 104A     		ldr	r2, .L35
 304 0024 1360     		str	r3, [r2]
 291:VS4210/SysTimer.c **** 
 292:VS4210/SysTimer.c **** 		// Reset Timer Event Counter
 293:VS4210/SysTimer.c **** 		for (ucTimerEventCnt = 0; ucTimerEventCnt < _TIMER_EVENT_COUNT; ucTimerEventCnt++)
 305              		.loc 1 293 3 is_stmt 1 view .LVU58
 306              		.loc 1 293 3 is_stmt 0 view .LVU59
 307 0026 06E0     		b	.L28
 308              	.LVL20:
 309              	.L30:
 294:VS4210/SysTimer.c **** 		{
 295:VS4210/SysTimer.c **** 			if (GET_EVENT_VALID(ucTimerEventCnt) == _TRUE)
 296:VS4210/SysTimer.c **** 			{
 297:VS4210/SysTimer.c **** 				if (GET_EVENT_TIME(ucTimerEventCnt) > usPresentTime)
 298:VS4210/SysTimer.c **** 				{
 299:VS4210/SysTimer.c **** 					SET_EVENT_TIME(ucTimerEventCnt, (GET_EVENT_TIME(ucTimerEventCnt) - usPresentTime));
 300:VS4210/SysTimer.c **** 				}
 301:VS4210/SysTimer.c **** 				else
 302:VS4210/SysTimer.c **** 				{
 303:VS4210/SysTimer.c **** 					SET_EVENT_TIME(ucTimerEventCnt, 0);
 310              		.loc 1 303 6 is_stmt 1 view .LVU60
 311 0028 0F4A     		ldr	r2, .L35+4
 312 002a 02EBC301 		add	r1, r2, r3, lsl #3
 313 002e 0022     		movs	r2, #0
 314 0030 4A60     		str	r2, [r1, #4]
 315              	.L29:
 293:VS4210/SysTimer.c **** 		{
 316              		.loc 1 293 67 discriminator 2 view .LVU61
 293:VS4210/SysTimer.c **** 		{
 317              		.loc 1 293 82 is_stmt 0 discriminator 2 view .LVU62
 318 0032 0133     		adds	r3, r3, #1
 319              	.LVL21:
 293:VS4210/SysTimer.c **** 		{
 320              		.loc 1 293 82 discriminator 2 view .LVU63
 321 0034 DBB2     		uxtb	r3, r3
 322              	.LVL22:
ARM GAS  C:\Users\ryanc.HS\AppData\Local\Temp\ccysXWgI.s 			page 12


 323              	.L28:
 293:VS4210/SysTimer.c **** 		{
 324              		.loc 1 293 29 is_stmt 1 discriminator 1 view .LVU64
 293:VS4210/SysTimer.c **** 		{
 325              		.loc 1 293 3 is_stmt 0 discriminator 1 view .LVU65
 326 0036 092B     		cmp	r3, #9
 327 0038 11D8     		bhi	.L34
 295:VS4210/SysTimer.c **** 			{
 328              		.loc 1 295 4 is_stmt 1 view .LVU66
 295:VS4210/SysTimer.c **** 			{
 329              		.loc 1 295 8 is_stmt 0 view .LVU67
 330 003a 0B4A     		ldr	r2, .L35+4
 331 003c 12F83320 		ldrb	r2, [r2, r3, lsl #3]	@ zero_extendqisi2
 295:VS4210/SysTimer.c **** 			{
 332              		.loc 1 295 7 view .LVU68
 333 0040 12F0010F 		tst	r2, #1
 334 0044 F5D0     		beq	.L29
 297:VS4210/SysTimer.c **** 				{
 335              		.loc 1 297 5 is_stmt 1 view .LVU69
 297:VS4210/SysTimer.c **** 				{
 336              		.loc 1 297 9 is_stmt 0 view .LVU70
 337 0046 084A     		ldr	r2, .L35+4
 338 0048 02EBC302 		add	r2, r2, r3, lsl #3
 339 004c 5268     		ldr	r2, [r2, #4]
 297:VS4210/SysTimer.c **** 				{
 340              		.loc 1 297 8 view .LVU71
 341 004e 8242     		cmp	r2, r0
 342 0050 EAD9     		bls	.L30
 299:VS4210/SysTimer.c **** 				}
 343              		.loc 1 299 6 is_stmt 1 view .LVU72
 344 0052 121A     		subs	r2, r2, r0
 345 0054 044C     		ldr	r4, .L35+4
 346 0056 04EBC301 		add	r1, r4, r3, lsl #3
 347 005a 4A60     		str	r2, [r1, #4]
 348 005c E9E7     		b	.L29
 349              	.L34:
 304:VS4210/SysTimer.c **** 				}
 305:VS4210/SysTimer.c **** 			}
 306:VS4210/SysTimer.c **** 		}
 307:VS4210/SysTimer.c **** 
 308:VS4210/SysTimer.c **** 		usPresentTime = 0;
 350              		.loc 1 308 17 is_stmt 0 view .LVU73
 351 005e 0020     		movs	r0, #0
 352              	.LVL23:
 309:VS4210/SysTimer.c **** 	}
 310:VS4210/SysTimer.c **** 
 311:VS4210/SysTimer.c **** 	return usPresentTime;
 353              		.loc 1 311 2 is_stmt 1 view .LVU74
 354              	.L24:
 312:VS4210/SysTimer.c **** }
 355              		.loc 1 312 1 is_stmt 0 view .LVU75
 356 0060 10BD     		pop	{r4, pc}
 357              	.L36:
 358 0062 00BF     		.align	2
 359              	.L35:
 360 0064 00000000 		.word	.LANCHOR1
 361 0068 00000000 		.word	g_stTimerEvent
ARM GAS  C:\Users\ryanc.HS\AppData\Local\Temp\ccysXWgI.s 			page 13


 362              		.cfi_endproc
 363              	.LFE74:
 365              		.section	.text.MCUTimerInitialTimerEvent,"ax",%progbits
 366              		.align	1
 367              		.global	MCUTimerInitialTimerEvent
 368              		.syntax unified
 369              		.thumb
 370              		.thumb_func
 371              		.fpu softvfp
 373              	MCUTimerInitialTimerEvent:
 374              	.LFB75:
 313:VS4210/SysTimer.c **** 
 314:VS4210/SysTimer.c **** //--------------------------------------------------
 315:VS4210/SysTimer.c **** // Description  : Initial timer and events. We have to run this function at firmware startup
 316:VS4210/SysTimer.c **** // Input Value  : None
 317:VS4210/SysTimer.c **** // Output Value : None
 318:VS4210/SysTimer.c **** //--------------------------------------------------
 319:VS4210/SysTimer.c **** void MCUTimerInitialTimerEvent(void)
 320:VS4210/SysTimer.c **** {
 375              		.loc 1 320 1 is_stmt 1 view -0
 376              		.cfi_startproc
 377              		@ args = 0, pretend = 0, frame = 0
 378              		@ frame_needed = 0, uses_anonymous_args = 0
 379              		@ link register save eliminated.
 321:VS4210/SysTimer.c **** 	BYTE ucTimerEventCnt = 0;
 380              		.loc 1 321 2 view .LVU77
 381              	.LVL24:
 322:VS4210/SysTimer.c **** 
 323:VS4210/SysTimer.c **** 	for (ucTimerEventCnt = 0; ucTimerEventCnt < _TIMER_EVENT_COUNT; ucTimerEventCnt++)
 382              		.loc 1 323 2 view .LVU78
 383              		.loc 1 323 23 is_stmt 0 view .LVU79
 384 0000 0023     		movs	r3, #0
 385              	.LVL25:
 386              	.L38:
 387              		.loc 1 323 28 is_stmt 1 discriminator 1 view .LVU80
 388              		.loc 1 323 2 is_stmt 0 discriminator 1 view .LVU81
 389 0002 092B     		cmp	r3, #9
 390 0004 09D8     		bhi	.L40
 324:VS4210/SysTimer.c **** 	{
 325:VS4210/SysTimer.c **** 		CLR_EVENT_VALID(ucTimerEventCnt);
 391              		.loc 1 325 3 is_stmt 1 discriminator 3 view .LVU82
 392 0006 054A     		ldr	r2, .L41
 393 0008 12F83310 		ldrb	r1, [r2, r3, lsl #3]	@ zero_extendqisi2
 394 000c 6FF30001 		bfc	r1, #0, #1
 395 0010 02F83310 		strb	r1, [r2, r3, lsl #3]
 323:VS4210/SysTimer.c **** 	{
 396              		.loc 1 323 66 discriminator 3 view .LVU83
 323:VS4210/SysTimer.c **** 	{
 397              		.loc 1 323 81 is_stmt 0 discriminator 3 view .LVU84
 398 0014 0133     		adds	r3, r3, #1
 399              	.LVL26:
 323:VS4210/SysTimer.c **** 	{
 400              		.loc 1 323 81 discriminator 3 view .LVU85
 401 0016 DBB2     		uxtb	r3, r3
 402              	.LVL27:
 323:VS4210/SysTimer.c **** 	{
 403              		.loc 1 323 81 discriminator 3 view .LVU86
ARM GAS  C:\Users\ryanc.HS\AppData\Local\Temp\ccysXWgI.s 			page 14


 404 0018 F3E7     		b	.L38
 405              	.L40:
 326:VS4210/SysTimer.c **** 	}
 327:VS4210/SysTimer.c **** 
 328:VS4210/SysTimer.c **** 	// TR2 = 1;
 329:VS4210/SysTimer.c **** }
 406              		.loc 1 329 1 view .LVU87
 407 001a 7047     		bx	lr
 408              	.L42:
 409              		.align	2
 410              	.L41:
 411 001c 00000000 		.word	g_stTimerEvent
 412              		.cfi_endproc
 413              	.LFE75:
 415              		.section	.rodata.MCUTimerActiveTimerEvent.str1.4,"aMS",%progbits,1
 416              		.align	2
 417              	.LC0:
 418 0000 4E6F204D 		.ascii	"No More Available Storage for Simultaneous Event!!!"
 418      6F726520 
 418      41766169 
 418      6C61626C 
 418      65205374 
 419 0033 21212100 		.ascii	"!!!\000"
 420              		.section	.text.MCUTimerActiveTimerEvent,"ax",%progbits
 421              		.align	1
 422              		.global	MCUTimerActiveTimerEvent
 423              		.syntax unified
 424              		.thumb
 425              		.thumb_func
 426              		.fpu softvfp
 428              	MCUTimerActiveTimerEvent:
 429              	.LVL28:
 430              	.LFB76:
 330:VS4210/SysTimer.c **** 
 331:VS4210/SysTimer.c **** //--------------------------------------------------
 332:VS4210/SysTimer.c **** // Description  : Active Timer Event
 333:VS4210/SysTimer.c **** // Input Value  : usTime --> Time to active Timer Event
 334:VS4210/SysTimer.c **** //				  ucEventID --> Event to be actived
 335:VS4210/SysTimer.c **** // Output Value : None
 336:VS4210/SysTimer.c **** //--------------------------------------------------
 337:VS4210/SysTimer.c **** void MCUTimerActiveTimerEvent(WORD usTime, BYTE ucEventID)
 338:VS4210/SysTimer.c **** {
 431              		.loc 1 338 1 is_stmt 1 view -0
 432              		.cfi_startproc
 433              		@ args = 0, pretend = 0, frame = 0
 434              		@ frame_needed = 0, uses_anonymous_args = 0
 435              		.loc 1 338 1 is_stmt 0 view .LVU89
 436 0000 70B5     		push	{r4, r5, r6, lr}
 437              	.LCFI1:
 438              		.cfi_def_cfa_offset 16
 439              		.cfi_offset 4, -16
 440              		.cfi_offset 5, -12
 441              		.cfi_offset 6, -8
 442              		.cfi_offset 14, -4
 443 0002 0446     		mov	r4, r0
 339:VS4210/SysTimer.c **** 	BYTE ucEventIndex = 0;
 444              		.loc 1 339 2 is_stmt 1 view .LVU90
ARM GAS  C:\Users\ryanc.HS\AppData\Local\Temp\ccysXWgI.s 			page 15


 445              	.LVL29:
 340:VS4210/SysTimer.c **** 
 341:VS4210/SysTimer.c **** 	// Search for Existing Event with the same Event ID
 342:VS4210/SysTimer.c **** 	for (ucEventIndex = 0; ucEventIndex < _TIMER_EVENT_COUNT; ucEventIndex++)
 446              		.loc 1 342 2 view .LVU91
 447              		.loc 1 342 20 is_stmt 0 view .LVU92
 448 0004 0023     		movs	r3, #0
 449              		.loc 1 342 2 view .LVU93
 450 0006 01E0     		b	.L44
 451              	.LVL30:
 452              	.L45:
 453              		.loc 1 342 60 is_stmt 1 discriminator 2 view .LVU94
 454              		.loc 1 342 72 is_stmt 0 discriminator 2 view .LVU95
 455 0008 0133     		adds	r3, r3, #1
 456              	.LVL31:
 457              		.loc 1 342 72 discriminator 2 view .LVU96
 458 000a DBB2     		uxtb	r3, r3
 459              	.LVL32:
 460              	.L44:
 461              		.loc 1 342 25 is_stmt 1 discriminator 1 view .LVU97
 462              		.loc 1 342 2 is_stmt 0 discriminator 1 view .LVU98
 463 000c 092B     		cmp	r3, #9
 464 000e 0CD8     		bhi	.L52
 343:VS4210/SysTimer.c **** 	{
 344:VS4210/SysTimer.c **** 		if (GET_EVENT_VALID(ucEventIndex) == _TRUE)
 465              		.loc 1 344 3 is_stmt 1 view .LVU99
 466              		.loc 1 344 7 is_stmt 0 view .LVU100
 467 0010 164A     		ldr	r2, .L55
 468 0012 12F83320 		ldrb	r2, [r2, r3, lsl #3]	@ zero_extendqisi2
 469              		.loc 1 344 6 view .LVU101
 470 0016 12F0010F 		tst	r2, #1
 471 001a F5D0     		beq	.L45
 345:VS4210/SysTimer.c **** 		{
 346:VS4210/SysTimer.c **** 			if (GET_EVENT_ID(ucEventIndex) == ucEventID)
 472              		.loc 1 346 4 is_stmt 1 view .LVU102
 473              		.loc 1 346 8 is_stmt 0 view .LVU103
 474 001c 134A     		ldr	r2, .L55
 475 001e 12F83320 		ldrb	r2, [r2, r3, lsl #3]	@ zero_extendqisi2
 476              		.loc 1 346 7 view .LVU104
 477 0022 B1EB520F 		cmp	r1, r2, lsr #1
 478 0026 EFD1     		bne	.L45
 479 0028 1EE0     		b	.L43
 480              	.L52:
 347:VS4210/SysTimer.c **** 			{
 348:VS4210/SysTimer.c **** 				return;
 349:VS4210/SysTimer.c **** 			}
 350:VS4210/SysTimer.c **** 		}
 351:VS4210/SysTimer.c **** 	}
 352:VS4210/SysTimer.c **** 
 353:VS4210/SysTimer.c **** 	// Choose any Vacant Storage for Event
 354:VS4210/SysTimer.c **** 	for (ucEventIndex = 0; ucEventIndex < _TIMER_EVENT_COUNT; ucEventIndex++)
 481              		.loc 1 354 20 view .LVU105
 482 002a 0023     		movs	r3, #0
 483              	.LVL33:
 484              	.L48:
 485              		.loc 1 354 25 is_stmt 1 discriminator 1 view .LVU106
 486              		.loc 1 354 2 is_stmt 0 discriminator 1 view .LVU107
ARM GAS  C:\Users\ryanc.HS\AppData\Local\Temp\ccysXWgI.s 			page 16


 487 002c 092B     		cmp	r3, #9
 488 002e 18D8     		bhi	.L53
 355:VS4210/SysTimer.c **** 	{
 356:VS4210/SysTimer.c **** 		if (GET_EVENT_VALID(ucEventIndex) == _FALSE)
 489              		.loc 1 356 3 is_stmt 1 view .LVU108
 490              		.loc 1 356 7 is_stmt 0 view .LVU109
 491 0030 1D46     		mov	r5, r3
 492 0032 0E4A     		ldr	r2, .L55
 493 0034 12F83320 		ldrb	r2, [r2, r3, lsl #3]	@ zero_extendqisi2
 494              		.loc 1 356 6 view .LVU110
 495 0038 12F0010F 		tst	r2, #1
 496 003c 02D0     		beq	.L54
 354:VS4210/SysTimer.c **** 	{
 497              		.loc 1 354 60 is_stmt 1 discriminator 2 view .LVU111
 354:VS4210/SysTimer.c **** 	{
 498              		.loc 1 354 72 is_stmt 0 discriminator 2 view .LVU112
 499 003e 0133     		adds	r3, r3, #1
 500              	.LVL34:
 354:VS4210/SysTimer.c **** 	{
 501              		.loc 1 354 72 discriminator 2 view .LVU113
 502 0040 DBB2     		uxtb	r3, r3
 503              	.LVL35:
 354:VS4210/SysTimer.c **** 	{
 504              		.loc 1 354 72 discriminator 2 view .LVU114
 505 0042 F3E7     		b	.L48
 506              	.L54:
 357:VS4210/SysTimer.c **** 		{
 358:VS4210/SysTimer.c **** 			SET_EVENT_VALID(ucEventIndex);
 507              		.loc 1 358 4 is_stmt 1 view .LVU115
 508 0044 094E     		ldr	r6, .L55
 359:VS4210/SysTimer.c **** 			SET_EVENT_ID(ucEventIndex, ucEventID);
 509              		.loc 1 359 4 view .LVU116
 510 0046 42F00103 		orr	r3, r2, #1
 511              	.LVL36:
 512              		.loc 1 359 4 is_stmt 0 view .LVU117
 513 004a 61F34703 		bfi	r3, r1, #1, #7
 514 004e 06F83530 		strb	r3, [r6, r5, lsl #3]
 360:VS4210/SysTimer.c **** 			SET_EVENT_TIME(ucEventIndex, (WORD)((DWORD)(MCUTimerCheckTimerEvent(usTime)) + usTime));
 515              		.loc 1 360 4 is_stmt 1 view .LVU118
 516 0052 2046     		mov	r0, r4
 517              	.LVL37:
 518              		.loc 1 360 4 is_stmt 0 view .LVU119
 519 0054 FFF7FEFF 		bl	MCUTimerCheckTimerEvent
 520              	.LVL38:
 521              		.loc 1 360 4 view .LVU120
 522 0058 0444     		add	r4, r4, r0
 523              	.LVL39:
 524              		.loc 1 360 4 view .LVU121
 525 005a 06EBC505 		add	r5, r6, r5, lsl #3
 526 005e 6C60     		str	r4, [r5, #4]
 361:VS4210/SysTimer.c **** 			return;
 527              		.loc 1 361 4 is_stmt 1 view .LVU122
 528 0060 02E0     		b	.L43
 529              	.LVL40:
 530              	.L53:
 362:VS4210/SysTimer.c **** 		}
 363:VS4210/SysTimer.c **** 	}
ARM GAS  C:\Users\ryanc.HS\AppData\Local\Temp\ccysXWgI.s 			page 17


 364:VS4210/SysTimer.c **** 
 365:VS4210/SysTimer.c **** 	Printf("No More Available Storage for Simultaneous Event!!!!!!");
 531              		.loc 1 365 2 view .LVU123
 532 0062 0348     		ldr	r0, .L55+4
 533              	.LVL41:
 534              		.loc 1 365 2 is_stmt 0 view .LVU124
 535 0064 FFF7FEFF 		bl	Printf
 536              	.LVL42:
 537              	.L43:
 366:VS4210/SysTimer.c **** }
 538              		.loc 1 366 1 view .LVU125
 539 0068 70BD     		pop	{r4, r5, r6, pc}
 540              	.L56:
 541 006a 00BF     		.align	2
 542              	.L55:
 543 006c 00000000 		.word	g_stTimerEvent
 544 0070 00000000 		.word	.LC0
 545              		.cfi_endproc
 546              	.LFE76:
 548              		.section	.text.MCUTimerCancelTimerEvent,"ax",%progbits
 549              		.align	1
 550              		.global	MCUTimerCancelTimerEvent
 551              		.syntax unified
 552              		.thumb
 553              		.thumb_func
 554              		.fpu softvfp
 556              	MCUTimerCancelTimerEvent:
 557              	.LVL43:
 558              	.LFB77:
 367:VS4210/SysTimer.c **** 
 368:VS4210/SysTimer.c **** //--------------------------------------------------
 369:VS4210/SysTimer.c **** // Description  : Cancel an event
 370:VS4210/SysTimer.c **** // Input Value  : Event     --> Event which we want to cancel
 371:VS4210/SysTimer.c **** // Output Value : None
 372:VS4210/SysTimer.c **** //--------------------------------------------------
 373:VS4210/SysTimer.c **** void MCUTimerCancelTimerEvent(BYTE ucEventID)
 374:VS4210/SysTimer.c **** {
 559              		.loc 1 374 1 is_stmt 1 view -0
 560              		.cfi_startproc
 561              		@ args = 0, pretend = 0, frame = 0
 562              		@ frame_needed = 0, uses_anonymous_args = 0
 563              		@ link register save eliminated.
 375:VS4210/SysTimer.c **** 	BYTE ucEventIndex = 0;
 564              		.loc 1 375 2 view .LVU127
 376:VS4210/SysTimer.c **** 
 377:VS4210/SysTimer.c **** 	// Search for Existing Event with the same Event ID
 378:VS4210/SysTimer.c **** 	for (ucEventIndex = 0; ucEventIndex < _TIMER_EVENT_COUNT; ucEventIndex++)
 565              		.loc 1 378 2 view .LVU128
 566              		.loc 1 378 20 is_stmt 0 view .LVU129
 567 0000 0023     		movs	r3, #0
 568              		.loc 1 378 2 view .LVU130
 569 0002 01E0     		b	.L58
 570              	.LVL44:
 571              	.L59:
 572              		.loc 1 378 60 is_stmt 1 discriminator 2 view .LVU131
 573              		.loc 1 378 72 is_stmt 0 discriminator 2 view .LVU132
 574 0004 0133     		adds	r3, r3, #1
ARM GAS  C:\Users\ryanc.HS\AppData\Local\Temp\ccysXWgI.s 			page 18


 575              	.LVL45:
 576              		.loc 1 378 72 discriminator 2 view .LVU133
 577 0006 DBB2     		uxtb	r3, r3
 578              	.LVL46:
 579              	.L58:
 580              		.loc 1 378 25 is_stmt 1 discriminator 1 view .LVU134
 581              		.loc 1 378 2 is_stmt 0 discriminator 1 view .LVU135
 582 0008 092B     		cmp	r3, #9
 583 000a 14D8     		bhi	.L62
 379:VS4210/SysTimer.c **** 	{
 380:VS4210/SysTimer.c **** 		if (GET_EVENT_VALID(ucEventIndex) == _TRUE)
 584              		.loc 1 380 3 is_stmt 1 view .LVU136
 585              		.loc 1 380 7 is_stmt 0 view .LVU137
 586 000c 1946     		mov	r1, r3
 587 000e 0A4A     		ldr	r2, .L63
 588 0010 12F83320 		ldrb	r2, [r2, r3, lsl #3]	@ zero_extendqisi2
 589              		.loc 1 380 6 view .LVU138
 590 0014 12F0010F 		tst	r2, #1
 591 0018 F4D0     		beq	.L59
 381:VS4210/SysTimer.c **** 		{
 382:VS4210/SysTimer.c **** 			if (GET_EVENT_ID(ucEventIndex) == ucEventID)
 592              		.loc 1 382 4 is_stmt 1 view .LVU139
 593              		.loc 1 382 8 is_stmt 0 view .LVU140
 594 001a 074A     		ldr	r2, .L63
 595 001c 12F83320 		ldrb	r2, [r2, r3, lsl #3]	@ zero_extendqisi2
 596              		.loc 1 382 7 view .LVU141
 597 0020 B0EB520F 		cmp	r0, r2, lsr #1
 598 0024 EED1     		bne	.L59
 383:VS4210/SysTimer.c **** 			{
 384:VS4210/SysTimer.c **** 				CLR_EVENT_VALID(ucEventIndex);
 599              		.loc 1 384 5 is_stmt 1 view .LVU142
 600 0026 044B     		ldr	r3, .L63
 601              	.LVL47:
 602              		.loc 1 384 5 is_stmt 0 view .LVU143
 603 0028 13F83120 		ldrb	r2, [r3, r1, lsl #3]	@ zero_extendqisi2
 604 002c 6FF30002 		bfc	r2, #0, #1
 605 0030 03F83120 		strb	r2, [r3, r1, lsl #3]
 385:VS4210/SysTimer.c **** 				return;
 606              		.loc 1 385 5 is_stmt 1 view .LVU144
 607 0034 7047     		bx	lr
 608              	.LVL48:
 609              	.L62:
 386:VS4210/SysTimer.c **** 			}
 387:VS4210/SysTimer.c **** 		}
 388:VS4210/SysTimer.c **** 	}
 389:VS4210/SysTimer.c **** }
 610              		.loc 1 389 1 is_stmt 0 view .LVU145
 611 0036 7047     		bx	lr
 612              	.L64:
 613              		.align	2
 614              	.L63:
 615 0038 00000000 		.word	g_stTimerEvent
 616              		.cfi_endproc
 617              	.LFE77:
 619              		.section	.text.MCUTimerReactiveTimerEvent,"ax",%progbits
 620              		.align	1
 621              		.global	MCUTimerReactiveTimerEvent
ARM GAS  C:\Users\ryanc.HS\AppData\Local\Temp\ccysXWgI.s 			page 19


 622              		.syntax unified
 623              		.thumb
 624              		.thumb_func
 625              		.fpu softvfp
 627              	MCUTimerReactiveTimerEvent:
 628              	.LVL49:
 629              	.LFB78:
 390:VS4210/SysTimer.c **** 
 391:VS4210/SysTimer.c **** //--------------------------------------------------
 392:VS4210/SysTimer.c **** // Description  : Reactive a timer for an event. If the event is exist,
 393:VS4210/SysTimer.c **** //                this function will reset the executing time and restart.
 394:VS4210/SysTimer.c **** // Input Value  : usTime    --> Unit in 1ms, range in 0.01 ~ 61 sec
 395:VS4210/SysTimer.c **** //                Event     --> Execute Event while timeup
 396:VS4210/SysTimer.c **** // Output Value : None
 397:VS4210/SysTimer.c **** //--------------------------------------------------
 398:VS4210/SysTimer.c **** void MCUTimerReactiveTimerEvent(WORD usTime, BYTE ucEventID)
 399:VS4210/SysTimer.c **** {
 630              		.loc 1 399 1 is_stmt 1 view -0
 631              		.cfi_startproc
 632              		@ args = 0, pretend = 0, frame = 0
 633              		@ frame_needed = 0, uses_anonymous_args = 0
 634              		.loc 1 399 1 is_stmt 0 view .LVU147
 635 0000 70B5     		push	{r4, r5, r6, lr}
 636              	.LCFI2:
 637              		.cfi_def_cfa_offset 16
 638              		.cfi_offset 4, -16
 639              		.cfi_offset 5, -12
 640              		.cfi_offset 6, -8
 641              		.cfi_offset 14, -4
 642 0002 0446     		mov	r4, r0
 400:VS4210/SysTimer.c **** 	BYTE ucEventIndex = 0;
 643              		.loc 1 400 2 is_stmt 1 view .LVU148
 644              	.LVL50:
 401:VS4210/SysTimer.c **** 
 402:VS4210/SysTimer.c **** 	// Search for Existing Event with the same Event ID
 403:VS4210/SysTimer.c **** 	for (ucEventIndex = 0; ucEventIndex < _TIMER_EVENT_COUNT; ucEventIndex++)
 645              		.loc 1 403 2 view .LVU149
 646              		.loc 1 403 20 is_stmt 0 view .LVU150
 647 0004 0023     		movs	r3, #0
 648              		.loc 1 403 2 view .LVU151
 649 0006 01E0     		b	.L66
 650              	.LVL51:
 651              	.L67:
 652              		.loc 1 403 60 is_stmt 1 discriminator 2 view .LVU152
 653              		.loc 1 403 72 is_stmt 0 discriminator 2 view .LVU153
 654 0008 0133     		adds	r3, r3, #1
 655              	.LVL52:
 656              		.loc 1 403 72 discriminator 2 view .LVU154
 657 000a DBB2     		uxtb	r3, r3
 658              	.LVL53:
 659              	.L66:
 660              		.loc 1 403 25 is_stmt 1 discriminator 1 view .LVU155
 661              		.loc 1 403 2 is_stmt 0 discriminator 1 view .LVU156
 662 000c 092B     		cmp	r3, #9
 663 000e 15D8     		bhi	.L74
 404:VS4210/SysTimer.c **** 	{
 405:VS4210/SysTimer.c **** 		if (GET_EVENT_VALID(ucEventIndex) == _TRUE)
ARM GAS  C:\Users\ryanc.HS\AppData\Local\Temp\ccysXWgI.s 			page 20


 664              		.loc 1 405 3 is_stmt 1 view .LVU157
 665              		.loc 1 405 7 is_stmt 0 view .LVU158
 666 0010 1D46     		mov	r5, r3
 667 0012 184A     		ldr	r2, .L76
 668 0014 12F83320 		ldrb	r2, [r2, r3, lsl #3]	@ zero_extendqisi2
 669              		.loc 1 405 6 view .LVU159
 670 0018 12F0010F 		tst	r2, #1
 671 001c F4D0     		beq	.L67
 406:VS4210/SysTimer.c **** 		{
 407:VS4210/SysTimer.c **** 			if (GET_EVENT_ID(ucEventIndex) == ucEventID)
 672              		.loc 1 407 4 is_stmt 1 view .LVU160
 673              		.loc 1 407 8 is_stmt 0 view .LVU161
 674 001e 154A     		ldr	r2, .L76
 675 0020 12F83320 		ldrb	r2, [r2, r3, lsl #3]	@ zero_extendqisi2
 676              		.loc 1 407 7 view .LVU162
 677 0024 B1EB520F 		cmp	r1, r2, lsr #1
 678 0028 EED1     		bne	.L67
 408:VS4210/SysTimer.c **** 			{
 409:VS4210/SysTimer.c **** 				SET_EVENT_TIME(ucEventIndex, (WORD)((DWORD)(MCUTimerCheckTimerEvent(usTime)) + usTime));
 679              		.loc 1 409 5 is_stmt 1 view .LVU163
 680 002a 2046     		mov	r0, r4
 681              	.LVL54:
 682              		.loc 1 409 5 is_stmt 0 view .LVU164
 683 002c FFF7FEFF 		bl	MCUTimerCheckTimerEvent
 684              	.LVL55:
 685              		.loc 1 409 5 view .LVU165
 686 0030 0444     		add	r4, r4, r0
 687              	.LVL56:
 688              		.loc 1 409 5 view .LVU166
 689 0032 104B     		ldr	r3, .L76
 690 0034 03EBC505 		add	r5, r3, r5, lsl #3
 691 0038 6C60     		str	r4, [r5, #4]
 410:VS4210/SysTimer.c **** 				return;
 692              		.loc 1 410 5 is_stmt 1 view .LVU167
 693 003a 1AE0     		b	.L65
 694              	.LVL57:
 695              	.L74:
 411:VS4210/SysTimer.c **** 			}
 412:VS4210/SysTimer.c **** 		}
 413:VS4210/SysTimer.c **** 	}
 414:VS4210/SysTimer.c **** 
 415:VS4210/SysTimer.c **** 	// Choose any Vacant Storage for Event
 416:VS4210/SysTimer.c **** 	for (ucEventIndex = 0; ucEventIndex < _TIMER_EVENT_COUNT; ucEventIndex++)
 696              		.loc 1 416 20 is_stmt 0 view .LVU168
 697 003c 0023     		movs	r3, #0
 698              	.LVL58:
 699              	.L70:
 700              		.loc 1 416 25 is_stmt 1 discriminator 1 view .LVU169
 701              		.loc 1 416 2 is_stmt 0 discriminator 1 view .LVU170
 702 003e 092B     		cmp	r3, #9
 703 0040 17D8     		bhi	.L65
 417:VS4210/SysTimer.c **** 	{
 418:VS4210/SysTimer.c **** 		if (GET_EVENT_VALID(ucEventIndex) == _FALSE)
 704              		.loc 1 418 3 is_stmt 1 view .LVU171
 705              		.loc 1 418 7 is_stmt 0 view .LVU172
 706 0042 1D46     		mov	r5, r3
 707 0044 0B4A     		ldr	r2, .L76
ARM GAS  C:\Users\ryanc.HS\AppData\Local\Temp\ccysXWgI.s 			page 21


 708 0046 12F83320 		ldrb	r2, [r2, r3, lsl #3]	@ zero_extendqisi2
 709              		.loc 1 418 6 view .LVU173
 710 004a 12F0010F 		tst	r2, #1
 711 004e 02D0     		beq	.L75
 416:VS4210/SysTimer.c **** 	{
 712              		.loc 1 416 60 is_stmt 1 discriminator 2 view .LVU174
 416:VS4210/SysTimer.c **** 	{
 713              		.loc 1 416 72 is_stmt 0 discriminator 2 view .LVU175
 714 0050 0133     		adds	r3, r3, #1
 715              	.LVL59:
 416:VS4210/SysTimer.c **** 	{
 716              		.loc 1 416 72 discriminator 2 view .LVU176
 717 0052 DBB2     		uxtb	r3, r3
 718              	.LVL60:
 416:VS4210/SysTimer.c **** 	{
 719              		.loc 1 416 72 discriminator 2 view .LVU177
 720 0054 F3E7     		b	.L70
 721              	.L75:
 419:VS4210/SysTimer.c **** 		{
 420:VS4210/SysTimer.c **** 			SET_EVENT_VALID(ucEventIndex);
 722              		.loc 1 420 4 is_stmt 1 view .LVU178
 723 0056 074E     		ldr	r6, .L76
 421:VS4210/SysTimer.c **** 			SET_EVENT_ID(ucEventIndex, ucEventID);
 724              		.loc 1 421 4 view .LVU179
 725 0058 42F00103 		orr	r3, r2, #1
 726              	.LVL61:
 727              		.loc 1 421 4 is_stmt 0 view .LVU180
 728 005c 61F34703 		bfi	r3, r1, #1, #7
 729 0060 06F83530 		strb	r3, [r6, r5, lsl #3]
 422:VS4210/SysTimer.c **** 			SET_EVENT_TIME(ucEventIndex, (WORD)((DWORD)(MCUTimerCheckTimerEvent(usTime)) + usTime));
 730              		.loc 1 422 4 is_stmt 1 view .LVU181
 731 0064 2046     		mov	r0, r4
 732              	.LVL62:
 733              		.loc 1 422 4 is_stmt 0 view .LVU182
 734 0066 FFF7FEFF 		bl	MCUTimerCheckTimerEvent
 735              	.LVL63:
 736              		.loc 1 422 4 view .LVU183
 737 006a 0444     		add	r4, r4, r0
 738              	.LVL64:
 739              		.loc 1 422 4 view .LVU184
 740 006c 06EBC505 		add	r5, r6, r5, lsl #3
 741 0070 6C60     		str	r4, [r5, #4]
 423:VS4210/SysTimer.c **** 			return;
 742              		.loc 1 423 4 is_stmt 1 view .LVU185
 743              	.L65:
 424:VS4210/SysTimer.c **** 		}
 425:VS4210/SysTimer.c **** 	}
 426:VS4210/SysTimer.c **** }
 744              		.loc 1 426 1 is_stmt 0 view .LVU186
 745 0072 70BD     		pop	{r4, r5, r6, pc}
 746              	.L77:
 747              		.align	2
 748              	.L76:
 749 0074 00000000 		.word	g_stTimerEvent
 750              		.cfi_endproc
 751              	.LFE78:
 753              		.section	.text.PowerLED,"ax",%progbits
ARM GAS  C:\Users\ryanc.HS\AppData\Local\Temp\ccysXWgI.s 			page 22


 754              		.align	1
 755              		.global	PowerLED
 756              		.syntax unified
 757              		.thumb
 758              		.thumb_func
 759              		.fpu softvfp
 761              	PowerLED:
 762              	.LVL65:
 763              	.LFB79:
 427:VS4210/SysTimer.c **** 
 428:VS4210/SysTimer.c **** //=============================================================================
 429:VS4210/SysTimer.c **** //                            Power LED ON / OFF
 430:VS4210/SysTimer.c **** //=============================================================================
 431:VS4210/SysTimer.c **** void PowerLED(EnumSystemTimerEventID flag)
 432:VS4210/SysTimer.c **** {
 764              		.loc 1 432 1 is_stmt 1 view -0
 765              		.cfi_startproc
 766              		@ args = 0, pretend = 0, frame = 0
 767              		@ frame_needed = 0, uses_anonymous_args = 0
 768              		.loc 1 432 1 is_stmt 0 view .LVU188
 769 0000 10B5     		push	{r4, lr}
 770              	.LCFI3:
 771              		.cfi_def_cfa_offset 8
 772              		.cfi_offset 4, -8
 773              		.cfi_offset 14, -4
 433:VS4210/SysTimer.c **** 
 434:VS4210/SysTimer.c **** 	// SET_LED_STATUS(flag);
 435:VS4210/SysTimer.c **** 
 436:VS4210/SysTimer.c **** 	switch (flag)
 774              		.loc 1 436 2 is_stmt 1 view .LVU189
 775 0002 2F28     		cmp	r0, #47
 776 0004 12D0     		beq	.L79
 777 0006 3528     		cmp	r0, #53
 778 0008 1ED0     		beq	.L80
 779 000a 2D28     		cmp	r0, #45
 780 000c 00D0     		beq	.L83
 781              	.LVL66:
 782              	.L78:
 437:VS4210/SysTimer.c **** 	{
 438:VS4210/SysTimer.c **** 	case _SYSTEM_TIMER_EVENT_GRN_ON:
 439:VS4210/SysTimer.c **** 		HAL_GPIO_WritePin(GREEN_LED_GPIO_Port, GREEN_LED_Pin, GPIO_PIN_RESET);
 440:VS4210/SysTimer.c **** 		HAL_GPIO_WritePin(RED_LED_GPIO_Port, RED_LED_Pin, GPIO_PIN_SET);
 441:VS4210/SysTimer.c **** 		break;
 442:VS4210/SysTimer.c **** 	case _SYSTEM_TIMER_EVENT_RED_ON:
 443:VS4210/SysTimer.c **** 		HAL_GPIO_WritePin(GREEN_LED_GPIO_Port, GREEN_LED_Pin, GPIO_PIN_SET);
 444:VS4210/SysTimer.c **** 		HAL_GPIO_WritePin(RED_LED_GPIO_Port, RED_LED_Pin, GPIO_PIN_RESET);
 445:VS4210/SysTimer.c **** 		break;
 446:VS4210/SysTimer.c **** 	case _SYSTEM_TIMER_EVENT_GRN_RED_OFF:
 447:VS4210/SysTimer.c **** 		HAL_GPIO_WritePin(GREEN_LED_GPIO_Port, GREEN_LED_Pin, GPIO_PIN_SET);
 448:VS4210/SysTimer.c **** 		HAL_GPIO_WritePin(RED_LED_GPIO_Port, RED_LED_Pin, GPIO_PIN_SET);
 449:VS4210/SysTimer.c **** 		break;
 450:VS4210/SysTimer.c **** 
 451:VS4210/SysTimer.c **** 		//    HAL_GPIO_WritePin(GPIOA, TX_RST_Pin|TP2824_RST_Pin|VS_RST_Pin, GPIO_PIN_SET);
 452:VS4210/SysTimer.c **** 	/*
 453:VS4210/SysTimer.c **** 	case _SYSTEM_TIMER_EVENT_GRN_ON:
 454:VS4210/SysTimer.c **** 	if((P4&0x01))
 455:VS4210/SysTimer.c **** 	  P4=P4&0xFE;	   //GREEN_LED = 0; 	   // ON GREEN
ARM GAS  C:\Users\ryanc.HS\AppData\Local\Temp\ccysXWgI.s 			page 23


 456:VS4210/SysTimer.c **** 	 break;
 457:VS4210/SysTimer.c **** 	case _SYSTEM_TIMER_EVENT_GRN_OFF:
 458:VS4210/SysTimer.c **** 	  if((P4&0x01)==0)
 459:VS4210/SysTimer.c **** 	 P4=P4|0x01;		//GREEN_LED = 1;		// OFF GREEN
 460:VS4210/SysTimer.c **** 	 break;
 461:VS4210/SysTimer.c **** 	case _SYSTEM_TIMER_EVENT_RED_ON:
 462:VS4210/SysTimer.c ****    if((P4&0x02))
 463:VS4210/SysTimer.c **** 	 P4=P4&0xFD;		//RED_LED = 0;		// ON RED
 464:VS4210/SysTimer.c **** 	 break;
 465:VS4210/SysTimer.c **** 	case _SYSTEM_TIMER_EVENT_RED_OFF:
 466:VS4210/SysTimer.c **** 	if((P4&0x02)==0)
 467:VS4210/SysTimer.c **** 	 P4=P4|0x02;		//RED_LED = 1;		// OFF RED
 468:VS4210/SysTimer.c **** 	 break;
 469:VS4210/SysTimer.c **** 	case _SYSTEM_TIMER_EVENT_GRN_RED_ON:
 470:VS4210/SysTimer.c **** 		if((P4&0x01))
 471:VS4210/SysTimer.c **** 		  P4=P4&0xFE;	   //GREEN_LED = 0; 	   // ON GREEN
 472:VS4210/SysTimer.c **** 		if((P4&0x02))
 473:VS4210/SysTimer.c **** 		 P4=P4&0xFC; 	//RED_LED = 0;		// ON RED
 474:VS4210/SysTimer.c **** 	 break;
 475:VS4210/SysTimer.c **** 	case _SYSTEM_TIMER_EVENT_GRN_BLINK:
 476:VS4210/SysTimer.c **** 		  if((P4&0x01))
 477:VS4210/SysTimer.c **** 		 {
 478:VS4210/SysTimer.c **** 		  P4=P4&0xFE;	   //GREEN_LED = 0; 	   // ON GREEN
 479:VS4210/SysTimer.c **** 		 }
 480:VS4210/SysTimer.c **** 		 else
 481:VS4210/SysTimer.c **** 		 {
 482:VS4210/SysTimer.c **** 		 P4=P4|0x01; 	//GREEN_LED = 1;		// OFF GREEN
 483:VS4210/SysTimer.c **** 		 }
 484:VS4210/SysTimer.c **** 	 break;
 485:VS4210/SysTimer.c **** 	case _SYSTEM_TIMER_EVENT_RED_BLINK:
 486:VS4210/SysTimer.c **** 		  if((P4&0x02))
 487:VS4210/SysTimer.c **** 		 {
 488:VS4210/SysTimer.c **** 		  P4=P4&0xFD;		//RED_LED = 0;		// ON RED
 489:VS4210/SysTimer.c **** 		 }
 490:VS4210/SysTimer.c **** 		 else
 491:VS4210/SysTimer.c **** 		 {
 492:VS4210/SysTimer.c **** 		 P4=P4|0x02;		//RED_LED = 1;		// OFF RED
 493:VS4210/SysTimer.c **** 		 }
 494:VS4210/SysTimer.c **** 	 break;
 495:VS4210/SysTimer.c ****    case _SYSTEM_TIMER_EVENT_GRN_RED_BLINK:
 496:VS4210/SysTimer.c **** 		  if((P4&0x01))
 497:VS4210/SysTimer.c **** 		 {
 498:VS4210/SysTimer.c **** 		  P4=P4&0xFC;	   //GREEN_LED = 0; 	   // ON RED& GREEN
 499:VS4210/SysTimer.c **** 		 }
 500:VS4210/SysTimer.c **** 		 else
 501:VS4210/SysTimer.c **** 		 {
 502:VS4210/SysTimer.c **** 		 P4=P4|0x03; 	//GREEN_LED = 1;		// OFF GREEN&RED
 503:VS4210/SysTimer.c **** 		 }
 504:VS4210/SysTimer.c **** 	  break;
 505:VS4210/SysTimer.c **** 	case _SYSTEM_TIMER_EVENT_GRN_ON_RED_BLINK:
 506:VS4210/SysTimer.c **** 		  if((P4&0x02))
 507:VS4210/SysTimer.c **** 		 {
 508:VS4210/SysTimer.c **** 		  P4=P4&0xFC;	   //GREEN_LED = 0; 	   // ON RED
 509:VS4210/SysTimer.c **** 		 }
 510:VS4210/SysTimer.c **** 		 else
 511:VS4210/SysTimer.c **** 		 {
 512:VS4210/SysTimer.c **** 		 P4=P4|0x02; 	//GREEN_LED = 1;		// OFF RED
ARM GAS  C:\Users\ryanc.HS\AppData\Local\Temp\ccysXWgI.s 			page 24


 513:VS4210/SysTimer.c **** 		 }
 514:VS4210/SysTimer.c **** 	  break;
 515:VS4210/SysTimer.c **** 	  */
 516:VS4210/SysTimer.c **** 	default:
 517:VS4210/SysTimer.c **** 		break;
 518:VS4210/SysTimer.c **** 	}
 519:VS4210/SysTimer.c **** }
 783              		.loc 1 519 1 is_stmt 0 view .LVU190
 784 000e 10BD     		pop	{r4, pc}
 785              	.LVL67:
 786              	.L83:
 439:VS4210/SysTimer.c **** 		HAL_GPIO_WritePin(RED_LED_GPIO_Port, RED_LED_Pin, GPIO_PIN_SET);
 787              		.loc 1 439 3 is_stmt 1 view .LVU191
 788 0010 144C     		ldr	r4, .L84
 789 0012 0022     		movs	r2, #0
 790 0014 4FF40071 		mov	r1, #512
 791 0018 2046     		mov	r0, r4
 792              	.LVL68:
 439:VS4210/SysTimer.c **** 		HAL_GPIO_WritePin(RED_LED_GPIO_Port, RED_LED_Pin, GPIO_PIN_SET);
 793              		.loc 1 439 3 is_stmt 0 view .LVU192
 794 001a FFF7FEFF 		bl	HAL_GPIO_WritePin
 795              	.LVL69:
 440:VS4210/SysTimer.c **** 		break;
 796              		.loc 1 440 3 is_stmt 1 view .LVU193
 797 001e 0122     		movs	r2, #1
 798 0020 4FF48071 		mov	r1, #256
 799 0024 2046     		mov	r0, r4
 800 0026 FFF7FEFF 		bl	HAL_GPIO_WritePin
 801              	.LVL70:
 441:VS4210/SysTimer.c **** 	case _SYSTEM_TIMER_EVENT_RED_ON:
 802              		.loc 1 441 3 view .LVU194
 803 002a F0E7     		b	.L78
 804              	.LVL71:
 805              	.L79:
 443:VS4210/SysTimer.c **** 		HAL_GPIO_WritePin(RED_LED_GPIO_Port, RED_LED_Pin, GPIO_PIN_RESET);
 806              		.loc 1 443 3 view .LVU195
 807 002c 0D4C     		ldr	r4, .L84
 808 002e 0122     		movs	r2, #1
 809 0030 4FF40071 		mov	r1, #512
 810 0034 2046     		mov	r0, r4
 811              	.LVL72:
 443:VS4210/SysTimer.c **** 		HAL_GPIO_WritePin(RED_LED_GPIO_Port, RED_LED_Pin, GPIO_PIN_RESET);
 812              		.loc 1 443 3 is_stmt 0 view .LVU196
 813 0036 FFF7FEFF 		bl	HAL_GPIO_WritePin
 814              	.LVL73:
 444:VS4210/SysTimer.c **** 		break;
 815              		.loc 1 444 3 is_stmt 1 view .LVU197
 816 003a 0022     		movs	r2, #0
 817 003c 4FF48071 		mov	r1, #256
 818 0040 2046     		mov	r0, r4
 819 0042 FFF7FEFF 		bl	HAL_GPIO_WritePin
 820              	.LVL74:
 445:VS4210/SysTimer.c **** 	case _SYSTEM_TIMER_EVENT_GRN_RED_OFF:
 821              		.loc 1 445 3 view .LVU198
 822 0046 E2E7     		b	.L78
 823              	.LVL75:
 824              	.L80:
ARM GAS  C:\Users\ryanc.HS\AppData\Local\Temp\ccysXWgI.s 			page 25


 447:VS4210/SysTimer.c **** 		HAL_GPIO_WritePin(RED_LED_GPIO_Port, RED_LED_Pin, GPIO_PIN_SET);
 825              		.loc 1 447 3 view .LVU199
 826 0048 064C     		ldr	r4, .L84
 827 004a 0122     		movs	r2, #1
 828 004c 4FF40071 		mov	r1, #512
 829 0050 2046     		mov	r0, r4
 830              	.LVL76:
 447:VS4210/SysTimer.c **** 		HAL_GPIO_WritePin(RED_LED_GPIO_Port, RED_LED_Pin, GPIO_PIN_SET);
 831              		.loc 1 447 3 is_stmt 0 view .LVU200
 832 0052 FFF7FEFF 		bl	HAL_GPIO_WritePin
 833              	.LVL77:
 448:VS4210/SysTimer.c **** 		break;
 834              		.loc 1 448 3 is_stmt 1 view .LVU201
 835 0056 0122     		movs	r2, #1
 836 0058 4FF48071 		mov	r1, #256
 837 005c 2046     		mov	r0, r4
 838 005e FFF7FEFF 		bl	HAL_GPIO_WritePin
 839              	.LVL78:
 449:VS4210/SysTimer.c **** 
 840              		.loc 1 449 3 view .LVU202
 841              		.loc 1 519 1 is_stmt 0 view .LVU203
 842 0062 D4E7     		b	.L78
 843              	.L85:
 844              		.align	2
 845              	.L84:
 846 0064 00100140 		.word	1073811456
 847              		.cfi_endproc
 848              	.LFE79:
 850              		.section	.rodata.UserInterfaceTimerEventProc.str1.4,"aMS",%progbits,1
 851              		.align	2
 852              	.LC1:
 853 0000 3E00     		.ascii	">\000"
 854 0002 0000     		.align	2
 855              	.LC2:
 856 0004 2843414D 		.ascii	"(CAM_INC %02x)\000"
 856      5F494E43 
 856      20253032 
 856      782900
 857 0013 00       		.align	2
 858              	.LC3:
 859 0014 2843414D 		.ascii	"(CAM_DEC %02x)\000"
 859      5F444543 
 859      20253032 
 859      782900
 860 0023 00       		.align	2
 861              	.LC4:
 862 0024 28474554 		.ascii	"(GET_MCU_VERSION)\000"
 862      5F4D4355 
 862      5F564552 
 862      53494F4E 
 862      2900
 863 0036 0000     		.align	2
 864              	.LC5:
 865 0038 284D4355 		.ascii	"(MCU_ENTRY_SLEEP_MODE)\000"
 865      5F454E54 
 865      52595F53 
 865      4C454550 
ARM GAS  C:\Users\ryanc.HS\AppData\Local\Temp\ccysXWgI.s 			page 26


 865      5F4D4F44 
 866 004f 00       		.align	2
 867              	.LC6:
 868 0050 0D0A2043 		.ascii	"\015\012 ClearEncorder \000"
 868      6C656172 
 868      456E636F 
 868      72646572 
 868      2000
 869 0062 0000     		.align	2
 870              	.LC7:
 871 0064 28445652 		.ascii	"(DVR_REBOOT)\000"
 871      5F524542 
 871      4F4F5429 
 871      00
 872 0071 000000   		.align	2
 873              	.LC8:
 874 0074 28445652 		.ascii	"(DVR_SHUTDOWN)\000"
 874      5F534855 
 874      54444F57 
 874      4E2900
 875 0083 00       		.align	2
 876              	.LC9:
 877 0084 28454E43 		.ascii	"(ENCODER_SET)\000"
 877      4F444552 
 877      5F534554 
 877      2900
 878              		.section	.text.UserInterfaceTimerEventProc,"ax",%progbits
 879              		.align	1
 880              		.global	UserInterfaceTimerEventProc
 881              		.syntax unified
 882              		.thumb
 883              		.thumb_func
 884              		.fpu softvfp
 886              	UserInterfaceTimerEventProc:
 887              	.LVL79:
 888              	.LFB80:
 520:VS4210/SysTimer.c **** 
 521:VS4210/SysTimer.c **** void UserInterfaceTimerEventProc(BYTE ucEventID)
 522:VS4210/SysTimer.c **** {
 889              		.loc 1 522 1 is_stmt 1 view -0
 890              		.cfi_startproc
 891              		@ args = 0, pretend = 0, frame = 0
 892              		@ frame_needed = 0, uses_anonymous_args = 0
 893              		.loc 1 522 1 is_stmt 0 view .LVU205
 894 0000 08B5     		push	{r3, lr}
 895              	.LCFI4:
 896              		.cfi_def_cfa_offset 8
 897              		.cfi_offset 3, -8
 898              		.cfi_offset 14, -4
 523:VS4210/SysTimer.c **** 
 524:VS4210/SysTimer.c **** 	switch (ucEventID)
 899              		.loc 1 524 2 is_stmt 1 view .LVU206
 900 0002 2028     		cmp	r0, #32
 901 0004 1AD8     		bhi	.L86
 902 0006 DFE800F0 		tbb	[pc, r0]
 903              	.L89:
 904 000a 11       		.byte	(.L104-.L89)/2
ARM GAS  C:\Users\ryanc.HS\AppData\Local\Temp\ccysXWgI.s 			page 27


 905 000b 19       		.byte	(.L86-.L89)/2
 906 000c 1A       		.byte	(.L103-.L89)/2
 907 000d 2B       		.byte	(.L102-.L89)/2
 908 000e 3B       		.byte	(.L101-.L89)/2
 909 000f 3F       		.byte	(.L100-.L89)/2
 910 0010 46       		.byte	(.L99-.L89)/2
 911 0011 4B       		.byte	(.L98-.L89)/2
 912 0012 4F       		.byte	(.L97-.L89)/2
 913 0013 53       		.byte	(.L96-.L89)/2
 914 0014 19       		.byte	(.L86-.L89)/2
 915 0015 19       		.byte	(.L86-.L89)/2
 916 0016 19       		.byte	(.L86-.L89)/2
 917 0017 19       		.byte	(.L86-.L89)/2
 918 0018 6A       		.byte	(.L95-.L89)/2
 919 0019 6D       		.byte	(.L94-.L89)/2
 920 001a 82       		.byte	(.L93-.L89)/2
 921 001b 5B       		.byte	(.L92-.L89)/2
 922 001c 19       		.byte	(.L86-.L89)/2
 923 001d 61       		.byte	(.L91-.L89)/2
 924 001e 86       		.byte	(.L90-.L89)/2
 925 001f 19       		.byte	(.L86-.L89)/2
 926 0020 19       		.byte	(.L86-.L89)/2
 927 0021 19       		.byte	(.L86-.L89)/2
 928 0022 19       		.byte	(.L86-.L89)/2
 929 0023 19       		.byte	(.L86-.L89)/2
 930 0024 19       		.byte	(.L86-.L89)/2
 931 0025 19       		.byte	(.L86-.L89)/2
 932 0026 19       		.byte	(.L86-.L89)/2
 933 0027 19       		.byte	(.L86-.L89)/2
 934 0028 19       		.byte	(.L86-.L89)/2
 935 0029 19       		.byte	(.L86-.L89)/2
 936 002a 57       		.byte	(.L88-.L89)/2
 937 002b 00       		.p2align 1
 938              	.L104:
 525:VS4210/SysTimer.c **** 	{
 526:VS4210/SysTimer.c **** 	case _USER_TIMER_EVENT_KEY_REPEAT_ENABLE:
 527:VS4210/SysTimer.c **** 		// SET_KEYREPEATSTART();
 528:VS4210/SysTimer.c **** 		DEBUG_MESSAGE(">");
 939              		.loc 1 528 3 view .LVU207
 940 002c 4A48     		ldr	r0, .L112
 941              	.LVL80:
 942              		.loc 1 528 3 is_stmt 0 view .LVU208
 943 002e FFF7FEFF 		bl	DEBUG_MESSAGE
 944              	.LVL81:
 529:VS4210/SysTimer.c **** 		MCUTimerActiveTimerEvent(SEC(10), _USER_TIMER_EVENT_KEY_REPEAT_ENABLE);
 945              		.loc 1 529 3 is_stmt 1 view .LVU209
 946 0032 0021     		movs	r1, #0
 947 0034 42F21070 		movw	r0, #10000
 948 0038 FFF7FEFF 		bl	MCUTimerActiveTimerEvent
 949              	.LVL82:
 530:VS4210/SysTimer.c **** 		break;
 950              		.loc 1 530 3 view .LVU210
 951              	.L86:
 531:VS4210/SysTimer.c **** 	case _USER_TIMER_EVENT_OSD_CAMERA_VOLTAGE_INC:
 532:VS4210/SysTimer.c **** 		if (CameraVolt < 100)
 533:VS4210/SysTimer.c **** 		{
 534:VS4210/SysTimer.c **** 			CameraVolt++;
ARM GAS  C:\Users\ryanc.HS\AppData\Local\Temp\ccysXWgI.s 			page 28


 535:VS4210/SysTimer.c **** 		}
 536:VS4210/SysTimer.c **** 		else
 537:VS4210/SysTimer.c **** 		{
 538:VS4210/SysTimer.c **** 			CameraVolt = 100;
 539:VS4210/SysTimer.c **** 		}
 540:VS4210/SysTimer.c **** 		// SetAD5110Step(CameraVolt);
 541:VS4210/SysTimer.c **** 		// WriteEEP(EEP_CameraVolt, CameraVolt);
 542:VS4210/SysTimer.c **** 		Printf("(CAM_INC %02x)", (WORD)CameraVolt);
 543:VS4210/SysTimer.c **** 		break;
 544:VS4210/SysTimer.c **** 	case _USER_TIMER_EVENT_OSD_CAMERA_VOLTAGE_DEC:
 545:VS4210/SysTimer.c **** 
 546:VS4210/SysTimer.c **** 		if (CameraVolt)
 547:VS4210/SysTimer.c **** 		{
 548:VS4210/SysTimer.c **** 			CameraVolt--;
 549:VS4210/SysTimer.c **** 		}
 550:VS4210/SysTimer.c **** 		else
 551:VS4210/SysTimer.c **** 		{
 552:VS4210/SysTimer.c **** 			CameraVolt = 0;
 553:VS4210/SysTimer.c **** 		}
 554:VS4210/SysTimer.c **** 		// SetAD5110Step(CameraVolt);
 555:VS4210/SysTimer.c **** 		// WriteEEP(EEP_CameraVolt, CameraVolt);
 556:VS4210/SysTimer.c **** 		Printf("(CAM_DEC %02x)", (WORD)CameraVolt);
 557:VS4210/SysTimer.c **** 		break;
 558:VS4210/SysTimer.c **** 	case _USER_TIMER_EVENT_OSD_GET_MCU_VERSION:
 559:VS4210/SysTimer.c **** 		// MCU_SendCmdToDVR(MCU_PROTOCOL_CMD_REPLY_MCU_FW);
 560:VS4210/SysTimer.c **** 		Printf("(GET_MCU_VERSION)");
 561:VS4210/SysTimer.c **** 		break;
 562:VS4210/SysTimer.c **** 	case _USER_TIMER_EVENT_OSD_MCU_ENTRY_SLEEP_MODE:
 563:VS4210/SysTimer.c **** 		Printf("(MCU_ENTRY_SLEEP_MODE)");
 564:VS4210/SysTimer.c **** 		PSW_Flag = 1;
 565:VS4210/SysTimer.c **** 		break;
 566:VS4210/SysTimer.c **** 	case _USER_TIMER_EVENT_OSD_DISTANCE_RESET:
 567:VS4210/SysTimer.c **** 		/*
 568:VS4210/SysTimer.c **** 		EncorderCount=0;
 569:VS4210/SysTimer.c **** 		EncorderLenint=0;
 570:VS4210/SysTimer.c **** 		EncorderLenfloaat=0;
 571:VS4210/SysTimer.c **** 		EncorderCountPN=0;
 572:VS4210/SysTimer.c **** 		*/
 573:VS4210/SysTimer.c **** 		// MCU_SendCmdToDVR(MCU_PROTOCOL_CMD_REGULAR_DATA);
 574:VS4210/SysTimer.c **** 		// param[0]=EncorderLenint;
 575:VS4210/SysTimer.c **** 		// param[1]=EncorderLenfloaat;
 576:VS4210/SysTimer.c **** 		// param[2]=EncorderCountPN;
 577:VS4210/SysTimer.c **** 		// protocol_send_cmd_with_param_num(0x0a, (BYTE *)param, 3);
 578:VS4210/SysTimer.c **** 		Printf("\r\n ClearEncorder ", 0);
 579:VS4210/SysTimer.c **** 
 580:VS4210/SysTimer.c **** 		// Printf("(DISTANCE_RESET)");
 581:VS4210/SysTimer.c **** 		break;
 582:VS4210/SysTimer.c **** 	case _USER_TIMER_EVENT_OSD_DVR_REBOOT:
 583:VS4210/SysTimer.c **** 		Printf("(DVR_REBOOT)");
 584:VS4210/SysTimer.c **** 		break;
 585:VS4210/SysTimer.c **** 	case _USER_TIMER_EVENT_OSD_DVR_SHUTDOWN:
 586:VS4210/SysTimer.c **** 		Printf("(DVR_SHUTDOWN)");
 587:VS4210/SysTimer.c **** 		break;
 588:VS4210/SysTimer.c **** 	case _USER_TIMER_EVENT_OSD_ENCODER_DEVIATION_SETTING:
 589:VS4210/SysTimer.c **** 		Printf("(ENCODER_SET)");
 590:VS4210/SysTimer.c **** 		break;
 591:VS4210/SysTimer.c **** #if (_DEBUG_MESSAGE_Monitor == ON)
ARM GAS  C:\Users\ryanc.HS\AppData\Local\Temp\ccysXWgI.s 			page 29


 592:VS4210/SysTimer.c **** 	case _USER_TIMER_EVENT_Monitor_ON:
 593:VS4210/SysTimer.c **** 		Monitor_flag = _FALSE;
 594:VS4210/SysTimer.c **** 		break;
 595:VS4210/SysTimer.c **** #endif
 596:VS4210/SysTimer.c **** 	case _USER_TIMER_EVENT_PANEL_BACKLIGHT_ON:
 597:VS4210/SysTimer.c **** 		LCDPowerON(1);
 598:VS4210/SysTimer.c **** 		SETTW8812ON();
 599:VS4210/SysTimer.c **** 		break;
 600:VS4210/SysTimer.c **** 	case _USER_TIMER_EVENT_BACKLIGHT_ON:
 601:VS4210/SysTimer.c **** 		BackLightON();
 602:VS4210/SysTimer.c **** 		AudioMute(OFF);
 603:VS4210/SysTimer.c **** 		bytResetOSDValue = 0;
 604:VS4210/SysTimer.c **** 		break;
 605:VS4210/SysTimer.c **** 	case _USER_TIMER_EVENT_OSD_DISABLE:
 606:VS4210/SysTimer.c **** 		CloseOSDMenu();
 607:VS4210/SysTimer.c **** 		break;
 608:VS4210/SysTimer.c **** 	case _USER_TIMER_EVENT_DISPLAY_DISABLE:
 609:VS4210/SysTimer.c **** 
 610:VS4210/SysTimer.c **** 		if ((GetItemValue(0xb9) == _FALSE) && (TriggerStatus == OFF) && ((GetDisplayedOSD() & (MENU | TVV
 611:VS4210/SysTimer.c **** 			CloseOSDINFO();
 612:VS4210/SysTimer.c **** 
 613:VS4210/SysTimer.c **** 		break;
 614:VS4210/SysTimer.c **** 	case _USER_TIMER_EVENT_Encoder_Loop:
 615:VS4210/SysTimer.c **** 		Encoder_flag = ON;
 616:VS4210/SysTimer.c **** 
 617:VS4210/SysTimer.c **** 		break;
 618:VS4210/SysTimer.c **** 	case _USER_TIMER_EVENT_SEQ_CHECK:
 619:VS4210/SysTimer.c **** 		if ((SEQFlag == ON) && (TriggerFlag == 0) && (PowerFlag == ON) && ((GetDisplayedOSD() & (MENU | T
 620:VS4210/SysTimer.c **** 		{
 621:VS4210/SysTimer.c **** 			if (BOOT_ISSUE == 0)
 622:VS4210/SysTimer.c **** 				SEQMode();
 623:VS4210/SysTimer.c **** 
 624:VS4210/SysTimer.c **** 			MCUTimerActiveTimerEvent(SEC(TimeStep), _USER_TIMER_EVENT_SEQ_CHECK);
 625:VS4210/SysTimer.c **** 		}
 626:VS4210/SysTimer.c **** 		break;
 627:VS4210/SysTimer.c **** 	default:
 628:VS4210/SysTimer.c **** 		break;
 629:VS4210/SysTimer.c **** 	}
 630:VS4210/SysTimer.c **** #if 0
 631:VS4210/SysTimer.c ****     switch(ucEventID)
 632:VS4210/SysTimer.c ****     {
 633:VS4210/SysTimer.c ****         case _USER_TIMER_EVENT_KEY_REPEAT_ENABLE:
 634:VS4210/SysTimer.c ****             SET_KEYREPEATSTART();
 635:VS4210/SysTimer.c ****             break;
 636:VS4210/SysTimer.c **** 
 637:VS4210/SysTimer.c ****         case _USER_TIMER_EVENT_KEY_SCAN_READY:
 638:VS4210/SysTimer.c ****             SET_KEYSCANREADY();
 639:VS4210/SysTimer.c ****             break;
 640:VS4210/SysTimer.c **** 
 641:VS4210/SysTimer.c ****         case _USER_TIMER_EVENT_OSD_DISABLE_OSD_LOGO:
 642:VS4210/SysTimer.c ****             RTDOsdDisplayDisableOsd();
 643:VS4210/SysTimer.c ****             SET_OSD_LOGO_ON(_OFF);
 644:VS4210/SysTimer.c **** 
 645:VS4210/SysTimer.c **** #if (_INSTANT_TIMER_EVENT_0 == _ON)
 646:VS4210/SysTimer.c ****             MCUTimer0SetTimerCount(_TIMER_OFF);
 647:VS4210/SysTimer.c **** #endif
 648:VS4210/SysTimer.c **** 
ARM GAS  C:\Users\ryanc.HS\AppData\Local\Temp\ccysXWgI.s 			page 30


 649:VS4210/SysTimer.c **** #if (_PANEL_POW_SEQ_FAST_MODE == _ON)
 650:VS4210/SysTimer.c ****             UserInterfacePanelPowerAction(_BACKLIGHT_OFF);
 651:VS4210/SysTimer.c **** #else
 652:VS4210/SysTimer.c ****             UserInterfacePanelPowerAction(_PANEL_OFF);
 653:VS4210/SysTimer.c **** #endif
 654:VS4210/SysTimer.c ****             ScalerDDomainBackgroundEnable(_ENABLE);
 655:VS4210/SysTimer.c ****             ScalerDDomainPatternGenEnable(_DISABLE);
 656:VS4210/SysTimer.c ****             break;
 657:VS4210/SysTimer.c **** 
 658:VS4210/SysTimer.c ****         case _USER_TIMER_EVENT_OSD_SHOW_NO_CABLE:
 659:VS4210/SysTimer.c ****       SET_OSD_EVENT_MESSAGE(_OSDEVENT_SHOW_NOCABLE_MSG);
 660:VS4210/SysTimer.c ****             break;
 661:VS4210/SysTimer.c **** 
 662:VS4210/SysTimer.c ****         case _USER_TIMER_EVENT_OSD_SHOW_NO_SIGNAL:
 663:VS4210/SysTimer.c ****        SET_OSD_EVENT_MESSAGE(_OSDEVENT_SHOW_NOSIGNAL_MSG);
 664:VS4210/SysTimer.c ****             break;
 665:VS4210/SysTimer.c **** 
 666:VS4210/SysTimer.c ****         case _USER_TIMER_EVENT_OSD_SHOW_POWER_SAVING:
 667:VS4210/SysTimer.c **** 
 668:VS4210/SysTimer.c **** #ifdef debug_mode1
 669:VS4210/SysTimer.c **** 					DebugMessageOsd("p6",0);
 670:VS4210/SysTimer.c **** #endif
 671:VS4210/SysTimer.c ****        SET_OSD_EVENT_MESSAGE(_OSDEVENT_SHOW_POWER_SAVING_EVENT_MSG);
 672:VS4210/SysTimer.c ****             break;
 673:VS4210/SysTimer.c **** 
 674:VS4210/SysTimer.c ****         case _USER_TIMER_EVENT_GO_TO_POWER_SAVING:
 675:VS4210/SysTimer.c ****           SET_OSD_EVENT_MESSAGE(_OSDEVENT_GO_TO_POWER_SAVING_EVENT_MSG);
 676:VS4210/SysTimer.c ****             break;
 677:VS4210/SysTimer.c **** 
 678:VS4210/SysTimer.c ****         case _USER_TIMER_EVENT_OSD_DISABLE:
 679:VS4210/SysTimer.c **** 					
 680:VS4210/SysTimer.c ****         	
 681:VS4210/SysTimer.c **** 						RTDOsdDisplayDisableOsd();
 682:VS4210/SysTimer.c **** 				  if(GET_CHANNEL_INFO_STATUS()==_TRUE) MCUTimerReactiveTimerEvent(SEC(3),_USER_TIMER_EVENT_DISP
 683:VS4210/SysTimer.c ****             break;
 684:VS4210/SysTimer.c **** 
 685:VS4210/SysTimer.c ****         case _USER_TIMER_EVENT_PANEL_BACKLIGHT_ON:
 686:VS4210/SysTimer.c ****             SET_PANELPOWERSTATUS(_READY_FOR_BACKLIGHT);
 687:VS4210/SysTimer.c ****             break;
 688:VS4210/SysTimer.c **** 		 case _USER_TIMER_EVENT_LIGHT_SENSER_ON	:
 689:VS4210/SysTimer.c **** 		 	if(GET_OSD_LIGHTSENSER()<=0x30) 
 690:VS4210/SysTimer.c **** 		 		{
 691:VS4210/SysTimer.c **** 				 UserInterfacePanelPowerAction(_BACKLIGHT_OFF);
 692:VS4210/SysTimer.c **** 				DebugMessageOsd("LIGHT_SENSER BACKLIGHT_OFF==",1);
 693:VS4210/SysTimer.c **** 		 		}
 694:VS4210/SysTimer.c **** 			  break;
 695:VS4210/SysTimer.c **** 				 case _USER_TIMER_EVENT_SHOW_BURN_IN://ryan@20141230		
 696:VS4210/SysTimer.c **** 				 	SET_OSD_EVENT_MESSAGE(_OSDEVENT_SHOW_BURNIN_MSG);	
 697:VS4210/SysTimer.c **** 				 //SET_OSD_EVENT_MESSAGE(_OSDEVENT_FACTORY_BURNIN_MODE_MSG);
 698:VS4210/SysTimer.c **** 				break;
 699:VS4210/SysTimer.c **** 				
 700:VS4210/SysTimer.c **** 	  case _USER_TIMER_EVENT_BURN_IN_ON://ryan@20141230		
 701:VS4210/SysTimer.c **** 		 		 SET_OSD_EVENT_MESSAGE(_OSDEVENT_FACTORY_BURNIN_MODE_MSG);	
 702:VS4210/SysTimer.c **** 				 //SET_OSD_EVENT_MESSAGE(_OSDEVENT_FACTORY_BURNIN_MODE_MSG);
 703:VS4210/SysTimer.c **** 				break;
 704:VS4210/SysTimer.c **** 	  case _USER_TIMER_EVENT_CHECK://ryan@20141230		
 705:VS4210/SysTimer.c **** 			 SET_OSD_EVENT_MESSAGE(_OSDEVENT_CHECK_MSG);
ARM GAS  C:\Users\ryanc.HS\AppData\Local\Temp\ccysXWgI.s 			page 31


 706:VS4210/SysTimer.c **** 				break;
 707:VS4210/SysTimer.c **** 	
 708:VS4210/SysTimer.c **** 		 case _USER_TIMER_EVENT_DISPLAY_INFO://ryan@20141230		
 709:VS4210/SysTimer.c **** 			 SET_OSD_EVENT_MESSAGE(_OSDEVENT_DISPLAY_INFO_MSG);
 710:VS4210/SysTimer.c **** 				break;	
 711:VS4210/SysTimer.c **** 	  case _USER_TIMER_EVENT_STANDBY_MODE:
 712:VS4210/SysTimer.c **** 	 SET_OSD_EVENT_MESSAGE(_OSDEVENT_STANDBY_MODE_MSG);
 713:VS4210/SysTimer.c **** 			break;
 714:VS4210/SysTimer.c **** 		  case _USER_TIMER_EVENT_FACTORY_MODE:
 715:VS4210/SysTimer.c **** 	 SET_OSD_EVENT_MESSAGE(_OSDEVENT_FACTORY_MODE_MSG);
 716:VS4210/SysTimer.c **** 			break;		
 717:VS4210/SysTimer.c ****         case _USER_TIMER_EVENT_PANEL_POWER_OFF:
 718:VS4210/SysTimer.c ****             SET_PANELPOWERSTATUS(_PANEL_POWER_OFF_STATE);
 719:VS4210/SysTimer.c ****             break;
 720:VS4210/SysTimer.c **** 
 721:VS4210/SysTimer.c **** 	case _USER_TIMER_EVENT_LED_POWER_SAVING:
 722:VS4210/SysTimer.c **** 		
 723:VS4210/SysTimer.c **** 		PCB_LED_IDLE();
 724:VS4210/SysTimer.c **** 		break;
 725:VS4210/SysTimer.c **** 
 726:VS4210/SysTimer.c **** #if (_VGA_SUPPORT == _ON)
 727:VS4210/SysTimer.c ****         case _USER_TIMER_EVENT_DO_AUTO_COLOR:
 728:VS4210/SysTimer.c ****             RTDOsdDisplayAutoBalanceProc();
 729:VS4210/SysTimer.c ****             break;
 730:VS4210/SysTimer.c **** #endif
 731:VS4210/SysTimer.c **** 
 732:VS4210/SysTimer.c ****         case _USER_TIMER_EVENT_PANEL_USED_TIMER:
 733:VS4210/SysTimer.c ****             RTDFactoryPanelUsedTimer();
 734:VS4210/SysTimer.c ****             break;
 735:VS4210/SysTimer.c **** 
 736:VS4210/SysTimer.c **** #if (_HIGHLIGHT_WINDOW_SUPPORT == _ON)
 737:VS4210/SysTimer.c ****         case _USER_TIMER_EVENT_HLWIN_TYPE5_MOVE:
 738:VS4210/SysTimer.c ****             UserAdjustHLWinType5Move();
 739:VS4210/SysTimer.c ****             break;
 740:VS4210/SysTimer.c **** #endif
 741:VS4210/SysTimer.c **** 
 742:VS4210/SysTimer.c **** #if (_ENERGY_STAR_SUPPORT == _ON)
 743:VS4210/SysTimer.c ****         case _USER_TIMER_EVENT_ES_ADJUST:
 744:VS4210/SysTimer.c ****             UserCommonAdjustESDcrAdjustPWM();
 745:VS4210/SysTimer.c ****             break;
 746:VS4210/SysTimer.c **** #endif
 747:VS4210/SysTimer.c **** 
 748:VS4210/SysTimer.c **** #if defined(_UART_ENABLE) // uart [micon.sam.0524.2013]
 749:VS4210/SysTimer.c ****         case _USER_TIMER_EVENT_UART_RESET:          //for uart timeout  //walter.hsiao 20121108
 750:VS4210/SysTimer.c ****             g_bUartCommandStart = _FALSE;
 751:VS4210/SysTimer.c ****             g_ucUartCommandNum = 1;
 752:VS4210/SysTimer.c ****             break;
 753:VS4210/SysTimer.c **** #endif
 754:VS4210/SysTimer.c **** 
 755:VS4210/SysTimer.c ****         default:
 756:VS4210/SysTimer.c ****             break;
 757:VS4210/SysTimer.c ****     }
 758:VS4210/SysTimer.c **** #endif
 759:VS4210/SysTimer.c **** }
 952              		.loc 1 759 1 is_stmt 0 view .LVU211
 953 003c 08BD     		pop	{r3, pc}
 954              	.LVL83:
ARM GAS  C:\Users\ryanc.HS\AppData\Local\Temp\ccysXWgI.s 			page 32


 955              	.L103:
 532:VS4210/SysTimer.c **** 		{
 956              		.loc 1 532 3 is_stmt 1 view .LVU212
 532:VS4210/SysTimer.c **** 		{
 957              		.loc 1 532 18 is_stmt 0 view .LVU213
 958 003e 474B     		ldr	r3, .L112+4
 959 0040 1B78     		ldrb	r3, [r3]	@ zero_extendqisi2
 532:VS4210/SysTimer.c **** 		{
 960              		.loc 1 532 6 view .LVU214
 961 0042 632B     		cmp	r3, #99
 962 0044 08D8     		bhi	.L105
 534:VS4210/SysTimer.c **** 		}
 963              		.loc 1 534 4 is_stmt 1 view .LVU215
 534:VS4210/SysTimer.c **** 		}
 964              		.loc 1 534 14 is_stmt 0 view .LVU216
 965 0046 0133     		adds	r3, r3, #1
 966 0048 444A     		ldr	r2, .L112+4
 967 004a 1370     		strb	r3, [r2]
 968              	.L106:
 542:VS4210/SysTimer.c **** 		break;
 969              		.loc 1 542 3 is_stmt 1 view .LVU217
 970 004c 434B     		ldr	r3, .L112+4
 971 004e 1978     		ldrb	r1, [r3]	@ zero_extendqisi2
 972 0050 4348     		ldr	r0, .L112+8
 973              	.LVL84:
 542:VS4210/SysTimer.c **** 		break;
 974              		.loc 1 542 3 is_stmt 0 view .LVU218
 975 0052 FFF7FEFF 		bl	Printf
 976              	.LVL85:
 543:VS4210/SysTimer.c **** 	case _USER_TIMER_EVENT_OSD_CAMERA_VOLTAGE_DEC:
 977              		.loc 1 543 3 is_stmt 1 view .LVU219
 978 0056 F1E7     		b	.L86
 979              	.LVL86:
 980              	.L105:
 538:VS4210/SysTimer.c **** 		}
 981              		.loc 1 538 4 view .LVU220
 538:VS4210/SysTimer.c **** 		}
 982              		.loc 1 538 15 is_stmt 0 view .LVU221
 983 0058 404B     		ldr	r3, .L112+4
 984 005a 6422     		movs	r2, #100
 985 005c 1A70     		strb	r2, [r3]
 986 005e F5E7     		b	.L106
 987              	.L102:
 546:VS4210/SysTimer.c **** 		{
 988              		.loc 1 546 3 is_stmt 1 view .LVU222
 546:VS4210/SysTimer.c **** 		{
 989              		.loc 1 546 7 is_stmt 0 view .LVU223
 990 0060 3E4B     		ldr	r3, .L112+4
 991 0062 1B78     		ldrb	r3, [r3]	@ zero_extendqisi2
 546:VS4210/SysTimer.c **** 		{
 992              		.loc 1 546 6 view .LVU224
 993 0064 43B1     		cbz	r3, .L107
 548:VS4210/SysTimer.c **** 		}
 994              		.loc 1 548 4 is_stmt 1 view .LVU225
 548:VS4210/SysTimer.c **** 		}
 995              		.loc 1 548 14 is_stmt 0 view .LVU226
 996 0066 013B     		subs	r3, r3, #1
ARM GAS  C:\Users\ryanc.HS\AppData\Local\Temp\ccysXWgI.s 			page 33


 997 0068 3C4A     		ldr	r2, .L112+4
 998 006a 1370     		strb	r3, [r2]
 999              	.L108:
 556:VS4210/SysTimer.c **** 		break;
 1000              		.loc 1 556 3 is_stmt 1 view .LVU227
 1001 006c 3B4B     		ldr	r3, .L112+4
 1002 006e 1978     		ldrb	r1, [r3]	@ zero_extendqisi2
 1003 0070 3C48     		ldr	r0, .L112+12
 1004              	.LVL87:
 556:VS4210/SysTimer.c **** 		break;
 1005              		.loc 1 556 3 is_stmt 0 view .LVU228
 1006 0072 FFF7FEFF 		bl	Printf
 1007              	.LVL88:
 557:VS4210/SysTimer.c **** 	case _USER_TIMER_EVENT_OSD_GET_MCU_VERSION:
 1008              		.loc 1 557 3 is_stmt 1 view .LVU229
 1009 0076 E1E7     		b	.L86
 1010              	.LVL89:
 1011              	.L107:
 552:VS4210/SysTimer.c **** 		}
 1012              		.loc 1 552 4 view .LVU230
 552:VS4210/SysTimer.c **** 		}
 1013              		.loc 1 552 15 is_stmt 0 view .LVU231
 1014 0078 384B     		ldr	r3, .L112+4
 1015 007a 0022     		movs	r2, #0
 1016 007c 1A70     		strb	r2, [r3]
 1017 007e F5E7     		b	.L108
 1018              	.L101:
 560:VS4210/SysTimer.c **** 		break;
 1019              		.loc 1 560 3 is_stmt 1 view .LVU232
 1020 0080 3948     		ldr	r0, .L112+16
 1021              	.LVL90:
 560:VS4210/SysTimer.c **** 		break;
 1022              		.loc 1 560 3 is_stmt 0 view .LVU233
 1023 0082 FFF7FEFF 		bl	Printf
 1024              	.LVL91:
 561:VS4210/SysTimer.c **** 	case _USER_TIMER_EVENT_OSD_MCU_ENTRY_SLEEP_MODE:
 1025              		.loc 1 561 3 is_stmt 1 view .LVU234
 1026 0086 D9E7     		b	.L86
 1027              	.LVL92:
 1028              	.L100:
 563:VS4210/SysTimer.c **** 		PSW_Flag = 1;
 1029              		.loc 1 563 3 view .LVU235
 1030 0088 3848     		ldr	r0, .L112+20
 1031              	.LVL93:
 563:VS4210/SysTimer.c **** 		PSW_Flag = 1;
 1032              		.loc 1 563 3 is_stmt 0 view .LVU236
 1033 008a FFF7FEFF 		bl	Printf
 1034              	.LVL94:
 564:VS4210/SysTimer.c **** 		break;
 1035              		.loc 1 564 3 is_stmt 1 view .LVU237
 564:VS4210/SysTimer.c **** 		break;
 1036              		.loc 1 564 12 is_stmt 0 view .LVU238
 1037 008e 384B     		ldr	r3, .L112+24
 1038 0090 0122     		movs	r2, #1
 1039 0092 1A70     		strb	r2, [r3]
 565:VS4210/SysTimer.c **** 	case _USER_TIMER_EVENT_OSD_DISTANCE_RESET:
 1040              		.loc 1 565 3 is_stmt 1 view .LVU239
ARM GAS  C:\Users\ryanc.HS\AppData\Local\Temp\ccysXWgI.s 			page 34


 1041 0094 D2E7     		b	.L86
 1042              	.LVL95:
 1043              	.L99:
 578:VS4210/SysTimer.c **** 
 1044              		.loc 1 578 3 view .LVU240
 1045 0096 0021     		movs	r1, #0
 1046 0098 3648     		ldr	r0, .L112+28
 1047              	.LVL96:
 578:VS4210/SysTimer.c **** 
 1048              		.loc 1 578 3 is_stmt 0 view .LVU241
 1049 009a FFF7FEFF 		bl	Printf
 1050              	.LVL97:
 581:VS4210/SysTimer.c **** 	case _USER_TIMER_EVENT_OSD_DVR_REBOOT:
 1051              		.loc 1 581 3 is_stmt 1 view .LVU242
 1052 009e CDE7     		b	.L86
 1053              	.LVL98:
 1054              	.L98:
 583:VS4210/SysTimer.c **** 		break;
 1055              		.loc 1 583 3 view .LVU243
 1056 00a0 3548     		ldr	r0, .L112+32
 1057              	.LVL99:
 583:VS4210/SysTimer.c **** 		break;
 1058              		.loc 1 583 3 is_stmt 0 view .LVU244
 1059 00a2 FFF7FEFF 		bl	Printf
 1060              	.LVL100:
 584:VS4210/SysTimer.c **** 	case _USER_TIMER_EVENT_OSD_DVR_SHUTDOWN:
 1061              		.loc 1 584 3 is_stmt 1 view .LVU245
 1062 00a6 C9E7     		b	.L86
 1063              	.LVL101:
 1064              	.L97:
 586:VS4210/SysTimer.c **** 		break;
 1065              		.loc 1 586 3 view .LVU246
 1066 00a8 3448     		ldr	r0, .L112+36
 1067              	.LVL102:
 586:VS4210/SysTimer.c **** 		break;
 1068              		.loc 1 586 3 is_stmt 0 view .LVU247
 1069 00aa FFF7FEFF 		bl	Printf
 1070              	.LVL103:
 587:VS4210/SysTimer.c **** 	case _USER_TIMER_EVENT_OSD_ENCODER_DEVIATION_SETTING:
 1071              		.loc 1 587 3 is_stmt 1 view .LVU248
 1072 00ae C5E7     		b	.L86
 1073              	.LVL104:
 1074              	.L96:
 589:VS4210/SysTimer.c **** 		break;
 1075              		.loc 1 589 3 view .LVU249
 1076 00b0 3348     		ldr	r0, .L112+40
 1077              	.LVL105:
 589:VS4210/SysTimer.c **** 		break;
 1078              		.loc 1 589 3 is_stmt 0 view .LVU250
 1079 00b2 FFF7FEFF 		bl	Printf
 1080              	.LVL106:
 590:VS4210/SysTimer.c **** #if (_DEBUG_MESSAGE_Monitor == ON)
 1081              		.loc 1 590 3 is_stmt 1 view .LVU251
 1082 00b6 C1E7     		b	.L86
 1083              	.LVL107:
 1084              	.L88:
 593:VS4210/SysTimer.c **** 		break;
ARM GAS  C:\Users\ryanc.HS\AppData\Local\Temp\ccysXWgI.s 			page 35


 1085              		.loc 1 593 3 view .LVU252
 593:VS4210/SysTimer.c **** 		break;
 1086              		.loc 1 593 16 is_stmt 0 view .LVU253
 1087 00b8 324B     		ldr	r3, .L112+44
 1088 00ba 0022     		movs	r2, #0
 1089 00bc 1A70     		strb	r2, [r3]
 594:VS4210/SysTimer.c **** #endif
 1090              		.loc 1 594 3 is_stmt 1 view .LVU254
 1091 00be BDE7     		b	.L86
 1092              	.L92:
 597:VS4210/SysTimer.c **** 		SETTW8812ON();
 1093              		.loc 1 597 3 view .LVU255
 1094 00c0 0120     		movs	r0, #1
 1095              	.LVL108:
 597:VS4210/SysTimer.c **** 		SETTW8812ON();
 1096              		.loc 1 597 3 is_stmt 0 view .LVU256
 1097 00c2 FFF7FEFF 		bl	LCDPowerON
 1098              	.LVL109:
 598:VS4210/SysTimer.c **** 		break;
 1099              		.loc 1 598 3 is_stmt 1 view .LVU257
 1100 00c6 FFF7FEFF 		bl	SETTW8812ON
 1101              	.LVL110:
 599:VS4210/SysTimer.c **** 	case _USER_TIMER_EVENT_BACKLIGHT_ON:
 1102              		.loc 1 599 3 view .LVU258
 1103 00ca B7E7     		b	.L86
 1104              	.LVL111:
 1105              	.L91:
 601:VS4210/SysTimer.c **** 		AudioMute(OFF);
 1106              		.loc 1 601 3 view .LVU259
 1107 00cc FFF7FEFF 		bl	BackLightON
 1108              	.LVL112:
 602:VS4210/SysTimer.c **** 		bytResetOSDValue = 0;
 1109              		.loc 1 602 3 view .LVU260
 1110 00d0 0020     		movs	r0, #0
 1111 00d2 FFF7FEFF 		bl	AudioMute
 1112              	.LVL113:
 603:VS4210/SysTimer.c **** 		break;
 1113              		.loc 1 603 3 view .LVU261
 603:VS4210/SysTimer.c **** 		break;
 1114              		.loc 1 603 20 is_stmt 0 view .LVU262
 1115 00d6 2C4B     		ldr	r3, .L112+48
 1116 00d8 0022     		movs	r2, #0
 1117 00da 1A70     		strb	r2, [r3]
 604:VS4210/SysTimer.c **** 	case _USER_TIMER_EVENT_OSD_DISABLE:
 1118              		.loc 1 604 3 is_stmt 1 view .LVU263
 1119 00dc AEE7     		b	.L86
 1120              	.LVL114:
 1121              	.L95:
 606:VS4210/SysTimer.c **** 		break;
 1122              		.loc 1 606 3 view .LVU264
 1123 00de FFF7FEFF 		bl	CloseOSDMenu
 1124              	.LVL115:
 607:VS4210/SysTimer.c **** 	case _USER_TIMER_EVENT_DISPLAY_DISABLE:
 1125              		.loc 1 607 3 view .LVU265
 1126 00e2 ABE7     		b	.L86
 1127              	.LVL116:
 1128              	.L94:
ARM GAS  C:\Users\ryanc.HS\AppData\Local\Temp\ccysXWgI.s 			page 36


 610:VS4210/SysTimer.c **** 			CloseOSDINFO();
 1129              		.loc 1 610 3 view .LVU266
 610:VS4210/SysTimer.c **** 			CloseOSDINFO();
 1130              		.loc 1 610 8 is_stmt 0 view .LVU267
 1131 00e4 B920     		movs	r0, #185
 1132              	.LVL117:
 610:VS4210/SysTimer.c **** 			CloseOSDINFO();
 1133              		.loc 1 610 8 view .LVU268
 1134 00e6 FFF7FEFF 		bl	GetItemValue
 1135              	.LVL118:
 610:VS4210/SysTimer.c **** 			CloseOSDINFO();
 1136              		.loc 1 610 6 view .LVU269
 1137 00ea 0028     		cmp	r0, #0
 1138 00ec A6D1     		bne	.L86
 610:VS4210/SysTimer.c **** 			CloseOSDINFO();
 1139              		.loc 1 610 56 discriminator 1 view .LVU270
 1140 00ee 274B     		ldr	r3, .L112+52
 1141 00f0 1B78     		ldrb	r3, [r3]	@ zero_extendqisi2
 610:VS4210/SysTimer.c **** 			CloseOSDINFO();
 1142              		.loc 1 610 38 discriminator 1 view .LVU271
 1143 00f2 002B     		cmp	r3, #0
 1144 00f4 A2D1     		bne	.L86
 610:VS4210/SysTimer.c **** 			CloseOSDINFO();
 1145              		.loc 1 610 69 discriminator 2 view .LVU272
 1146 00f6 FFF7FEFF 		bl	GetDisplayedOSD
 1147              	.LVL119:
 610:VS4210/SysTimer.c **** 			CloseOSDINFO();
 1148              		.loc 1 610 64 discriminator 2 view .LVU273
 1149 00fa 10F0060F 		tst	r0, #6
 1150 00fe 9DD1     		bne	.L86
 610:VS4210/SysTimer.c **** 			CloseOSDINFO();
 1151              		.loc 1 610 123 discriminator 3 view .LVU274
 1152 0100 234B     		ldr	r3, .L112+56
 1153 0102 1B78     		ldrb	r3, [r3]	@ zero_extendqisi2
 610:VS4210/SysTimer.c **** 			CloseOSDINFO();
 1154              		.loc 1 610 111 discriminator 3 view .LVU275
 1155 0104 002B     		cmp	r3, #0
 1156 0106 99D1     		bne	.L86
 611:VS4210/SysTimer.c **** 
 1157              		.loc 1 611 4 is_stmt 1 view .LVU276
 1158 0108 FFF7FEFF 		bl	CloseOSDINFO
 1159              	.LVL120:
 1160 010c 96E7     		b	.L86
 1161              	.LVL121:
 1162              	.L93:
 615:VS4210/SysTimer.c **** 
 1163              		.loc 1 615 3 view .LVU277
 615:VS4210/SysTimer.c **** 
 1164              		.loc 1 615 16 is_stmt 0 view .LVU278
 1165 010e 214B     		ldr	r3, .L112+60
 1166 0110 0122     		movs	r2, #1
 1167 0112 1A70     		strb	r2, [r3]
 617:VS4210/SysTimer.c **** 	case _USER_TIMER_EVENT_SEQ_CHECK:
 1168              		.loc 1 617 3 is_stmt 1 view .LVU279
 1169 0114 92E7     		b	.L86
 1170              	.L90:
 619:VS4210/SysTimer.c **** 		{
ARM GAS  C:\Users\ryanc.HS\AppData\Local\Temp\ccysXWgI.s 			page 37


 1171              		.loc 1 619 3 view .LVU280
 619:VS4210/SysTimer.c **** 		{
 1172              		.loc 1 619 16 is_stmt 0 view .LVU281
 1173 0116 1E4B     		ldr	r3, .L112+56
 1174 0118 1B78     		ldrb	r3, [r3]	@ zero_extendqisi2
 619:VS4210/SysTimer.c **** 		{
 1175              		.loc 1 619 6 view .LVU282
 1176 011a 012B     		cmp	r3, #1
 1177 011c 8ED1     		bne	.L86
 619:VS4210/SysTimer.c **** 		{
 1178              		.loc 1 619 39 discriminator 1 view .LVU283
 1179 011e 1E4B     		ldr	r3, .L112+64
 1180 0120 1B78     		ldrb	r3, [r3]	@ zero_extendqisi2
 619:VS4210/SysTimer.c **** 		{
 1181              		.loc 1 619 23 discriminator 1 view .LVU284
 1182 0122 002B     		cmp	r3, #0
 1183 0124 8AD1     		bne	.L86
 619:VS4210/SysTimer.c **** 		{
 1184              		.loc 1 619 59 discriminator 2 view .LVU285
 1185 0126 1D4B     		ldr	r3, .L112+68
 1186 0128 1B78     		ldrb	r3, [r3]	@ zero_extendqisi2
 619:VS4210/SysTimer.c **** 		{
 1187              		.loc 1 619 45 discriminator 2 view .LVU286
 1188 012a 012B     		cmp	r3, #1
 1189 012c 86D1     		bne	.L86
 619:VS4210/SysTimer.c **** 		{
 1190              		.loc 1 619 71 discriminator 3 view .LVU287
 1191 012e FFF7FEFF 		bl	GetDisplayedOSD
 1192              	.LVL122:
 619:VS4210/SysTimer.c **** 		{
 1193              		.loc 1 619 66 discriminator 3 view .LVU288
 1194 0132 10F0060F 		tst	r0, #6
 1195 0136 81D1     		bne	.L86
 621:VS4210/SysTimer.c **** 				SEQMode();
 1196              		.loc 1 621 4 is_stmt 1 view .LVU289
 621:VS4210/SysTimer.c **** 				SEQMode();
 1197              		.loc 1 621 19 is_stmt 0 view .LVU290
 1198 0138 194B     		ldr	r3, .L112+72
 1199 013a 1B78     		ldrb	r3, [r3]	@ zero_extendqisi2
 621:VS4210/SysTimer.c **** 				SEQMode();
 1200              		.loc 1 621 7 view .LVU291
 1201 013c 4BB1     		cbz	r3, .L111
 1202              	.L109:
 624:VS4210/SysTimer.c **** 		}
 1203              		.loc 1 624 4 is_stmt 1 view .LVU292
 624:VS4210/SysTimer.c **** 		}
 1204              		.loc 1 624 29 is_stmt 0 view .LVU293
 1205 013e 194B     		ldr	r3, .L112+76
 1206 0140 1B78     		ldrb	r3, [r3]	@ zero_extendqisi2
 624:VS4210/SysTimer.c **** 		}
 1207              		.loc 1 624 4 view .LVU294
 1208 0142 1421     		movs	r1, #20
 1209 0144 4FF47A70 		mov	r0, #1000
 1210 0148 00FB03F0 		mul	r0, r0, r3
 1211 014c FFF7FEFF 		bl	MCUTimerActiveTimerEvent
 1212              	.LVL123:
 1213              		.loc 1 759 1 view .LVU295
ARM GAS  C:\Users\ryanc.HS\AppData\Local\Temp\ccysXWgI.s 			page 38


 1214 0150 74E7     		b	.L86
 1215              	.L111:
 622:VS4210/SysTimer.c **** 
 1216              		.loc 1 622 5 is_stmt 1 view .LVU296
 1217 0152 FFF7FEFF 		bl	SEQMode
 1218              	.LVL124:
 1219 0156 F2E7     		b	.L109
 1220              	.L113:
 1221              		.align	2
 1222              	.L112:
 1223 0158 00000000 		.word	.LC1
 1224 015c 00000000 		.word	CameraVolt
 1225 0160 04000000 		.word	.LC2
 1226 0164 14000000 		.word	.LC3
 1227 0168 24000000 		.word	.LC4
 1228 016c 38000000 		.word	.LC5
 1229 0170 00000000 		.word	.LANCHOR2
 1230 0174 50000000 		.word	.LC6
 1231 0178 64000000 		.word	.LC7
 1232 017c 74000000 		.word	.LC8
 1233 0180 84000000 		.word	.LC9
 1234 0184 00000000 		.word	Monitor_flag
 1235 0188 00000000 		.word	bytResetOSDValue
 1236 018c 00000000 		.word	TriggerStatus
 1237 0190 00000000 		.word	SEQFlag
 1238 0194 00000000 		.word	Encoder_flag
 1239 0198 00000000 		.word	TriggerFlag
 1240 019c 00000000 		.word	PowerFlag
 1241 01a0 00000000 		.word	BOOT_ISSUE
 1242 01a4 00000000 		.word	TimeStep
 1243              		.cfi_endproc
 1244              	.LFE80:
 1246              		.section	.rodata.ShowWorkingTimer.str1.4,"aMS",%progbits,1
 1247              		.align	2
 1248              	.LC10:
 1249 0000 0D0A5379 		.ascii	"\015\012System has been working for %d days, %d hou"
 1249      7374656D 
 1249      20686173 
 1249      20626565 
 1249      6E20776F 
 1250 002d 72732C20 		.ascii	"rs, %d minutes and %d seconds\000"
 1250      2564206D 
 1250      696E7574 
 1250      65732061 
 1250      6E642025 
 1251 004b 00       		.align	2
 1252              	.LC11:
 1253 004c 0D0A5379 		.ascii	"\015\012System has been working for %d hours, %d mi"
 1253      7374656D 
 1253      20686173 
 1253      20626565 
 1253      6E20776F 
 1254 0079 6E757465 		.ascii	"nutes and %d seconds\000"
 1254      7320616E 
 1254      64202564 
 1254      20736563 
 1254      6F6E6473 
ARM GAS  C:\Users\ryanc.HS\AppData\Local\Temp\ccysXWgI.s 			page 39


 1255 008e 0000     		.align	2
 1256              	.LC12:
 1257 0090 0D0A5379 		.ascii	"\015\012System has been working for %d minutes and "
 1257      7374656D 
 1257      20686173 
 1257      20626565 
 1257      6E20776F 
 1258 00bd 25642073 		.ascii	"%d seconds\000"
 1258      65636F6E 
 1258      647300
 1259              		.align	2
 1260              	.LC13:
 1261 00c8 0D0A5379 		.ascii	"\015\012System has been working for %d seconds\000"
 1261      7374656D 
 1261      20686173 
 1261      20626565 
 1261      6E20776F 
 1262              		.section	.text.ShowWorkingTimer,"ax",%progbits
 1263              		.align	1
 1264              		.global	ShowWorkingTimer
 1265              		.syntax unified
 1266              		.thumb
 1267              		.thumb_func
 1268              		.fpu softvfp
 1270              	ShowWorkingTimer:
 1271              	.LFB81:
 760:VS4210/SysTimer.c **** 
 761:VS4210/SysTimer.c **** //=============================================================================//
 762:VS4210/SysTimer.c **** //                     ShowWorkTimer                                                 										//
 763:VS4210/SysTimer.c **** //=============================================================================//
 764:VS4210/SysTimer.c **** void ShowWorkingTimer(void)
 765:VS4210/SysTimer.c **** {
 1272              		.loc 1 765 1 view -0
 1273              		.cfi_startproc
 1274              		@ args = 0, pretend = 0, frame = 0
 1275              		@ frame_needed = 0, uses_anonymous_args = 0
 1276 0000 00B5     		push	{lr}
 1277              	.LCFI5:
 1278              		.cfi_def_cfa_offset 4
 1279              		.cfi_offset 14, -4
 1280 0002 83B0     		sub	sp, sp, #12
 1281              	.LCFI6:
 1282              		.cfi_def_cfa_offset 16
 766:VS4210/SysTimer.c **** 	if (day)
 1283              		.loc 1 766 2 view .LVU298
 1284              		.loc 1 766 6 is_stmt 0 view .LVU299
 1285 0004 174B     		ldr	r3, .L122
 1286 0006 1A78     		ldrb	r2, [r3]	@ zero_extendqisi2
 1287              		.loc 1 766 5 view .LVU300
 1288 0008 62B9     		cbnz	r2, .L120
 767:VS4210/SysTimer.c **** 	{
 768:VS4210/SysTimer.c **** 		GraphicsPrint(YELLOW, "\r\nSystem has been working for %d days, %d hours, %d minutes and %d secon
 769:VS4210/SysTimer.c **** 	}
 770:VS4210/SysTimer.c **** 	else if (hour)
 1289              		.loc 1 770 7 is_stmt 1 view .LVU301
 1290              		.loc 1 770 11 is_stmt 0 view .LVU302
 1291 000a 174B     		ldr	r3, .L122+4
ARM GAS  C:\Users\ryanc.HS\AppData\Local\Temp\ccysXWgI.s 			page 40


 1292 000c 1A78     		ldrb	r2, [r3]	@ zero_extendqisi2
 1293              		.loc 1 770 10 view .LVU303
 1294 000e C2B9     		cbnz	r2, .L121
 771:VS4210/SysTimer.c **** 	{
 772:VS4210/SysTimer.c **** 		GraphicsPrint(YELLOW, "\r\nSystem has been working for %d hours, %d minutes and %d seconds", (WOR
 773:VS4210/SysTimer.c **** 	}
 774:VS4210/SysTimer.c **** 	else if (minute)
 1295              		.loc 1 774 7 is_stmt 1 view .LVU304
 1296              		.loc 1 774 11 is_stmt 0 view .LVU305
 1297 0010 164B     		ldr	r3, .L122+8
 1298 0012 1A78     		ldrb	r2, [r3]	@ zero_extendqisi2
 1299              		.loc 1 774 10 view .LVU306
 1300 0014 FAB1     		cbz	r2, .L118
 775:VS4210/SysTimer.c **** 	{
 776:VS4210/SysTimer.c **** 		GraphicsPrint(YELLOW, "\r\nSystem has been working for %d minutes and %d seconds", (WORD)minute, 
 1301              		.loc 1 776 3 is_stmt 1 view .LVU307
 1302 0016 164B     		ldr	r3, .L122+12
 1303 0018 1B78     		ldrb	r3, [r3]	@ zero_extendqisi2
 1304 001a 1649     		ldr	r1, .L122+16
 1305 001c 0320     		movs	r0, #3
 1306 001e FFF7FEFF 		bl	GraphicsPrint
 1307              	.LVL125:
 1308 0022 0BE0     		b	.L114
 1309              	.L120:
 768:VS4210/SysTimer.c **** 	}
 1310              		.loc 1 768 3 view .LVU308
 1311 0024 124B     		ldr	r3, .L122+12
 1312 0026 1B78     		ldrb	r3, [r3]	@ zero_extendqisi2
 1313 0028 0193     		str	r3, [sp, #4]
 1314 002a 104B     		ldr	r3, .L122+8
 1315 002c 1B78     		ldrb	r3, [r3]	@ zero_extendqisi2
 1316 002e 0093     		str	r3, [sp]
 1317 0030 0D4B     		ldr	r3, .L122+4
 1318 0032 1B78     		ldrb	r3, [r3]	@ zero_extendqisi2
 1319 0034 1049     		ldr	r1, .L122+20
 1320 0036 0320     		movs	r0, #3
 1321 0038 FFF7FEFF 		bl	GraphicsPrint
 1322              	.LVL126:
 1323              	.L114:
 777:VS4210/SysTimer.c **** 	}
 778:VS4210/SysTimer.c **** 	else
 779:VS4210/SysTimer.c **** 	{
 780:VS4210/SysTimer.c **** 		GraphicsPrint(YELLOW, "\r\nSystem has been working for %d seconds", (WORD)second);
 781:VS4210/SysTimer.c **** 	}
 782:VS4210/SysTimer.c **** 
 783:VS4210/SysTimer.c **** 	/*
 784:VS4210/SysTimer.c **** 		GraphicsPrint(GREEN,"\r\n(BatteryBTH=%d(%d.%dV))",(WORD)BatteryBTH\
 785:VS4210/SysTimer.c **** 				,(WORD)((BatteryBTH*32)/10000)\
 786:VS4210/SysTimer.c **** 			,(WORD)((BatteryBTH*32)%10000));
 787:VS4210/SysTimer.c **** 
 788:VS4210/SysTimer.c **** 		if(GET_BTH_STATE()==_BATT_STATUS_TEMP_NORMAL)
 789:VS4210/SysTimer.c **** 			GraphicsPrint(GREEN,"(TEMP_NORMAL)");
 790:VS4210/SysTimer.c **** 		else if(GET_BTH_STATE()==_BATT_STATUS_TEMP_HIGH)
 791:VS4210/SysTimer.c **** 			GraphicsPrint(RED,"(TEMP_HIGH)");
 792:VS4210/SysTimer.c **** 		else
 793:VS4210/SysTimer.c **** 			GraphicsPrint(BLUE,"(TEMP_LOW)");
 794:VS4210/SysTimer.c **** 
ARM GAS  C:\Users\ryanc.HS\AppData\Local\Temp\ccysXWgI.s 			page 41


 795:VS4210/SysTimer.c **** 	GraphicsPrint(MAGENTA,"\r\n(BatteryCAP=%d(%d.%dV))",(WORD)GET_BATTERY_CAPACITY()\
 796:VS4210/SysTimer.c **** 			,(WORD)((GET_BATTERY_CAPACITY()*32)/10000)\
 797:VS4210/SysTimer.c **** 			,(WORD)((GET_BATTERY_CAPACITY()*32)%10000));
 798:VS4210/SysTimer.c **** 
 799:VS4210/SysTimer.c **** 		if(GET_BATTERY_CHARGE_STATE()==_BATT_STATUS_HIGH_CHARGE)
 800:VS4210/SysTimer.c **** 			GraphicsPrint(GREEN,"(HIGH_CHARGE)");
 801:VS4210/SysTimer.c **** 		else if(GET_BATTERY_CHARGE_STATE()==_BATT_STATUS_LOW_CHARGE)
 802:VS4210/SysTimer.c **** 			GraphicsPrint(YELLOW,"(LOW_CHARGE)");
 803:VS4210/SysTimer.c **** 		else if(GET_BATTERY_CHARGE_STATE()==_BATT_STATUS_STOP_CHARGE)
 804:VS4210/SysTimer.c **** 			GraphicsPrint(RED,"(STOP_CHARGE)");
 805:VS4210/SysTimer.c **** 		else if(GET_BATTERY_CHARGE_STATE()==_BATT_STATUS_NO_BATT)
 806:VS4210/SysTimer.c **** 			GraphicsPrint(RED,"(NO_BATT)");
 807:VS4210/SysTimer.c **** 
 808:VS4210/SysTimer.c **** 	   if(GET_BATTERY_STATE()==4)
 809:VS4210/SysTimer.c **** 		GraphicsPrint(GREEN,"(BATT_STATUS_AC_MODE)");
 810:VS4210/SysTimer.c **** 	else if(GET_BATTERY_STATE()==3)
 811:VS4210/SysTimer.c **** 		GraphicsPrint(GREEN,"(_BATT_STATUS_CAPACITY_LEVEL1)");
 812:VS4210/SysTimer.c **** 	else if(GET_BATTERY_STATE()==2)
 813:VS4210/SysTimer.c **** 		GraphicsPrint(GREEN,"(_BATT_STATUS_CAPACITY_LEVEL2)");
 814:VS4210/SysTimer.c **** 	else if(GET_BATTERY_STATE()==1)
 815:VS4210/SysTimer.c **** 		GraphicsPrint(GREEN,"(_BATT_STATUS_CAPACITY_LEVEL3)");
 816:VS4210/SysTimer.c **** 	else	 if(GET_BATTERY_STATE()==0)
 817:VS4210/SysTimer.c **** 		GraphicsPrint(GREEN,"(_BATT_STATUS_CAPACITY_LEVEL4)");
 818:VS4210/SysTimer.c **** 	else	 if(GET_BATTERY_STATE()==9)
 819:VS4210/SysTimer.c **** 		GraphicsPrint(RED,"(_BATT_STATUS_NO_BATT)");
 820:VS4210/SysTimer.c **** 
 821:VS4210/SysTimer.c **** 	GraphicsPrint(CYAN,"\r\n(POWER_STATUS=%d)",(WORD)GET_POWER_STATUS());
 822:VS4210/SysTimer.c **** 	*/
 823:VS4210/SysTimer.c **** }
 1324              		.loc 1 823 1 is_stmt 0 view .LVU309
 1325 003c 03B0     		add	sp, sp, #12
 1326              	.LCFI7:
 1327              		.cfi_remember_state
 1328              		.cfi_def_cfa_offset 4
 1329              		@ sp needed
 1330 003e 5DF804FB 		ldr	pc, [sp], #4
 1331              	.L121:
 1332              	.LCFI8:
 1333              		.cfi_restore_state
 772:VS4210/SysTimer.c **** 	}
 1334              		.loc 1 772 3 is_stmt 1 view .LVU310
 1335 0042 0B4B     		ldr	r3, .L122+12
 1336 0044 1B78     		ldrb	r3, [r3]	@ zero_extendqisi2
 1337 0046 0093     		str	r3, [sp]
 1338 0048 084B     		ldr	r3, .L122+8
 1339 004a 1B78     		ldrb	r3, [r3]	@ zero_extendqisi2
 1340 004c 0B49     		ldr	r1, .L122+24
 1341 004e 0320     		movs	r0, #3
 1342 0050 FFF7FEFF 		bl	GraphicsPrint
 1343              	.LVL127:
 1344 0054 F2E7     		b	.L114
 1345              	.L118:
 780:VS4210/SysTimer.c **** 	}
 1346              		.loc 1 780 3 view .LVU311
 1347 0056 064B     		ldr	r3, .L122+12
 1348 0058 1A78     		ldrb	r2, [r3]	@ zero_extendqisi2
 1349 005a 0949     		ldr	r1, .L122+28
ARM GAS  C:\Users\ryanc.HS\AppData\Local\Temp\ccysXWgI.s 			page 42


 1350 005c 0320     		movs	r0, #3
 1351 005e FFF7FEFF 		bl	GraphicsPrint
 1352              	.LVL128:
 1353              		.loc 1 823 1 is_stmt 0 view .LVU312
 1354 0062 EBE7     		b	.L114
 1355              	.L123:
 1356              		.align	2
 1357              	.L122:
 1358 0064 00000000 		.word	.LANCHOR3
 1359 0068 00000000 		.word	.LANCHOR4
 1360 006c 00000000 		.word	.LANCHOR6
 1361 0070 00000000 		.word	.LANCHOR5
 1362 0074 90000000 		.word	.LC12
 1363 0078 00000000 		.word	.LC10
 1364 007c 4C000000 		.word	.LC11
 1365 0080 C8000000 		.word	.LC13
 1366              		.cfi_endproc
 1367              	.LFE81:
 1369              		.section	.text.MCUTimerEventProc,"ax",%progbits
 1370              		.align	1
 1371              		.global	MCUTimerEventProc
 1372              		.syntax unified
 1373              		.thumb
 1374              		.thumb_func
 1375              		.fpu softvfp
 1377              	MCUTimerEventProc:
 1378              	.LVL129:
 1379              	.LFB82:
 824:VS4210/SysTimer.c **** 
 825:VS4210/SysTimer.c **** void MCUTimerEventProc(EnumMCUTimerEventID enumEventID)
 826:VS4210/SysTimer.c **** {
 1380              		.loc 1 826 1 is_stmt 1 view -0
 1381              		.cfi_startproc
 1382              		@ args = 0, pretend = 0, frame = 0
 1383              		@ frame_needed = 0, uses_anonymous_args = 0
 1384              		@ link register save eliminated.
 827:VS4210/SysTimer.c **** 
 828:VS4210/SysTimer.c **** 	switch (enumEventID)
 1385              		.loc 1 828 2 view .LVU314
 829:VS4210/SysTimer.c **** 	{
 830:VS4210/SysTimer.c **** 
 831:VS4210/SysTimer.c **** 	default:
 832:VS4210/SysTimer.c **** 		break;
 1386              		.loc 1 832 3 view .LVU315
 833:VS4210/SysTimer.c **** 	}
 834:VS4210/SysTimer.c **** 
 835:VS4210/SysTimer.c **** #if 0
 836:VS4210/SysTimer.c ****     switch(enumEventID)
 837:VS4210/SysTimer.c ****     {
 838:VS4210/SysTimer.c **** #if ((_DVI_SUPPORT == _ON) || (_HDMI_SUPPORT == _ON))
 839:VS4210/SysTimer.c ****         case _SCALER_TIMER_EVENT_TMDS_VIDEO_DETECT:
 840:VS4210/SysTimer.c ****         
 841:VS4210/SysTimer.c ****             ScalerSyncTmdsVideoDetectEvent();
 842:VS4210/SysTimer.c ****             break;
 843:VS4210/SysTimer.c **** 
 844:VS4210/SysTimer.c **** #if (_HDMI_SUPPORT == _ON)
 845:VS4210/SysTimer.c ****         case _SCALER_TIMER_EVENT_TMDS_HDMI_PACKET_DETECT:
ARM GAS  C:\Users\ryanc.HS\AppData\Local\Temp\ccysXWgI.s 			page 43


 846:VS4210/SysTimer.c ****         
 847:VS4210/SysTimer.c ****             ScalerTmdsHdmiPacketDetectEvent();
 848:VS4210/SysTimer.c ****             break;
 849:VS4210/SysTimer.c **** #endif // End of #if(_HDMI_SUPPORT == _ON)
 850:VS4210/SysTimer.c **** 
 851:VS4210/SysTimer.c **** #endif // End of #if((_DVI_SUPPORT == _ON) || (_HDMI_SUPPORT == _ON))
 852:VS4210/SysTimer.c **** 
 853:VS4210/SysTimer.c **** #if (_AUDIO_SUPPORT == _ON)
 854:VS4210/SysTimer.c ****         case _SCALER_TIMER_EVENT_AUDIO_LOAD_STABLE_I_CODE:
 855:VS4210/SysTimer.c **** 
 856:VS4210/SysTimer.c ****             ScalerAudioLoadStableICodeEvent();
 857:VS4210/SysTimer.c ****             break;
 858:VS4210/SysTimer.c **** #endif // End of #if(_AUDIO_SUPPORT == _ON)
 859:VS4210/SysTimer.c **** 
 860:VS4210/SysTimer.c **** #if (_DP_SUPPORT == _ON)
 861:VS4210/SysTimer.c ****         case _SCALER_TIMER_EVENT_DP_HOTPLUG_ASSERTED:
 862:VS4210/SysTimer.c ****             ScalerDpHotPlugEvent(_DP_HPD_ASSERTED);
 863:VS4210/SysTimer.c ****             break;
 864:VS4210/SysTimer.c **** 
 865:VS4210/SysTimer.c ****         case _SCALER_TIMER_EVENT_DP_HDCP_LONG_HOTPLUG_EVENT:
 866:VS4210/SysTimer.c ****             ScalerDpHotPlugEvent(_DP_HDCP_LONG_HPD_EVENT);
 867:VS4210/SysTimer.c ****             break;
 868:VS4210/SysTimer.c **** 
 869:VS4210/SysTimer.c ****         case _SCALER_TIMER_EVENT_DP_LINK_STATUS_IRQ:
 870:VS4210/SysTimer.c ****             ScalerDpLinkStatusIRQ();
 871:VS4210/SysTimer.c ****             break;
 872:VS4210/SysTimer.c **** #endif
 873:VS4210/SysTimer.c **** 
 874:VS4210/SysTimer.c **** #if ((_D2_INPUT_PORT_SWITCH_FROM == _SWITCH_FROM_D0) || (_D3_INPUT_PORT_SWITCH_FROM == _SWITCH_FROM
 875:VS4210/SysTimer.c ****         case _SCALER_TIMER_EVENT_D0_PORT_DIGITAL_SWITCH:
 876:VS4210/SysTimer.c ****             SET_D0_PORT_DIGITAL_SWITCH();
 877:VS4210/SysTimer.c ****             break;
 878:VS4210/SysTimer.c **** #endif
 879:VS4210/SysTimer.c **** 
 880:VS4210/SysTimer.c **** #if ((_D2_INPUT_PORT_SWITCH_FROM == _SWITCH_FROM_D1) || (_D3_INPUT_PORT_SWITCH_FROM == _SWITCH_FROM
 881:VS4210/SysTimer.c ****         case _SCALER_TIMER_EVENT_D1_PORT_DIGITAL_SWITCH:
 882:VS4210/SysTimer.c ****             SET_D1_PORT_DIGITAL_SWITCH();
 883:VS4210/SysTimer.c ****             break;
 884:VS4210/SysTimer.c **** #endif
 885:VS4210/SysTimer.c **** 
 886:VS4210/SysTimer.c **** #if ((_VGA_SUPPORT == _ON) && (_ADCNR_BY_HISTOGRAM_SUPPORT == _ON))
 887:VS4210/SysTimer.c ****         case _SCALER_TIMER_EVENT_NR_DETECTION_FINISHED:
 888:VS4210/SysTimer.c ****             ScalerNrTimerEvent();
 889:VS4210/SysTimer.c ****             break;
 890:VS4210/SysTimer.c **** #endif
 891:VS4210/SysTimer.c **** 
 892:VS4210/SysTimer.c **** #if (_SDRAM_PHASE_CALIBRATION == _ON)
 893:VS4210/SysTimer.c ****         case _SCALER_TIMER_EVENT_PHASE_CALIBRATION: 
 894:VS4210/SysTimer.c ****             ScalerSDRAMPhaseOnLineTimer();
 895:VS4210/SysTimer.c ****             break;
 896:VS4210/SysTimer.c **** 
 897:VS4210/SysTimer.c ****         case _SCALER_TIMER_EVENT_PHASE_CNT_CHECK:
 898:VS4210/SysTimer.c **** 
 899:VS4210/SysTimer.c ****             // Check phase count every 60 minute
 900:VS4210/SysTimer.c ****             ScalerSDRAMPhaseCntCheck(60);
 901:VS4210/SysTimer.c ****             break;
 902:VS4210/SysTimer.c **** #endif
ARM GAS  C:\Users\ryanc.HS\AppData\Local\Temp\ccysXWgI.s 			page 44


 903:VS4210/SysTimer.c **** 
 904:VS4210/SysTimer.c **** #if (_D0_INPUT_PORT_TYPE == _D0_MHL_PORT)
 905:VS4210/SysTimer.c ****         case _SCALER_TIMER_EVENT_MHL_D0_READY_TO_TRANSMIT:
 906:VS4210/SysTimer.c **** 
 907:VS4210/SysTimer.c ****             SET_MHL_READY_TO_TRANSMIT(0, _TRUE);
 908:VS4210/SysTimer.c ****             break;
 909:VS4210/SysTimer.c **** 
 910:VS4210/SysTimer.c ****         case _SCALER_TIMER_EVENT_MHL_D0_READY_TO_RESEND:
 911:VS4210/SysTimer.c **** 
 912:VS4210/SysTimer.c ****             SET_MHL_READY_TO_RESEND(0, _TRUE);
 913:VS4210/SysTimer.c ****             break;
 914:VS4210/SysTimer.c **** 
 915:VS4210/SysTimer.c ****         case _SCALER_TIMER_EVENT_MHL_D0_RECONNECT_1K:
 916:VS4210/SysTimer.c **** 
 917:VS4210/SysTimer.c **** #if (_D0_CBUS_CHANNEL_SEL == _CBUS0)
 918:VS4210/SysTimer.c ****             if(((ScalerGetByte(P28_A7_CBUS0_CTRL_07) & 0x38) >> 3) == 0x02)
 919:VS4210/SysTimer.c ****             {
 920:VS4210/SysTimer.c ****                 ScalerSetBit(P28_A8_CBUS0_CTRL_08, ~_BIT5, 0x00);
 921:VS4210/SysTimer.c ****                 MCUTimerDelayXms(52);
 922:VS4210/SysTimer.c ****                 ScalerSetBit(P28_A8_CBUS0_CTRL_08, ~_BIT5, _BIT5);
 923:VS4210/SysTimer.c ****             }
 924:VS4210/SysTimer.c **** #elif (_D0_CBUS_CHANNEL_SEL == _CBUS1)
 925:VS4210/SysTimer.c ****             if(((ScalerGetByte(P29_A7_CBUS1_CTRL_07) & 0x38) >> 3) == 0x02)
 926:VS4210/SysTimer.c ****             {
 927:VS4210/SysTimer.c ****                 ScalerSetBit(P29_A8_CBUS1_CTRL_08, ~_BIT5, 0x00);
 928:VS4210/SysTimer.c ****                 MCUTimerDelayXms(52);
 929:VS4210/SysTimer.c ****                 ScalerSetBit(P29_A8_CBUS1_CTRL_08, ~_BIT5, _BIT5);
 930:VS4210/SysTimer.c ****             }
 931:VS4210/SysTimer.c **** #endif
 932:VS4210/SysTimer.c **** 
 933:VS4210/SysTimer.c ****             break;
 934:VS4210/SysTimer.c **** 
 935:VS4210/SysTimer.c ****         case _SCALER_TIMER_EVENT_MHL_D0_ACTIVE_VBUS:
 936:VS4210/SysTimer.c **** 
 937:VS4210/SysTimer.c ****             if(GET_D0_TMDS_MODE() == _TMDS_MHL_MODE)
 938:VS4210/SysTimer.c ****             {
 939:VS4210/SysTimer.c ****                 // GPIO Select to Hot Plug
 940:VS4210/SysTimer.c **** #if (_D0_CBUS_CHANNEL_SEL == _CBUS0)
 941:VS4210/SysTimer.c ****                 ScalerSetBit(P27_A0_CBUS_EN, ~_BIT4, 0x00);
 942:VS4210/SysTimer.c **** #elif (_D0_CBUS_CHANNEL_SEL == _CBUS1)
 943:VS4210/SysTimer.c ****                 ScalerSetBit(P27_A0_CBUS_EN, ~_BIT5, 0x00);
 944:VS4210/SysTimer.c **** #endif
 945:VS4210/SysTimer.c ****                 SET_D0_MHL_VBUS_SWITCH(_MHL_VBUS_ON);
 946:VS4210/SysTimer.c ****             }
 947:VS4210/SysTimer.c ****             
 948:VS4210/SysTimer.c ****             break;
 949:VS4210/SysTimer.c **** #endif // End of #if(_D0_INPUT_PORT_TYPE == _D0_MHL_PORT)
 950:VS4210/SysTimer.c **** 
 951:VS4210/SysTimer.c **** #if (_D1_INPUT_PORT_TYPE == _D1_MHL_PORT)
 952:VS4210/SysTimer.c ****         case _SCALER_TIMER_EVENT_MHL_D1_READY_TO_TRANSMIT:
 953:VS4210/SysTimer.c **** 
 954:VS4210/SysTimer.c **** #if (_D0_INPUT_PORT_TYPE == _D0_MHL_PORT)
 955:VS4210/SysTimer.c ****             SET_MHL_READY_TO_TRANSMIT(1, _TRUE);
 956:VS4210/SysTimer.c **** #else
 957:VS4210/SysTimer.c ****             SET_MHL_READY_TO_TRANSMIT(0, _TRUE);
 958:VS4210/SysTimer.c **** #endif
 959:VS4210/SysTimer.c **** 
ARM GAS  C:\Users\ryanc.HS\AppData\Local\Temp\ccysXWgI.s 			page 45


 960:VS4210/SysTimer.c ****             break;
 961:VS4210/SysTimer.c **** 
 962:VS4210/SysTimer.c ****         case _SCALER_TIMER_EVENT_MHL_D1_READY_TO_RESEND:
 963:VS4210/SysTimer.c **** 
 964:VS4210/SysTimer.c **** #if (_D0_INPUT_PORT_TYPE == _D0_MHL_PORT)
 965:VS4210/SysTimer.c ****             SET_MHL_READY_TO_RESEND(1, _TRUE);
 966:VS4210/SysTimer.c **** #else
 967:VS4210/SysTimer.c ****             SET_MHL_READY_TO_RESEND(0, _TRUE);
 968:VS4210/SysTimer.c **** #endif
 969:VS4210/SysTimer.c **** 
 970:VS4210/SysTimer.c ****             break;
 971:VS4210/SysTimer.c ****      
 972:VS4210/SysTimer.c ****         case _SCALER_TIMER_EVENT_MHL_D1_RECONNECT_1K:
 973:VS4210/SysTimer.c **** 
 974:VS4210/SysTimer.c **** #if (_D1_CBUS_CHANNEL_SEL == _CBUS0)
 975:VS4210/SysTimer.c ****             if(((ScalerGetByte(P28_A7_CBUS0_CTRL_07) & 0x38) >> 3) == 0x02)
 976:VS4210/SysTimer.c ****             {
 977:VS4210/SysTimer.c ****                 ScalerSetBit(P28_A8_CBUS0_CTRL_08, ~_BIT5, 0x00);
 978:VS4210/SysTimer.c ****                 MCUTimerDelayXms(52);
 979:VS4210/SysTimer.c ****                 ScalerSetBit(P28_A8_CBUS0_CTRL_08, ~_BIT5, _BIT5);
 980:VS4210/SysTimer.c ****             }
 981:VS4210/SysTimer.c **** #elif (_D1_CBUS_CHANNEL_SEL == _CBUS1)
 982:VS4210/SysTimer.c ****             if(((ScalerGetByte(P29_A7_CBUS1_CTRL_07) & 0x38) >> 3) == 0x02)
 983:VS4210/SysTimer.c ****             {
 984:VS4210/SysTimer.c ****                 ScalerSetBit(P29_A8_CBUS1_CTRL_08, ~_BIT5, 0x00);
 985:VS4210/SysTimer.c ****                 MCUTimerDelayXms(52);
 986:VS4210/SysTimer.c ****                 ScalerSetBit(P29_A8_CBUS1_CTRL_08, ~_BIT5, _BIT5);
 987:VS4210/SysTimer.c ****             }
 988:VS4210/SysTimer.c **** #endif
 989:VS4210/SysTimer.c **** 
 990:VS4210/SysTimer.c ****             break;
 991:VS4210/SysTimer.c **** 
 992:VS4210/SysTimer.c ****         case _SCALER_TIMER_EVENT_MHL_D1_ACTIVE_VBUS:
 993:VS4210/SysTimer.c **** 
 994:VS4210/SysTimer.c ****             if(GET_D1_TMDS_MODE() == _TMDS_MHL_MODE)
 995:VS4210/SysTimer.c ****             {
 996:VS4210/SysTimer.c ****                 // GPIO Select to Hot Plug
 997:VS4210/SysTimer.c **** #if (_D1_CBUS_CHANNEL_SEL == _CBUS0)
 998:VS4210/SysTimer.c ****                 ScalerSetBit(P27_A0_CBUS_EN, ~_BIT4, 0x00);
 999:VS4210/SysTimer.c **** #elif (_D1_CBUS_CHANNEL_SEL == _CBUS1)
1000:VS4210/SysTimer.c ****                 ScalerSetBit(P27_A0_CBUS_EN, ~_BIT5, 0x00);
1001:VS4210/SysTimer.c **** #endif
1002:VS4210/SysTimer.c ****  
1003:VS4210/SysTimer.c ****                 SET_D1_MHL_VBUS_SWITCH(_MHL_VBUS_ON);
1004:VS4210/SysTimer.c ****             }
1005:VS4210/SysTimer.c ****             
1006:VS4210/SysTimer.c ****             break;
1007:VS4210/SysTimer.c **** #endif // End of #if(_D1_INPUT_PORT_TYPE == _D1_MHL_PORT)
1008:VS4210/SysTimer.c **** 
1009:VS4210/SysTimer.c **** #if ((_DCC_HISTOGRM_INFO == _ON) && (_DCC_HISTOGRAM_THD_CHANGE == _ON))
1010:VS4210/SysTimer.c ****         case _SCALER_TIMER_EVENT_DCC_HISTOGRAM_THD_CHANGE:
1011:VS4210/SysTimer.c ****             ScalerColorDCCChangeHistogramThd();            
1012:VS4210/SysTimer.c ****             MCUTimerReactiveTimerEvent((WORD)(((DWORD)_PANEL_DH_TOTAL * _PANEL_DV_TOTAL * 2) / GET_
1013:VS4210/SysTimer.c **** 
1014:VS4210/SysTimer.c ****             break;
1015:VS4210/SysTimer.c **** #endif
1016:VS4210/SysTimer.c **** 
ARM GAS  C:\Users\ryanc.HS\AppData\Local\Temp\ccysXWgI.s 			page 46


1017:VS4210/SysTimer.c ****         default:
1018:VS4210/SysTimer.c ****             break;
1019:VS4210/SysTimer.c ****     }
1020:VS4210/SysTimer.c **** #endif
1021:VS4210/SysTimer.c **** }
 1387              		.loc 1 1021 1 is_stmt 0 view .LVU316
 1388 0000 7047     		bx	lr
 1389              		.cfi_endproc
 1390              	.LFE82:
 1392              		.section	.rodata.SysTimerEventProc.str1.4,"aMS",%progbits,1
 1393              		.align	2
 1394              	.LC14:
 1395 0000 28537461 		.ascii	"(StartupBatteryCAP=(%d.%02dV))\015\012\000"
 1395      72747570 
 1395      42617474 
 1395      65727943 
 1395      41503D28 
 1396 0021 000000   		.align	2
 1397              	.LC15:
 1398 0024 28426174 		.ascii	"(BatteryCAP=%d(%d.%02dV))\015\012\000"
 1398      74657279 
 1398      4341503D 
 1398      25642825 
 1398      642E2530 
 1399              		.align	2
 1400              	.LC16:
 1401 0040 0D0A504F 		.ascii	"\015\012POWER key pressed\000"
 1401      57455220 
 1401      6B657920 
 1401      70726573 
 1401      73656400 
 1402              		.align	2
 1403              	.LC17:
 1404 0054 0D0A2857 		.ascii	"\015\012(WDT kick over 10Second, Reboot DVR)\000"
 1404      4454206B 
 1404      69636B20 
 1404      6F766572 
 1404      20313053 
 1405 007b 00       		.align	2
 1406              	.LC18:
 1407 007c 28424154 		.ascii	"(BATT_MODE)\000"
 1407      545F4D4F 
 1407      44452900 
 1408              		.align	2
 1409              	.LC19:
 1410 0088 28415554 		.ascii	"(AUTO_SLEEPING_TIMEOUT)\000"
 1410      4F5F534C 
 1410      45455049 
 1410      4E475F54 
 1410      494D454F 
 1411              		.align	2
 1412              	.LC20:
 1413 00a0 28656E74 		.ascii	"(enter standbye mode)\000"
 1413      65722073 
 1413      74616E64 
 1413      62796520 
 1413      6D6F6465 
ARM GAS  C:\Users\ryanc.HS\AppData\Local\Temp\ccysXWgI.s 			page 47


 1414 00b6 0000     		.align	2
 1415              	.LC21:
 1416 00b8 28424F4F 		.ascii	"(BOOT_ISSUE=0)\015\012\000"
 1416      545F4953 
 1416      5355453D 
 1416      30290D0A 
 1416      00
 1417 00c9 000000   		.align	2
 1418              	.LC22:
 1419 00cc 284B4559 		.ascii	"(KEYC)\000"
 1419      432900
 1420 00d3 00       		.align	2
 1421              	.LC23:
 1422 00d4 28455129 		.ascii	"(EQ)\000"
 1422      00
 1423 00d9 000000   		.align	2
 1424              	.LC24:
 1425 00dc 28627974 		.ascii	"(bytStandByModeToTriggerMode)\000"
 1425      5374616E 
 1425      6442794D 
 1425      6F646554 
 1425      6F547269 
 1426 00fa 0000     		.align	2
 1427              	.LC25:
 1428 00fc 285F5359 		.ascii	"(_SYSTEM_TIMER_EVENT_CAMRD_CHANGE)\000"
 1428      5354454D 
 1428      5F54494D 
 1428      45525F45 
 1428      56454E54 
 1429 011f 00       		.align	2
 1430              	.LC26:
 1431 0120 0D0A2841 		.ascii	"\015\012(AudioMute(OFF))\015\012\000"
 1431      7564696F 
 1431      4D757465 
 1431      284F4646 
 1431      29290D0A 
 1432 0135 000000   		.align	2
 1433              	.LC27:
 1434 0138 28544F55 		.ascii	"(TOUCH_ACTION_0)\000"
 1434      43485F41 
 1434      4354494F 
 1434      4E5F3029 
 1434      00
 1435 0149 000000   		.align	2
 1436              	.LC28:
 1437 014c 28544F55 		.ascii	"(TOUCH_ACTION_1)\000"
 1437      43485F41 
 1437      4354494F 
 1437      4E5F3129 
 1437      00
 1438 015d 000000   		.align	2
 1439              	.LC29:
 1440 0160 28544F55 		.ascii	"(TOUCH_ACTION_2)\000"
 1440      43485F41 
 1440      4354494F 
 1440      4E5F3229 
 1440      00
ARM GAS  C:\Users\ryanc.HS\AppData\Local\Temp\ccysXWgI.s 			page 48


 1441 0171 000000   		.align	2
 1442              	.LC30:
 1443 0174 28544F55 		.ascii	"(TOUCH_ACTION_3)\000"
 1443      43485F41 
 1443      4354494F 
 1443      4E5F3329 
 1443      00
 1444 0185 000000   		.align	2
 1445              	.LC31:
 1446 0188 28736C69 		.ascii	"(slider_event=_FALSE)\000"
 1446      6465725F 
 1446      6576656E 
 1446      743D5F46 
 1446      414C5345 
 1447              		.section	.text.SysTimerEventProc,"ax",%progbits
 1448              		.align	1
 1449              		.global	SysTimerEventProc
 1450              		.syntax unified
 1451              		.thumb
 1452              		.thumb_func
 1453              		.fpu softvfp
 1455              	SysTimerEventProc:
 1456              	.LVL130:
 1457              	.LFB84:
1022:VS4210/SysTimer.c **** 
1023:VS4210/SysTimer.c **** //--------------------------------------------------
1024:VS4210/SysTimer.c **** // Description  : Timer Handler
1025:VS4210/SysTimer.c **** // Input Value  : None
1026:VS4210/SysTimer.c **** // Output Value : None
1027:VS4210/SysTimer.c **** //--------------------------------------------------
1028:VS4210/SysTimer.c **** void SysTimerHandler(void)
1029:VS4210/SysTimer.c **** {
1030:VS4210/SysTimer.c **** 	BYTE ucTimerEventIndex = 0;
1031:VS4210/SysTimer.c **** 	BYTE ucTimerEventID = 0;
1032:VS4210/SysTimer.c **** 	WORD usPresentTime = 0;
1033:VS4210/SysTimer.c **** 
1034:VS4210/SysTimer.c **** 	for (ucTimerEventIndex = 0; ucTimerEventIndex < _TIMER_EVENT_COUNT; ucTimerEventIndex++)
1035:VS4210/SysTimer.c **** 	{
1036:VS4210/SysTimer.c **** 		usPresentTime = MCUTimerGetTimerCounter();
1037:VS4210/SysTimer.c **** 
1038:VS4210/SysTimer.c **** 		if (MCUTimerCheckEventValid(ucTimerEventIndex) == _FALSE)
1039:VS4210/SysTimer.c **** 		{
1040:VS4210/SysTimer.c **** 			continue;
1041:VS4210/SysTimer.c **** 		}
1042:VS4210/SysTimer.c **** 
1043:VS4210/SysTimer.c **** 		if (usPresentTime > MCUTimerGetEventTime(ucTimerEventIndex))
1044:VS4210/SysTimer.c **** 		{
1045:VS4210/SysTimer.c **** 			MCUTimerClrEventValid(ucTimerEventIndex);
1046:VS4210/SysTimer.c **** 
1047:VS4210/SysTimer.c **** 			// Get Event ID From Event Index
1048:VS4210/SysTimer.c **** 			ucTimerEventID = MCUTimerGetEventID(ucTimerEventIndex);
1049:VS4210/SysTimer.c **** 
1050:VS4210/SysTimer.c **** 			if (ucTimerEventID < _USER_TIMER_EVENT_END)
1051:VS4210/SysTimer.c **** 			{
1052:VS4210/SysTimer.c **** 				UserInterfaceTimerEventProc(ucTimerEventID);
1053:VS4210/SysTimer.c **** 
1054:VS4210/SysTimer.c **** 				continue;
ARM GAS  C:\Users\ryanc.HS\AppData\Local\Temp\ccysXWgI.s 			page 49


1055:VS4210/SysTimer.c **** 			}
1056:VS4210/SysTimer.c **** 
1057:VS4210/SysTimer.c **** 			if (ucTimerEventID < _SYSTEM_TIMER_EVENT_END)
1058:VS4210/SysTimer.c **** 			{
1059:VS4210/SysTimer.c **** 				SysTimerEventProc(ucTimerEventID);
1060:VS4210/SysTimer.c **** 
1061:VS4210/SysTimer.c **** 				continue;
1062:VS4210/SysTimer.c **** 			}
1063:VS4210/SysTimer.c **** 
1064:VS4210/SysTimer.c **** 			//   MCUTimerEventProc(ucTimerEventID);
1065:VS4210/SysTimer.c **** 		}
1066:VS4210/SysTimer.c **** 	}
1067:VS4210/SysTimer.c **** }
1068:VS4210/SysTimer.c **** 
1069:VS4210/SysTimer.c **** //--------------------------------------------------
1070:VS4210/SysTimer.c **** // Description  : Timer Event Process
1071:VS4210/SysTimer.c **** // Input Value  : enumEventID --> Event to be processed
1072:VS4210/SysTimer.c **** // Output Value : None
1073:VS4210/SysTimer.c **** //--------------------------------------------------
1074:VS4210/SysTimer.c **** BYTE led_Flag = 0;
1075:VS4210/SysTimer.c **** void SysTimerEventProc(EnumSystemTimerEventID enumEventID)
1076:VS4210/SysTimer.c **** {
 1458              		.loc 1 1076 1 is_stmt 1 view -0
 1459              		.cfi_startproc
 1460              		@ args = 0, pretend = 0, frame = 8
 1461              		@ frame_needed = 0, uses_anonymous_args = 0
 1462              		.loc 1 1076 1 is_stmt 0 view .LVU318
 1463 0000 30B5     		push	{r4, r5, lr}
 1464              	.LCFI9:
 1465              		.cfi_def_cfa_offset 12
 1466              		.cfi_offset 4, -12
 1467              		.cfi_offset 5, -8
 1468              		.cfi_offset 14, -4
 1469 0002 85B0     		sub	sp, sp, #20
 1470              	.LCFI10:
 1471              		.cfi_def_cfa_offset 32
1077:VS4210/SysTimer.c **** 	// WORD val1,val2;
1078:VS4210/SysTimer.c **** 	BYTE cam_change[4] = {0, 2, 3, 1};
 1472              		.loc 1 1078 2 is_stmt 1 view .LVU319
 1473              		.loc 1 1078 7 is_stmt 0 view .LVU320
 1474 0004 A94B     		ldr	r3, .L196
 1475 0006 0393     		str	r3, [sp, #12]
1079:VS4210/SysTimer.c **** #if (_DEBUG_MESSAGE_LIGHTSENSOR == ON)
1080:VS4210/SysTimer.c **** // BYTE ADCL,ADCH;
1081:VS4210/SysTimer.c **** #endif
1082:VS4210/SysTimer.c **** 	switch (enumEventID)
 1476              		.loc 1 1082 2 is_stmt 1 view .LVU321
 1477 0008 2238     		subs	r0, r0, #34
 1478              	.LVL131:
 1479              		.loc 1 1082 2 is_stmt 0 view .LVU322
 1480 000a 2C28     		cmp	r0, #44
 1481 000c 39D8     		bhi	.L125
 1482 000e DFE810F0 		tbh	[pc, r0, lsl #1]
 1483              	.L128:
 1484 0012 2D00     		.2byte	(.L165-.L128)/2
 1485 0014 3A00     		.2byte	(.L164-.L128)/2
 1486 0016 9600     		.2byte	(.L163-.L128)/2
ARM GAS  C:\Users\ryanc.HS\AppData\Local\Temp\ccysXWgI.s 			page 50


 1487 0018 3800     		.2byte	(.L125-.L128)/2
 1488 001a A000     		.2byte	(.L162-.L128)/2
 1489 001c 9C00     		.2byte	(.L161-.L128)/2
 1490 001e 3800     		.2byte	(.L125-.L128)/2
 1491 0020 AF00     		.2byte	(.L160-.L128)/2
 1492 0022 3800     		.2byte	(.L125-.L128)/2
 1493 0024 3800     		.2byte	(.L125-.L128)/2
 1494 0026 A600     		.2byte	(.L159-.L128)/2
 1495 0028 5E00     		.2byte	(.L158-.L128)/2
 1496 002a 6200     		.2byte	(.L157-.L128)/2
 1497 002c 6600     		.2byte	(.L156-.L128)/2
 1498 002e 6A00     		.2byte	(.L155-.L128)/2
 1499 0030 7200     		.2byte	(.L154-.L128)/2
 1500 0032 7B00     		.2byte	(.L153-.L128)/2
 1501 0034 8400     		.2byte	(.L152-.L128)/2
 1502 0036 6E00     		.2byte	(.L151-.L128)/2
 1503 0038 3800     		.2byte	(.L125-.L128)/2
 1504 003a 8D00     		.2byte	(.L150-.L128)/2
 1505 003c 2F01     		.2byte	(.L149-.L128)/2
 1506 003e 4101     		.2byte	(.L148-.L128)/2
 1507 0040 3501     		.2byte	(.L147-.L128)/2
 1508 0042 8301     		.2byte	(.L146-.L128)/2
 1509 0044 B601     		.2byte	(.L145-.L128)/2
 1510 0046 1A02     		.2byte	(.L144-.L128)/2
 1511 0048 2702     		.2byte	(.L143-.L128)/2
 1512 004a 0E01     		.2byte	(.L142-.L128)/2
 1513 004c 3002     		.2byte	(.L141-.L128)/2
 1514 004e 1601     		.2byte	(.L140-.L128)/2
 1515 0050 3702     		.2byte	(.L139-.L128)/2
 1516 0052 3F02     		.2byte	(.L138-.L128)/2
 1517 0054 5302     		.2byte	(.L137-.L128)/2
 1518 0056 5B02     		.2byte	(.L136-.L128)/2
 1519 0058 3800     		.2byte	(.L125-.L128)/2
 1520 005a 3800     		.2byte	(.L125-.L128)/2
 1521 005c 6702     		.2byte	(.L135-.L128)/2
 1522 005e 6302     		.2byte	(.L134-.L128)/2
 1523 0060 1F01     		.2byte	(.L133-.L128)/2
 1524 0062 1A01     		.2byte	(.L132-.L128)/2
 1525 0064 0801     		.2byte	(.L131-.L128)/2
 1526 0066 0401     		.2byte	(.L130-.L128)/2
 1527 0068 B300     		.2byte	(.L129-.L128)/2
 1528 006a E200     		.2byte	(.L127-.L128)/2
 1529              		.p2align 1
 1530              	.L165:
1083:VS4210/SysTimer.c **** 	{
1084:VS4210/SysTimer.c **** 	case _SYSTEM_TIMER_EVENT_TEST:
1085:VS4210/SysTimer.c **** 		RS2_tx('>');
 1531              		.loc 1 1085 3 is_stmt 1 view .LVU323
 1532 006c 3E20     		movs	r0, #62
 1533 006e FFF7FEFF 		bl	RS2_tx
 1534              	.LVL132:
1086:VS4210/SysTimer.c **** 		RS_tx('>');
 1535              		.loc 1 1086 3 view .LVU324
 1536 0072 3E20     		movs	r0, #62
 1537 0074 FFF7FEFF 		bl	RS_tx
 1538              	.LVL133:
1087:VS4210/SysTimer.c **** 		MCUTimerActiveTimerEvent(SEC(0.5), _SYSTEM_TIMER_EVENT_TEST);
ARM GAS  C:\Users\ryanc.HS\AppData\Local\Temp\ccysXWgI.s 			page 51


 1539              		.loc 1 1087 3 view .LVU325
 1540 0078 2221     		movs	r1, #34
 1541 007a 4FF4FA70 		mov	r0, #500
 1542 007e FFF7FEFF 		bl	MCUTimerActiveTimerEvent
 1543              	.LVL134:
1088:VS4210/SysTimer.c **** 		break;
 1544              		.loc 1 1088 3 view .LVU326
 1545              	.L125:
1089:VS4210/SysTimer.c **** 	case _SYSTEM_TIMER_CHECK_BAT_VOLTAGE:
1090:VS4210/SysTimer.c **** 		GET_LTC2451(0);
1091:VS4210/SysTimer.c **** /*
1092:VS4210/SysTimer.c **** BAT_ADC=GET_LTC2451(0);
1093:VS4210/SysTimer.c **** val1=((BAT_ADC/10)*5)/10;
1094:VS4210/SysTimer.c **** val2=((BAT_ADC%10)*5)/100;
1095:VS4210/SysTimer.c **** val1=((val1+val2)*(75))/100;
1096:VS4210/SysTimer.c **** BAT_VOLTAGE=val1;
1097:VS4210/SysTimer.c **** */
1098:VS4210/SysTimer.c **** #if 0
1099:VS4210/SysTimer.c **** 	val=((((BAT_VOLTAGE*59)/*-800*/)/100))+((((BAT_VOLTAGE*59)/*-800*/)/100))+((((BAT_VOLTAGE*59)/*-80
1100:VS4210/SysTimer.c **** 	
1101:VS4210/SysTimer.c **** 	if((val/1000))
1102:VS4210/SysTimer.c **** 		val=(val/10)+1;
1103:VS4210/SysTimer.c **** 		else 
1104:VS4210/SysTimer.c **** 		val=(val/10);
1105:VS4210/SysTimer.c **** #endif
1106:VS4210/SysTimer.c **** 
1107:VS4210/SysTimer.c **** #if 0	
1108:VS4210/SysTimer.c **** 	GraphicsPrint(MAGENTA,"(BatteryCAP=%d(%d.%04dV))",(WORD)BAT_VOLTAGE\
1109:VS4210/SysTimer.c **** 			,(WORD)(((BAT_VOLTAGE/10)*(5/*32+1*/))/10000)\
1110:VS4210/SysTimer.c **** 			,(WORD)((((BAT_VOLTAGE/10)*(5/*32+1*/))/*-200*/)%10000));
1111:VS4210/SysTimer.c **** #endif
1112:VS4210/SysTimer.c **** 
1113:VS4210/SysTimer.c **** 		GraphicsPrint(GREEN, "(StartupBatteryCAP=(%d.%02dV))\r\n", (WORD)(BAT_StartupVOLT / 100), (WORD)(
1114:VS4210/SysTimer.c **** 
1115:VS4210/SysTimer.c **** 		GraphicsPrint(MAGENTA, "(BatteryCAP=%d(%d.%02dV))\r\n", (WORD)BAT_ADC, (WORD)(BAT_VOLTAGE / 100),
1116:VS4210/SysTimer.c **** 
1117:VS4210/SysTimer.c **** 		MCUTimerActiveTimerEvent(SEC(3), _SYSTEM_TIMER_CHECK_BAT_VOLTAGE);
1118:VS4210/SysTimer.c **** 		break;
1119:VS4210/SysTimer.c **** 
1120:VS4210/SysTimer.c **** 	case _SYSTEM_TIMER_EVENT_GRN_ON:
1121:VS4210/SysTimer.c **** 		PowerLED(_SYSTEM_TIMER_EVENT_GRN_ON);
1122:VS4210/SysTimer.c **** 		break;
1123:VS4210/SysTimer.c **** 	case _SYSTEM_TIMER_EVENT_GRN_OFF:
1124:VS4210/SysTimer.c **** 		PowerLED(_SYSTEM_TIMER_EVENT_GRN_OFF);
1125:VS4210/SysTimer.c **** 		break;
1126:VS4210/SysTimer.c **** 	case _SYSTEM_TIMER_EVENT_RED_ON:
1127:VS4210/SysTimer.c **** 		PowerLED(_SYSTEM_TIMER_EVENT_RED_ON);
1128:VS4210/SysTimer.c **** 		break;
1129:VS4210/SysTimer.c **** 	case _SYSTEM_TIMER_EVENT_RED_OFF:
1130:VS4210/SysTimer.c **** 		PowerLED(_SYSTEM_TIMER_EVENT_RED_OFF);
1131:VS4210/SysTimer.c **** 		break;
1132:VS4210/SysTimer.c **** 	case _SYSTEM_TIMER_EVENT_GRN_RED_ON:
1133:VS4210/SysTimer.c **** 		PowerLED(_SYSTEM_TIMER_EVENT_GRN_RED_ON);
1134:VS4210/SysTimer.c **** 		break;
1135:VS4210/SysTimer.c **** 	case _SYSTEM_TIMER_EVENT_GRN_BLINK:
1136:VS4210/SysTimer.c **** 		PowerLED(_SYSTEM_TIMER_EVENT_GRN_BLINK);
1137:VS4210/SysTimer.c **** 		MCUTimerActiveTimerEvent(SEC(1), _SYSTEM_TIMER_EVENT_GRN_BLINK);
ARM GAS  C:\Users\ryanc.HS\AppData\Local\Temp\ccysXWgI.s 			page 52


1138:VS4210/SysTimer.c **** 
1139:VS4210/SysTimer.c **** 		break;
1140:VS4210/SysTimer.c **** 	case _SYSTEM_TIMER_EVENT_RED_BLINK:
1141:VS4210/SysTimer.c **** 		PowerLED(_SYSTEM_TIMER_EVENT_RED_BLINK);
1142:VS4210/SysTimer.c **** 		MCUTimerActiveTimerEvent(SEC(1), _SYSTEM_TIMER_EVENT_RED_BLINK);
1143:VS4210/SysTimer.c **** 
1144:VS4210/SysTimer.c **** 		break;
1145:VS4210/SysTimer.c **** 	case _SYSTEM_TIMER_EVENT_GRN_RED_BLINK:
1146:VS4210/SysTimer.c **** 		PowerLED(_SYSTEM_TIMER_EVENT_GRN_RED_BLINK);
1147:VS4210/SysTimer.c **** 		MCUTimerActiveTimerEvent(SEC(1), _SYSTEM_TIMER_EVENT_GRN_RED_BLINK);
1148:VS4210/SysTimer.c **** 
1149:VS4210/SysTimer.c **** 		break;
1150:VS4210/SysTimer.c **** 	case _SYSTEM_TIMER_EVENT_GRN_ON_RED_BLINK:
1151:VS4210/SysTimer.c **** 		PowerLED(_SYSTEM_TIMER_EVENT_GRN_ON_RED_BLINK);
1152:VS4210/SysTimer.c **** 		MCUTimerActiveTimerEvent(SEC(1), _SYSTEM_TIMER_EVENT_GRN_ON_RED_BLINK);
1153:VS4210/SysTimer.c **** 
1154:VS4210/SysTimer.c **** 		break;
1155:VS4210/SysTimer.c **** 	case _SYSTEM_TIMER_EVENT_JUDGE_BATT_STATE:
1156:VS4210/SysTimer.c **** 		/*
1157:VS4210/SysTimer.c **** 	SET_BATTERY_CAPACITY(GetBatteryVoltage());
1158:VS4210/SysTimer.c **** 		   if(GET_BATTERY_CAPACITY()<10)
1159:VS4210/SysTimer.c **** 			SET_BATTERY_STATE(_BATT_STATUS_AC_MODE);
1160:VS4210/SysTimer.c **** 		else if(GET_BATTERY_CAPACITY()<256)
1161:VS4210/SysTimer.c **** 			SET_BATTERY_STATE(_BATT_STATUS_CAPACITY_LEVEL1);
1162:VS4210/SysTimer.c **** 		else if((GET_BATTERY_CAPACITY()>256)&&(GET_BATTERY_CAPACITY()<512))
1163:VS4210/SysTimer.c **** 			SET_BATTERY_STATE(_BATT_STATUS_CAPACITY_LEVEL2);
1164:VS4210/SysTimer.c **** 		else if((GET_BATTERY_CAPACITY()>512)&&(GET_BATTERY_CAPACITY()<768))
1165:VS4210/SysTimer.c **** 			SET_BATTERY_STATE(_BATT_STATUS_CAPACITY_LEVEL3);
1166:VS4210/SysTimer.c **** 		else
1167:VS4210/SysTimer.c **** 			SET_BATTERY_STATE(_BATT_STATUS_CAPACITY_LEVEL4);
1168:VS4210/SysTimer.c **** 
1169:VS4210/SysTimer.c **** 		//BATERY_STAT=GET_BATTERY_STATE();
1170:VS4210/SysTimer.c **** 		MCU_SendCmdToDVR(MCU_PROTOCOL_CMD_REGULAR_DATA);
1171:VS4210/SysTimer.c **** 		*/
1172:VS4210/SysTimer.c **** 		MCUTimerActiveTimerEvent(SEC(5), _SYSTEM_TIMER_EVENT_JUDGE_BATT_STATE);
1173:VS4210/SysTimer.c **** 		break;
1174:VS4210/SysTimer.c **** 	case _SYSTEM_TIMER_EVENT_JUDGE_PSW_STATE:
1175:VS4210/SysTimer.c **** 		DEBUG_MESSAGE("\r\nPOWER key pressed");
1176:VS4210/SysTimer.c **** 		break;
1177:VS4210/SysTimer.c **** 	case _SYSTEM_TIMER_EVENT_JUDGE_BTH_STATE:
1178:VS4210/SysTimer.c **** 		// Printf("(BTH)");
1179:VS4210/SysTimer.c **** 		/*
1180:VS4210/SysTimer.c **** 		BatteryBTH=GetBatteryBTH();
1181:VS4210/SysTimer.c **** 
1182:VS4210/SysTimer.c **** 			if(BatteryBTH<50)
1183:VS4210/SysTimer.c **** 			{
1184:VS4210/SysTimer.c **** 			SET_BTH_STATE(_BATT_STATUS_TEMP_HIGH);
1185:VS4210/SysTimer.c **** 
1186:VS4210/SysTimer.c **** 			if(GET_BATTERY_CHARGE_STATE()!=_BATT_STATUS_STOP_CHARGE)
1187:VS4210/SysTimer.c **** 			MCUTimerActiveTimerEvent(SEC(1), _SYSTEM_TIMER_EVENT_BATT_NO_CHARGE);
1188:VS4210/SysTimer.c **** 
1189:VS4210/SysTimer.c **** 			}
1190:VS4210/SysTimer.c **** 		else if(BatteryBTH>768)
1191:VS4210/SysTimer.c **** 			SET_BTH_STATE(_BATT_STATUS_TEMP_LOW);
1192:VS4210/SysTimer.c **** 		else
1193:VS4210/SysTimer.c **** 			{
1194:VS4210/SysTimer.c **** 			SET_BTH_STATE(_BATT_STATUS_TEMP_NORMAL);
ARM GAS  C:\Users\ryanc.HS\AppData\Local\Temp\ccysXWgI.s 			page 53


1195:VS4210/SysTimer.c **** 			}
1196:VS4210/SysTimer.c **** 
1197:VS4210/SysTimer.c **** 			if(GET_BTH_STATE()!=_BATT_STATUS_TEMP_NORMAL)
1198:VS4210/SysTimer.c **** 			SET_BTH_STATE(_BATT_STATUS_TEMP_NORMAL);//for test
1199:VS4210/SysTimer.c **** 	*/
1200:VS4210/SysTimer.c **** 		MCUTimerActiveTimerEvent(SEC(10), _SYSTEM_TIMER_EVENT_JUDGE_BTH_STATE);
1201:VS4210/SysTimer.c **** 		break;
1202:VS4210/SysTimer.c **** 	case _SYSTEM_TIMER_EVENT_JUDGE_WDT_ECHO:
1203:VS4210/SysTimer.c **** 		DEBUG_MESSAGE("\r\n(WDT kick over 10Second, Reboot DVR)");
1204:VS4210/SysTimer.c **** 		MCUTimerActiveTimerEvent(SEC(10), _SYSTEM_TIMER_EVENT_JUDGE_WDT_ECHO);
1205:VS4210/SysTimer.c **** 		break;
1206:VS4210/SysTimer.c **** 	case _SYSTEM_TIMER_EVENT_JUDGE_AC_MODE:
1207:VS4210/SysTimer.c **** 	{
1208:VS4210/SysTimer.c **** 		/*
1209:VS4210/SysTimer.c **** 						DEBUG_MESSAGE("(AC_MODE)");
1210:VS4210/SysTimer.c **** 						if((GET_ADAP_12())&&(GET_AC_PLUG()==0))
1211:VS4210/SysTimer.c **** 							{
1212:VS4210/SysTimer.c **** 								SET_AC_PLUG();
1213:VS4210/SysTimer.c **** 
1214:VS4210/SysTimer.c **** 								if(GET_POWER_STATUS()==_POWER_STATUS_NORMAL)
1215:VS4210/SysTimer.c **** 								{
1216:VS4210/SysTimer.c **** 									if(GET_BTH_STATE()!=_BATT_STATUS_TEMP_HIGH)
1217:VS4210/SysTimer.c **** 									MCUTimerActiveTimerEvent(SEC(1), _SYSTEM_TIMER_EVENT_BATT_LOW_CHARGE);
1218:VS4210/SysTimer.c **** 									else
1219:VS4210/SysTimer.c **** 									MCUTimerActiveTimerEvent(SEC(1), _SYSTEM_TIMER_EVENT_BATT_NO_CHARGE);
1220:VS4210/SysTimer.c **** 								}
1221:VS4210/SysTimer.c **** 								else if(GET_POWER_STATUS()==_POWER_STATUS_SAVING)
1222:VS4210/SysTimer.c **** 									{
1223:VS4210/SysTimer.c **** 										if(GET_BTH_STATE()!=_BATT_STATUS_TEMP_HIGH)
1224:VS4210/SysTimer.c **** 										MCUTimerActiveTimerEvent(SEC(1), _SYSTEM_TIMER_EVENT_BATT_HIGH_CHARGE);
1225:VS4210/SysTimer.c **** 										else
1226:VS4210/SysTimer.c **** 										MCUTimerActiveTimerEvent(SEC(1), _SYSTEM_TIMER_EVENT_BATT_NO_CHARGE);
1227:VS4210/SysTimer.c **** 									}
1228:VS4210/SysTimer.c **** 						MCUTimerActiveTimerEvent(SEC(1), _SYSTEM_TIMER_EVENT_JUDGE_AC_MODE);
1229:VS4210/SysTimer.c **** 							}
1230:VS4210/SysTimer.c **** 						else if((GET_ADAP_12()==0)&&(GET_AC_PLUG()))
1231:VS4210/SysTimer.c **** 							{
1232:VS4210/SysTimer.c **** 							CLR_AC_PLUG();
1233:VS4210/SysTimer.c **** 							MCUTimerActiveTimerEvent(SEC(1), _SYSTEM_TIMER_EVENT_BATT_NO_CHARGE);
1234:VS4210/SysTimer.c **** 							MCUTimerActiveTimerEvent(SEC(1), _SYSTEM_TIMER_EVENT_JUDGE_BATT_MODE);
1235:VS4210/SysTimer.c **** 							}
1236:VS4210/SysTimer.c **** 
1237:VS4210/SysTimer.c **** 		*/
1238:VS4210/SysTimer.c **** 		// if(GET_AC_PLUG())
1239:VS4210/SysTimer.c **** 		// DEBUG_MESSAGE("(AON)");
1240:VS4210/SysTimer.c **** 		// else
1241:VS4210/SysTimer.c **** 		// DEBUG_MESSAGE("(AOFF)");
1242:VS4210/SysTimer.c **** 	}
1243:VS4210/SysTimer.c **** 	break;
1244:VS4210/SysTimer.c **** 	case _SYSTEM_TIMER_EVENT_JUDGE_BATT_MODE:
1245:VS4210/SysTimer.c **** 
1246:VS4210/SysTimer.c **** 		DEBUG_MESSAGE("(BATT_MODE)");
1247:VS4210/SysTimer.c **** 		/*
1248:VS4210/SysTimer.c **** 		if((GET_ADAP_12())&&(GET_AC_PLUG()==0))
1249:VS4210/SysTimer.c **** 				{
1250:VS4210/SysTimer.c **** 				SET_AC_PLUG();
1251:VS4210/SysTimer.c **** 			MCUTimerActiveTimerEvent(SEC(1), _SYSTEM_TIMER_EVENT_JUDGE_AC_MODE);
ARM GAS  C:\Users\ryanc.HS\AppData\Local\Temp\ccysXWgI.s 			page 54


1252:VS4210/SysTimer.c **** 			}
1253:VS4210/SysTimer.c **** 			else
1254:VS4210/SysTimer.c **** 				{
1255:VS4210/SysTimer.c **** 				  MCUTimerActiveTimerEvent(SEC(5), _SYSTEM_TIMER_EVENT_JUDGE_BATT_MODE);
1256:VS4210/SysTimer.c **** 				}
1257:VS4210/SysTimer.c **** 			*/
1258:VS4210/SysTimer.c **** 		break;
1259:VS4210/SysTimer.c **** 
1260:VS4210/SysTimer.c **** 	/*
1261:VS4210/SysTimer.c **** case _SYSTEM_TIMER_EVENT_BATT_LOW_CHARGE:
1262:VS4210/SysTimer.c **** 	//	if(GET_BATTERY_CHARGE_STATE()!=_BATT_STATUS_LOW_CHARGE)
1263:VS4210/SysTimer.c **** 	//	UserInterfacePowerSwitch(_POWER_ACTION_BATT_TO_LOW_CURRENT_CHARGE);
1264:VS4210/SysTimer.c **** break;
1265:VS4210/SysTimer.c **** case  _SYSTEM_TIMER_EVENT_BATT_HIGH_CHARGE:
1266:VS4210/SysTimer.c **** 	//	if(GET_BATTERY_CHARGE_STATE()!=_BATT_STATUS_HIGH_CHARGE)
1267:VS4210/SysTimer.c **** 	//	UserInterfacePowerSwitch(_POWER_ACTION_BATT_TO_HIGH_CURRENT_CHARGE);
1268:VS4210/SysTimer.c **** break;
1269:VS4210/SysTimer.c **** case  _SYSTEM_TIMER_EVENT_BATT_NO_CHARGE:
1270:VS4210/SysTimer.c **** 	//	if(GET_BATTERY_CHARGE_STATE()!=_BATT_STATUS_STOP_CHARGE)
1271:VS4210/SysTimer.c **** 	//	UserInterfacePowerSwitch(_POWER_ACTION_BATT_TO_NO_CHARGE);
1272:VS4210/SysTimer.c **** 	break;
1273:VS4210/SysTimer.c **** 	*/
1274:VS4210/SysTimer.c **** 	case _SYSTEM_TIMER_EVENT_SHOW_WORKING_TIMER:
1275:VS4210/SysTimer.c **** 
1276:VS4210/SysTimer.c **** 		second += 10;
1277:VS4210/SysTimer.c **** 
1278:VS4210/SysTimer.c **** 		if (second == 60)
1279:VS4210/SysTimer.c **** 		{
1280:VS4210/SysTimer.c **** 			second = 0;
1281:VS4210/SysTimer.c **** 			minute++;
1282:VS4210/SysTimer.c **** 		}
1283:VS4210/SysTimer.c **** 
1284:VS4210/SysTimer.c **** 		if (minute == 60)
1285:VS4210/SysTimer.c **** 		{
1286:VS4210/SysTimer.c **** 			minute = 0;
1287:VS4210/SysTimer.c **** 			hour++;
1288:VS4210/SysTimer.c **** 		}
1289:VS4210/SysTimer.c **** 
1290:VS4210/SysTimer.c **** 		if (hour == 24)
1291:VS4210/SysTimer.c **** 		{
1292:VS4210/SysTimer.c **** 			hour = 0;
1293:VS4210/SysTimer.c **** 			day++;
1294:VS4210/SysTimer.c **** 		}
1295:VS4210/SysTimer.c **** 
1296:VS4210/SysTimer.c **** 		ShowWorkingTimer();
1297:VS4210/SysTimer.c **** 		MCUTimerActiveTimerEvent(SEC(10), _SYSTEM_TIMER_EVENT_SHOW_WORKING_TIMER);
1298:VS4210/SysTimer.c **** 		break;
1299:VS4210/SysTimer.c **** 	case _SYSTEM_TIMER_EVENT_AUTO_SLEEPING_TIMEOUT:
1300:VS4210/SysTimer.c **** 
1301:VS4210/SysTimer.c **** #if (_DEBUG_MESSAGE_UserInterfaceTimerEvent == ON)
1302:VS4210/SysTimer.c **** 		GraphicsPrint(RED, "(AUTO_SLEEPING_TIMEOUT)");
1303:VS4210/SysTimer.c **** #endif
1304:VS4210/SysTimer.c **** 
1305:VS4210/SysTimer.c **** 		if ((bytAutoSleeping == ON) && (SEQFlag == 0))
1306:VS4210/SysTimer.c **** 		{
1307:VS4210/SysTimer.c **** #if (_DEBUG_MESSAGE_UserInterfaceTimerEvent == ON)
1308:VS4210/SysTimer.c **** 			GraphicsPrint(GREEN, "(enter standbye mode)");
ARM GAS  C:\Users\ryanc.HS\AppData\Local\Temp\ccysXWgI.s 			page 55


1309:VS4210/SysTimer.c **** #endif
1310:VS4210/SysTimer.c **** 			bytStandByMode = ON;
1311:VS4210/SysTimer.c **** 		}
1312:VS4210/SysTimer.c **** 		else
1313:VS4210/SysTimer.c **** 		{
1314:VS4210/SysTimer.c **** 			MCUTimerActiveTimerEvent(SEC(10 - (bytStandByModeToTriggerMode * 5)), _SYSTEM_TIMER_EVENT_AUTO_S
1315:VS4210/SysTimer.c **** 		}
1316:VS4210/SysTimer.c **** #if 0				
1317:VS4210/SysTimer.c **** 			switch(CURRENT_CH)
1318:VS4210/SysTimer.c **** 				{
1319:VS4210/SysTimer.c **** 					case VS4210_LOOP_MODE0_w0: 
1320:VS4210/SysTimer.c **** 									if(((bytVideoInput&VIN1)==0)&&(bytAutoSleeping==ON))
1321:VS4210/SysTimer.c **** 									{
1322:VS4210/SysTimer.c **** #if (_DEBUG_MESSAGE_UserInterfaceTimerEvent == ON)
1323:VS4210/SysTimer.c **** 									   	GraphicsPrint(GREEN,"(enter standbye mode)");
1324:VS4210/SysTimer.c **** #endif
1325:VS4210/SysTimer.c **** 									bytStandByMode=ON;
1326:VS4210/SysTimer.c **** 												
1327:VS4210/SysTimer.c **** 
1328:VS4210/SysTimer.c **** 									}
1329:VS4210/SysTimer.c **** 							break;
1330:VS4210/SysTimer.c **** 					case VS4210_LOOP_MODE0_w1: 
1331:VS4210/SysTimer.c **** 							break;
1332:VS4210/SysTimer.c **** 					case VS4210_LOOP_MODE0_w2: 
1333:VS4210/SysTimer.c **** 								break;
1334:VS4210/SysTimer.c **** 					case VS4210_LOOP_MODE0_w3: 
1335:VS4210/SysTimer.c **** 							break;
1336:VS4210/SysTimer.c **** 					case VS4210_LOOP_MODE12_12: 
1337:VS4210/SysTimer.c **** 					case VS4210_LOOP_MODE12_21: 		
1338:VS4210/SysTimer.c **** 					break;
1339:VS4210/SysTimer.c **** 					case VS4210_LOOP_MODE12_14:
1340:VS4210/SysTimer.c **** 					break;
1341:VS4210/SysTimer.c **** 				case VS4210_LOOP_MODE10_123:
1342:VS4210/SysTimer.c **** 				case VS4210_LOOP_MODE8: 	
1343:VS4210/SysTimer.c **** 				case VS4210_LOOP_MODE8_123:
1344:VS4210/SysTimer.c **** 				case VS4210_LOOP_MODE8_213:
1345:VS4210/SysTimer.c **** 				case VS4210_LOOP_MODE8_312:
1346:VS4210/SysTimer.c **** 				case VS4210_LOOP_MODE9: 	
1347:VS4210/SysTimer.c **** 					break;
1348:VS4210/SysTimer.c **** 			
1349:VS4210/SysTimer.c **** 				case VS4210_LOOP_MODE12_23:
1350:VS4210/SysTimer.c **** 				case VS4210_LOOP_MODE12_32:
1351:VS4210/SysTimer.c **** 								break;
1352:VS4210/SysTimer.c **** 				case VS4210_LOOP_MODE12_34:
1353:VS4210/SysTimer.c **** 				case VS4210_LOOP_MODE12_43:
1354:VS4210/SysTimer.c **** 							break;
1355:VS4210/SysTimer.c **** 				case VS4210_LOOP_MODE12_31:
1356:VS4210/SysTimer.c **** 				case VS4210_LOOP_MODE12_13: 
1357:VS4210/SysTimer.c **** 								break;
1358:VS4210/SysTimer.c **** 				case VS4210_LOOP_MODE1:
1359:VS4210/SysTimer.c **** 				case VS4210_LOOP_MODE2:
1360:VS4210/SysTimer.c **** 					break;
1361:VS4210/SysTimer.c **** 				case VS4210_LOOP_MODE12_42:
1362:VS4210/SysTimer.c **** 				case VS4210_LOOP_MODE12_24:
1363:VS4210/SysTimer.c **** 					break;
1364:VS4210/SysTimer.c **** 				case VS4210_LOOP_MODE8_412: 
1365:VS4210/SysTimer.c **** 				case VS4210_LOOP_MODE8_124:
ARM GAS  C:\Users\ryanc.HS\AppData\Local\Temp\ccysXWgI.s 			page 56


1366:VS4210/SysTimer.c **** 				case VS4210_LOOP_MODE8_214: 
1367:VS4210/SysTimer.c **** 				case VS4210_LOOP_MODE10_412:
1368:VS4210/SysTimer.c **** 					break;
1369:VS4210/SysTimer.c **** 				case VS4210_LOOP_MODE8_134:
1370:VS4210/SysTimer.c **** 				case VS4210_LOOP_MODE8_314:
1371:VS4210/SysTimer.c **** 				case VS4210_LOOP_MODE10_413:
1372:VS4210/SysTimer.c **** 				case VS4210_LOOP_MODE8_413: 
1373:VS4210/SysTimer.c **** 					break;
1374:VS4210/SysTimer.c **** 				case VS4210_LOOP_MODE8_234:
1375:VS4210/SysTimer.c **** 				case VS4210_LOOP_MODE8_324: 
1376:VS4210/SysTimer.c **** 				case VS4210_LOOP_MODE10_423:
1377:VS4210/SysTimer.c **** 				case VS4210_LOOP_MODE8_423: 		
1378:VS4210/SysTimer.c **** 					break;
1379:VS4210/SysTimer.c **** 				default:
1380:VS4210/SysTimer.c **** 					break;
1381:VS4210/SysTimer.c **** 				}
1382:VS4210/SysTimer.c **** #endif
1383:VS4210/SysTimer.c **** 		break;
1384:VS4210/SysTimer.c **** 	case _SYSTEM_TIMER_EVENT_RESET_TOUCH_PANEL:
1385:VS4210/SysTimer.c **** 
1386:VS4210/SysTimer.c **** 		TP_ACTION = ON;
1387:VS4210/SysTimer.c **** 		//#if(_DEBUG_MESSAGE_UserInterfaceTimerEvent==ON)
1388:VS4210/SysTimer.c **** 		// GraphicsPrint(YELLOW,"(_SYSTEM_TIMER_EVENT_RESET_TOUCH_PANEL)");
1389:VS4210/SysTimer.c **** 		//#endif
1390:VS4210/SysTimer.c **** 		break;
1391:VS4210/SysTimer.c **** 	case _SYSTEM_TIMER_EVENT_TP_PRES_DOWN:
1392:VS4210/SysTimer.c **** 		MCUTimerActiveTimerEvent(SEC(3), _SYSTEM_TIMER_EVENT_SHOW_WORKING_TIMER);
1393:VS4210/SysTimer.c **** 		break;
1394:VS4210/SysTimer.c **** 
1395:VS4210/SysTimer.c **** 	case _SYSTEM_TIMER_EVENT_BOOT_VIDEO_DETECT:
1396:VS4210/SysTimer.c **** 		BOOT_ISSUE = 0;
1397:VS4210/SysTimer.c **** #if (_DEBUG_MESSAGE_UserInterfaceTimerEvent == ON)
1398:VS4210/SysTimer.c **** 		GraphicsPrint(YELLOW, "(BOOT_ISSUE=0)\r\n");
1399:VS4210/SysTimer.c **** #endif
1400:VS4210/SysTimer.c **** 		break;
1401:VS4210/SysTimer.c **** 	case _SYSTEM_TIMER_EVENT_SET_VX8812_SD_Video_Out:
1402:VS4210/SysTimer.c **** 		SET_VX8812_SD_Video_Out(_NTSC);
1403:VS4210/SysTimer.c **** 		break;
1404:VS4210/SysTimer.c **** 	case _SYSTEM_TIMER_EVENT_GRABBER_SETUP:
1405:VS4210/SysTimer.c **** 		SetGarbberLinerMode(bytGarbberLinerMode);
1406:VS4210/SysTimer.c **** 		break;
1407:VS4210/SysTimer.c **** 	case _SYSTEM_TIMER_EVENT_TVI_BOX_Set:
1408:VS4210/SysTimer.c **** 		TVI_BOX_Set();
1409:VS4210/SysTimer.c **** 		BOX_ISSUE++;
1410:VS4210/SysTimer.c **** 		if (BOX_ISSUE < 2)
1411:VS4210/SysTimer.c **** 			MCUTimerActiveTimerEvent(SEC(1), _SYSTEM_TIMER_EVENT_TVI_BOX_Set);
1412:VS4210/SysTimer.c **** 		break;
1413:VS4210/SysTimer.c **** 	case _SYSTEM_TIMER_EVENT_LIGHT_SENSOR_CHECK:
1414:VS4210/SysTimer.c **** 
1415:VS4210/SysTimer.c **** #if (_DEBUG_MESSAGE_UserInterfaceTimerEvent == ON)
1416:VS4210/SysTimer.c **** // GraphicsPrint(GREEN,"(Trig=%02x)(OSD=%02x)",(WORD)GET_PCA9554PW(PCA9554PW_reg0),(WORD)DisplayedO
1417:VS4210/SysTimer.c **** // GET_PCA9554PW(PCA9554PW_reg1);
1418:VS4210/SysTimer.c **** #endif
1419:VS4210/SysTimer.c **** 		/*
1420:VS4210/SysTimer.c **** 					  if (ReadEEP(0xa0)==ON)  //ON=Auto
1421:VS4210/SysTimer.c **** 					  {
1422:VS4210/SysTimer.c **** 						//val = ReadDecoder(LADC0);
ARM GAS  C:\Users\ryanc.HS\AppData\Local\Temp\ccysXWgI.s 			page 57


1423:VS4210/SysTimer.c **** 						AdjustAutoDayNight(LightSensor_ADC);
1424:VS4210/SysTimer.c **** 					  }
1425:VS4210/SysTimer.c **** 					  else	//OFF=Day
1426:VS4210/SysTimer.c **** 					  {
1427:VS4210/SysTimer.c **** 					  AdjustAutoDayNight(0x80);
1428:VS4210/SysTimer.c **** 					  }
1429:VS4210/SysTimer.c **** 		*/
1430:VS4210/SysTimer.c **** 		//	HDMITX_DevLoopProc() ;
1431:VS4210/SysTimer.c **** 
1432:VS4210/SysTimer.c **** 		MCUTimerActiveTimerEvent(SEC(2), _SYSTEM_TIMER_EVENT_LIGHT_SENSOR_CHECK);
1433:VS4210/SysTimer.c **** 
1434:VS4210/SysTimer.c **** 		break;
1435:VS4210/SysTimer.c **** 	case _SYSTEM_TIMER_EVENT_KEY_CHECK:
1436:VS4210/SysTimer.c **** 
1437:VS4210/SysTimer.c **** #if (_DEBUG_MESSAGE_SysTimerEvent == ON)
1438:VS4210/SysTimer.c **** 		GraphicsPrint(CYAN, "(KEYC)");
1439:VS4210/SysTimer.c **** #endif
1440:VS4210/SysTimer.c **** 		CheckKeyIn();
1441:VS4210/SysTimer.c **** 		MCUTimerActiveTimerEvent(SEC(1), _SYSTEM_TIMER_EVENT_KEY_CHECK);
1442:VS4210/SysTimer.c **** 		break;
1443:VS4210/SysTimer.c **** 	case _SYSTEM_TIMER_EVENT_EQ_DETECT:
1444:VS4210/SysTimer.c **** 		EQ_Detect();
1445:VS4210/SysTimer.c **** // Encoder_flag=ON;
1446:VS4210/SysTimer.c **** #if (_DEBUG_MESSAGE_SysTimerEvent == ON)
1447:VS4210/SysTimer.c **** 		GraphicsPrint(YELLOW, "(EQ)");
1448:VS4210/SysTimer.c **** #endif
1449:VS4210/SysTimer.c **** 		MCUTimerActiveTimerEvent(SEC(0.5), _SYSTEM_TIMER_EVENT_EQ_DETECT);
1450:VS4210/SysTimer.c **** 		break;
1451:VS4210/SysTimer.c **** 	case _SYSTEM_TIMER_EVENT_ADC_CHECK:
1452:VS4210/SysTimer.c **** 		HAL_ADC_Start(&hadc1);
1453:VS4210/SysTimer.c **** 
1454:VS4210/SysTimer.c **** 		HAL_ADC_PollForConversion(&hadc1, 50);
1455:VS4210/SysTimer.c **** 
1456:VS4210/SysTimer.c **** 		if (HAL_IS_BIT_SET(HAL_ADC_GetState(&hadc1), HAL_ADC_STATE_REG_EOC))
1457:VS4210/SysTimer.c **** 		{
1458:VS4210/SysTimer.c **** 			LightSensor_ADC = (HAL_ADC_GetValue(&hadc1) / 14); // max 0xDFF =3583
1459:VS4210/SysTimer.c **** 
1460:VS4210/SysTimer.c **** #if (_DEBUG_MESSAGE_LIGHTSENSOR == ON)
1461:VS4210/SysTimer.c **** /*
1462:VS4210/SysTimer.c **** ADCH=(LightSensor_ADC>>8);
1463:VS4210/SysTimer.c **** ADCL=(LightSensor_ADC&0xff);
1464:VS4210/SysTimer.c **** GraphicsPrint(RED,"(ADCLH=%02x)",(WORD)(ADCH));
1465:VS4210/SysTimer.c **** GraphicsPrint(CYAN,"(ADCL=%02x)",(WORD)(ADCL));
1466:VS4210/SysTimer.c **** GraphicsPrint(CYAN,"(PWMLevel=%02x)\r\n",(WORD)PWMLevel);
1467:VS4210/SysTimer.c **** */
1468:VS4210/SysTimer.c **** #endif
1469:VS4210/SysTimer.c **** 		}
1470:VS4210/SysTimer.c **** 
1471:VS4210/SysTimer.c **** 		if (DayNightLevel) // ON=Auto
1472:VS4210/SysTimer.c **** 		{
1473:VS4210/SysTimer.c **** 			// val = ReadDecoder(LADC0);
1474:VS4210/SysTimer.c **** 			AdjustAutoDayNight(LightSensor_ADC);
1475:VS4210/SysTimer.c **** 		}
1476:VS4210/SysTimer.c **** 		else if ((RUN_DIMMER == _DIMMER_RUN1) || (RUN_DIMMER == _DIMMER_RUN2))
1477:VS4210/SysTimer.c **** 		{
1478:VS4210/SysTimer.c **** 
1479:VS4210/SysTimer.c **** 			user_pwm_setvalue(15 * 15);
ARM GAS  C:\Users\ryanc.HS\AppData\Local\Temp\ccysXWgI.s 			page 58


1480:VS4210/SysTimer.c **** 			// user_pwm_setvalue(15*15*3);
1481:VS4210/SysTimer.c **** 			// user_pwm_setvalue(600);
1482:VS4210/SysTimer.c **** 		}
1483:VS4210/SysTimer.c **** 		else // OFF=Day
1484:VS4210/SysTimer.c **** 		{
1485:VS4210/SysTimer.c **** 			AdjustAutoDayNight(0x80);
1486:VS4210/SysTimer.c **** 		}
1487:VS4210/SysTimer.c **** 
1488:VS4210/SysTimer.c **** 		MCUTimerActiveTimerEvent(SEC(/*0.2-0.1*/ 0.2), _SYSTEM_TIMER_EVENT_ADC_CHECK);
1489:VS4210/SysTimer.c **** 
1490:VS4210/SysTimer.c **** 		break;
1491:VS4210/SysTimer.c **** 	case _SYSTEM_TIMER_EVENT_TRIGGER_DELAY_RELEASE:
1492:VS4210/SysTimer.c **** 
1493:VS4210/SysTimer.c **** 		if (bytStandByMode == ON)
1494:VS4210/SysTimer.c **** 		{
1495:VS4210/SysTimer.c **** 			PowerFlag = ON;
1496:VS4210/SysTimer.c **** 			bytStandByModeToTriggerMode = ON;
1497:VS4210/SysTimer.c **** 			Printf("(bytStandByModeToTriggerMode)");
1498:VS4210/SysTimer.c **** 		}
1499:VS4210/SysTimer.c **** 		else if (PowerFlag == OFF)
1500:VS4210/SysTimer.c **** 			LCDPowerOFF();
1501:VS4210/SysTimer.c **** 
1502:VS4210/SysTimer.c **** 		ShowTRIGOSD();
1503:VS4210/SysTimer.c **** 
1504:VS4210/SysTimer.c **** 		if (PowerFlag == ON)
1505:VS4210/SysTimer.c **** 		{
1506:VS4210/SysTimer.c **** 
1507:VS4210/SysTimer.c **** 			// AudioMute(ON);
1508:VS4210/SysTimer.c **** 			/*
1509:VS4210/SysTimer.c **** 			if(BOOT_ISSUE==ON)
1510:VS4210/SysTimer.c **** 				{
1511:VS4210/SysTimer.c **** 				//BL_ENABLE(ON);
1512:VS4210/SysTimer.c **** 				//LCDPowerON(0);
1513:VS4210/SysTimer.c **** 				MCUTimerActiveTimerEvent(SEC(0.1),  _USER_TIMER_EVENT_PANEL_BACKLIGHT_ON);
1514:VS4210/SysTimer.c **** 				}
1515:VS4210/SysTimer.c **** 			else
1516:VS4210/SysTimer.c **** 				*/
1517:VS4210/SysTimer.c **** 			if (TriggerStatus)
1518:VS4210/SysTimer.c **** 			{
1519:VS4210/SysTimer.c **** 				LCDPowerOFF();
1520:VS4210/SysTimer.c **** 				SETTW8812OFF();
1521:VS4210/SysTimer.c **** 				MCUTimerActiveTimerEvent(SEC(_BACKLIGHT_ON_Time_out), _USER_TIMER_EVENT_PANEL_BACKLIGHT_ON);
1522:VS4210/SysTimer.c **** 			}
1523:VS4210/SysTimer.c **** 
1524:VS4210/SysTimer.c **** 			if (bytAutoSleeping == ON)
1525:VS4210/SysTimer.c **** 			{
1526:VS4210/SysTimer.c **** 				MCUTimerCancelTimerEvent(_SYSTEM_TIMER_EVENT_AUTO_SLEEPING_TIMEOUT);
1527:VS4210/SysTimer.c **** 				MCUTimerActiveTimerEvent(SEC(10), _SYSTEM_TIMER_EVENT_AUTO_SLEEPING_TIMEOUT);
1528:VS4210/SysTimer.c **** 			}
1529:VS4210/SysTimer.c **** 		}
1530:VS4210/SysTimer.c **** 		else
1531:VS4210/SysTimer.c **** 		{
1532:VS4210/SysTimer.c **** 			AudioMute(ON);
1533:VS4210/SysTimer.c **** 			PowerLED(_SYSTEM_TIMER_EVENT_RED_ON);
1534:VS4210/SysTimer.c **** 		}
1535:VS4210/SysTimer.c **** 
1536:VS4210/SysTimer.c **** 		if (TriggerStatus)
ARM GAS  C:\Users\ryanc.HS\AppData\Local\Temp\ccysXWgI.s 			page 59


1537:VS4210/SysTimer.c **** 		{
1538:VS4210/SysTimer.c **** 			if (GetDisplayedOSD() & _GAUGE_OSD)
1539:VS4210/SysTimer.c **** 				CloseOSDMenu();
1540:VS4210/SysTimer.c **** 			else
1541:VS4210/SysTimer.c **** 			{
1542:VS4210/SysTimer.c **** 				SetNowMode();
1543:VS4210/SysTimer.c **** 				CloseOSDMenu();
1544:VS4210/SysTimer.c **** 			}
1545:VS4210/SysTimer.c **** 
1546:VS4210/SysTimer.c **** 			if (Flisheye_CAM[cam_change[TriggerStatus - 1]] == TRUE)
1547:VS4210/SysTimer.c **** 			{
1548:VS4210/SysTimer.c **** 				SetCOCCom(_COCOSD_BOX_Sel, (TriggerStatus - 1));
1549:VS4210/SysTimer.c **** 				SetCOCCom(_COC_FLISHEYE_MODE1, Fisheye_no_save);
1550:VS4210/SysTimer.c **** 				Get_2824cIrq();
1551:VS4210/SysTimer.c **** 			}
1552:VS4210/SysTimer.c **** 
1553:VS4210/SysTimer.c **** 			TriggerStatus = 0;
1554:VS4210/SysTimer.c **** 		}
1555:VS4210/SysTimer.c **** 		// MCUTimerActiveTimerEvent(SEC(5),  _SYSTEM_TIMER_EVENT_NOW_DISPLAY);
1556:VS4210/SysTimer.c **** 
1557:VS4210/SysTimer.c **** 		break;
1558:VS4210/SysTimer.c **** 	case _SYSTEM_TIMER_EVENT_BOOT_SETUP:
1559:VS4210/SysTimer.c **** 		// SetNowMode();
1560:VS4210/SysTimer.c **** 		//	VS4210_SwitchChannel(gaHDMI_MapWindowIndex[0],0);
1561:VS4210/SysTimer.c **** 		//	VS4210_SwitchChannel(gaHDMI_MapWindowIndex[1],1);
1562:VS4210/SysTimer.c **** 		//	VS4210_SwitchChannel(gaHDMI_MapWindowIndex[2],2);
1563:VS4210/SysTimer.c **** 		//	VS4210_SwitchChannel(gaHDMI_MapWindowIndex[3],3);
1564:VS4210/SysTimer.c **** 		/*
1565:VS4210/SysTimer.c **** 						gaHDMI_MapWindowIndex[i]
1566:VS4210/SysTimer.c **** 
1567:VS4210/SysTimer.c **** 						switch(MainSetSelectMode[SelectModeType])
1568:VS4210/SysTimer.c **** 							{
1569:VS4210/SysTimer.c **** 							case VS4210_LOOP_MODE8_412 :
1570:VS4210/SysTimer.c **** 							VS4210_SwitchChannel(3,0);
1571:VS4210/SysTimer.c **** 							 printf("\r\n*VS4210_SwitchChannel(3,0)");
1572:VS4210/SysTimer.c **** 							break;
1573:VS4210/SysTimer.c **** 							}
1574:VS4210/SysTimer.c **** 						*/
1575:VS4210/SysTimer.c **** 		if ((NowModeState == JumpMode) && (TriggerFlag == 0))
1576:VS4210/SysTimer.c **** 			ShowJUMPOSD();
1577:VS4210/SysTimer.c **** 
1578:VS4210/SysTimer.c **** 		// if((TriggerStatus==4)&& (TriggerFlag&REVERSE_T==REVERSE_T))
1579:VS4210/SysTimer.c **** 		//{
1580:VS4210/SysTimer.c **** 		// ShowGaugeOSD();
1581:VS4210/SysTimer.c **** 		// }
1582:VS4210/SysTimer.c **** 
1583:VS4210/SysTimer.c **** 		break;
1584:VS4210/SysTimer.c **** 	case _SYSTEM_TIMER_EVENT_CAMRD_CHANGE:
1585:VS4210/SysTimer.c **** 		SetSelectCAMRD(bytSelectCAMRD);
1586:VS4210/SysTimer.c **** 
1587:VS4210/SysTimer.c **** #if (_DEBUG_MESSAGE_SysTimerEvent == ON)
1588:VS4210/SysTimer.c **** 		GraphicsPrint(GREEN, "(_SYSTEM_TIMER_EVENT_CAMRD_CHANGE)");
1589:VS4210/SysTimer.c **** #endif
1590:VS4210/SysTimer.c **** 
1591:VS4210/SysTimer.c **** 		break;
1592:VS4210/SysTimer.c **** 
1593:VS4210/SysTimer.c **** 	case _SYSTEM_TIMER_EVENT_AUDIO_CHANNEL_SELECT:
ARM GAS  C:\Users\ryanc.HS\AppData\Local\Temp\ccysXWgI.s 			page 60


1594:VS4210/SysTimer.c **** 		Printf("\r\n(AudioMute(OFF))\r\n");
1595:VS4210/SysTimer.c **** 		AudioMute(OFF);
1596:VS4210/SysTimer.c **** 		break;
1597:VS4210/SysTimer.c **** 	case _SYSTEM_TIMER_EVENT_TOUCH_ACTION_0:
1598:VS4210/SysTimer.c **** #if (_DEBUG_MESSAGE_GT911 == ON)
1599:VS4210/SysTimer.c **** 		GraphicsPrint(GREEN, "(TOUCH_ACTION_0)");
1600:VS4210/SysTimer.c **** #endif
1601:VS4210/SysTimer.c **** 		Touch_Screen_Handler(_TOUCH_COUNT_0);
1602:VS4210/SysTimer.c **** 		break;
1603:VS4210/SysTimer.c **** 	case _SYSTEM_TIMER_EVENT_TOUCH_ACTION_1:
1604:VS4210/SysTimer.c **** #if (_DEBUG_MESSAGE_GT911 == ON)
1605:VS4210/SysTimer.c **** 		GraphicsPrint(GREEN, "(TOUCH_ACTION_1)");
1606:VS4210/SysTimer.c **** #endif
1607:VS4210/SysTimer.c **** 		if (((NowModeState == SelectMode) && (TriggerFlag == 0)) || (GetDisplayedOSD() & (MENU | TVVOL)))
1608:VS4210/SysTimer.c **** 			Touch_Screen_Handler(_TOUCH_COUNT_1);
1609:VS4210/SysTimer.c **** 
1610:VS4210/SysTimer.c **** 		break;
1611:VS4210/SysTimer.c **** 	case _SYSTEM_TIMER_EVENT_TOUCH_ACTION_2:
1612:VS4210/SysTimer.c **** #if (_DEBUG_MESSAGE_GT911 == ON)
1613:VS4210/SysTimer.c **** 		GraphicsPrint(GREEN, "(TOUCH_ACTION_2)");
1614:VS4210/SysTimer.c **** #endif
1615:VS4210/SysTimer.c **** 
1616:VS4210/SysTimer.c **** 		//	if( GetDisplayedOSD()==0)
1617:VS4210/SysTimer.c **** 		Touch_Screen_Handler(_TOUCH_COUNT_2);
1618:VS4210/SysTimer.c **** 		break;
1619:VS4210/SysTimer.c **** 	case _SYSTEM_TIMER_EVENT_TOUCH_ACTION_3:
1620:VS4210/SysTimer.c **** #if (_DEBUG_MESSAGE_GT911 == ON)
1621:VS4210/SysTimer.c **** 		GraphicsPrint(GREEN, "(TOUCH_ACTION_3)");
1622:VS4210/SysTimer.c **** #endif
1623:VS4210/SysTimer.c **** 		Touch_Screen_Handler(_TOUCH_COUNT_3);
1624:VS4210/SysTimer.c **** 		break;
1625:VS4210/SysTimer.c **** 	case _SYSTEM_TIMER_EVENT_VX8812_INIT:
1626:VS4210/SysTimer.c **** 		SET_VX8812_SD_Video_Out(_NTSC);
1627:VS4210/SysTimer.c **** 		//	SET_VX8812_SD_Video_Out(_PAL);
1628:VS4210/SysTimer.c **** 		break;
1629:VS4210/SysTimer.c **** 	case _SYSTEM_TIMER_EVENT_TOUCH_SLIDER_TIME_OUT:
1630:VS4210/SysTimer.c **** 		slider_event = _FALSE;
1631:VS4210/SysTimer.c **** #if (_DEBUG_MESSAGE_GT911 == ON)
1632:VS4210/SysTimer.c **** 		GraphicsPrint(RED, "(slider_event=_FALSE)");
1633:VS4210/SysTimer.c **** #endif
1634:VS4210/SysTimer.c **** 		break;
1635:VS4210/SysTimer.c **** 
1636:VS4210/SysTimer.c **** 	default:
1637:VS4210/SysTimer.c **** 		break;
1638:VS4210/SysTimer.c **** 	}
1639:VS4210/SysTimer.c **** #if 0
1640:VS4210/SysTimer.c ****     switch(enumEventID)
1641:VS4210/SysTimer.c ****     {
1642:VS4210/SysTimer.c ****         case _SYSTEM_TIMER_EVENT_SOURCE_CLEAR_DETECTING:            
1643:VS4210/SysTimer.c ****             SysSourceClearDetectingEvent();            
1644:VS4210/SysTimer.c ****             break;
1645:VS4210/SysTimer.c **** 
1646:VS4210/SysTimer.c ****         case _SYSTEM_TIMER_EVENT_JUDGE_ACTIVE_STATE:
1647:VS4210/SysTimer.c ****             SET_MODE_ACTIVE_READY();
1648:VS4210/SysTimer.c ****             break;
1649:VS4210/SysTimer.c **** 
1650:VS4210/SysTimer.c ****         case _SYSTEM_TIMER_EVENT_JUDGE_NOSUPPORT_STATE:
ARM GAS  C:\Users\ryanc.HS\AppData\Local\Temp\ccysXWgI.s 			page 61


1651:VS4210/SysTimer.c ****             SET_MODE_RESET_TARGET(_MODE_ACTION_RESET_TO_NOSUPPORT);
1652:VS4210/SysTimer.c ****             break;
1653:VS4210/SysTimer.c **** 
1654:VS4210/SysTimer.c ****         case _SYSTEM_TIMER_EVENT_JUDGE_NOSIGNAL_STATE:
1655:VS4210/SysTimer.c **** 					
1656:VS4210/SysTimer.c ****             SET_MODE_RESET_TARGET(_MODE_ACTION_RESET_TO_NOSIGNAL);      
1657:VS4210/SysTimer.c ****             break;
1658:VS4210/SysTimer.c **** 
1659:VS4210/SysTimer.c **** #if (_EMBEDDED_DAC_SUPPORT == _ON)
1660:VS4210/SysTimer.c ****         case _SYSTEM_TIMER_EVENT_AUDIO_DAC_WAIT_VCM_INITIAL:
1661:VS4210/SysTimer.c ****             ScalerAudioDACSetState(_AUDIO_DAC_CHARGE);
1662:VS4210/SysTimer.c ****             break;
1663:VS4210/SysTimer.c ****             
1664:VS4210/SysTimer.c ****         case _SYSTEM_TIMER_EVENT_AUDIO_DAC_WAIT_VCM_CHARGE:
1665:VS4210/SysTimer.c ****             ScalerAudioDACSetState(_AUDIO_DAC_DEPOP);
1666:VS4210/SysTimer.c ****             break;
1667:VS4210/SysTimer.c **** 
1668:VS4210/SysTimer.c ****         case _SYSTEM_TIMER_EVENT_AUDIO_DAC_WAIT_DEPOP_TO_NORMAL:
1669:VS4210/SysTimer.c ****             ScalerAudioDACDepopToNormal();
1670:VS4210/SysTimer.c ****             break;
1671:VS4210/SysTimer.c **** #endif // End of #if(_EMBEDDED_DAC_SUPPORT == _ON)
1672:VS4210/SysTimer.c **** 
1673:VS4210/SysTimer.c **** #if (_HP_SOURCE_SCAN_SUPPORT == _ON)
1674:VS4210/SysTimer.c ****         case _SYSTEM_TIMER_EVENT_SOURCE_HP_CANCEL_MANUAL_SWITCH_PORT:
1675:VS4210/SysTimer.c ****             SET_SOURCE_HP_PORT_SWITCH_TARGET((_INPUT_PORT_VALID + 1));
1676:VS4210/SysTimer.c ****             break;
1677:VS4210/SysTimer.c **** #endif                        
1678:VS4210/SysTimer.c ****         default:
1679:VS4210/SysTimer.c ****             break;
1680:VS4210/SysTimer.c ****     }
1681:VS4210/SysTimer.c **** #endif
1682:VS4210/SysTimer.c **** }
 1546              		.loc 1 1682 1 is_stmt 0 view .LVU327
 1547 0082 05B0     		add	sp, sp, #20
 1548              	.LCFI11:
 1549              		.cfi_remember_state
 1550              		.cfi_def_cfa_offset 12
 1551              		@ sp needed
 1552 0084 30BD     		pop	{r4, r5, pc}
 1553              	.L164:
 1554              	.LCFI12:
 1555              		.cfi_restore_state
1090:VS4210/SysTimer.c **** /*
 1556              		.loc 1 1090 3 is_stmt 1 view .LVU328
 1557 0086 0020     		movs	r0, #0
 1558 0088 FFF7FEFF 		bl	GET_LTC2451
 1559              	.LVL135:
1113:VS4210/SysTimer.c **** 
 1560              		.loc 1 1113 3 view .LVU329
 1561 008c 884B     		ldr	r3, .L196+4
 1562 008e 1B68     		ldr	r3, [r3]
1113:VS4210/SysTimer.c **** 
 1563              		.loc 1 1113 85 is_stmt 0 view .LVU330
 1564 0090 884C     		ldr	r4, .L196+8
 1565 0092 A4FB0312 		umull	r1, r2, r4, r3
 1566 0096 5209     		lsrs	r2, r2, #5
1113:VS4210/SysTimer.c **** 
ARM GAS  C:\Users\ryanc.HS\AppData\Local\Temp\ccysXWgI.s 			page 62


 1567              		.loc 1 1113 117 view .LVU331
 1568 0098 6425     		movs	r5, #100
1113:VS4210/SysTimer.c **** 
 1569              		.loc 1 1113 3 view .LVU332
 1570 009a 05FB1233 		mls	r3, r5, r2, r3
 1571 009e 8649     		ldr	r1, .L196+12
 1572 00a0 0220     		movs	r0, #2
 1573 00a2 FFF7FEFF 		bl	GraphicsPrint
 1574              	.LVL136:
1115:VS4210/SysTimer.c **** 
 1575              		.loc 1 1115 3 is_stmt 1 view .LVU333
 1576 00a6 854B     		ldr	r3, .L196+16
 1577 00a8 1A68     		ldr	r2, [r3]
1115:VS4210/SysTimer.c **** 
 1578              		.loc 1 1115 93 is_stmt 0 view .LVU334
 1579 00aa A4FB0213 		umull	r1, r3, r4, r2
 1580 00ae 5B09     		lsrs	r3, r3, #5
1115:VS4210/SysTimer.c **** 
 1581              		.loc 1 1115 121 view .LVU335
 1582 00b0 05FB1325 		mls	r5, r5, r3, r2
1115:VS4210/SysTimer.c **** 
 1583              		.loc 1 1115 3 view .LVU336
 1584 00b4 0095     		str	r5, [sp]
 1585 00b6 824A     		ldr	r2, .L196+20
 1586 00b8 1268     		ldr	r2, [r2]
 1587 00ba 8249     		ldr	r1, .L196+24
 1588 00bc 0520     		movs	r0, #5
 1589 00be FFF7FEFF 		bl	GraphicsPrint
 1590              	.LVL137:
1117:VS4210/SysTimer.c **** 		break;
 1591              		.loc 1 1117 3 is_stmt 1 view .LVU337
 1592 00c2 2321     		movs	r1, #35
 1593 00c4 40F6B830 		movw	r0, #3000
 1594 00c8 FFF7FEFF 		bl	MCUTimerActiveTimerEvent
 1595              	.LVL138:
1118:VS4210/SysTimer.c **** 
 1596              		.loc 1 1118 3 view .LVU338
 1597 00cc D9E7     		b	.L125
 1598              	.L158:
1121:VS4210/SysTimer.c **** 		break;
 1599              		.loc 1 1121 3 view .LVU339
 1600 00ce 2D20     		movs	r0, #45
 1601 00d0 FFF7FEFF 		bl	PowerLED
 1602              	.LVL139:
1122:VS4210/SysTimer.c **** 	case _SYSTEM_TIMER_EVENT_GRN_OFF:
 1603              		.loc 1 1122 3 view .LVU340
 1604 00d4 D5E7     		b	.L125
 1605              	.L157:
1124:VS4210/SysTimer.c **** 		break;
 1606              		.loc 1 1124 3 view .LVU341
 1607 00d6 2E20     		movs	r0, #46
 1608 00d8 FFF7FEFF 		bl	PowerLED
 1609              	.LVL140:
1125:VS4210/SysTimer.c **** 	case _SYSTEM_TIMER_EVENT_RED_ON:
 1610              		.loc 1 1125 3 view .LVU342
 1611 00dc D1E7     		b	.L125
 1612              	.L156:
ARM GAS  C:\Users\ryanc.HS\AppData\Local\Temp\ccysXWgI.s 			page 63


1127:VS4210/SysTimer.c **** 		break;
 1613              		.loc 1 1127 3 view .LVU343
 1614 00de 2F20     		movs	r0, #47
 1615 00e0 FFF7FEFF 		bl	PowerLED
 1616              	.LVL141:
1128:VS4210/SysTimer.c **** 	case _SYSTEM_TIMER_EVENT_RED_OFF:
 1617              		.loc 1 1128 3 view .LVU344
 1618 00e4 CDE7     		b	.L125
 1619              	.L155:
1130:VS4210/SysTimer.c **** 		break;
 1620              		.loc 1 1130 3 view .LVU345
 1621 00e6 3020     		movs	r0, #48
 1622 00e8 FFF7FEFF 		bl	PowerLED
 1623              	.LVL142:
1131:VS4210/SysTimer.c **** 	case _SYSTEM_TIMER_EVENT_GRN_RED_ON:
 1624              		.loc 1 1131 3 view .LVU346
 1625 00ec C9E7     		b	.L125
 1626              	.L151:
1133:VS4210/SysTimer.c **** 		break;
 1627              		.loc 1 1133 3 view .LVU347
 1628 00ee 3420     		movs	r0, #52
 1629 00f0 FFF7FEFF 		bl	PowerLED
 1630              	.LVL143:
1134:VS4210/SysTimer.c **** 	case _SYSTEM_TIMER_EVENT_GRN_BLINK:
 1631              		.loc 1 1134 3 view .LVU348
 1632 00f4 C5E7     		b	.L125
 1633              	.L154:
1136:VS4210/SysTimer.c **** 		MCUTimerActiveTimerEvent(SEC(1), _SYSTEM_TIMER_EVENT_GRN_BLINK);
 1634              		.loc 1 1136 3 view .LVU349
 1635 00f6 3120     		movs	r0, #49
 1636 00f8 FFF7FEFF 		bl	PowerLED
 1637              	.LVL144:
1137:VS4210/SysTimer.c **** 
 1638              		.loc 1 1137 3 view .LVU350
 1639 00fc 3121     		movs	r1, #49
 1640 00fe 4FF47A70 		mov	r0, #1000
 1641 0102 FFF7FEFF 		bl	MCUTimerActiveTimerEvent
 1642              	.LVL145:
1139:VS4210/SysTimer.c **** 	case _SYSTEM_TIMER_EVENT_RED_BLINK:
 1643              		.loc 1 1139 3 view .LVU351
 1644 0106 BCE7     		b	.L125
 1645              	.L153:
1141:VS4210/SysTimer.c **** 		MCUTimerActiveTimerEvent(SEC(1), _SYSTEM_TIMER_EVENT_RED_BLINK);
 1646              		.loc 1 1141 3 view .LVU352
 1647 0108 3220     		movs	r0, #50
 1648 010a FFF7FEFF 		bl	PowerLED
 1649              	.LVL146:
1142:VS4210/SysTimer.c **** 
 1650              		.loc 1 1142 3 view .LVU353
 1651 010e 3221     		movs	r1, #50
 1652 0110 4FF47A70 		mov	r0, #1000
 1653 0114 FFF7FEFF 		bl	MCUTimerActiveTimerEvent
 1654              	.LVL147:
1144:VS4210/SysTimer.c **** 	case _SYSTEM_TIMER_EVENT_GRN_RED_BLINK:
 1655              		.loc 1 1144 3 view .LVU354
 1656 0118 B3E7     		b	.L125
 1657              	.L152:
ARM GAS  C:\Users\ryanc.HS\AppData\Local\Temp\ccysXWgI.s 			page 64


1146:VS4210/SysTimer.c **** 		MCUTimerActiveTimerEvent(SEC(1), _SYSTEM_TIMER_EVENT_GRN_RED_BLINK);
 1658              		.loc 1 1146 3 view .LVU355
 1659 011a 3320     		movs	r0, #51
 1660 011c FFF7FEFF 		bl	PowerLED
 1661              	.LVL148:
1147:VS4210/SysTimer.c **** 
 1662              		.loc 1 1147 3 view .LVU356
 1663 0120 3321     		movs	r1, #51
 1664 0122 4FF47A70 		mov	r0, #1000
 1665 0126 FFF7FEFF 		bl	MCUTimerActiveTimerEvent
 1666              	.LVL149:
1149:VS4210/SysTimer.c **** 	case _SYSTEM_TIMER_EVENT_GRN_ON_RED_BLINK:
 1667              		.loc 1 1149 3 view .LVU357
 1668 012a AAE7     		b	.L125
 1669              	.L150:
1151:VS4210/SysTimer.c **** 		MCUTimerActiveTimerEvent(SEC(1), _SYSTEM_TIMER_EVENT_GRN_ON_RED_BLINK);
 1670              		.loc 1 1151 3 view .LVU358
 1671 012c 3620     		movs	r0, #54
 1672 012e FFF7FEFF 		bl	PowerLED
 1673              	.LVL150:
1152:VS4210/SysTimer.c **** 
 1674              		.loc 1 1152 3 view .LVU359
 1675 0132 3621     		movs	r1, #54
 1676 0134 4FF47A70 		mov	r0, #1000
 1677 0138 FFF7FEFF 		bl	MCUTimerActiveTimerEvent
 1678              	.LVL151:
1154:VS4210/SysTimer.c **** 	case _SYSTEM_TIMER_EVENT_JUDGE_BATT_STATE:
 1679              		.loc 1 1154 3 view .LVU360
 1680 013c A1E7     		b	.L125
 1681              	.L163:
1172:VS4210/SysTimer.c **** 		break;
 1682              		.loc 1 1172 3 view .LVU361
 1683 013e 2421     		movs	r1, #36
 1684 0140 41F28830 		movw	r0, #5000
 1685 0144 FFF7FEFF 		bl	MCUTimerActiveTimerEvent
 1686              	.LVL152:
1173:VS4210/SysTimer.c **** 	case _SYSTEM_TIMER_EVENT_JUDGE_PSW_STATE:
 1687              		.loc 1 1173 3 view .LVU362
 1688 0148 9BE7     		b	.L125
 1689              	.L161:
1175:VS4210/SysTimer.c **** 		break;
 1690              		.loc 1 1175 3 view .LVU363
 1691 014a 5F48     		ldr	r0, .L196+28
 1692 014c FFF7FEFF 		bl	DEBUG_MESSAGE
 1693              	.LVL153:
1176:VS4210/SysTimer.c **** 	case _SYSTEM_TIMER_EVENT_JUDGE_BTH_STATE:
 1694              		.loc 1 1176 3 view .LVU364
 1695 0150 97E7     		b	.L125
 1696              	.L162:
1200:VS4210/SysTimer.c **** 		break;
 1697              		.loc 1 1200 3 view .LVU365
 1698 0152 2621     		movs	r1, #38
 1699 0154 42F21070 		movw	r0, #10000
 1700 0158 FFF7FEFF 		bl	MCUTimerActiveTimerEvent
 1701              	.LVL154:
1201:VS4210/SysTimer.c **** 	case _SYSTEM_TIMER_EVENT_JUDGE_WDT_ECHO:
 1702              		.loc 1 1201 3 view .LVU366
ARM GAS  C:\Users\ryanc.HS\AppData\Local\Temp\ccysXWgI.s 			page 65


 1703 015c 91E7     		b	.L125
 1704              	.L159:
1203:VS4210/SysTimer.c **** 		MCUTimerActiveTimerEvent(SEC(10), _SYSTEM_TIMER_EVENT_JUDGE_WDT_ECHO);
 1705              		.loc 1 1203 3 view .LVU367
 1706 015e 5B48     		ldr	r0, .L196+32
 1707 0160 FFF7FEFF 		bl	DEBUG_MESSAGE
 1708              	.LVL155:
1204:VS4210/SysTimer.c **** 		break;
 1709              		.loc 1 1204 3 view .LVU368
 1710 0164 2C21     		movs	r1, #44
 1711 0166 42F21070 		movw	r0, #10000
 1712 016a FFF7FEFF 		bl	MCUTimerActiveTimerEvent
 1713              	.LVL156:
1205:VS4210/SysTimer.c **** 	case _SYSTEM_TIMER_EVENT_JUDGE_AC_MODE:
 1714              		.loc 1 1205 3 view .LVU369
 1715 016e 88E7     		b	.L125
 1716              	.L160:
1246:VS4210/SysTimer.c **** 		/*
 1717              		.loc 1 1246 3 view .LVU370
 1718 0170 5748     		ldr	r0, .L196+36
 1719 0172 FFF7FEFF 		bl	DEBUG_MESSAGE
 1720              	.LVL157:
1258:VS4210/SysTimer.c **** 
 1721              		.loc 1 1258 3 view .LVU371
 1722 0176 84E7     		b	.L125
 1723              	.L129:
1276:VS4210/SysTimer.c **** 
 1724              		.loc 1 1276 3 view .LVU372
1276:VS4210/SysTimer.c **** 
 1725              		.loc 1 1276 10 is_stmt 0 view .LVU373
 1726 0178 564A     		ldr	r2, .L196+40
 1727 017a 1378     		ldrb	r3, [r2]	@ zero_extendqisi2
 1728 017c 0A33     		adds	r3, r3, #10
 1729 017e DBB2     		uxtb	r3, r3
 1730 0180 1370     		strb	r3, [r2]
1278:VS4210/SysTimer.c **** 		{
 1731              		.loc 1 1278 3 is_stmt 1 view .LVU374
1278:VS4210/SysTimer.c **** 		{
 1732              		.loc 1 1278 6 is_stmt 0 view .LVU375
 1733 0182 3C2B     		cmp	r3, #60
 1734 0184 0FD0     		beq	.L185
 1735              	.L166:
1284:VS4210/SysTimer.c **** 		{
 1736              		.loc 1 1284 3 is_stmt 1 view .LVU376
1284:VS4210/SysTimer.c **** 		{
 1737              		.loc 1 1284 14 is_stmt 0 view .LVU377
 1738 0186 544B     		ldr	r3, .L196+44
 1739 0188 1B78     		ldrb	r3, [r3]	@ zero_extendqisi2
1284:VS4210/SysTimer.c **** 		{
 1740              		.loc 1 1284 6 view .LVU378
 1741 018a 3C2B     		cmp	r3, #60
 1742 018c 13D0     		beq	.L186
 1743              	.L167:
1290:VS4210/SysTimer.c **** 		{
 1744              		.loc 1 1290 3 is_stmt 1 view .LVU379
1290:VS4210/SysTimer.c **** 		{
 1745              		.loc 1 1290 12 is_stmt 0 view .LVU380
ARM GAS  C:\Users\ryanc.HS\AppData\Local\Temp\ccysXWgI.s 			page 66


 1746 018e 534B     		ldr	r3, .L196+48
 1747 0190 1B78     		ldrb	r3, [r3]	@ zero_extendqisi2
1290:VS4210/SysTimer.c **** 		{
 1748              		.loc 1 1290 6 view .LVU381
 1749 0192 182B     		cmp	r3, #24
 1750 0194 17D0     		beq	.L187
 1751              	.L168:
1296:VS4210/SysTimer.c **** 		MCUTimerActiveTimerEvent(SEC(10), _SYSTEM_TIMER_EVENT_SHOW_WORKING_TIMER);
 1752              		.loc 1 1296 3 is_stmt 1 view .LVU382
 1753 0196 FFF7FEFF 		bl	ShowWorkingTimer
 1754              	.LVL158:
1297:VS4210/SysTimer.c **** 		break;
 1755              		.loc 1 1297 3 view .LVU383
 1756 019a 4D21     		movs	r1, #77
 1757 019c 42F21070 		movw	r0, #10000
 1758 01a0 FFF7FEFF 		bl	MCUTimerActiveTimerEvent
 1759              	.LVL159:
1298:VS4210/SysTimer.c **** 	case _SYSTEM_TIMER_EVENT_AUTO_SLEEPING_TIMEOUT:
 1760              		.loc 1 1298 3 view .LVU384
 1761 01a4 6DE7     		b	.L125
 1762              	.L185:
1280:VS4210/SysTimer.c **** 			minute++;
 1763              		.loc 1 1280 4 view .LVU385
1280:VS4210/SysTimer.c **** 			minute++;
 1764              		.loc 1 1280 11 is_stmt 0 view .LVU386
 1765 01a6 1346     		mov	r3, r2
 1766 01a8 0022     		movs	r2, #0
 1767 01aa 1A70     		strb	r2, [r3]
1281:VS4210/SysTimer.c **** 		}
 1768              		.loc 1 1281 4 is_stmt 1 view .LVU387
1281:VS4210/SysTimer.c **** 		}
 1769              		.loc 1 1281 10 is_stmt 0 view .LVU388
 1770 01ac 4A4A     		ldr	r2, .L196+44
 1771 01ae 1378     		ldrb	r3, [r2]	@ zero_extendqisi2
 1772 01b0 0133     		adds	r3, r3, #1
 1773 01b2 1370     		strb	r3, [r2]
 1774 01b4 E7E7     		b	.L166
 1775              	.L186:
1286:VS4210/SysTimer.c **** 			hour++;
 1776              		.loc 1 1286 4 is_stmt 1 view .LVU389
1286:VS4210/SysTimer.c **** 			hour++;
 1777              		.loc 1 1286 11 is_stmt 0 view .LVU390
 1778 01b6 484B     		ldr	r3, .L196+44
 1779 01b8 0022     		movs	r2, #0
 1780 01ba 1A70     		strb	r2, [r3]
1287:VS4210/SysTimer.c **** 		}
 1781              		.loc 1 1287 4 is_stmt 1 view .LVU391
1287:VS4210/SysTimer.c **** 		}
 1782              		.loc 1 1287 8 is_stmt 0 view .LVU392
 1783 01bc 474A     		ldr	r2, .L196+48
 1784 01be 1378     		ldrb	r3, [r2]	@ zero_extendqisi2
 1785 01c0 0133     		adds	r3, r3, #1
 1786 01c2 1370     		strb	r3, [r2]
 1787 01c4 E3E7     		b	.L167
 1788              	.L187:
1292:VS4210/SysTimer.c **** 			day++;
 1789              		.loc 1 1292 4 is_stmt 1 view .LVU393
ARM GAS  C:\Users\ryanc.HS\AppData\Local\Temp\ccysXWgI.s 			page 67


1292:VS4210/SysTimer.c **** 			day++;
 1790              		.loc 1 1292 9 is_stmt 0 view .LVU394
 1791 01c6 454B     		ldr	r3, .L196+48
 1792 01c8 0022     		movs	r2, #0
 1793 01ca 1A70     		strb	r2, [r3]
1293:VS4210/SysTimer.c **** 		}
 1794              		.loc 1 1293 4 is_stmt 1 view .LVU395
1293:VS4210/SysTimer.c **** 		}
 1795              		.loc 1 1293 7 is_stmt 0 view .LVU396
 1796 01cc 444A     		ldr	r2, .L196+52
 1797 01ce 1378     		ldrb	r3, [r2]	@ zero_extendqisi2
 1798 01d0 0133     		adds	r3, r3, #1
 1799 01d2 1370     		strb	r3, [r2]
 1800 01d4 DFE7     		b	.L168
 1801              	.L127:
1302:VS4210/SysTimer.c **** #endif
 1802              		.loc 1 1302 3 is_stmt 1 view .LVU397
 1803 01d6 4349     		ldr	r1, .L196+56
 1804 01d8 0120     		movs	r0, #1
 1805 01da FFF7FEFF 		bl	GraphicsPrint
 1806              	.LVL160:
1305:VS4210/SysTimer.c **** 		{
 1807              		.loc 1 1305 3 view .LVU398
1305:VS4210/SysTimer.c **** 		{
 1808              		.loc 1 1305 24 is_stmt 0 view .LVU399
 1809 01de 424B     		ldr	r3, .L196+60
 1810 01e0 1B78     		ldrb	r3, [r3]	@ zero_extendqisi2
1305:VS4210/SysTimer.c **** 		{
 1811              		.loc 1 1305 6 view .LVU400
 1812 01e2 012B     		cmp	r3, #1
 1813 01e4 02D1     		bne	.L169
1305:VS4210/SysTimer.c **** 		{
 1814              		.loc 1 1305 43 discriminator 1 view .LVU401
 1815 01e6 414B     		ldr	r3, .L196+64
 1816 01e8 1B78     		ldrb	r3, [r3]	@ zero_extendqisi2
1305:VS4210/SysTimer.c **** 		{
 1817              		.loc 1 1305 31 discriminator 1 view .LVU402
 1818 01ea 73B1     		cbz	r3, .L188
 1819              	.L169:
1314:VS4210/SysTimer.c **** 		}
 1820              		.loc 1 1314 4 is_stmt 1 view .LVU403
1314:VS4210/SysTimer.c **** 		}
 1821              		.loc 1 1314 29 is_stmt 0 view .LVU404
 1822 01ec 404B     		ldr	r3, .L196+68
 1823 01ee 1B78     		ldrb	r3, [r3]	@ zero_extendqisi2
 1824 01f0 C3EB8370 		rsb	r0, r3, r3, lsl #30
 1825 01f4 C3EB8003 		rsb	r3, r3, r0, lsl #2
 1826 01f8 0A33     		adds	r3, r3, #10
1314:VS4210/SysTimer.c **** 		}
 1827              		.loc 1 1314 4 view .LVU405
 1828 01fa 4E21     		movs	r1, #78
 1829 01fc 4FF47A70 		mov	r0, #1000
 1830 0200 00FB03F0 		mul	r0, r0, r3
 1831 0204 FFF7FEFF 		bl	MCUTimerActiveTimerEvent
 1832              	.LVL161:
 1833 0208 3BE7     		b	.L125
 1834              	.L188:
ARM GAS  C:\Users\ryanc.HS\AppData\Local\Temp\ccysXWgI.s 			page 68


1308:VS4210/SysTimer.c **** #endif
 1835              		.loc 1 1308 4 is_stmt 1 view .LVU406
 1836 020a 3A49     		ldr	r1, .L196+72
 1837 020c 0220     		movs	r0, #2
 1838 020e FFF7FEFF 		bl	GraphicsPrint
 1839              	.LVL162:
1310:VS4210/SysTimer.c **** 		}
 1840              		.loc 1 1310 4 view .LVU407
1310:VS4210/SysTimer.c **** 		}
 1841              		.loc 1 1310 19 is_stmt 0 view .LVU408
 1842 0212 394B     		ldr	r3, .L196+76
 1843 0214 0122     		movs	r2, #1
 1844 0216 1A70     		strb	r2, [r3]
 1845 0218 33E7     		b	.L125
 1846              	.L130:
1386:VS4210/SysTimer.c **** 		//#if(_DEBUG_MESSAGE_UserInterfaceTimerEvent==ON)
 1847              		.loc 1 1386 3 is_stmt 1 view .LVU409
1386:VS4210/SysTimer.c **** 		//#if(_DEBUG_MESSAGE_UserInterfaceTimerEvent==ON)
 1848              		.loc 1 1386 13 is_stmt 0 view .LVU410
 1849 021a 384B     		ldr	r3, .L196+80
 1850 021c 0122     		movs	r2, #1
 1851 021e 1A70     		strb	r2, [r3]
1390:VS4210/SysTimer.c **** 	case _SYSTEM_TIMER_EVENT_TP_PRES_DOWN:
 1852              		.loc 1 1390 3 is_stmt 1 view .LVU411
 1853 0220 2FE7     		b	.L125
 1854              	.L131:
1392:VS4210/SysTimer.c **** 		break;
 1855              		.loc 1 1392 3 view .LVU412
 1856 0222 4D21     		movs	r1, #77
 1857 0224 40F6B830 		movw	r0, #3000
 1858 0228 FFF7FEFF 		bl	MCUTimerActiveTimerEvent
 1859              	.LVL163:
1393:VS4210/SysTimer.c **** 
 1860              		.loc 1 1393 3 view .LVU413
 1861 022c 29E7     		b	.L125
 1862              	.L142:
1396:VS4210/SysTimer.c **** #if (_DEBUG_MESSAGE_UserInterfaceTimerEvent == ON)
 1863              		.loc 1 1396 3 view .LVU414
1396:VS4210/SysTimer.c **** #if (_DEBUG_MESSAGE_UserInterfaceTimerEvent == ON)
 1864              		.loc 1 1396 14 is_stmt 0 view .LVU415
 1865 022e 344B     		ldr	r3, .L196+84
 1866 0230 0022     		movs	r2, #0
 1867 0232 1A70     		strb	r2, [r3]
1398:VS4210/SysTimer.c **** #endif
 1868              		.loc 1 1398 3 is_stmt 1 view .LVU416
 1869 0234 3349     		ldr	r1, .L196+88
 1870 0236 0320     		movs	r0, #3
 1871 0238 FFF7FEFF 		bl	GraphicsPrint
 1872              	.LVL164:
1400:VS4210/SysTimer.c **** 	case _SYSTEM_TIMER_EVENT_SET_VX8812_SD_Video_Out:
 1873              		.loc 1 1400 3 view .LVU417
 1874 023c 21E7     		b	.L125
 1875              	.L140:
1402:VS4210/SysTimer.c **** 		break;
 1876              		.loc 1 1402 3 view .LVU418
 1877 023e 0120     		movs	r0, #1
 1878 0240 FFF7FEFF 		bl	SET_VX8812_SD_Video_Out
ARM GAS  C:\Users\ryanc.HS\AppData\Local\Temp\ccysXWgI.s 			page 69


 1879              	.LVL165:
1403:VS4210/SysTimer.c **** 	case _SYSTEM_TIMER_EVENT_GRABBER_SETUP:
 1880              		.loc 1 1403 3 view .LVU419
 1881 0244 1DE7     		b	.L125
 1882              	.L132:
1405:VS4210/SysTimer.c **** 		break;
 1883              		.loc 1 1405 3 view .LVU420
 1884 0246 304B     		ldr	r3, .L196+92
 1885 0248 1878     		ldrb	r0, [r3]	@ zero_extendqisi2
 1886 024a FFF7FEFF 		bl	SetGarbberLinerMode
 1887              	.LVL166:
1406:VS4210/SysTimer.c **** 	case _SYSTEM_TIMER_EVENT_TVI_BOX_Set:
 1888              		.loc 1 1406 3 view .LVU421
 1889 024e 18E7     		b	.L125
 1890              	.L133:
1408:VS4210/SysTimer.c **** 		BOX_ISSUE++;
 1891              		.loc 1 1408 3 view .LVU422
 1892 0250 FFF7FEFF 		bl	TVI_BOX_Set
 1893              	.LVL167:
1409:VS4210/SysTimer.c **** 		if (BOX_ISSUE < 2)
 1894              		.loc 1 1409 3 view .LVU423
1409:VS4210/SysTimer.c **** 		if (BOX_ISSUE < 2)
 1895              		.loc 1 1409 12 is_stmt 0 view .LVU424
 1896 0254 2D4A     		ldr	r2, .L196+96
 1897 0256 1378     		ldrb	r3, [r2]	@ zero_extendqisi2
 1898 0258 0133     		adds	r3, r3, #1
 1899 025a DBB2     		uxtb	r3, r3
 1900 025c 1370     		strb	r3, [r2]
1410:VS4210/SysTimer.c **** 			MCUTimerActiveTimerEvent(SEC(1), _SYSTEM_TIMER_EVENT_TVI_BOX_Set);
 1901              		.loc 1 1410 3 is_stmt 1 view .LVU425
1410:VS4210/SysTimer.c **** 			MCUTimerActiveTimerEvent(SEC(1), _SYSTEM_TIMER_EVENT_TVI_BOX_Set);
 1902              		.loc 1 1410 6 is_stmt 0 view .LVU426
 1903 025e 012B     		cmp	r3, #1
 1904 0260 3FF60FAF 		bhi	.L125
1411:VS4210/SysTimer.c **** 		break;
 1905              		.loc 1 1411 4 is_stmt 1 view .LVU427
 1906 0264 4921     		movs	r1, #73
 1907 0266 4FF47A70 		mov	r0, #1000
 1908 026a FFF7FEFF 		bl	MCUTimerActiveTimerEvent
 1909              	.LVL168:
 1910 026e 08E7     		b	.L125
 1911              	.L149:
1432:VS4210/SysTimer.c **** 
 1912              		.loc 1 1432 3 view .LVU428
 1913 0270 3721     		movs	r1, #55
 1914 0272 4FF4FA60 		mov	r0, #2000
 1915 0276 FFF7FEFF 		bl	MCUTimerActiveTimerEvent
 1916              	.LVL169:
1434:VS4210/SysTimer.c **** 	case _SYSTEM_TIMER_EVENT_KEY_CHECK:
 1917              		.loc 1 1434 3 view .LVU429
 1918 027a 02E7     		b	.L125
 1919              	.L147:
1438:VS4210/SysTimer.c **** #endif
 1920              		.loc 1 1438 3 view .LVU430
 1921 027c 2449     		ldr	r1, .L196+100
 1922 027e 0620     		movs	r0, #6
 1923 0280 FFF7FEFF 		bl	GraphicsPrint
ARM GAS  C:\Users\ryanc.HS\AppData\Local\Temp\ccysXWgI.s 			page 70


 1924              	.LVL170:
1440:VS4210/SysTimer.c **** 		MCUTimerActiveTimerEvent(SEC(1), _SYSTEM_TIMER_EVENT_KEY_CHECK);
 1925              		.loc 1 1440 3 view .LVU431
 1926 0284 FFF7FEFF 		bl	CheckKeyIn
 1927              	.LVL171:
1441:VS4210/SysTimer.c **** 		break;
 1928              		.loc 1 1441 3 view .LVU432
 1929 0288 3921     		movs	r1, #57
 1930 028a 4FF47A70 		mov	r0, #1000
 1931 028e FFF7FEFF 		bl	MCUTimerActiveTimerEvent
 1932              	.LVL172:
1442:VS4210/SysTimer.c **** 	case _SYSTEM_TIMER_EVENT_EQ_DETECT:
 1933              		.loc 1 1442 3 view .LVU433
 1934 0292 F6E6     		b	.L125
 1935              	.L148:
1444:VS4210/SysTimer.c **** // Encoder_flag=ON;
 1936              		.loc 1 1444 3 view .LVU434
 1937 0294 FFF7FEFF 		bl	EQ_Detect
 1938              	.LVL173:
1447:VS4210/SysTimer.c **** #endif
 1939              		.loc 1 1447 3 view .LVU435
 1940 0298 1E49     		ldr	r1, .L196+104
 1941 029a 0320     		movs	r0, #3
 1942 029c FFF7FEFF 		bl	GraphicsPrint
 1943              	.LVL174:
1449:VS4210/SysTimer.c **** 		break;
 1944              		.loc 1 1449 3 view .LVU436
 1945 02a0 3821     		movs	r1, #56
 1946 02a2 4FF4FA70 		mov	r0, #500
 1947 02a6 FFF7FEFF 		bl	MCUTimerActiveTimerEvent
 1948              	.LVL175:
1450:VS4210/SysTimer.c **** 	case _SYSTEM_TIMER_EVENT_ADC_CHECK:
 1949              		.loc 1 1450 3 view .LVU437
 1950 02aa EAE6     		b	.L125
 1951              	.L197:
 1952              		.align	2
 1953              	.L196:
 1954 02ac 00020301 		.word	16974336
 1955 02b0 00000000 		.word	BAT_StartupVOLT
 1956 02b4 1F85EB51 		.word	1374389535
 1957 02b8 00000000 		.word	.LC14
 1958 02bc 00000000 		.word	BAT_VOLTAGE
 1959 02c0 00000000 		.word	BAT_ADC
 1960 02c4 24000000 		.word	.LC15
 1961 02c8 40000000 		.word	.LC16
 1962 02cc 54000000 		.word	.LC17
 1963 02d0 7C000000 		.word	.LC18
 1964 02d4 00000000 		.word	.LANCHOR5
 1965 02d8 00000000 		.word	.LANCHOR6
 1966 02dc 00000000 		.word	.LANCHOR4
 1967 02e0 00000000 		.word	.LANCHOR3
 1968 02e4 88000000 		.word	.LC19
 1969 02e8 00000000 		.word	bytAutoSleeping
 1970 02ec 00000000 		.word	SEQFlag
 1971 02f0 00000000 		.word	bytStandByModeToTriggerMode
 1972 02f4 A0000000 		.word	.LC20
 1973 02f8 00000000 		.word	bytStandByMode
ARM GAS  C:\Users\ryanc.HS\AppData\Local\Temp\ccysXWgI.s 			page 71


 1974 02fc 00000000 		.word	TP_ACTION
 1975 0300 00000000 		.word	BOOT_ISSUE
 1976 0304 B8000000 		.word	.LC21
 1977 0308 00000000 		.word	bytGarbberLinerMode
 1978 030c 00000000 		.word	BOX_ISSUE
 1979 0310 CC000000 		.word	.LC22
 1980 0314 D4000000 		.word	.LC23
 1981              	.L146:
1452:VS4210/SysTimer.c **** 
 1982              		.loc 1 1452 3 view .LVU438
 1983 0318 754C     		ldr	r4, .L198
 1984 031a 2046     		mov	r0, r4
 1985 031c FFF7FEFF 		bl	HAL_ADC_Start
 1986              	.LVL176:
1454:VS4210/SysTimer.c **** 
 1987              		.loc 1 1454 3 view .LVU439
 1988 0320 3221     		movs	r1, #50
 1989 0322 2046     		mov	r0, r4
 1990 0324 FFF7FEFF 		bl	HAL_ADC_PollForConversion
 1991              	.LVL177:
1456:VS4210/SysTimer.c **** 		{
 1992              		.loc 1 1456 3 view .LVU440
1456:VS4210/SysTimer.c **** 		{
 1993              		.loc 1 1456 7 is_stmt 0 view .LVU441
 1994 0328 2046     		mov	r0, r4
 1995 032a FFF7FEFF 		bl	HAL_ADC_GetState
 1996              	.LVL178:
1456:VS4210/SysTimer.c **** 		{
 1997              		.loc 1 1456 6 view .LVU442
 1998 032e 10F4007F 		tst	r0, #512
 1999 0332 10D1     		bne	.L189
 2000              	.L170:
1471:VS4210/SysTimer.c **** 		{
 2001              		.loc 1 1471 3 is_stmt 1 view .LVU443
1471:VS4210/SysTimer.c **** 		{
 2002              		.loc 1 1471 7 is_stmt 0 view .LVU444
 2003 0334 6F4B     		ldr	r3, .L198+4
 2004 0336 1B78     		ldrb	r3, [r3]	@ zero_extendqisi2
1471:VS4210/SysTimer.c **** 		{
 2005              		.loc 1 1471 6 view .LVU445
 2006 0338 C3B9     		cbnz	r3, .L190
1476:VS4210/SysTimer.c **** 		{
 2007              		.loc 1 1476 8 is_stmt 1 view .LVU446
1476:VS4210/SysTimer.c **** 		{
 2008              		.loc 1 1476 41 is_stmt 0 view .LVU447
 2009 033a 6F4B     		ldr	r3, .L198+8
 2010 033c 1B78     		ldrb	r3, [r3]	@ zero_extendqisi2
 2011 033e 023B     		subs	r3, r3, #2
 2012 0340 DBB2     		uxtb	r3, r3
1476:VS4210/SysTimer.c **** 		{
 2013              		.loc 1 1476 11 view .LVU448
 2014 0342 012B     		cmp	r3, #1
 2015 0344 17D9     		bls	.L191
1485:VS4210/SysTimer.c **** 		}
 2016              		.loc 1 1485 4 is_stmt 1 view .LVU449
 2017 0346 8020     		movs	r0, #128
 2018 0348 FFF7FEFF 		bl	AdjustAutoDayNight
ARM GAS  C:\Users\ryanc.HS\AppData\Local\Temp\ccysXWgI.s 			page 72


 2019              	.LVL179:
 2020              	.L172:
1488:VS4210/SysTimer.c **** 
 2021              		.loc 1 1488 3 view .LVU450
 2022 034c 3A21     		movs	r1, #58
 2023 034e C820     		movs	r0, #200
 2024 0350 FFF7FEFF 		bl	MCUTimerActiveTimerEvent
 2025              	.LVL180:
1490:VS4210/SysTimer.c **** 	case _SYSTEM_TIMER_EVENT_TRIGGER_DELAY_RELEASE:
 2026              		.loc 1 1490 3 view .LVU451
 2027 0354 95E6     		b	.L125
 2028              	.L189:
1458:VS4210/SysTimer.c **** 
 2029              		.loc 1 1458 4 view .LVU452
1458:VS4210/SysTimer.c **** 
 2030              		.loc 1 1458 23 is_stmt 0 view .LVU453
 2031 0356 2046     		mov	r0, r4
 2032 0358 FFF7FEFF 		bl	HAL_ADC_GetValue
 2033              	.LVL181:
1458:VS4210/SysTimer.c **** 
 2034              		.loc 1 1458 48 view .LVU454
 2035 035c 4308     		lsrs	r3, r0, #1
 2036 035e 674A     		ldr	r2, .L198+12
 2037 0360 A2FB0323 		umull	r2, r3, r2, r3
 2038 0364 9B08     		lsrs	r3, r3, #2
1458:VS4210/SysTimer.c **** 
 2039              		.loc 1 1458 20 view .LVU455
 2040 0366 664A     		ldr	r2, .L198+16
 2041 0368 1380     		strh	r3, [r2]	@ movhi
 2042 036a E3E7     		b	.L170
 2043              	.L190:
1474:VS4210/SysTimer.c **** 		}
 2044              		.loc 1 1474 4 is_stmt 1 view .LVU456
 2045 036c 644B     		ldr	r3, .L198+16
 2046 036e 1878     		ldrb	r0, [r3]	@ zero_extendqisi2
 2047 0370 FFF7FEFF 		bl	AdjustAutoDayNight
 2048              	.LVL182:
 2049 0374 EAE7     		b	.L172
 2050              	.L191:
1479:VS4210/SysTimer.c **** 			// user_pwm_setvalue(15*15*3);
 2051              		.loc 1 1479 4 view .LVU457
 2052 0376 E120     		movs	r0, #225
 2053 0378 FFF7FEFF 		bl	user_pwm_setvalue
 2054              	.LVL183:
 2055 037c E6E7     		b	.L172
 2056              	.L145:
1493:VS4210/SysTimer.c **** 		{
 2057              		.loc 1 1493 3 view .LVU458
1493:VS4210/SysTimer.c **** 		{
 2058              		.loc 1 1493 22 is_stmt 0 view .LVU459
 2059 037e 614B     		ldr	r3, .L198+20
 2060 0380 1B78     		ldrb	r3, [r3]	@ zero_extendqisi2
1493:VS4210/SysTimer.c **** 		{
 2061              		.loc 1 1493 6 view .LVU460
 2062 0382 012B     		cmp	r3, #1
 2063 0384 18D0     		beq	.L192
1499:VS4210/SysTimer.c **** 			LCDPowerOFF();
ARM GAS  C:\Users\ryanc.HS\AppData\Local\Temp\ccysXWgI.s 			page 73


 2064              		.loc 1 1499 8 is_stmt 1 view .LVU461
1499:VS4210/SysTimer.c **** 			LCDPowerOFF();
 2065              		.loc 1 1499 22 is_stmt 0 view .LVU462
 2066 0386 604B     		ldr	r3, .L198+24
 2067 0388 1B78     		ldrb	r3, [r3]	@ zero_extendqisi2
1499:VS4210/SysTimer.c **** 			LCDPowerOFF();
 2068              		.loc 1 1499 11 view .LVU463
 2069 038a EBB1     		cbz	r3, .L193
 2070              	.L175:
1502:VS4210/SysTimer.c **** 
 2071              		.loc 1 1502 3 is_stmt 1 view .LVU464
 2072 038c FFF7FEFF 		bl	ShowTRIGOSD
 2073              	.LVL184:
1504:VS4210/SysTimer.c **** 		{
 2074              		.loc 1 1504 3 view .LVU465
1504:VS4210/SysTimer.c **** 		{
 2075              		.loc 1 1504 17 is_stmt 0 view .LVU466
 2076 0390 5D4B     		ldr	r3, .L198+24
 2077 0392 1B78     		ldrb	r3, [r3]	@ zero_extendqisi2
1504:VS4210/SysTimer.c **** 		{
 2078              		.loc 1 1504 6 view .LVU467
 2079 0394 012B     		cmp	r3, #1
 2080 0396 24D1     		bne	.L176
1517:VS4210/SysTimer.c **** 			{
 2081              		.loc 1 1517 4 is_stmt 1 view .LVU468
1517:VS4210/SysTimer.c **** 			{
 2082              		.loc 1 1517 8 is_stmt 0 view .LVU469
 2083 0398 5C4B     		ldr	r3, .L198+28
 2084 039a 1B78     		ldrb	r3, [r3]	@ zero_extendqisi2
1517:VS4210/SysTimer.c **** 			{
 2085              		.loc 1 1517 7 view .LVU470
 2086 039c BBB9     		cbnz	r3, .L194
 2087              	.L177:
1524:VS4210/SysTimer.c **** 			{
 2088              		.loc 1 1524 4 is_stmt 1 view .LVU471
1524:VS4210/SysTimer.c **** 			{
 2089              		.loc 1 1524 24 is_stmt 0 view .LVU472
 2090 039e 5C4B     		ldr	r3, .L198+32
 2091 03a0 1B78     		ldrb	r3, [r3]	@ zero_extendqisi2
1524:VS4210/SysTimer.c **** 			{
 2092              		.loc 1 1524 7 view .LVU473
 2093 03a2 012B     		cmp	r3, #1
 2094 03a4 23D1     		bne	.L178
1526:VS4210/SysTimer.c **** 				MCUTimerActiveTimerEvent(SEC(10), _SYSTEM_TIMER_EVENT_AUTO_SLEEPING_TIMEOUT);
 2095              		.loc 1 1526 5 is_stmt 1 view .LVU474
 2096 03a6 4E20     		movs	r0, #78
 2097 03a8 FFF7FEFF 		bl	MCUTimerCancelTimerEvent
 2098              	.LVL185:
1527:VS4210/SysTimer.c **** 			}
 2099              		.loc 1 1527 5 view .LVU475
 2100 03ac 4E21     		movs	r1, #78
 2101 03ae 42F21070 		movw	r0, #10000
 2102 03b2 FFF7FEFF 		bl	MCUTimerActiveTimerEvent
 2103              	.LVL186:
 2104 03b6 1AE0     		b	.L178
 2105              	.L192:
1495:VS4210/SysTimer.c **** 			bytStandByModeToTriggerMode = ON;
ARM GAS  C:\Users\ryanc.HS\AppData\Local\Temp\ccysXWgI.s 			page 74


 2106              		.loc 1 1495 4 view .LVU476
1495:VS4210/SysTimer.c **** 			bytStandByModeToTriggerMode = ON;
 2107              		.loc 1 1495 14 is_stmt 0 view .LVU477
 2108 03b8 534A     		ldr	r2, .L198+24
 2109 03ba 1370     		strb	r3, [r2]
1496:VS4210/SysTimer.c **** 			Printf("(bytStandByModeToTriggerMode)");
 2110              		.loc 1 1496 4 is_stmt 1 view .LVU478
1496:VS4210/SysTimer.c **** 			Printf("(bytStandByModeToTriggerMode)");
 2111              		.loc 1 1496 32 is_stmt 0 view .LVU479
 2112 03bc 554A     		ldr	r2, .L198+36
 2113 03be 1370     		strb	r3, [r2]
1497:VS4210/SysTimer.c **** 		}
 2114              		.loc 1 1497 4 is_stmt 1 view .LVU480
 2115 03c0 5548     		ldr	r0, .L198+40
 2116 03c2 FFF7FEFF 		bl	Printf
 2117              	.LVL187:
 2118 03c6 E1E7     		b	.L175
 2119              	.L193:
1500:VS4210/SysTimer.c **** 
 2120              		.loc 1 1500 4 view .LVU481
 2121 03c8 FFF7FEFF 		bl	LCDPowerOFF
 2122              	.LVL188:
 2123 03cc DEE7     		b	.L175
 2124              	.L194:
1519:VS4210/SysTimer.c **** 				SETTW8812OFF();
 2125              		.loc 1 1519 5 view .LVU482
 2126 03ce FFF7FEFF 		bl	LCDPowerOFF
 2127              	.LVL189:
1520:VS4210/SysTimer.c **** 				MCUTimerActiveTimerEvent(SEC(_BACKLIGHT_ON_Time_out), _USER_TIMER_EVENT_PANEL_BACKLIGHT_ON);
 2128              		.loc 1 1520 5 view .LVU483
 2129 03d2 FFF7FEFF 		bl	SETTW8812OFF
 2130              	.LVL190:
1521:VS4210/SysTimer.c **** 			}
 2131              		.loc 1 1521 5 view .LVU484
 2132 03d6 1121     		movs	r1, #17
 2133 03d8 4FF4FA70 		mov	r0, #500
 2134 03dc FFF7FEFF 		bl	MCUTimerActiveTimerEvent
 2135              	.LVL191:
 2136 03e0 DDE7     		b	.L177
 2137              	.L176:
1532:VS4210/SysTimer.c **** 			PowerLED(_SYSTEM_TIMER_EVENT_RED_ON);
 2138              		.loc 1 1532 4 view .LVU485
 2139 03e2 0120     		movs	r0, #1
 2140 03e4 FFF7FEFF 		bl	AudioMute
 2141              	.LVL192:
1533:VS4210/SysTimer.c **** 		}
 2142              		.loc 1 1533 4 view .LVU486
 2143 03e8 2F20     		movs	r0, #47
 2144 03ea FFF7FEFF 		bl	PowerLED
 2145              	.LVL193:
 2146              	.L178:
1536:VS4210/SysTimer.c **** 		{
 2147              		.loc 1 1536 3 view .LVU487
1536:VS4210/SysTimer.c **** 		{
 2148              		.loc 1 1536 7 is_stmt 0 view .LVU488
 2149 03ee 474B     		ldr	r3, .L198+28
 2150 03f0 1B78     		ldrb	r3, [r3]	@ zero_extendqisi2
ARM GAS  C:\Users\ryanc.HS\AppData\Local\Temp\ccysXWgI.s 			page 75


1536:VS4210/SysTimer.c **** 		{
 2151              		.loc 1 1536 6 view .LVU489
 2152 03f2 002B     		cmp	r3, #0
 2153 03f4 3FF445AE 		beq	.L125
1538:VS4210/SysTimer.c **** 				CloseOSDMenu();
 2154              		.loc 1 1538 4 is_stmt 1 view .LVU490
1538:VS4210/SysTimer.c **** 				CloseOSDMenu();
 2155              		.loc 1 1538 8 is_stmt 0 view .LVU491
 2156 03f8 FFF7FEFF 		bl	GetDisplayedOSD
 2157              	.LVL194:
1538:VS4210/SysTimer.c **** 				CloseOSDMenu();
 2158              		.loc 1 1538 7 view .LVU492
 2159 03fc 10F0100F 		tst	r0, #16
 2160 0400 10D0     		beq	.L179
1539:VS4210/SysTimer.c **** 			else
 2161              		.loc 1 1539 5 is_stmt 1 view .LVU493
 2162 0402 FFF7FEFF 		bl	CloseOSDMenu
 2163              	.LVL195:
 2164              	.L180:
1546:VS4210/SysTimer.c **** 			{
 2165              		.loc 1 1546 4 view .LVU494
1546:VS4210/SysTimer.c **** 			{
 2166              		.loc 1 1546 46 is_stmt 0 view .LVU495
 2167 0406 414B     		ldr	r3, .L198+28
 2168 0408 1A78     		ldrb	r2, [r3]	@ zero_extendqisi2
 2169 040a 531E     		subs	r3, r2, #1
1546:VS4210/SysTimer.c **** 			{
 2170              		.loc 1 1546 31 view .LVU496
 2171 040c 04A9     		add	r1, sp, #16
 2172 040e 0B44     		add	r3, r3, r1
 2173 0410 13F8043C 		ldrb	r3, [r3, #-4]	@ zero_extendqisi2
1546:VS4210/SysTimer.c **** 			{
 2174              		.loc 1 1546 20 view .LVU497
 2175 0414 4149     		ldr	r1, .L198+44
 2176 0416 CB5C     		ldrb	r3, [r1, r3]	@ zero_extendqisi2
1546:VS4210/SysTimer.c **** 			{
 2177              		.loc 1 1546 7 view .LVU498
 2178 0418 012B     		cmp	r3, #1
 2179 041a 08D0     		beq	.L195
 2180              	.L181:
1553:VS4210/SysTimer.c **** 		}
 2181              		.loc 1 1553 4 is_stmt 1 view .LVU499
1553:VS4210/SysTimer.c **** 		}
 2182              		.loc 1 1553 18 is_stmt 0 view .LVU500
 2183 041c 3B4B     		ldr	r3, .L198+28
 2184 041e 0022     		movs	r2, #0
 2185 0420 1A70     		strb	r2, [r3]
 2186 0422 2EE6     		b	.L125
 2187              	.L179:
1542:VS4210/SysTimer.c **** 				CloseOSDMenu();
 2188              		.loc 1 1542 5 is_stmt 1 view .LVU501
 2189 0424 FFF7FEFF 		bl	SetNowMode
 2190              	.LVL196:
1543:VS4210/SysTimer.c **** 			}
 2191              		.loc 1 1543 5 view .LVU502
 2192 0428 FFF7FEFF 		bl	CloseOSDMenu
 2193              	.LVL197:
ARM GAS  C:\Users\ryanc.HS\AppData\Local\Temp\ccysXWgI.s 			page 76


 2194 042c EBE7     		b	.L180
 2195              	.L195:
1548:VS4210/SysTimer.c **** 				SetCOCCom(_COC_FLISHEYE_MODE1, Fisheye_no_save);
 2196              		.loc 1 1548 5 view .LVU503
 2197 042e 013A     		subs	r2, r2, #1
 2198 0430 D1B2     		uxtb	r1, r2
 2199 0432 1920     		movs	r0, #25
 2200 0434 FFF7FEFF 		bl	SetCOCCom
 2201              	.LVL198:
1549:VS4210/SysTimer.c **** 				Get_2824cIrq();
 2202              		.loc 1 1549 5 view .LVU504
 2203 0438 0021     		movs	r1, #0
 2204 043a 1B20     		movs	r0, #27
 2205 043c FFF7FEFF 		bl	SetCOCCom
 2206              	.LVL199:
1550:VS4210/SysTimer.c **** 			}
 2207              		.loc 1 1550 5 view .LVU505
 2208 0440 FFF7FEFF 		bl	Get_2824cIrq
 2209              	.LVL200:
 2210 0444 EAE7     		b	.L181
 2211              	.L144:
1575:VS4210/SysTimer.c **** 			ShowJUMPOSD();
 2212              		.loc 1 1575 3 view .LVU506
1575:VS4210/SysTimer.c **** 			ShowJUMPOSD();
 2213              		.loc 1 1575 21 is_stmt 0 view .LVU507
 2214 0446 364B     		ldr	r3, .L198+48
 2215 0448 1B78     		ldrb	r3, [r3]	@ zero_extendqisi2
1575:VS4210/SysTimer.c **** 			ShowJUMPOSD();
 2216              		.loc 1 1575 6 view .LVU508
 2217 044a 012B     		cmp	r3, #1
 2218 044c 7FF419AE 		bne	.L125
1575:VS4210/SysTimer.c **** 			ShowJUMPOSD();
 2219              		.loc 1 1575 50 discriminator 1 view .LVU509
 2220 0450 344B     		ldr	r3, .L198+52
 2221 0452 1B78     		ldrb	r3, [r3]	@ zero_extendqisi2
1575:VS4210/SysTimer.c **** 			ShowJUMPOSD();
 2222              		.loc 1 1575 34 discriminator 1 view .LVU510
 2223 0454 002B     		cmp	r3, #0
 2224 0456 7FF414AE 		bne	.L125
1576:VS4210/SysTimer.c **** 
 2225              		.loc 1 1576 4 is_stmt 1 view .LVU511
 2226 045a FFF7FEFF 		bl	ShowJUMPOSD
 2227              	.LVL201:
 2228 045e 10E6     		b	.L125
 2229              	.L143:
1585:VS4210/SysTimer.c **** 
 2230              		.loc 1 1585 3 view .LVU512
 2231 0460 314B     		ldr	r3, .L198+56
 2232 0462 1878     		ldrb	r0, [r3]	@ zero_extendqisi2
 2233 0464 FFF7FEFF 		bl	SetSelectCAMRD
 2234              	.LVL202:
1588:VS4210/SysTimer.c **** #endif
 2235              		.loc 1 1588 3 view .LVU513
 2236 0468 3049     		ldr	r1, .L198+60
 2237 046a 0220     		movs	r0, #2
 2238 046c FFF7FEFF 		bl	GraphicsPrint
 2239              	.LVL203:
ARM GAS  C:\Users\ryanc.HS\AppData\Local\Temp\ccysXWgI.s 			page 77


1591:VS4210/SysTimer.c **** 
 2240              		.loc 1 1591 3 view .LVU514
 2241 0470 07E6     		b	.L125
 2242              	.L141:
1594:VS4210/SysTimer.c **** 		AudioMute(OFF);
 2243              		.loc 1 1594 3 view .LVU515
 2244 0472 2F48     		ldr	r0, .L198+64
 2245 0474 FFF7FEFF 		bl	Printf
 2246              	.LVL204:
1595:VS4210/SysTimer.c **** 		break;
 2247              		.loc 1 1595 3 view .LVU516
 2248 0478 0020     		movs	r0, #0
 2249 047a FFF7FEFF 		bl	AudioMute
 2250              	.LVL205:
1596:VS4210/SysTimer.c **** 	case _SYSTEM_TIMER_EVENT_TOUCH_ACTION_0:
 2251              		.loc 1 1596 3 view .LVU517
 2252 047e 00E6     		b	.L125
 2253              	.L139:
1599:VS4210/SysTimer.c **** #endif
 2254              		.loc 1 1599 3 view .LVU518
 2255 0480 2C49     		ldr	r1, .L198+68
 2256 0482 0220     		movs	r0, #2
 2257 0484 FFF7FEFF 		bl	GraphicsPrint
 2258              	.LVL206:
1601:VS4210/SysTimer.c **** 		break;
 2259              		.loc 1 1601 3 view .LVU519
 2260 0488 0020     		movs	r0, #0
 2261 048a FFF7FEFF 		bl	Touch_Screen_Handler
 2262              	.LVL207:
1602:VS4210/SysTimer.c **** 	case _SYSTEM_TIMER_EVENT_TOUCH_ACTION_1:
 2263              		.loc 1 1602 3 view .LVU520
 2264 048e F8E5     		b	.L125
 2265              	.L138:
1605:VS4210/SysTimer.c **** #endif
 2266              		.loc 1 1605 3 view .LVU521
 2267 0490 2949     		ldr	r1, .L198+72
 2268 0492 0220     		movs	r0, #2
 2269 0494 FFF7FEFF 		bl	GraphicsPrint
 2270              	.LVL208:
1607:VS4210/SysTimer.c **** 			Touch_Screen_Handler(_TOUCH_COUNT_1);
 2271              		.loc 1 1607 3 view .LVU522
1607:VS4210/SysTimer.c **** 			Touch_Screen_Handler(_TOUCH_COUNT_1);
 2272              		.loc 1 1607 22 is_stmt 0 view .LVU523
 2273 0498 214B     		ldr	r3, .L198+48
 2274 049a 1B78     		ldrb	r3, [r3]	@ zero_extendqisi2
1607:VS4210/SysTimer.c **** 			Touch_Screen_Handler(_TOUCH_COUNT_1);
 2275              		.loc 1 1607 6 view .LVU524
 2276 049c 13B9     		cbnz	r3, .L182
1607:VS4210/SysTimer.c **** 			Touch_Screen_Handler(_TOUCH_COUNT_1);
 2277              		.loc 1 1607 53 discriminator 1 view .LVU525
 2278 049e 214B     		ldr	r3, .L198+52
 2279 04a0 1B78     		ldrb	r3, [r3]	@ zero_extendqisi2
1607:VS4210/SysTimer.c **** 			Touch_Screen_Handler(_TOUCH_COUNT_1);
 2280              		.loc 1 1607 37 discriminator 1 view .LVU526
 2281 04a2 2BB1     		cbz	r3, .L183
 2282              	.L182:
1607:VS4210/SysTimer.c **** 			Touch_Screen_Handler(_TOUCH_COUNT_1);
ARM GAS  C:\Users\ryanc.HS\AppData\Local\Temp\ccysXWgI.s 			page 78


 2283              		.loc 1 1607 64 discriminator 3 view .LVU527
 2284 04a4 FFF7FEFF 		bl	GetDisplayedOSD
 2285              	.LVL209:
1607:VS4210/SysTimer.c **** 			Touch_Screen_Handler(_TOUCH_COUNT_1);
 2286              		.loc 1 1607 60 discriminator 3 view .LVU528
 2287 04a8 10F0060F 		tst	r0, #6
 2288 04ac 3FF4E9AD 		beq	.L125
 2289              	.L183:
1608:VS4210/SysTimer.c **** 
 2290              		.loc 1 1608 4 is_stmt 1 view .LVU529
 2291 04b0 0120     		movs	r0, #1
 2292 04b2 FFF7FEFF 		bl	Touch_Screen_Handler
 2293              	.LVL210:
 2294 04b6 E4E5     		b	.L125
 2295              	.L137:
1613:VS4210/SysTimer.c **** #endif
 2296              		.loc 1 1613 3 view .LVU530
 2297 04b8 2049     		ldr	r1, .L198+76
 2298 04ba 0220     		movs	r0, #2
 2299 04bc FFF7FEFF 		bl	GraphicsPrint
 2300              	.LVL211:
1617:VS4210/SysTimer.c **** 		break;
 2301              		.loc 1 1617 3 view .LVU531
 2302 04c0 0220     		movs	r0, #2
 2303 04c2 FFF7FEFF 		bl	Touch_Screen_Handler
 2304              	.LVL212:
1618:VS4210/SysTimer.c **** 	case _SYSTEM_TIMER_EVENT_TOUCH_ACTION_3:
 2305              		.loc 1 1618 3 view .LVU532
 2306 04c6 DCE5     		b	.L125
 2307              	.L136:
1621:VS4210/SysTimer.c **** #endif
 2308              		.loc 1 1621 3 view .LVU533
 2309 04c8 1D49     		ldr	r1, .L198+80
 2310 04ca 0220     		movs	r0, #2
 2311 04cc FFF7FEFF 		bl	GraphicsPrint
 2312              	.LVL213:
1623:VS4210/SysTimer.c **** 		break;
 2313              		.loc 1 1623 3 view .LVU534
 2314 04d0 0320     		movs	r0, #3
 2315 04d2 FFF7FEFF 		bl	Touch_Screen_Handler
 2316              	.LVL214:
1624:VS4210/SysTimer.c **** 	case _SYSTEM_TIMER_EVENT_VX8812_INIT:
 2317              		.loc 1 1624 3 view .LVU535
 2318 04d6 D4E5     		b	.L125
 2319              	.L134:
1626:VS4210/SysTimer.c **** 		//	SET_VX8812_SD_Video_Out(_PAL);
 2320              		.loc 1 1626 3 view .LVU536
 2321 04d8 0120     		movs	r0, #1
 2322 04da FFF7FEFF 		bl	SET_VX8812_SD_Video_Out
 2323              	.LVL215:
1628:VS4210/SysTimer.c **** 	case _SYSTEM_TIMER_EVENT_TOUCH_SLIDER_TIME_OUT:
 2324              		.loc 1 1628 3 view .LVU537
 2325 04de D0E5     		b	.L125
 2326              	.L135:
1630:VS4210/SysTimer.c **** #if (_DEBUG_MESSAGE_GT911 == ON)
 2327              		.loc 1 1630 3 view .LVU538
1630:VS4210/SysTimer.c **** #if (_DEBUG_MESSAGE_GT911 == ON)
ARM GAS  C:\Users\ryanc.HS\AppData\Local\Temp\ccysXWgI.s 			page 79


 2328              		.loc 1 1630 16 is_stmt 0 view .LVU539
 2329 04e0 184B     		ldr	r3, .L198+84
 2330 04e2 0022     		movs	r2, #0
 2331 04e4 1A70     		strb	r2, [r3]
1632:VS4210/SysTimer.c **** #endif
 2332              		.loc 1 1632 3 is_stmt 1 view .LVU540
 2333 04e6 1849     		ldr	r1, .L198+88
 2334 04e8 0120     		movs	r0, #1
 2335 04ea FFF7FEFF 		bl	GraphicsPrint
 2336              	.LVL216:
1634:VS4210/SysTimer.c **** 
 2337              		.loc 1 1634 3 view .LVU541
 2338              		.loc 1 1682 1 is_stmt 0 view .LVU542
 2339 04ee C8E5     		b	.L125
 2340              	.L199:
 2341              		.align	2
 2342              	.L198:
 2343 04f0 00000000 		.word	hadc1
 2344 04f4 00000000 		.word	DayNightLevel
 2345 04f8 00000000 		.word	RUN_DIMMER
 2346 04fc 93244992 		.word	-1840700269
 2347 0500 00000000 		.word	LightSensor_ADC
 2348 0504 00000000 		.word	bytStandByMode
 2349 0508 00000000 		.word	PowerFlag
 2350 050c 00000000 		.word	TriggerStatus
 2351 0510 00000000 		.word	bytAutoSleeping
 2352 0514 00000000 		.word	bytStandByModeToTriggerMode
 2353 0518 DC000000 		.word	.LC24
 2354 051c 00000000 		.word	Flisheye_CAM
 2355 0520 00000000 		.word	NowModeState
 2356 0524 00000000 		.word	TriggerFlag
 2357 0528 00000000 		.word	bytSelectCAMRD
 2358 052c FC000000 		.word	.LC25
 2359 0530 20010000 		.word	.LC26
 2360 0534 38010000 		.word	.LC27
 2361 0538 4C010000 		.word	.LC28
 2362 053c 60010000 		.word	.LC29
 2363 0540 74010000 		.word	.LC30
 2364 0544 00000000 		.word	slider_event
 2365 0548 88010000 		.word	.LC31
 2366              		.cfi_endproc
 2367              	.LFE84:
 2369              		.section	.text.SysTimerHandler,"ax",%progbits
 2370              		.align	1
 2371              		.global	SysTimerHandler
 2372              		.syntax unified
 2373              		.thumb
 2374              		.thumb_func
 2375              		.fpu softvfp
 2377              	SysTimerHandler:
 2378              	.LFB83:
1029:VS4210/SysTimer.c **** 	BYTE ucTimerEventIndex = 0;
 2379              		.loc 1 1029 1 is_stmt 1 view -0
 2380              		.cfi_startproc
 2381              		@ args = 0, pretend = 0, frame = 0
 2382              		@ frame_needed = 0, uses_anonymous_args = 0
 2383 0000 38B5     		push	{r3, r4, r5, lr}
ARM GAS  C:\Users\ryanc.HS\AppData\Local\Temp\ccysXWgI.s 			page 80


 2384              	.LCFI13:
 2385              		.cfi_def_cfa_offset 16
 2386              		.cfi_offset 3, -16
 2387              		.cfi_offset 4, -12
 2388              		.cfi_offset 5, -8
 2389              		.cfi_offset 14, -4
1030:VS4210/SysTimer.c **** 	BYTE ucTimerEventID = 0;
 2390              		.loc 1 1030 2 view .LVU544
 2391              	.LVL217:
1031:VS4210/SysTimer.c **** 	WORD usPresentTime = 0;
 2392              		.loc 1 1031 2 view .LVU545
1032:VS4210/SysTimer.c **** 
 2393              		.loc 1 1032 2 view .LVU546
1034:VS4210/SysTimer.c **** 	{
 2394              		.loc 1 1034 2 view .LVU547
1034:VS4210/SysTimer.c **** 	{
 2395              		.loc 1 1034 25 is_stmt 0 view .LVU548
 2396 0002 0024     		movs	r4, #0
1034:VS4210/SysTimer.c **** 	{
 2397              		.loc 1 1034 2 view .LVU549
 2398 0004 03E0     		b	.L201
 2399              	.LVL218:
 2400              	.L207:
1052:VS4210/SysTimer.c **** 
 2401              		.loc 1 1052 5 is_stmt 1 view .LVU550
 2402 0006 FFF7FEFF 		bl	UserInterfaceTimerEventProc
 2403              	.LVL219:
1054:VS4210/SysTimer.c **** 			}
 2404              		.loc 1 1054 5 view .LVU551
 2405              	.L202:
1034:VS4210/SysTimer.c **** 	{
 2406              		.loc 1 1034 70 discriminator 2 view .LVU552
1034:VS4210/SysTimer.c **** 	{
 2407              		.loc 1 1034 87 is_stmt 0 discriminator 2 view .LVU553
 2408 000a 0134     		adds	r4, r4, #1
 2409              	.LVL220:
1034:VS4210/SysTimer.c **** 	{
 2410              		.loc 1 1034 87 discriminator 2 view .LVU554
 2411 000c E4B2     		uxtb	r4, r4
 2412              	.LVL221:
 2413              	.L201:
1034:VS4210/SysTimer.c **** 	{
 2414              		.loc 1 1034 30 is_stmt 1 discriminator 1 view .LVU555
1034:VS4210/SysTimer.c **** 	{
 2415              		.loc 1 1034 2 is_stmt 0 discriminator 1 view .LVU556
 2416 000e 092C     		cmp	r4, #9
 2417 0010 19D8     		bhi	.L206
1036:VS4210/SysTimer.c **** 
 2418              		.loc 1 1036 3 is_stmt 1 view .LVU557
1036:VS4210/SysTimer.c **** 
 2419              		.loc 1 1036 19 is_stmt 0 view .LVU558
 2420 0012 FFF7FEFF 		bl	MCUTimerGetTimerCounter
 2421              	.LVL222:
 2422 0016 0546     		mov	r5, r0
 2423              	.LVL223:
1038:VS4210/SysTimer.c **** 		{
 2424              		.loc 1 1038 3 is_stmt 1 view .LVU559
ARM GAS  C:\Users\ryanc.HS\AppData\Local\Temp\ccysXWgI.s 			page 81


1038:VS4210/SysTimer.c **** 		{
 2425              		.loc 1 1038 7 is_stmt 0 view .LVU560
 2426 0018 2046     		mov	r0, r4
 2427              	.LVL224:
1038:VS4210/SysTimer.c **** 		{
 2428              		.loc 1 1038 7 view .LVU561
 2429 001a FFF7FEFF 		bl	MCUTimerCheckEventValid
 2430              	.LVL225:
1038:VS4210/SysTimer.c **** 		{
 2431              		.loc 1 1038 6 view .LVU562
 2432 001e 0028     		cmp	r0, #0
 2433 0020 F3D0     		beq	.L202
1043:VS4210/SysTimer.c **** 		{
 2434              		.loc 1 1043 3 is_stmt 1 view .LVU563
1043:VS4210/SysTimer.c **** 		{
 2435              		.loc 1 1043 23 is_stmt 0 view .LVU564
 2436 0022 2046     		mov	r0, r4
 2437 0024 FFF7FEFF 		bl	MCUTimerGetEventTime
 2438              	.LVL226:
1043:VS4210/SysTimer.c **** 		{
 2439              		.loc 1 1043 6 view .LVU565
 2440 0028 A842     		cmp	r0, r5
 2441 002a EED2     		bcs	.L202
1045:VS4210/SysTimer.c **** 
 2442              		.loc 1 1045 4 is_stmt 1 view .LVU566
 2443 002c 2046     		mov	r0, r4
 2444 002e FFF7FEFF 		bl	MCUTimerClrEventValid
 2445              	.LVL227:
1048:VS4210/SysTimer.c **** 
 2446              		.loc 1 1048 4 view .LVU567
1048:VS4210/SysTimer.c **** 
 2447              		.loc 1 1048 21 is_stmt 0 view .LVU568
 2448 0032 2046     		mov	r0, r4
 2449 0034 FFF7FEFF 		bl	MCUTimerGetEventID
 2450              	.LVL228:
1050:VS4210/SysTimer.c **** 			{
 2451              		.loc 1 1050 4 is_stmt 1 view .LVU569
1050:VS4210/SysTimer.c **** 			{
 2452              		.loc 1 1050 7 is_stmt 0 view .LVU570
 2453 0038 2028     		cmp	r0, #32
 2454 003a E4D9     		bls	.L207
1057:VS4210/SysTimer.c **** 			{
 2455              		.loc 1 1057 4 is_stmt 1 view .LVU571
1057:VS4210/SysTimer.c **** 			{
 2456              		.loc 1 1057 7 is_stmt 0 view .LVU572
 2457 003c 4E28     		cmp	r0, #78
 2458 003e E4D8     		bhi	.L202
1059:VS4210/SysTimer.c **** 
 2459              		.loc 1 1059 5 is_stmt 1 view .LVU573
 2460 0040 FFF7FEFF 		bl	SysTimerEventProc
 2461              	.LVL229:
1061:VS4210/SysTimer.c **** 			}
 2462              		.loc 1 1061 5 view .LVU574
 2463 0044 E1E7     		b	.L202
 2464              	.LVL230:
 2465              	.L206:
1067:VS4210/SysTimer.c **** 
ARM GAS  C:\Users\ryanc.HS\AppData\Local\Temp\ccysXWgI.s 			page 82


 2466              		.loc 1 1067 1 is_stmt 0 view .LVU575
 2467 0046 38BD     		pop	{r3, r4, r5, pc}
1067:VS4210/SysTimer.c **** 
 2468              		.loc 1 1067 1 view .LVU576
 2469              		.cfi_endproc
 2470              	.LFE83:
 2472              		.global	led_Flag
 2473              		.comm	g_stPowerInfo,2,4
 2474              		.comm	BOX_ISSUE,1,1
 2475              		.global	second
 2476              		.global	minute
 2477              		.global	hour
 2478              		.global	day
 2479              		.global	month
 2480              		.global	year2
 2481              		.global	year1
 2482              		.comm	CameraVolt,1,1
 2483              		.global	WDT_Echo_Count
 2484              		.global	PSW_Flag
 2485              		.comm	BatteryVoltage,4,4
 2486              		.comm	BatteryBTH,4,4
 2487              		.comm	g_stTimerEvent,80,4
 2488              		.global	g_usTimerCounter
 2489              		.global	standby_count
 2490              		.global	tic04
 2491              		.global	tic03
 2492              		.global	tic02
 2493              		.global	g_bNotifyTimer0Int
 2494              		.section	.bss.PSW_Flag,"aw",%nobits
 2495              		.set	.LANCHOR2,. + 0
 2498              	PSW_Flag:
 2499 0000 00       		.space	1
 2500              		.section	.bss.WDT_Echo_Count,"aw",%nobits
 2503              	WDT_Echo_Count:
 2504 0000 00       		.space	1
 2505              		.section	.bss.day,"aw",%nobits
 2506              		.set	.LANCHOR3,. + 0
 2509              	day:
 2510 0000 00       		.space	1
 2511              		.section	.bss.g_bNotifyTimer0Int,"aw",%nobits
 2512              		.align	2
 2513              		.set	.LANCHOR0,. + 0
 2516              	g_bNotifyTimer0Int:
 2517 0000 00000000 		.space	4
 2518              		.section	.bss.g_usTimerCounter,"aw",%nobits
 2519              		.align	2
 2520              		.set	.LANCHOR1,. + 0
 2523              	g_usTimerCounter:
 2524 0000 00000000 		.space	4
 2525              		.section	.bss.hour,"aw",%nobits
 2526              		.set	.LANCHOR4,. + 0
 2529              	hour:
 2530 0000 00       		.space	1
 2531              		.section	.bss.led_Flag,"aw",%nobits
 2534              	led_Flag:
 2535 0000 00       		.space	1
 2536              		.section	.bss.minute,"aw",%nobits
ARM GAS  C:\Users\ryanc.HS\AppData\Local\Temp\ccysXWgI.s 			page 83


 2537              		.set	.LANCHOR6,. + 0
 2540              	minute:
 2541 0000 00       		.space	1
 2542              		.section	.bss.month,"aw",%nobits
 2545              	month:
 2546 0000 00       		.space	1
 2547              		.section	.bss.second,"aw",%nobits
 2548              		.set	.LANCHOR5,. + 0
 2551              	second:
 2552 0000 00       		.space	1
 2553              		.section	.bss.standby_count,"aw",%nobits
 2554              		.align	2
 2557              	standby_count:
 2558 0000 00000000 		.space	4
 2559              		.section	.bss.tic02,"aw",%nobits
 2562              	tic02:
 2563 0000 00       		.space	1
 2564              		.section	.bss.tic03,"aw",%nobits
 2565              		.align	2
 2568              	tic03:
 2569 0000 00000000 		.space	4
 2570              		.section	.bss.tic04,"aw",%nobits
 2571              		.align	2
 2574              	tic04:
 2575 0000 00000000 		.space	4
 2576              		.section	.bss.year1,"aw",%nobits
 2579              	year1:
 2580 0000 00       		.space	1
 2581              		.section	.bss.year2,"aw",%nobits
 2584              	year2:
 2585 0000 00       		.space	1
 2586              		.text
 2587              	.Letext0:
 2588              		.file 2 "c:\\program files (x86)\\gnu tools arm embedded\\9 2019-q4-major\\arm-none-eabi\\include\
 2589              		.file 3 "c:\\program files (x86)\\gnu tools arm embedded\\9 2019-q4-major\\arm-none-eabi\\include\
 2590              		.file 4 "c:\\program files (x86)\\gnu tools arm embedded\\9 2019-q4-major\\arm-none-eabi\\include\
 2591              		.file 5 "c:\\program files (x86)\\gnu tools arm embedded\\9 2019-q4-major\\lib\\gcc\\arm-none-eabi
 2592              		.file 6 "c:\\program files (x86)\\gnu tools arm embedded\\9 2019-q4-major\\arm-none-eabi\\include\
 2593              		.file 7 "c:\\program files (x86)\\gnu tools arm embedded\\9 2019-q4-major\\arm-none-eabi\\include\
 2594              		.file 8 "VS4210/VXIS_Extern_Define.h"
 2595              		.file 9 "c:\\program files (x86)\\gnu tools arm embedded\\9 2019-q4-major\\arm-none-eabi\\include\
 2596              		.file 10 "sw_i2c/VX_swi2c.h"
 2597              		.file 11 "VS4210/VS4210.h"
 2598              		.file 12 "VS4210/VX_OSD_Simple.h"
 2599              		.file 13 "Drivers/CMSIS/Include/core_cm3.h"
 2600              		.file 14 "Drivers/CMSIS/Device/ST/STM32F1xx/Include/system_stm32f1xx.h"
 2601              		.file 15 "Drivers/CMSIS/Device/ST/STM32F1xx/Include/stm32f103xb.h"
 2602              		.file 16 "Drivers/CMSIS/Device/ST/STM32F1xx/Include/stm32f1xx.h"
 2603              		.file 17 "Drivers/STM32F1xx_HAL_Driver/Inc/stm32f1xx_hal_def.h"
 2604              		.file 18 "Drivers/STM32F1xx_HAL_Driver/Inc/stm32f1xx_hal_gpio.h"
 2605              		.file 19 "Drivers/STM32F1xx_HAL_Driver/Inc/stm32f1xx_hal_dma.h"
 2606              		.file 20 "Drivers/STM32F1xx_HAL_Driver/Inc/stm32f1xx_hal_adc.h"
 2607              		.file 21 "Drivers/STM32F1xx_HAL_Driver/Inc/stm32f1xx_hal.h"
 2608              		.file 22 "VS4210/printf.h"
 2609              		.file 23 "c:\\program files (x86)\\gnu tools arm embedded\\9 2019-q4-major\\arm-none-eabi\\include
 2610              		.file 24 "VS4210/keyremo.h"
 2611              		.file 25 "VS4210/GT911.h"
ARM GAS  C:\Users\ryanc.HS\AppData\Local\Temp\ccysXWgI.s 			page 84


 2612              		.file 26 "TP2824/tpinc/TP2802.h"
 2613              		.file 27 "VS4210/monitor.h"
 2614              		.file 28 "Inc/main.h"
ARM GAS  C:\Users\ryanc.HS\AppData\Local\Temp\ccysXWgI.s 			page 85

