ARM GAS  C:\Users\ryanc.HS\AppData\Local\Temp\ccAQ3CYh.s 			page 1


   1              		.cpu cortex-m3
   2              		.eabi_attribute 20, 1
   3              		.eabi_attribute 21, 1
   4              		.eabi_attribute 23, 3
   5              		.eabi_attribute 24, 1
   6              		.eabi_attribute 25, 1
   7              		.eabi_attribute 26, 1
   8              		.eabi_attribute 30, 1
   9              		.eabi_attribute 34, 1
  10              		.eabi_attribute 18, 4
  11              		.file	"TP2802.c"
  12              		.text
  13              	.Ltext0:
  14              		.cfi_sections	.debug_frame
  15              		.section	.text.tp2824_reset_default,"ax",%progbits
  16              		.align	1
  17              		.arch armv7-m
  18              		.syntax unified
  19              		.thumb
  20              		.thumb_func
  21              		.fpu softvfp
  23              	tp2824_reset_default:
  24              	.LFB14:
  25              		.file 1 "TP2824/TP2802.c"
   1:TP2824/TP2802.c **** // *****************************************************
   2:TP2824/TP2802.c **** // Company : Techpoint Inc
   3:TP2824/TP2802.c **** // $Date: 2014-03-10
   4:TP2824/TP2802.c **** // $Log:  $
   5:TP2824/TP2802.c **** // ******************************************************
   6:TP2824/TP2802.c **** #include "VXIS_Extern_Define.h"
   7:TP2824/TP2802.c **** #include "stdlib.h"
   8:TP2824/TP2802.c **** //#include "tpinc/Device_Rx.h"
   9:TP2824/TP2802.c **** #include "tpinc/TP2802.h"
  10:TP2824/TP2802.c **** 
  11:TP2824/TP2802.c **** #include "VX_swi2c.h"
  12:TP2824/TP2802.c **** #include "VS4210.h"
  13:TP2824/TP2802.c **** #include "etc_eep.h"
  14:TP2824/TP2802.c **** #include "keyremo.h"
  15:TP2824/TP2802.c **** #include "Printf.h"
  16:TP2824/TP2802.c **** 
  17:TP2824/TP2802.c **** // extern tByte ManVidResRx;
  18:TP2824/TP2802.c **** 
  19:TP2824/TP2802.c **** tByte ManVidResRx;
  20:TP2824/TP2802.c **** extern tByte ManSelCh;
  21:TP2824/TP2802.c **** extern tByte gRxLoopFlg;
  22:TP2824/TP2802.c **** 
  23:TP2824/TP2802.c **** #ifndef TRUE
  24:TP2824/TP2802.c **** #define TRUE 1
  25:TP2824/TP2802.c **** #endif
  26:TP2824/TP2802.c **** 
  27:TP2824/TP2802.c **** #ifndef FALSE
  28:TP2824/TP2802.c **** #define FALSE 0
  29:TP2824/TP2802.c **** #endif
  30:TP2824/TP2802.c **** 
  31:TP2824/TP2802.c **** // TP2802D EQ for short cable option
  32:TP2824/TP2802.c **** #define TP2802D_EQ_SHORT 0x0d
  33:TP2824/TP2802.c **** #define TP2802D_CGAIN_SHORT 0x74
ARM GAS  C:\Users\ryanc.HS\AppData\Local\Temp\ccAQ3CYh.s 			page 2


  34:TP2824/TP2802.c **** //#define TP2802D_EQ_SHORT 0x01
  35:TP2824/TP2802.c **** //#define TP2802D_CGAIN_SHORT 0x70
  36:TP2824/TP2802.c **** 
  37:TP2824/TP2802.c **** //#define CVI_TEST 0
  38:TP2824/TP2802.c **** //#define AHD_TEST 1
  39:TP2824/TP2802.c **** 
  40:TP2824/TP2802.c **** #define CH_PER_CHIP 0x04
  41:TP2824/TP2802.c **** #define MAX_COUNT 0xff
  42:TP2824/TP2802.c **** 
  43:TP2824/TP2802.c **** // extern void CreateMDIN340VideoInstance(void);
  44:TP2824/TP2802.c **** 
  45:TP2824/TP2802.c **** tByte newInRes[4] = {7, 7, 7, 7};
  46:TP2824/TP2802.c **** 
  47:TP2824/TP2802.c **** extern bit DetAutoRes;
  48:TP2824/TP2802.c **** tByte state[CH_PER_CHIP];
  49:TP2824/TP2802.c **** tByte count[CH_PER_CHIP];
  50:TP2824/TP2802.c **** tByte mode[CH_PER_CHIP];
  51:TP2824/TP2802.c **** tByte std[CH_PER_CHIP];
  52:TP2824/TP2802.c **** tByte egain[CH_PER_CHIP][4];
  53:TP2824/TP2802.c **** tByte VideoSave[CH_PER_CHIP];
  54:TP2824/TP2802.c **** tByte ch_boot_reset[CH_PER_CHIP] = {0, 0, 0, 0};
  55:TP2824/TP2802.c **** tByte revision;
  56:TP2824/TP2802.c **** tByte chip;
  57:TP2824/TP2802.c **** tByte flag_LOCKED;
  58:TP2824/TP2802.c **** tByte TVII2CAddress;
  59:TP2824/TP2802.c **** tByte PTZ_buf[16];
  60:TP2824/TP2802.c **** tWord PTZ_pelco;
  61:TP2824/TP2802.c **** tByte CurRes;
  62:TP2824/TP2802.c **** tByte CurCH;
  63:TP2824/TP2802.c **** tByte crc;
  64:TP2824/TP2802.c **** bit sywd;
  65:TP2824/TP2802.c **** bit flag_CVBS;
  66:TP2824/TP2802.c **** bit flag_AUDIO;
  67:TP2824/TP2802.c **** bit flag_MEGA;
  68:TP2824/TP2802.c **** 
  69:TP2824/TP2802.c **** tcByte SYS_MODE[] = {0x01, 0x02, 0x04, 0x08, 0x0f};
  70:TP2824/TP2802.c **** tcByte SYS_AND[] = {0xfe, 0xfd, 0xfb, 0xf7, 0xf0};
  71:TP2824/TP2802.c **** 
  72:TP2824/TP2802.c **** tcByte REG_F6[4] = {0x00, 0x11, 0x22, 0x33};
  73:TP2824/TP2802.c **** tcByte REG_F7[4] = {0x44, 0x55, 0x66, 0x77};
  74:TP2824/TP2802.c **** tcByte REG_FA[4] = {0xBB, 0xCC, 0xDD, 0xEE};
  75:TP2824/TP2802.c **** 
  76:TP2824/TP2802.c **** // cocrx
  77:TP2824/TP2802.c **** tByte tpRxD[26];
  78:TP2824/TP2802.c **** BYTE COCRX1[12];
  79:TP2824/TP2802.c **** BYTE COCRX2[12];
  80:TP2824/TP2802.c **** BYTE COCRX3[12];
  81:TP2824/TP2802.c **** BYTE COCRX4[12];
  82:TP2824/TP2802.c **** /*
  83:TP2824/TP2802.c **** extern BYTE AHDcmd1,AHDcmd2,AHDcmd3,AHDcmd4;
  84:TP2824/TP2802.c **** extern BYTE TVI_Command;
  85:TP2824/TP2802.c **** extern BYTE presetNum;
  86:TP2824/TP2802.c **** extern BYTE TVI_Chksum;
  87:TP2824/TP2802.c **** extern BYTE TVI_speed;
  88:TP2824/TP2802.c **** extern bit ptztxflag;
  89:TP2824/TP2802.c **** */
  90:TP2824/TP2802.c **** BYTE AHDcmd1, AHDcmd2, AHDcmd3, AHDcmd4;
ARM GAS  C:\Users\ryanc.HS\AppData\Local\Temp\ccAQ3CYh.s 			page 3


  91:TP2824/TP2802.c **** BYTE TVI_Command;
  92:TP2824/TP2802.c **** BYTE presetNum;
  93:TP2824/TP2802.c **** BYTE TVI_Chksum;
  94:TP2824/TP2802.c **** BYTE TVI_speed;
  95:TP2824/TP2802.c **** bit ptztxflag;
  96:TP2824/TP2802.c **** BYTE Flisheye_CAM[4] = {0};
  97:TP2824/TP2802.c **** BYTE Flisheye_COC = 0;
  98:TP2824/TP2802.c **** 
  99:TP2824/TP2802.c **** WORD Flisheye_VLOSS_Count[4] = {0};
 100:TP2824/TP2802.c **** 
 101:TP2824/TP2802.c **** // BYTE Flisheye_CAM[4]={1,1,1,1};
 102:TP2824/TP2802.c **** BYTE COCSelectModeType[4] = {5, 5, 5, 5};
 103:TP2824/TP2802.c **** BYTE PreCOCSelectModeType[4] = {5, 5, 5, 5};
 104:TP2824/TP2802.c **** 
 105:TP2824/TP2802.c **** // extern BYTE PtzTxChNum;//0:ch1 / 1:ch2 / 2:ch3 / 3:ch4
 106:TP2824/TP2802.c **** 
 107:TP2824/TP2802.c **** BYTE PtzTxChNum; // 0:ch1 / 1:ch2 / 2:ch3 / 3:ch4
 108:TP2824/TP2802.c **** // extern BYTE QuadBoxId;//1:ch1 / 2:ch2 / 4:ch3 / 8:ch4
 109:TP2824/TP2802.c **** BYTE QuadBoxId = 0; // 1:ch1 / 2:ch2 / 4:ch3 / 8:ch4
 110:TP2824/TP2802.c **** BYTE QuadBoxMode = 0;
 111:TP2824/TP2802.c **** BYTE VideoChangeFlag = 0;
 112:TP2824/TP2802.c **** 
 113:TP2824/TP2802.c **** extern BYTE SelectModeType;
 114:TP2824/TP2802.c **** extern volatile BYTE MainSetSelectMode[13];
 115:TP2824/TP2802.c **** extern BYTE BOOT_ISSUE;
 116:TP2824/TP2802.c **** extern BYTE CURRENT_CH;
 117:TP2824/TP2802.c **** extern BYTE BOX_ISSUE;
 118:TP2824/TP2802.c **** extern BYTE TriggerStatus;
 119:TP2824/TP2802.c **** extern BYTE TriggerFlag;
 120:TP2824/TP2802.c **** extern BYTE TriggerMode;
 121:TP2824/TP2802.c **** extern BYTE PowerFlag;
 122:TP2824/TP2802.c **** extern BYTE NowModeState;
 123:TP2824/TP2802.c **** extern BYTE bytSelectCAMRD;
 124:TP2824/TP2802.c **** extern BYTE bytGarbberLinerMode;
 125:TP2824/TP2802.c **** extern BYTE bytResetOSDValue;
 126:TP2824/TP2802.c **** extern tByte bSignal[4];
 127:TP2824/TP2802.c **** 
 128:TP2824/TP2802.c **** enum
 129:TP2824/TP2802.c **** {
 130:TP2824/TP2802.c **** 	TP2802C = 0x02,
 131:TP2824/TP2802.c **** 	TP2804 = 0x04,
 132:TP2824/TP2802.c **** 	TP2802D = 0x05,
 133:TP2824/TP2802.c **** 	TP2822 = 0x22,
 134:TP2824/TP2802.c **** 	TP2823 = 0x23,
 135:TP2824/TP2802.c **** 	TP2834 = 0x24,
 136:TP2824/TP2802.c **** 	TP2833 = 0x25,
 137:TP2824/TP2802.c **** 	TP2853C = 0x26,
 138:TP2824/TP2802.c **** 	TP2824C = 0x27,
 139:TP2824/TP2802.c **** 	TP2826 = 0x2f
 140:TP2824/TP2802.c **** };
 141:TP2824/TP2802.c **** 
 142:TP2824/TP2802.c **** tcByte TP2824C_DataSet[] =
 143:TP2824/TP2802.c **** 	{
 144:TP2824/TP2802.c **** 		0x40, 0x04,
 145:TP2824/TP2802.c **** 		0x07, 0xC0,
 146:TP2824/TP2802.c **** 		0x0B, 0xC0,
 147:TP2824/TP2802.c **** 		0x21, 0x84,
ARM GAS  C:\Users\ryanc.HS\AppData\Local\Temp\ccAQ3CYh.s 			page 4


 148:TP2824/TP2802.c **** 
 149:TP2824/TP2802.c **** 		0x38, (0x00 | 0x4E), // 0x4E ryan@20220525 Regulus suggusted the value of register for noise issu
 150:TP2824/TP2802.c **** 		0x3D, 0x40,
 151:TP2824/TP2802.c **** 		0x41, 0x06,
 152:TP2824/TP2802.c **** 
 153:TP2824/TP2802.c **** 		0x3A, 0x22,
 154:TP2824/TP2802.c **** 		0x3B, 0x05,
 155:TP2824/TP2802.c **** 		0x26, 0x04,
 156:TP2824/TP2802.c **** 		// 0x4d, 0x07,
 157:TP2824/TP2802.c **** 		// 0x4e, 0x05,
 158:TP2824/TP2802.c **** 		0x4d, 0x0F,
 159:TP2824/TP2802.c **** 		0x4e, 0x0F, // chunyu
 160:TP2824/TP2802.c **** 		0x6f, 0x60, /// default cvbs coc  ryan@20210416
 161:TP2824/TP2802.c **** 		0xf1, 0x00, // different with TP2826
 162:TP2824/TP2802.c **** 		/*cocrx
 163:TP2824/TP2802.c **** 		//PTZ RX
 164:TP2824/TP2802.c **** 		//	0xc6, 0x1F,//0x19,	//TXBITCNNUM
 165:TP2824/TP2802.c **** 		//	0xc7, 0x78,		//TXHST
 166:TP2824/TP2802.c **** 			0xcb, 0x07,		//RXLINE1
 167:TP2824/TP2802.c **** 			0xcc, 0x08,		//RXLINE2
 168:TP2824/TP2802.c **** 			0xcd, 0x00,//0x09,		//RXLINE3
 169:TP2824/TP2802.c **** 			0xce, 0x00,//0x0a,		//RXLINE4
 170:TP2824/TP2802.c **** 			0xcf, 0x04,		//RXFREQ
 171:TP2824/TP2802.c **** 			0xd0, 0x00,		//RXFREQ
 172:TP2824/TP2802.c **** 			0xd1, 0x00,		//RXFREQ
 173:TP2824/TP2802.c **** 			0xd2, 0x60,		//RXTHLEVEL
 174:TP2824/TP2802.c **** 			0xd3, 0x10,		//RXHINUM
 175:TP2824/TP2802.c **** 			0xd4, 0x06,		//RXHST / RXHEND
 176:TP2824/TP2802.c **** 			0xd5, 0xbe,		//RXHST
 177:TP2824/TP2802.c **** 			0xd6, 0x39,		//RXHEND
 178:TP2824/TP2802.c **** 			0xd7, 0x27,		//RXBITNUM
 179:TP2824/TP2802.c **** 		*/
 180:TP2824/TP2802.c **** 		0xff, 0xff};
 181:TP2824/TP2802.c **** 
 182:TP2824/TP2802.c **** tcByte TP2824C_DataSetRD[] =
 183:TP2824/TP2802.c **** 	{
 184:TP2824/TP2802.c **** 		//    0x40, 0x04,
 185:TP2824/TP2802.c **** 		0x07, 0xC0,
 186:TP2824/TP2802.c **** 		0x0B, 0xC0,
 187:TP2824/TP2802.c **** 		0x21, 0x84,
 188:TP2824/TP2802.c **** 		0x38, 0x00,
 189:TP2824/TP2802.c **** 		0x3A, 0x22,
 190:TP2824/TP2802.c **** 		0x3B, 0x05,
 191:TP2824/TP2802.c **** 		0x26, 0x04,
 192:TP2824/TP2802.c **** 		// 0x4d, 0x07,
 193:TP2824/TP2802.c **** 		// 0x4e, 0x05,
 194:TP2824/TP2802.c **** 		0x4d, 0x0F,
 195:TP2824/TP2802.c **** 		0x4e, 0x0F, // chunyu
 196:TP2824/TP2802.c **** 		0x6f, 0x60, /// default cvbs coc  ryan@20210416
 197:TP2824/TP2802.c **** 		0xf1, 0x00, // different with TP2826
 198:TP2824/TP2802.c **** 		/*cocrx
 199:TP2824/TP2802.c **** 		//PTZ RX
 200:TP2824/TP2802.c **** 		//	0xc6, 0x1F,//0x19,	//TXBITCNNUM
 201:TP2824/TP2802.c **** 		//	0xc7, 0x78,		//TXHST
 202:TP2824/TP2802.c **** 			0xcb, 0x07,		//RXLINE1
 203:TP2824/TP2802.c **** 			0xcc, 0x08,		//RXLINE2
 204:TP2824/TP2802.c **** 			0xcd, 0x00,//0x09,		//RXLINE3
ARM GAS  C:\Users\ryanc.HS\AppData\Local\Temp\ccAQ3CYh.s 			page 5


 205:TP2824/TP2802.c **** 			0xce, 0x00,//0x0a,		//RXLINE4
 206:TP2824/TP2802.c **** 			0xcf, 0x04,		//RXFREQ
 207:TP2824/TP2802.c **** 			0xd0, 0x00,		//RXFREQ
 208:TP2824/TP2802.c **** 			0xd1, 0x00,		//RXFREQ
 209:TP2824/TP2802.c **** 			0xd2, 0x60,		//RXTHLEVEL
 210:TP2824/TP2802.c **** 			0xd3, 0x10,		//RXHINUM
 211:TP2824/TP2802.c **** 			0xd4, 0x06,		//RXHST / RXHEND
 212:TP2824/TP2802.c **** 			0xd5, 0xbe,		//RXHST
 213:TP2824/TP2802.c **** 			0xd6, 0x39,		//RXHEND
 214:TP2824/TP2802.c **** 			0xd7, 0x27,		//RXBITNUM
 215:TP2824/TP2802.c **** 		*/
 216:TP2824/TP2802.c **** 		0xff, 0xff};
 217:TP2824/TP2802.c **** 
 218:TP2824/TP2802.c **** tcByte TP2826_DataSet[] =
 219:TP2824/TP2802.c **** 	{
 220:TP2824/TP2802.c **** 		0x40, 0x04,
 221:TP2824/TP2802.c **** 		0x07, 0xC0,
 222:TP2824/TP2802.c **** 		0x0B, 0xC0,
 223:TP2824/TP2802.c **** 		0x21, 0x84,
 224:TP2824/TP2802.c **** 		0x38, 0x00,
 225:TP2824/TP2802.c **** 		0x3A, 0x22,
 226:TP2824/TP2802.c **** 		0x3B, 0x05,
 227:TP2824/TP2802.c **** 		0x26, 0x04,
 228:TP2824/TP2802.c **** 		0x4d, 0x07,
 229:TP2824/TP2802.c **** 		0x4e, 0x05,
 230:TP2824/TP2802.c **** 		0xf1, 0x07,
 231:TP2824/TP2802.c **** 		0xff, 0xff};
 232:TP2824/TP2802.c **** 
 233:TP2824/TP2802.c **** tcByte TP2826_MODE_DataSet[5][20] =
 234:TP2824/TP2802.c **** 	{
 235:TP2824/TP2802.c **** 		{0x0c, 0x0d, 0x20, 0x26, 0x2b, 0x2d, 0x2e, 0x30, 0x31, 0x32, 0x33, 0x39, 0x2c, 0x21, 0x22, 0x23, 
 236:TP2824/TP2802.c **** 		{0x03, 0x50, 0x30, 0x05, 0x60, 0x30, 0x70, 0x48, 0xbb, 0x2e, 0x90, 0x1c, 0x0a, 0x84, 0x36, 0x3c, 
 237:TP2824/TP2802.c **** 		{0x13, 0x50, 0x30, 0x05, 0x60, 0x30, 0x70, 0x48, 0xbb, 0x2e, 0x90, 0x18, 0x0a, 0x84, 0x36, 0x3c, 
 238:TP2824/TP2802.c **** 		{0x13, 0x50, 0x40, 0x05, 0x70, 0x68, 0x5e, 0x62, 0xbb, 0x96, 0xc0, 0x04, 0x2a, 0x84, 0x36, 0x3c, 
 239:TP2824/TP2802.c **** 		{0x13, 0x51, 0x48, 0x05, 0x70, 0x60, 0x5e, 0x7a, 0x4a, 0x4d, 0xf0, 0x04, 0x2a, 0x84, 0x37, 0x3f, 
 240:TP2824/TP2802.c **** };
 241:TP2824/TP2802.c **** tcByte TP2824C_MODE_DataSet[5][20] =
 242:TP2824/TP2802.c **** 	{
 243:TP2824/TP2802.c **** 		{0x0c, 0x0d, 0x20, 0x26, 0x2b, 0x2d, 0x2e, 0x30, 0x31, 0x32, 0x33, 0x39, 0x2c, 0x21, 0x22, 0x23, 
 244:TP2824/TP2802.c **** 		{0x03, 0x50, 0x30, 0x05, 0x60, 0x30, 0x70, 0x48, 0xbb, 0x2e, 0x90, 0x1c, 0x0a, 0x84, 0x36, 0x3c, 
 245:TP2824/TP2802.c **** 		{0x13, 0x50, 0x30, 0x05, 0x60, 0x30, 0x70, 0x48, 0xbb, 0x2e, 0x90, 0x18, 0x0a, 0x84, 0x36, 0x3c, 
 246:TP2824/TP2802.c **** 		{0x13, 0x50, 0x40, 0x05, 0x70, 0x68, 0x5e, 0x62, 0xbb, 0x96, 0xc0, 0x04, 0x2a, 0x84, 0x36, 0x3c, 
 247:TP2824/TP2802.c **** 		{0x13, 0x51, 0x48, 0x05, 0x70, 0x60, 0x5e, 0x7a, 0x4a, 0x4d, 0xf0, 0x04, 0x2a, 0x84, 0x37, 0x3f, 
 248:TP2824/TP2802.c **** };
 249:TP2824/TP2802.c **** 
 250:TP2824/TP2802.c **** tcByte TP2826_HDA_DataSet[5][12] =
 251:TP2824/TP2802.c **** 	{
 252:TP2824/TP2802.c **** 		{0x0c, 0x20, 0x2b, 0x2d, 0x2e, 0x30, 0x31, 0x32, 0x33, 0x21, 0x25, 0xff}, // ADDR
 253:TP2824/TP2802.c **** 		{0x03, 0x40, 0x60, 0x48, 0x40, 0x27, 0x72, 0x80, 0x77, 0x46, 0xfe, 0xff}, // 720p30
 254:TP2824/TP2802.c **** 		{0x03, 0x40, 0x60, 0x48, 0x40, 0x27, 0x88, 0x04, 0x23, 0x46, 0xfe, 0xff}, // 720p25
 255:TP2824/TP2802.c **** 		{0x03, 0x38, 0x60, 0x44, 0x40, 0x29, 0x65, 0x78, 0x16, 0x46, 0xfe, 0xff}, // 1080p30
 256:TP2824/TP2802.c **** 		{0x03, 0x3c, 0x60, 0x44, 0x40, 0x29, 0x61, 0x78, 0x16, 0x46, 0xfe, 0xff}, // 1080p25
 257:TP2824/TP2802.c **** };
 258:TP2824/TP2802.c **** tcByte TP2824C_HDA_DataSet[5 + 1][12 + 1] =
 259:TP2824/TP2802.c **** 	{
 260:TP2824/TP2802.c **** 		{0x0c, 0x16, 0x20, 0x2b, 0x2d, 0x2e, 0x30, 0x31, 0x32, 0x33, 0x21, 0x25, 0xff}, // ADDR
 261:TP2824/TP2802.c **** 		{0x03, 0x16, 0x40, 0x60, 0x48, 0x40, 0x27, 0x72, 0x80, 0x77, 0x46, 0xfe, 0xff}, // 720p30
ARM GAS  C:\Users\ryanc.HS\AppData\Local\Temp\ccAQ3CYh.s 			page 6


 262:TP2824/TP2802.c **** 		{0x03, 0x16, 0x40, 0x60, 0x48, 0x40, 0x27, 0x88, 0x04, 0x23, 0x46, 0xfe, 0xff}, // 720p25
 263:TP2824/TP2802.c **** 		{0x03, 0xD3, 0x38, 0x60, 0x44, 0x40, 0x29, 0x65, 0x78, 0x16, 0x46, 0xfe, 0xff}, // 1080p30
 264:TP2824/TP2802.c **** 		{0x03, 0xD3, 0x3c, 0x60, 0x44, 0x40, 0x29, 0x61, 0x78, 0x16, 0x46, 0xfe, 0xff}, // 1080p25
 265:TP2824/TP2802.c **** 		{0x03, 0x00, 0x3c, 0x60, 0x44, 0x40, 0x13, 0xbe, 0x37, 0x16, 0x46, 0xfe, 0xff}, // 720p60  //ryan
 266:TP2824/TP2802.c **** };
 267:TP2824/TP2802.c **** tcByte TP2826_HDC_DataSet[5][20] =
 268:TP2824/TP2802.c **** 	{
 269:TP2824/TP2802.c **** 		{0x0c, 0x15, 0x16, 0x17, 0x18, 0x19, 0x1a, 0x1c, 0x1d, 0x20, 0x2b, 0x2d, 0x2e, 0x30, 0x31, 0x32, 
 270:TP2824/TP2802.c **** 		{0x03, 0x13, 0x08, 0x00, 0x19, 0xd0, 0x25, 0x06, 0x72, 0x30, 0x60, 0x37, 0x40, 0x48, 0x67, 0x6f, 
 271:TP2824/TP2802.c **** 		{0x03, 0x13, 0x0a, 0x00, 0x19, 0xd0, 0x25, 0x06, 0x7a, 0x3a, 0x60, 0x42, 0x40, 0x48, 0x67, 0x6f, 
 272:TP2824/TP2802.c **** 		{0x03, 0x13, 0x60, 0x80, 0x29, 0x38, 0x47, 0x09, 0x60, 0x3c, 0x60, 0x47, 0x40, 0x41, 0x82, 0x27, 
 273:TP2824/TP2802.c **** 		{0x03, 0x13, 0x60, 0x80, 0x29, 0x38, 0x47, 0x09, 0x60, 0x50, 0x60, 0x54, 0x40, 0x41, 0x82, 0x27, 
 274:TP2824/TP2802.c **** };
 275:TP2824/TP2802.c **** tcByte TP2824C_HDC_DataSet[5][20] =
 276:TP2824/TP2802.c **** 	{
 277:TP2824/TP2802.c **** 		{0x0c, 0x15, 0x16, 0x17, 0x18, 0x19, 0x1a, 0x1c, 0x1d, 0x20, 0x2b, 0x2d, 0x2e, 0x30, 0x31, 0x32, 
 278:TP2824/TP2802.c **** 		{0x03, 0x13, 0x08, 0x00, 0x19, 0xd0, 0x25, 0x06, 0x72, 0x30, 0x60, 0x37, 0x40, 0x48, 0x67, 0x6f, 
 279:TP2824/TP2802.c **** 		{0x03, 0x13, 0x0a, 0x00, 0x19, 0xd0, 0x25, 0x06, 0x7a, 0x3a, 0x60, 0x42, 0x40, 0x48, 0x67, 0x6f, 
 280:TP2824/TP2802.c **** 		{0x03, 0x13, 0x60, 0x80, 0x29, 0x38, 0x47, 0x09, 0x60, 0x3c, 0x60, 0x47, 0x40, 0x41, 0x82, 0x27, 
 281:TP2824/TP2802.c **** 		{0x03, 0x13, 0x60, 0x80, 0x29, 0x38, 0x47, 0x09, 0x60, 0x50, 0x60, 0x54, 0x40, 0x41, 0x82, 0x27, 
 282:TP2824/TP2802.c **** };
 283:TP2824/TP2802.c **** tcByte TP2853C_DataSet[] =
 284:TP2824/TP2802.c **** 	{
 285:TP2824/TP2802.c **** 		0x40, 0x04,
 286:TP2824/TP2802.c **** 		0x07, 0xC0,
 287:TP2824/TP2802.c **** 		0x0B, 0xC0,
 288:TP2824/TP2802.c **** 		0x21, 0x84,
 289:TP2824/TP2802.c **** 		0x38, 0x00,
 290:TP2824/TP2802.c **** 		0x3A, 0x32,
 291:TP2824/TP2802.c **** 		0x3B, 0x05,
 292:TP2824/TP2802.c **** 		0x26, 0x04,
 293:TP2824/TP2802.c **** 		0x4d, 0x03,
 294:TP2824/TP2802.c **** 		0x4e, 0x03,
 295:TP2824/TP2802.c **** 		0x4f, 0x01,
 296:TP2824/TP2802.c **** 		0xf5, 0xf0,
 297:TP2824/TP2802.c **** 		0xf1, 0x07, // tp2826c
 298:TP2824/TP2802.c **** 
 299:TP2824/TP2802.c **** 		0xff, 0xff};
 300:TP2824/TP2802.c **** tcByte TP2853C_MODE_DataSet[5][18] =
 301:TP2824/TP2802.c **** 	{
 302:TP2824/TP2802.c **** 		{0x0c, 0x0d, 0x20, 0x26, 0x2b, 0x2d, 0x2e, 0x30, 0x31, 0x32, 0x33, 0x39, 0x2c, 0x21, 0x25, 0x27, 
 303:TP2824/TP2802.c **** 		{0x03, 0x50, 0x30, 0x05, 0x60, 0x30, 0x70, 0x48, 0xbb, 0x2e, 0x90, 0x0c, 0x0a, 0x84, 0xf0, 0x2d, 
 304:TP2824/TP2802.c **** 		{0x13, 0x50, 0x30, 0x05, 0x60, 0x30, 0x70, 0x48, 0xbb, 0x2e, 0x90, 0x08, 0x0a, 0x84, 0xf0, 0x2d, 
 305:TP2824/TP2802.c **** 		{0x13, 0x50, 0x40, 0x05, 0x70, 0x68, 0x5e, 0x62, 0xbb, 0x96, 0xc0, 0x04, 0x2a, 0x84, 0xf0, 0x2d, 
 306:TP2824/TP2802.c **** 		{0x13, 0x51, 0x48, 0x05, 0x70, 0x60, 0x5e, 0x7a, 0x4a, 0x4d, 0xf0, 0x04, 0x2a, 0x84, 0xf0, 0x2d, 
 307:TP2824/TP2802.c **** };
 308:TP2824/TP2802.c **** tcByte TP2853C_HDA_DataSet[5][10] =
 309:TP2824/TP2802.c **** 	{
 310:TP2824/TP2802.c **** 		{0x2b, 0x2d, 0x2e, 0x30, 0x31, 0x32, 0x33, 0x21, 0x25, 0xff}, // ADDR
 311:TP2824/TP2802.c **** 		{0x70, 0x48, 0x5e, 0x27, 0x72, 0x80, 0x77, 0x44, 0xf0, 0xff}, // 720p30
 312:TP2824/TP2802.c **** 		{0x70, 0x48, 0x5e, 0x27, 0x88, 0x04, 0x23, 0x44, 0xf0, 0xff}, // 720p25
 313:TP2824/TP2802.c **** 		{0x58, 0x45, 0x50, 0x29, 0x65, 0x78, 0x16, 0x44, 0xf0, 0xff}, // 1080p30
 314:TP2824/TP2802.c **** 		{0x58, 0x45, 0x40, 0x29, 0x61, 0x78, 0x16, 0x44, 0xf0, 0xff}, // 1080p25
 315:TP2824/TP2802.c **** };
 316:TP2824/TP2802.c **** tcByte TP2853C_HDC_DataSet[5][13] =
 317:TP2824/TP2802.c **** 	{
 318:TP2824/TP2802.c **** 		{0x15, 0x16, 0x20, 0x2b, 0x2d, 0x2e, 0x30, 0x31, 0x32, 0x33, 0x27, 0x28, 0xff}, // ADDR
ARM GAS  C:\Users\ryanc.HS\AppData\Local\Temp\ccAQ3CYh.s 			page 7


 319:TP2824/TP2802.c **** 		{0x13, 0x40, 0x50, 0x60, 0x42, 0x40, 0x48, 0x67, 0x2e, 0x90, 0x5a, 0x04, 0xff}, // 720p30
 320:TP2824/TP2802.c **** 		{0x13, 0x40, 0x50, 0x60, 0x42, 0x40, 0x48, 0x67, 0x2e, 0x90, 0x5a, 0x04, 0xff}, // 720p25
 321:TP2824/TP2802.c **** 		{0x13, 0x20, 0x48, 0x60, 0x45, 0x40, 0x41, 0x83, 0x2e, 0x90, 0x5a, 0x04, 0xff}, // 1080p30
 322:TP2824/TP2802.c **** 		{0x13, 0x84, 0x48, 0x60, 0x45, 0x40, 0x41, 0x83, 0x2e, 0x90, 0x5a, 0x04, 0xff}, // 1080p25
 323:TP2824/TP2802.c **** };
 324:TP2824/TP2802.c **** 
 325:TP2824/TP2802.c **** tcByte TP2834_Audio_DataSet[] =
 326:TP2824/TP2802.c **** 	{
 327:TP2824/TP2802.c **** 		// audio
 328:TP2824/TP2802.c **** 		0x40, 0x40, // audio page
 329:TP2824/TP2802.c **** 		0x00, 0x01, // A1
 330:TP2824/TP2802.c **** 		0x01, 0x02, // A2
 331:TP2824/TP2802.c **** 		0x02, 0x03, // A3
 332:TP2824/TP2802.c **** 		0x03, 0x04, // A4
 333:TP2824/TP2802.c **** 		0x04, 0x11, // AUX
 334:TP2824/TP2802.c **** 		0x17, 0x00,
 335:TP2824/TP2802.c **** 		0x18, 0x10, // 5ch mode
 336:TP2824/TP2802.c **** 		0x19, 0x0f,
 337:TP2824/TP2802.c **** 		0x1A, 0x15, // PB to DAC
 338:TP2824/TP2802.c **** 		0x1b, 0x01, // PB master
 339:TP2824/TP2802.c **** 		0x37, 0x20,
 340:TP2824/TP2802.c **** 
 341:TP2824/TP2802.c **** 		0x1d, 0x08,
 342:TP2824/TP2802.c **** 		0x1d, 0x00,
 343:TP2824/TP2802.c **** 
 344:TP2824/TP2802.c **** 		0x3c, 0x3f,
 345:TP2824/TP2802.c **** 		0x3c, 0x00,
 346:TP2824/TP2802.c **** 
 347:TP2824/TP2802.c **** 		0x3d, 0x01, // ADC reset
 348:TP2824/TP2802.c **** 		0xff, 0xff};
 349:TP2824/TP2802.c **** 
 350:TP2824/TP2802.c **** tcByte TP2834_Audio_DataSetRD[] =
 351:TP2824/TP2802.c **** 	{
 352:TP2824/TP2802.c **** 		// audio
 353:TP2824/TP2802.c **** 		//    0x40, 0x40, //audio page
 354:TP2824/TP2802.c **** 		0x00, 0x01, // A1
 355:TP2824/TP2802.c **** 		0x01, 0x02, // A2
 356:TP2824/TP2802.c **** 		0x02, 0x03, // A3
 357:TP2824/TP2802.c **** 		0x03, 0x04, // A4
 358:TP2824/TP2802.c **** 		0x04, 0x11, // AUX
 359:TP2824/TP2802.c **** 		0x17, 0x00,
 360:TP2824/TP2802.c **** 		0x18, 0x10, // 5ch mode
 361:TP2824/TP2802.c **** 		0x19, 0x0f,
 362:TP2824/TP2802.c **** 		0x1A, 0x15, // PB to DAC
 363:TP2824/TP2802.c **** 		0x1b, 0x01, // PB master
 364:TP2824/TP2802.c **** 		0x37, 0x20,
 365:TP2824/TP2802.c **** 
 366:TP2824/TP2802.c **** 		0x1d, 0x08,
 367:TP2824/TP2802.c **** 		0x1d, 0x00,
 368:TP2824/TP2802.c **** 
 369:TP2824/TP2802.c **** 		0x3c, 0x3f,
 370:TP2824/TP2802.c **** 		0x3c, 0x00,
 371:TP2824/TP2802.c **** 
 372:TP2824/TP2802.c **** 		0x3d, 0x01, // ADC reset
 373:TP2824/TP2802.c **** 		0xff, 0xff};
 374:TP2824/TP2802.c **** 
 375:TP2824/TP2802.c **** tcByte TP2833_DataSet[] =
ARM GAS  C:\Users\ryanc.HS\AppData\Local\Temp\ccAQ3CYh.s 			page 8


 376:TP2824/TP2802.c **** 	{
 377:TP2824/TP2802.c **** 
 378:TP2824/TP2802.c **** 		0x40, 0x04,
 379:TP2824/TP2802.c **** 		0x07, 0xC0,
 380:TP2824/TP2802.c **** 		0x0B, 0xC0,
 381:TP2824/TP2802.c **** 		0x22, 0x36,
 382:TP2824/TP2802.c **** 		0x38, 0x40,
 383:TP2824/TP2802.c **** 		0x26, 0x04,
 384:TP2824/TP2802.c **** 		0x4d, 0x03,
 385:TP2824/TP2802.c **** 		0x4e, 0x03,
 386:TP2824/TP2802.c **** 		0x4f, 0x01,
 387:TP2824/TP2802.c **** 		0xff, 0xff};
 388:TP2824/TP2802.c **** tcByte TP2833_MODE_DataSet[5][14] =
 389:TP2824/TP2802.c **** 	{
 390:TP2824/TP2802.c **** 		{0x0c, 0x0d, 0x20, 0x26, 0x2b, 0x2d, 0x2e, 0x30, 0x31, 0x32, 0x33, 0x39, 0x18, 0xff},
 391:TP2824/TP2802.c **** 		{0x03, 0x50, 0x30, 0x05, 0x58, 0x30, 0x70, 0x48, 0xbb, 0x2e, 0x90, 0x0c, 0x12, 0xff},
 392:TP2824/TP2802.c **** 		{0x13, 0x50, 0x30, 0x05, 0x58, 0x30, 0x70, 0x48, 0xbb, 0x2e, 0x90, 0x08, 0x12, 0xff},
 393:TP2824/TP2802.c **** 		{0x13, 0x50, 0x40, 0x05, 0x70, 0x68, 0x5e, 0x62, 0xbb, 0x96, 0xc0, 0x04, 0x11, 0xff},
 394:TP2824/TP2802.c **** 		{0x13, 0x51, 0x48, 0x05, 0x70, 0x60, 0x5e, 0x7a, 0x4a, 0x4d, 0xf0, 0x04, 0x11, 0xff}};
 395:TP2824/TP2802.c **** tcByte TP2833_HDA_DataSet[5][8] =
 396:TP2824/TP2802.c **** 	{
 397:TP2824/TP2802.c **** 		{0x2b, 0x2d, 0x2e, 0x30, 0x31, 0x32, 0x33, 0xff}, // ADDR
 398:TP2824/TP2802.c **** 		{0x70, 0x48, 0x5e, 0x27, 0x72, 0x80, 0x77, 0xff}, // 720p30
 399:TP2824/TP2802.c **** 		{0x70, 0x48, 0x5e, 0x27, 0x88, 0x04, 0x23, 0xff}, // 720p25
 400:TP2824/TP2802.c **** 		{0x58, 0x45, 0x50, 0x29, 0x65, 0x78, 0x16, 0xff}, // 1080p30
 401:TP2824/TP2802.c **** 		{0x58, 0x45, 0x40, 0x29, 0x61, 0x78, 0x16, 0xff}, // 1080p25
 402:TP2824/TP2802.c **** };
 403:TP2824/TP2802.c **** 
 404:TP2824/TP2802.c **** tcByte TP2834_DataSet[] =
 405:TP2824/TP2802.c **** 	{
 406:TP2824/TP2802.c **** 
 407:TP2824/TP2802.c **** 		// video
 408:TP2824/TP2802.c **** 		0x40, 0x04,
 409:TP2824/TP2802.c **** 		0x07, 0xc0,
 410:TP2824/TP2802.c **** 		0x0b, 0xc0,
 411:TP2824/TP2802.c **** 		0x3a, 0x70,
 412:TP2824/TP2802.c **** 		0x26, 0x01,
 413:TP2824/TP2802.c **** 
 414:TP2824/TP2802.c **** 		0x4d, 0x0f,
 415:TP2824/TP2802.c **** 		0x4e, 0x0f,
 416:TP2824/TP2802.c **** 
 417:TP2824/TP2802.c **** 		0xff, 0xff};
 418:TP2824/TP2802.c **** tcByte TP2834_MODE_DataSet[5][13] =
 419:TP2824/TP2802.c **** 	{
 420:TP2824/TP2802.c **** 		{0x0c, 0x0d, 0x20, 0x26, 0x2b, 0x2d, 0x2e, 0x30, 0x31, 0x32, 0x33, 0x39, 0xff},
 421:TP2824/TP2802.c **** 		{0x03, 0x10, 0x60, 0x02, 0x58, 0x30, 0x70, 0x48, 0xbb, 0x2e, 0x90, 0x8c, 0xff},
 422:TP2824/TP2802.c **** 		{0x03, 0x10, 0x60, 0x02, 0x58, 0x30, 0x70, 0x48, 0xbb, 0x2e, 0x90, 0x88, 0xff},
 423:TP2824/TP2802.c **** 		{0x43, 0x10, 0xa0, 0x12, 0x70, 0x68, 0x5e, 0x62, 0xbb, 0x96, 0xc0, 0x84, 0xff},
 424:TP2824/TP2802.c **** 		{0x43, 0x11, 0xb0, 0x02, 0x70, 0x60, 0x5e, 0x7a, 0x4a, 0x4d, 0xf0, 0x84, 0xff}};
 425:TP2824/TP2802.c **** 
 426:TP2824/TP2802.c **** //////////////////////////////////////////////////////
 427:TP2824/TP2802.c **** ////
 428:TP2824/TP2802.c **** /////////////////////////////////////////////////////
 429:TP2824/TP2802.c **** 
 430:TP2824/TP2802.c **** tcByte TP2823_DataSet[] =
 431:TP2824/TP2802.c **** 	{
 432:TP2824/TP2802.c **** 
ARM GAS  C:\Users\ryanc.HS\AppData\Local\Temp\ccAQ3CYh.s 			page 9


 433:TP2824/TP2802.c **** 		// video
 434:TP2824/TP2802.c **** 		0x40, 0x04,
 435:TP2824/TP2802.c **** 		0x0b, 0x60,
 436:TP2824/TP2802.c **** 		0x22, 0x34,
 437:TP2824/TP2802.c **** 		0x23, 0x44,
 438:TP2824/TP2802.c **** 		0x26, 0x01,
 439:TP2824/TP2802.c **** 		0x38, 0x40,
 440:TP2824/TP2802.c **** 		0x3f, 0x08,
 441:TP2824/TP2802.c **** 
 442:TP2824/TP2802.c **** 		0x4d, 0x03,
 443:TP2824/TP2802.c **** 		0x4e, 0x33,
 444:TP2824/TP2802.c **** 		0xfa, 0x00,
 445:TP2824/TP2802.c **** 
 446:TP2824/TP2802.c **** 		0xff, 0xff};
 447:TP2824/TP2802.c **** tcByte TP2823_MODE_DataSet[5][13] =
 448:TP2824/TP2802.c **** 	{
 449:TP2824/TP2802.c **** 		{0x0c, 0x0d, 0x20, 0x26, 0x2b, 0x2d, 0x2e, 0x30, 0x31, 0x32, 0x33, 0x39, 0xff},
 450:TP2824/TP2802.c **** 		{0x43, 0x10, 0x60, 0x02, 0x58, 0x30, 0x70, 0x48, 0xbb, 0x2e, 0x90, 0x30, 0xff},
 451:TP2824/TP2802.c **** 		{0x53, 0x10, 0x60, 0x02, 0x58, 0x30, 0x70, 0x48, 0xbb, 0x2e, 0x90, 0x20, 0xff},
 452:TP2824/TP2802.c **** 		{0x53, 0x10, 0xa0, 0x12, 0x70, 0x68, 0x5e, 0x62, 0xbb, 0x96, 0xc0, 0x10, 0xff},
 453:TP2824/TP2802.c **** 		{0x53, 0x11, 0xb0, 0x02, 0x70, 0x60, 0x5e, 0x7a, 0x4a, 0x4d, 0xf0, 0x10, 0xff}};
 454:TP2824/TP2802.c **** tcByte TP2822_DataSet[] =
 455:TP2824/TP2802.c **** 	{
 456:TP2824/TP2802.c **** 
 457:TP2824/TP2802.c **** 		0x40, 0x04,
 458:TP2824/TP2802.c **** 		0x39, 0x00,
 459:TP2824/TP2802.c **** 		0x3d, 0x08,
 460:TP2824/TP2802.c **** 		0x3a, 0x01,
 461:TP2824/TP2802.c **** 
 462:TP2824/TP2802.c **** 		0x30, 0x48,
 463:TP2824/TP2802.c **** 		0x31, 0xbb,
 464:TP2824/TP2802.c **** 		0x32, 0x2e,
 465:TP2824/TP2802.c **** 		0x33, 0x90,
 466:TP2824/TP2802.c **** 
 467:TP2824/TP2802.c **** 		0x4d, 0x03,
 468:TP2824/TP2802.c **** 		0x4e, 0x33,
 469:TP2824/TP2802.c **** 		0x3d, 0x00,
 470:TP2824/TP2802.c **** 
 471:TP2824/TP2802.c **** 		0xff, 0xff};
 472:TP2824/TP2802.c **** 
 473:TP2824/TP2802.c **** tcByte TP2802D_DataSet[] =
 474:TP2824/TP2802.c **** 	{
 475:TP2824/TP2802.c **** 		0x40, 0x04,
 476:TP2824/TP2802.c **** 		//		0x07, 0xc0,
 477:TP2824/TP2802.c **** 		//		0x0b, 0xc0,
 478:TP2824/TP2802.c **** 		0x2b, 0x44,
 479:TP2824/TP2802.c **** 		0x23, 0x50,
 480:TP2824/TP2802.c **** 		0x39, 0x42,
 481:TP2824/TP2802.c **** 		0x3a, 0x01,
 482:TP2824/TP2802.c **** 
 483:TP2824/TP2802.c **** 		0x30, 0x48,
 484:TP2824/TP2802.c **** 		0x31, 0xbb,
 485:TP2824/TP2802.c **** 		0x32, 0x2e,
 486:TP2824/TP2802.c **** 		0x33, 0x90,
 487:TP2824/TP2802.c **** 
 488:TP2824/TP2802.c **** 		0x4d, 0x0f,
 489:TP2824/TP2802.c **** 		0x4e, 0xff,
ARM GAS  C:\Users\ryanc.HS\AppData\Local\Temp\ccAQ3CYh.s 			page 10


 490:TP2824/TP2802.c **** 
 491:TP2824/TP2802.c **** 		// now TP2801A just support 2 lines, to disable line3&4, else IRQ is in trouble.
 492:TP2824/TP2802.c **** 		0x40, 0x01,
 493:TP2824/TP2802.c **** 		0x50, 0x00,
 494:TP2824/TP2802.c **** 		0x51, 0x00,
 495:TP2824/TP2802.c **** 		0x52, 0x00,
 496:TP2824/TP2802.c **** 		0x7F, 0x00,
 497:TP2824/TP2802.c **** 		0x80, 0x00,
 498:TP2824/TP2802.c **** 		0x81, 0x00,
 499:TP2824/TP2802.c **** 
 500:TP2824/TP2802.c **** 		// 0x50~0xb2 need bank switch
 501:TP2824/TP2802.c **** 		0x40, 0x00,
 502:TP2824/TP2802.c **** 		// TX total 34bit, valid load 32bit
 503:TP2824/TP2802.c **** 		0x50, 0x00,
 504:TP2824/TP2802.c **** 		0x51, 0x0b,
 505:TP2824/TP2802.c **** 		0x52, 0x0c,
 506:TP2824/TP2802.c **** 		0x53, 0x19,
 507:TP2824/TP2802.c **** 		0x54, 0x78,
 508:TP2824/TP2802.c **** 		0x55, 0x21,
 509:TP2824/TP2802.c **** 		0x7e, 0x0f, //
 510:TP2824/TP2802.c **** 
 511:TP2824/TP2802.c **** 		// RX total 40bit, valid load 39bit
 512:TP2824/TP2802.c **** 		0x7F, 0x00,
 513:TP2824/TP2802.c **** 		0x80, 0x07,
 514:TP2824/TP2802.c **** 		0x81, 0x08,
 515:TP2824/TP2802.c **** 		0x82, 0x04,
 516:TP2824/TP2802.c **** 		0x83, 0x00,
 517:TP2824/TP2802.c **** 		0x84, 0x00,
 518:TP2824/TP2802.c **** 		0x85, 0x60,
 519:TP2824/TP2802.c **** 		0x86, 0x10,
 520:TP2824/TP2802.c **** 		0x87, 0x06,
 521:TP2824/TP2802.c **** 		0x88, 0xBE,
 522:TP2824/TP2802.c **** 		0x89, 0x39,
 523:TP2824/TP2802.c **** 		0x8A, 0x27, //
 524:TP2824/TP2802.c **** 		0xB9, 0x0F, // RX channel enable
 525:TP2824/TP2802.c **** 		0xff, 0xff};
 526:TP2824/TP2802.c **** 
 527:TP2824/TP2802.c **** /*
 528:TP2824/TP2802.c **** //total 34bit, valid load 32bit
 529:TP2824/TP2802.c **** tcByte TP2822_PTZ_DataSet[] = {
 530:TP2824/TP2802.c **** 
 531:TP2824/TP2802.c **** 		//PTZ
 532:TP2824/TP2802.c **** 		0x40, 0x10,
 533:TP2824/TP2802.c **** 		0xc8, 0x21,
 534:TP2824/TP2802.c **** 		0xe0, 0x21,
 535:TP2824/TP2802.c **** 		0x40, 0x00,
 536:TP2824/TP2802.c **** 		0xc8, 0x21,
 537:TP2824/TP2802.c **** 		0xe0, 0x21,
 538:TP2824/TP2802.c **** 		0x7e, 0x0f,
 539:TP2824/TP2802.c **** 		0xb9, 0x0f,
 540:TP2824/TP2802.c **** 
 541:TP2824/TP2802.c **** 	0xff, 0xff
 542:TP2824/TP2802.c **** };
 543:TP2824/TP2802.c **** */
 544:TP2824/TP2802.c **** 
 545:TP2824/TP2802.c **** #if 1
 546:TP2824/TP2802.c **** tcByte TP2824C_TVI_FHD_PTZ_DataSet[] = { // 1080P30/25 TVI
ARM GAS  C:\Users\ryanc.HS\AppData\Local\Temp\ccAQ3CYh.s 			page 11


 547:TP2824/TP2802.c **** 
 548:TP2824/TP2802.c **** 	// PTZ COC
 549:TP2824/TP2802.c **** 	// TX
 550:TP2824/TP2802.c **** 	0xc0, 0x00,
 551:TP2824/TP2802.c **** 	0xc2, 0x0B,
 552:TP2824/TP2802.c **** 	0xc3, 0x0C,
 553:TP2824/TP2802.c **** 	0xc1, 0x00,
 554:TP2824/TP2802.c **** 	0xc4, 0x00,
 555:TP2824/TP2802.c **** 	0xc5, 0x00,
 556:TP2824/TP2802.c **** 	0xc6, 0x33,
 557:TP2824/TP2802.c **** 	0xc7, 0x78,
 558:TP2824/TP2802.c **** 	0xc8, 0x21,
 559:TP2824/TP2802.c **** 	0x6f, 0x40,
 560:TP2824/TP2802.c **** 	0x70, 0x00,
 561:TP2824/TP2802.c **** 
 562:TP2824/TP2802.c **** 	0x55, 0x00,
 563:TP2824/TP2802.c **** 	0x56, 0x02,
 564:TP2824/TP2802.c **** 	0x57, 0xB5,
 565:TP2824/TP2802.c **** 	0x58, 0x01,
 566:TP2824/TP2802.c **** 	0x59, 0x17,
 567:TP2824/TP2802.c **** 	0x5a, 0x01,
 568:TP2824/TP2802.c **** 	0x5b, 0x00,
 569:TP2824/TP2802.c **** 	0x5c, 0x02,
 570:TP2824/TP2802.c **** 	0x5d, 0x00,
 571:TP2824/TP2802.c **** 	0x5e, 0x00,
 572:TP2824/TP2802.c **** 	0x5f, 0x00,
 573:TP2824/TP2802.c **** 	0x60, 0xCE,
 574:TP2824/TP2802.c **** 
 575:TP2824/TP2802.c **** 	// RX
 576:TP2824/TP2802.c **** 	0xcb, 0x07,
 577:TP2824/TP2802.c **** 	0xcc, 0x08,
 578:TP2824/TP2802.c **** 	0xcd, 0x00,
 579:TP2824/TP2802.c **** 	0xce, 0x00,
 580:TP2824/TP2802.c **** 	0xcf, 0x04,
 581:TP2824/TP2802.c **** 	0xd0, 0x00,
 582:TP2824/TP2802.c **** 	0xd1, 0x00,
 583:TP2824/TP2802.c **** 	0xd2, 0x60,
 584:TP2824/TP2802.c **** 	0xd3, 0x10,
 585:TP2824/TP2802.c **** 	0xd4, 0x06,
 586:TP2824/TP2802.c **** 	0xd5, 0xbe,
 587:TP2824/TP2802.c **** 	0xd6, 0x39,
 588:TP2824/TP2802.c **** 	0xd7, 0x21,
 589:TP2824/TP2802.c **** 	0xa7, 0x00,
 590:TP2824/TP2802.c **** 	0xff, 0xff};
 591:TP2824/TP2802.c **** 
 592:TP2824/TP2802.c **** tcByte TP2824C_AHD_FHD_PTZ_DataSet[] = { // 1080P30/25 AHD
 593:TP2824/TP2802.c **** 
 594:TP2824/TP2802.c **** 	// PTZ COC
 595:TP2824/TP2802.c **** 	// TX
 596:TP2824/TP2802.c **** 	0xc0, 0x00,
 597:TP2824/TP2802.c **** 	0xc2, 0x0E,
 598:TP2824/TP2802.c **** 	0xc3, 0x0F,
 599:TP2824/TP2802.c **** 	0xc1, 0x00,
 600:TP2824/TP2802.c **** 	0xc4, 0x10,
 601:TP2824/TP2802.c **** 	0xc5, 0x11,
 602:TP2824/TP2802.c **** 	0xc6, 0x24,
 603:TP2824/TP2802.c **** 	0xc7, 0x15,
ARM GAS  C:\Users\ryanc.HS\AppData\Local\Temp\ccAQ3CYh.s 			page 12


 604:TP2824/TP2802.c **** 	0xc8, 0x97,
 605:TP2824/TP2802.c **** 	0x6f, 0x44,
 606:TP2824/TP2802.c **** 	0x70, 0x00,
 607:TP2824/TP2802.c **** 
 608:TP2824/TP2802.c **** 	0x55, 0x00,
 609:TP2824/TP2802.c **** 	0x56, 0x00,
 610:TP2824/TP2802.c **** 	0x57, 0x00,
 611:TP2824/TP2802.c **** 	0x58, 0x00,
 612:TP2824/TP2802.c **** 	0x59, 0x00,
 613:TP2824/TP2802.c **** 	0x5a, 0x00,
 614:TP2824/TP2802.c **** 	0x5b, 0x00,
 615:TP2824/TP2802.c **** 	0x5c, 0x00,
 616:TP2824/TP2802.c **** 	0x5d, 0x00,
 617:TP2824/TP2802.c **** 	0x5e, 0x00,
 618:TP2824/TP2802.c **** 	0x5f, 0x00,
 619:TP2824/TP2802.c **** 	0x60, 0x00,
 620:TP2824/TP2802.c **** 	0x62, 0x00,
 621:TP2824/TP2802.c **** 	0x63, 0x00,
 622:TP2824/TP2802.c **** 	0x64, 0x00,
 623:TP2824/TP2802.c **** 	0x65, 0x00,
 624:TP2824/TP2802.c **** 	0x66, 0x00,
 625:TP2824/TP2802.c **** 	0x68, 0x00,
 626:TP2824/TP2802.c **** 	0x69, 0x00,
 627:TP2824/TP2802.c **** 	0x6a, 0x00,
 628:TP2824/TP2802.c **** 	0x6b, 0x00,
 629:TP2824/TP2802.c **** 	0x6c, 0x00,
 630:TP2824/TP2802.c **** 
 631:TP2824/TP2802.c **** 	// RX
 632:TP2824/TP2802.c **** 	0xcb, 0x07,
 633:TP2824/TP2802.c **** 	0xcc, 0x08,
 634:TP2824/TP2802.c **** 	0xcd, 0x00,
 635:TP2824/TP2802.c **** 	0xce, 0x00,
 636:TP2824/TP2802.c **** 	0xcf, 0x04,
 637:TP2824/TP2802.c **** 	0xd0, 0x00,
 638:TP2824/TP2802.c **** 	0xd1, 0x00,
 639:TP2824/TP2802.c **** 	0xd2, 0x60,
 640:TP2824/TP2802.c **** 	0xd3, 0x10,
 641:TP2824/TP2802.c **** 	0xd4, 0x06,
 642:TP2824/TP2802.c **** 	0xd5, 0xbe,
 643:TP2824/TP2802.c **** 	0xd6, 0x39,
 644:TP2824/TP2802.c **** 	0xd7, 0x27,
 645:TP2824/TP2802.c **** 
 646:TP2824/TP2802.c **** 	0xa7, 0x24,
 647:TP2824/TP2802.c **** 
 648:TP2824/TP2802.c **** 	0xff, 0xff};
 649:TP2824/TP2802.c **** 
 650:TP2824/TP2802.c **** tcByte TP2824C_CVBS_PTZ_DataSet[] = { // CVBS NTSC/PAL
 651:TP2824/TP2802.c **** 
 652:TP2824/TP2802.c **** 	// PTZ COC
 653:TP2824/TP2802.c **** 	// TX
 654:TP2824/TP2802.c **** 	0xc0, 0x00,
 655:TP2824/TP2802.c **** 	0xc2, 0x0F,
 656:TP2824/TP2802.c **** 	0xc3, 0x10,
 657:TP2824/TP2802.c **** 	0xc1, 0x00,
 658:TP2824/TP2802.c **** 	0xc4, 0x00,
 659:TP2824/TP2802.c **** 	0xc5, 0x00,
 660:TP2824/TP2802.c **** 	0xc6, 0x49,
ARM GAS  C:\Users\ryanc.HS\AppData\Local\Temp\ccAQ3CYh.s 			page 13


 661:TP2824/TP2802.c **** 	0xc7, 0x14,
 662:TP2824/TP2802.c **** 	0xc8, 0xAF,
 663:TP2824/TP2802.c **** 	0x6f, 0x60,
 664:TP2824/TP2802.c **** 	0x70, 0x00,
 665:TP2824/TP2802.c **** 
 666:TP2824/TP2802.c **** 	0x55, 0x00,
 667:TP2824/TP2802.c **** 	0x56, 0x00,
 668:TP2824/TP2802.c **** 	0x57, 0x00,
 669:TP2824/TP2802.c **** 	0x58, 0x00,
 670:TP2824/TP2802.c **** 	0x59, 0x00,
 671:TP2824/TP2802.c **** 	0x5a, 0x00,
 672:TP2824/TP2802.c **** 	0x5b, 0x00,
 673:TP2824/TP2802.c **** 	0x5c, 0x00,
 674:TP2824/TP2802.c **** 	0x5d, 0x00,
 675:TP2824/TP2802.c **** 	0x5e, 0x00,
 676:TP2824/TP2802.c **** 	0x5f, 0x00,
 677:TP2824/TP2802.c **** 	0x60, 0x00,
 678:TP2824/TP2802.c **** 	0x62, 0x00,
 679:TP2824/TP2802.c **** 	0x63, 0x00,
 680:TP2824/TP2802.c **** 	0x64, 0x00,
 681:TP2824/TP2802.c **** 	0x65, 0x00,
 682:TP2824/TP2802.c **** 	0x66, 0x00,
 683:TP2824/TP2802.c **** 	0x68, 0x00,
 684:TP2824/TP2802.c **** 	0x69, 0x00,
 685:TP2824/TP2802.c **** 	0x6a, 0x00,
 686:TP2824/TP2802.c **** 	0x6b, 0x00,
 687:TP2824/TP2802.c **** 	0x6c, 0x00,
 688:TP2824/TP2802.c **** 
 689:TP2824/TP2802.c **** 	0xff, 0xff};
 690:TP2824/TP2802.c **** 
 691:TP2824/TP2802.c **** tcByte TP2824C_CVIHD_PTZ_DataSet[] = { // CVI CHD
 692:TP2824/TP2802.c **** 
 693:TP2824/TP2802.c **** 	// PTZ COC
 694:TP2824/TP2802.c **** 	// TX
 695:TP2824/TP2802.c **** 	0x70, 0x1D,
 696:TP2824/TP2802.c **** 	0xc0, 0x00,
 697:TP2824/TP2802.c **** 	0xc2, 0x10,
 698:TP2824/TP2802.c **** 	0xc3, 0x00,
 699:TP2824/TP2802.c **** 	0xc1, 0x00,
 700:TP2824/TP2802.c **** 	0xc4, 0x00,
 701:TP2824/TP2802.c **** 	0xc5, 0x00,
 702:TP2824/TP2802.c **** 	0xc6, 0x15,
 703:TP2824/TP2802.c **** 	0xc7, 0x5B,
 704:TP2824/TP2802.c **** 	0xc8, 0xa4,
 705:TP2824/TP2802.c **** 	0x6f, 0x48,
 706:TP2824/TP2802.c **** 
 707:TP2824/TP2802.c **** 	0x55, 0x00,
 708:TP2824/TP2802.c **** 	0x56, 0x00,
 709:TP2824/TP2802.c **** 	0x57, 0x00,
 710:TP2824/TP2802.c **** 	0x58, 0x00,
 711:TP2824/TP2802.c **** 	0x59, 0x00,
 712:TP2824/TP2802.c **** 	0x5a, 0x00,
 713:TP2824/TP2802.c **** 	0x5b, 0x00,
 714:TP2824/TP2802.c **** 	0x5c, 0x00,
 715:TP2824/TP2802.c **** 	0x5d, 0x00,
 716:TP2824/TP2802.c **** 	0x5e, 0x00,
 717:TP2824/TP2802.c **** 	0x5f, 0x00,
ARM GAS  C:\Users\ryanc.HS\AppData\Local\Temp\ccAQ3CYh.s 			page 14


 718:TP2824/TP2802.c **** 	0x60, 0x00,
 719:TP2824/TP2802.c **** 	0x62, 0x00,
 720:TP2824/TP2802.c **** 	0x63, 0x00,
 721:TP2824/TP2802.c **** 	0x64, 0x00,
 722:TP2824/TP2802.c **** 	0x65, 0x00,
 723:TP2824/TP2802.c **** 	0x66, 0x00,
 724:TP2824/TP2802.c **** 	0x68, 0x00,
 725:TP2824/TP2802.c **** 	0x69, 0x00,
 726:TP2824/TP2802.c **** 	0x6a, 0x00,
 727:TP2824/TP2802.c **** 	0x6b, 0x00,
 728:TP2824/TP2802.c **** 	0x6c, 0x00,
 729:TP2824/TP2802.c **** 
 730:TP2824/TP2802.c **** 	0xff, 0xff};
 731:TP2824/TP2802.c **** 
 732:TP2824/TP2802.c **** #else
 733:TP2824/TP2802.c **** tcByte TP2824C_TVI_FHD_PTZ_DataSet[] = { // 1080P30/25 TVI
 734:TP2824/TP2802.c **** 
 735:TP2824/TP2802.c **** 	// PTZ COC
 736:TP2824/TP2802.c **** 	// TX
 737:TP2824/TP2802.c **** 	0xc0, 0x00, // TXLINE2  / TXLINE1
 738:TP2824/TP2802.c **** 	0xc2, 0x0B, // TXLINE1
 739:TP2824/TP2802.c **** 	0xc3, 0x0C, // TXLINE2
 740:TP2824/TP2802.c **** 	0xc1, 0x00, // TXLINE4  / TXLINE3
 741:TP2824/TP2802.c **** 	0xc4, 0x00, // TXLINE3
 742:TP2824/TP2802.c **** 	0xc5, 0x00, // TXLINE4
 743:TP2824/TP2802.c **** 	0xc6, 0x33, // TXBITCKNUM  0x19  0x1F  //0x19 for 1080P  ;  0x33 for 720P   // TVI 720P ptz 202005
 744:TP2824/TP2802.c **** 	0xc7, 0x78, // TXHST
 745:TP2824/TP2802.c **** 	0xc8, 0x21, // TXBITNUM  //0x21  0x27
 746:TP2824/TP2802.c **** 	0x6f, 0x40, // TXn pin enable
 747:TP2824/TP2802.c **** 	0x70, 0x00, // TXLMD[3]=0 / TXLNUM[2:0]=0
 748:TP2824/TP2802.c **** 
 749:TP2824/TP2802.c **** 	// PRESET 1
 750:TP2824/TP2802.c **** 	// TXLINE1DATA
 751:TP2824/TP2802.c **** 	0x55, 0x00,
 752:TP2824/TP2802.c **** 	0x56, 0x02,
 753:TP2824/TP2802.c **** 	0x57, 0xB5,
 754:TP2824/TP2802.c **** 	0x58, 0x01,
 755:TP2824/TP2802.c **** 	0x59, 0x17,
 756:TP2824/TP2802.c **** 	0x5a, 0x01,
 757:TP2824/TP2802.c **** 	// TXLINE2DATA
 758:TP2824/TP2802.c **** 	0x5b, 0x00,
 759:TP2824/TP2802.c **** 	0x5c, 0x02,
 760:TP2824/TP2802.c **** 	0x5d, 0x00,
 761:TP2824/TP2802.c **** 	0x5e, 0x00,
 762:TP2824/TP2802.c **** 	0x5f, 0x00,
 763:TP2824/TP2802.c **** 	0x60, 0xCE,
 764:TP2824/TP2802.c **** 
 765:TP2824/TP2802.c **** 	// RX
 766:TP2824/TP2802.c **** 	0xcb, 0x07, // RXLINE1
 767:TP2824/TP2802.c **** 	0xcc, 0x08, // RXLINE2
 768:TP2824/TP2802.c **** 	0xcd, 0x00, // 0x09,		//RXLINE3
 769:TP2824/TP2802.c **** 	0xce, 0x00, // 0x0a,		//RXLINE4
 770:TP2824/TP2802.c **** 	0xcf, 0x04, // RXFREQ
 771:TP2824/TP2802.c **** 	0xd0, 0x00, // RXFREQ
 772:TP2824/TP2802.c **** 	0xd1, 0x00, // RXFREQ
 773:TP2824/TP2802.c **** 	0xd2, 0x60, // RXTHLEVEL
 774:TP2824/TP2802.c **** 	0xd3, 0x10, // RXHINUM
ARM GAS  C:\Users\ryanc.HS\AppData\Local\Temp\ccAQ3CYh.s 			page 15


 775:TP2824/TP2802.c **** 	0xd4, 0x06, // RXHST / RXHEND
 776:TP2824/TP2802.c **** 	0xd5, 0xbe, // RXHST
 777:TP2824/TP2802.c **** 	0xd6, 0x39, // RXHEND
 778:TP2824/TP2802.c **** 	0xd7, 0x21, // 0x27,		//RXBITNUM
 779:TP2824/TP2802.c **** 	0xa7, 0x00, //
 780:TP2824/TP2802.c **** 	0xff, 0xff};
 781:TP2824/TP2802.c **** 
 782:TP2824/TP2802.c **** tcByte TP2824C_AHD_FHD_PTZ_DataSet[] = { // 1080P30/25 AHD
 783:TP2824/TP2802.c **** 
 784:TP2824/TP2802.c **** 	// PTZ COC
 785:TP2824/TP2802.c **** 	// TX
 786:TP2824/TP2802.c **** 	0xc0, 0x00, // TXLINE2  / TXLINE1
 787:TP2824/TP2802.c **** 	0xc2, 0x0E, // TXLINE1
 788:TP2824/TP2802.c **** 	0xc3, 0x0F, // TXLINE2
 789:TP2824/TP2802.c **** 	0xc1, 0x00, // TXLINE4  / TXLINE3
 790:TP2824/TP2802.c **** 	0xc4, 0x10, // TXLINE3
 791:TP2824/TP2802.c **** 	0xc5, 0x11, // TXLINE4
 792:TP2824/TP2802.c **** 	0xc6, 0x24, // TXBITCKNUM
 793:TP2824/TP2802.c **** 	0xc7, 0x15, // TXHST[7:0]		//TXHST=0x215
 794:TP2824/TP2802.c **** 	0xc8, 0x97, // TXHST[9:8] / TXBITNUM:0x17
 795:TP2824/TP2802.c **** 	0x6f, 0x44, // TXn pin enable / TXACP
 796:TP2824/TP2802.c **** 	0x70, 0x00, // TXLMD[3]=0 / TXLNUM[2:0]=0
 797:TP2824/TP2802.c **** 
 798:TP2824/TP2802.c **** 	// TXLINE1DATA
 799:TP2824/TP2802.c **** 	0x55, 0x00,
 800:TP2824/TP2802.c **** 	0x56, 0x00,
 801:TP2824/TP2802.c **** 	0x57, 0x00,
 802:TP2824/TP2802.c **** 	0x58, 0x00,
 803:TP2824/TP2802.c **** 	0x59, 0x00,
 804:TP2824/TP2802.c **** 	0x5a, 0x00,
 805:TP2824/TP2802.c **** 	// TXLINE2DATA
 806:TP2824/TP2802.c **** 	0x5b, 0x00,
 807:TP2824/TP2802.c **** 	0x5c, 0x00,
 808:TP2824/TP2802.c **** 	0x5d, 0x00,
 809:TP2824/TP2802.c **** 	0x5e, 0x00,
 810:TP2824/TP2802.c **** 	0x5f, 0x00,
 811:TP2824/TP2802.c **** 	0x60, 0x00,
 812:TP2824/TP2802.c **** 	// TXLINE3DATA
 813:TP2824/TP2802.c **** 	0x62, 0x00,
 814:TP2824/TP2802.c **** 	0x63, 0x00,
 815:TP2824/TP2802.c **** 	0x64, 0x00,
 816:TP2824/TP2802.c **** 	0x65, 0x00,
 817:TP2824/TP2802.c **** 	0x66, 0x00,
 818:TP2824/TP2802.c **** 	// TXLINE4DATA
 819:TP2824/TP2802.c **** 	0x68, 0x00,
 820:TP2824/TP2802.c **** 	0x69, 0x00,
 821:TP2824/TP2802.c **** 	0x6a, 0x00,
 822:TP2824/TP2802.c **** 	0x6b, 0x00,
 823:TP2824/TP2802.c **** 	0x6c, 0x00,
 824:TP2824/TP2802.c **** 
 825:TP2824/TP2802.c **** 	// RX
 826:TP2824/TP2802.c **** 	0xcb, 0x07, // RXLINE1
 827:TP2824/TP2802.c **** 	0xcc, 0x08, // RXLINE2
 828:TP2824/TP2802.c **** 	0xcd, 0x00, // 0x09,		//RXLINE3
 829:TP2824/TP2802.c **** 	0xce, 0x00, // 0x0a,		//RXLINE4
 830:TP2824/TP2802.c **** 	0xcf, 0x04, // RXFREQ
 831:TP2824/TP2802.c **** 	0xd0, 0x00, // RXFREQ
ARM GAS  C:\Users\ryanc.HS\AppData\Local\Temp\ccAQ3CYh.s 			page 16


 832:TP2824/TP2802.c **** 	0xd1, 0x00, // RXFREQ
 833:TP2824/TP2802.c **** 	0xd2, 0x60, // RXTHLEVEL
 834:TP2824/TP2802.c **** 	0xd3, 0x10, // RXHINUM
 835:TP2824/TP2802.c **** 	0xd4, 0x06, // RXHST / RXHEND
 836:TP2824/TP2802.c **** 	0xd5, 0xbe, // RXHST
 837:TP2824/TP2802.c **** 	0xd6, 0x39, // RXHEND
 838:TP2824/TP2802.c **** 	0xd7, 0x27, // RXBITNUM
 839:TP2824/TP2802.c **** 
 840:TP2824/TP2802.c **** 	0xa7, 0x24, // RXPWM / RXACP
 841:TP2824/TP2802.c **** 
 842:TP2824/TP2802.c **** 	0xff, 0xff};
 843:TP2824/TP2802.c **** 
 844:TP2824/TP2802.c **** tcByte TP2824C_CVBS_PTZ_DataSet[] = { // CVBS NTSC/PAL
 845:TP2824/TP2802.c **** 
 846:TP2824/TP2802.c **** 	// PTZ COC
 847:TP2824/TP2802.c **** 	// TX
 848:TP2824/TP2802.c **** 	0xc0, 0x00, // TXLINE2  / TXLINE1
 849:TP2824/TP2802.c **** 	0xc2, 0x0F, // TXLINE1		//line18
 850:TP2824/TP2802.c **** 	0xc3, 0x10, // TXLINE2		//line19
 851:TP2824/TP2802.c **** 	0xc1, 0x00, // TXLINE4  / TXLINE3
 852:TP2824/TP2802.c **** 	0xc4, 0x00, // TXLINE3
 853:TP2824/TP2802.c **** 	0xc5, 0x00, // TXLINE4
 854:TP2824/TP2802.c **** 	0xc6, 0x49, // TXBITCKNUM
 855:TP2824/TP2802.c **** 	0xc7, 0x14, // TXHST[7:0]		//TXHST=0x214
 856:TP2824/TP2802.c **** 	0xc8, 0xAF, // TXHST[9:8] / TXBITNUM:0x2F
 857:TP2824/TP2802.c **** 	0x6f, 0x60, // TXn pin enable / TXPELCO2
 858:TP2824/TP2802.c **** 	0x70, 0x00, // TXLMD[3]=0 / TXLNUM[2:0]=0
 859:TP2824/TP2802.c **** 
 860:TP2824/TP2802.c **** 	// TXLINE1DATA
 861:TP2824/TP2802.c **** 	0x55, 0x00,
 862:TP2824/TP2802.c **** 	0x56, 0x00,
 863:TP2824/TP2802.c **** 	0x57, 0x00,
 864:TP2824/TP2802.c **** 	0x58, 0x00,
 865:TP2824/TP2802.c **** 	0x59, 0x00, // cmd2 [LSB first]
 866:TP2824/TP2802.c **** 	0x5a, 0x00, // cmd1 [LSB first]
 867:TP2824/TP2802.c **** 	// TXLINE2DATA
 868:TP2824/TP2802.c **** 	0x5b, 0x00,
 869:TP2824/TP2802.c **** 	0x5c, 0x00,
 870:TP2824/TP2802.c **** 	0x5d, 0x00,
 871:TP2824/TP2802.c **** 	0x5e, 0x00,
 872:TP2824/TP2802.c **** 	0x5f, 0x00, // data2 [LSB first]
 873:TP2824/TP2802.c **** 	0x60, 0x00, // data1 [LSB first]
 874:TP2824/TP2802.c **** 	// TXLINE3DATA
 875:TP2824/TP2802.c **** 	0x62, 0x00,
 876:TP2824/TP2802.c **** 	0x63, 0x00,
 877:TP2824/TP2802.c **** 	0x64, 0x00,
 878:TP2824/TP2802.c **** 	0x65, 0x00,
 879:TP2824/TP2802.c **** 	0x66, 0x00,
 880:TP2824/TP2802.c **** 	// TXLINE4DATA
 881:TP2824/TP2802.c **** 	0x68, 0x00,
 882:TP2824/TP2802.c **** 	0x69, 0x00,
 883:TP2824/TP2802.c **** 	0x6a, 0x00,
 884:TP2824/TP2802.c **** 	0x6b, 0x00,
 885:TP2824/TP2802.c **** 	0x6c, 0x00,
 886:TP2824/TP2802.c **** 	/*
 887:TP2824/TP2802.c **** 	 //RX
 888:TP2824/TP2802.c **** 		0xcb, 0x07,		//RXLINE1
ARM GAS  C:\Users\ryanc.HS\AppData\Local\Temp\ccAQ3CYh.s 			page 17


 889:TP2824/TP2802.c **** 		0xcc, 0x08,		//RXLINE2
 890:TP2824/TP2802.c **** 		0xcd, 0x00,//0x09,		//RXLINE3
 891:TP2824/TP2802.c **** 		0xce, 0x00,//0x0a,		//RXLINE4
 892:TP2824/TP2802.c **** 		0xcf, 0x04,		//RXFREQ
 893:TP2824/TP2802.c **** 		0xd0, 0x00,		//RXFREQ
 894:TP2824/TP2802.c **** 		0xd1, 0x00,		//RXFREQ
 895:TP2824/TP2802.c **** 		0xd2, 0x60,		//RXTHLEVEL
 896:TP2824/TP2802.c **** 		0xd3, 0x10,		//RXHINUM
 897:TP2824/TP2802.c **** 		0xd4, 0x06,		//RXHST / RXHEND
 898:TP2824/TP2802.c **** 		0xd5, 0xbe,		//RXHST
 899:TP2824/TP2802.c **** 		0xd6, 0x39,		//RXHEND
 900:TP2824/TP2802.c **** 		0xd7, 0x27,		//RXBITNUM
 901:TP2824/TP2802.c **** 
 902:TP2824/TP2802.c **** 		0xa7, 0x24,//RXPWM / RXACP
 903:TP2824/TP2802.c **** 	*/
 904:TP2824/TP2802.c **** 	0xff, 0xff};
 905:TP2824/TP2802.c **** 
 906:TP2824/TP2802.c **** tcByte TP2824C_CVIHD_PTZ_DataSet[] = { // CVI CHD
 907:TP2824/TP2802.c **** 
 908:TP2824/TP2802.c **** 	// PTZ COC
 909:TP2824/TP2802.c **** 	// TX
 910:TP2824/TP2802.c **** 	0x70, 0x1D, // TCMFR[4]=1 / TXLMD[3]=1 / TXLNUM[2:0]=5
 911:TP2824/TP2802.c **** 	0xc0, 0x00, // TXLINE2  / TXLINE1
 912:TP2824/TP2802.c **** 	0xc2, 0x10, // TXLINE1		//line18
 913:TP2824/TP2802.c **** 	0xc3, 0x00, // TXLINE2		//line19
 914:TP2824/TP2802.c **** 	0xc1, 0x00, // TXLINE4  / TXLINE3
 915:TP2824/TP2802.c **** 	0xc4, 0x00, // TXLINE3
 916:TP2824/TP2802.c **** 	0xc5, 0x00, // TXLINE4
 917:TP2824/TP2802.c **** 	0xc6, 0x15, // TXBITCKNUM
 918:TP2824/TP2802.c **** 	0xc7, 0x5B, // TXHST[7:0]		//TXHST=0x25B
 919:TP2824/TP2802.c **** 	0xc8, 0xa4, // 0x97,	//TXHST[9:8]0b10xx xxxx / TXBITNUM:0x17=>0x24
 920:TP2824/TP2802.c **** 	0x6f, 0x48, // TXn pin enable / TXDAH
 921:TP2824/TP2802.c **** 
 922:TP2824/TP2802.c **** 	// TXLINE1DATA
 923:TP2824/TP2802.c **** 	0x55, 0x00,
 924:TP2824/TP2802.c **** 	0x56, 0x00,
 925:TP2824/TP2802.c **** 	0x57, 0x00,
 926:TP2824/TP2802.c **** 	0x58, 0x00,
 927:TP2824/TP2802.c **** 	0x59, 0x00, // cmd2 [LSB first]
 928:TP2824/TP2802.c **** 	0x5a, 0x00, // cmd1 [LSB first]
 929:TP2824/TP2802.c **** 	// TXLINE2DATA
 930:TP2824/TP2802.c **** 	0x5b, 0x00,
 931:TP2824/TP2802.c **** 	0x5c, 0x00,
 932:TP2824/TP2802.c **** 	0x5d, 0x00,
 933:TP2824/TP2802.c **** 	0x5e, 0x00,
 934:TP2824/TP2802.c **** 	0x5f, 0x00, // data2 [LSB first]
 935:TP2824/TP2802.c **** 	0x60, 0x00, // data1 [LSB first]
 936:TP2824/TP2802.c **** 	// TXLINE3DATA
 937:TP2824/TP2802.c **** 	0x62, 0x00,
 938:TP2824/TP2802.c **** 	0x63, 0x00,
 939:TP2824/TP2802.c **** 	0x64, 0x00,
 940:TP2824/TP2802.c **** 	0x65, 0x00,
 941:TP2824/TP2802.c **** 	0x66, 0x00,
 942:TP2824/TP2802.c **** 	// TXLINE4DATA
 943:TP2824/TP2802.c **** 	0x68, 0x00,
 944:TP2824/TP2802.c **** 	0x69, 0x00,
 945:TP2824/TP2802.c **** 	0x6a, 0x00,
ARM GAS  C:\Users\ryanc.HS\AppData\Local\Temp\ccAQ3CYh.s 			page 18


 946:TP2824/TP2802.c **** 	0x6b, 0x00,
 947:TP2824/TP2802.c **** 	0x6c, 0x00,
 948:TP2824/TP2802.c **** 	/*
 949:TP2824/TP2802.c **** 	 //RX
 950:TP2824/TP2802.c **** 		0xcb, 0x07,		//RXLINE1
 951:TP2824/TP2802.c **** 		0xcc, 0x08,		//RXLINE2
 952:TP2824/TP2802.c **** 		0xcd, 0x00,//0x09,		//RXLINE3
 953:TP2824/TP2802.c **** 		0xce, 0x00,//0x0a,		//RXLINE4
 954:TP2824/TP2802.c **** 		0xcf, 0x04,		//RXFREQ
 955:TP2824/TP2802.c **** 		0xd0, 0x00,		//RXFREQ
 956:TP2824/TP2802.c **** 		0xd1, 0x00,		//RXFREQ
 957:TP2824/TP2802.c **** 		0xd2, 0x60,		//RXTHLEVEL
 958:TP2824/TP2802.c **** 		0xd3, 0x10,		//RXHINUM
 959:TP2824/TP2802.c **** 		0xd4, 0x06,		//RXHST / RXHEND
 960:TP2824/TP2802.c **** 		0xd5, 0xbe,		//RXHST
 961:TP2824/TP2802.c **** 		0xd6, 0x39,		//RXHEND
 962:TP2824/TP2802.c **** 		0xd7, 0x27,		//RXBITNUM
 963:TP2824/TP2802.c **** 
 964:TP2824/TP2802.c **** 		0xa7, 0x24,//RXPWM / RXACP
 965:TP2824/TP2802.c **** 	*/
 966:TP2824/TP2802.c **** 	0xff, 0xff};
 967:TP2824/TP2802.c **** #endif
 968:TP2824/TP2802.c **** 
 969:TP2824/TP2802.c **** // chunyu
 970:TP2824/TP2802.c **** void I2CDeviceSet1(tcByte *RegSet)
 971:TP2824/TP2802.c **** {
 972:TP2824/TP2802.c **** 	int cnt = 0;
 973:TP2824/TP2802.c **** 	tByte index, val;
 974:TP2824/TP2802.c **** 
 975:TP2824/TP2802.c **** // Output discription
 976:TP2824/TP2802.c **** #ifdef TASKING
 977:TP2824/TP2802.c **** 	while (*RegSet)
 978:TP2824/TP2802.c **** 		RS_tx(*RegSet++);
 979:TP2824/TP2802.c **** 	RegSet++;
 980:TP2824/TP2802.c **** #endif
 981:TP2824/TP2802.c **** 
 982:TP2824/TP2802.c **** 	while (*RegSet != 0xFF)
 983:TP2824/TP2802.c **** 	{
 984:TP2824/TP2802.c **** 
 985:TP2824/TP2802.c **** 		index = *RegSet;
 986:TP2824/TP2802.c **** 		val = *(RegSet + 1);
 987:TP2824/TP2802.c **** 		//		MonWriteI2C(addr, index, val);
 988:TP2824/TP2802.c **** 		tp28xx_byte_write(index, val);
 989:TP2824/TP2802.c **** 
 990:TP2824/TP2802.c **** 		//		Puts("\r\n");
 991:TP2824/TP2802.c **** 
 992:TP2824/TP2802.c **** 		RegSet += 2;
 993:TP2824/TP2802.c **** 
 994:TP2824/TP2802.c **** 		cnt--;
 995:TP2824/TP2802.c **** 	}
 996:TP2824/TP2802.c **** 	delay(50); // 50*5 =250ms
 997:TP2824/TP2802.c **** }
 998:TP2824/TP2802.c **** 
 999:TP2824/TP2802.c **** void I2CDeviceSet2(tcByte *RegSet, tcByte *DatSet)
1000:TP2824/TP2802.c **** {
1001:TP2824/TP2802.c **** 	int cnt = 0;
1002:TP2824/TP2802.c **** 	tByte index, val;
ARM GAS  C:\Users\ryanc.HS\AppData\Local\Temp\ccAQ3CYh.s 			page 19


1003:TP2824/TP2802.c **** 
1004:TP2824/TP2802.c **** 	while (*RegSet != 0xFF)
1005:TP2824/TP2802.c **** 	{
1006:TP2824/TP2802.c **** 
1007:TP2824/TP2802.c **** 		index = *RegSet;
1008:TP2824/TP2802.c **** 		val = *DatSet;
1009:TP2824/TP2802.c **** 		//		MonWriteI2C(addr, index, val);
1010:TP2824/TP2802.c **** 		tp28xx_byte_write(index, val);
1011:TP2824/TP2802.c **** 
1012:TP2824/TP2802.c **** 		//		Puts("\r\n");
1013:TP2824/TP2802.c **** 
1014:TP2824/TP2802.c **** 		RegSet++;
1015:TP2824/TP2802.c **** 		DatSet++;
1016:TP2824/TP2802.c **** 
1017:TP2824/TP2802.c **** 		cnt--;
1018:TP2824/TP2802.c **** 	}
1019:TP2824/TP2802.c **** 	delay(50); // 50*5 =250ms
1020:TP2824/TP2802.c **** }
1021:TP2824/TP2802.c **** 
1022:TP2824/TP2802.c **** void SetRegPage(tByte channel)
1023:TP2824/TP2802.c **** {
1024:TP2824/TP2802.c **** 	// tByte tmp;
1025:TP2824/TP2802.c **** 	// tmp = tp28xx_byte_read(tByte index);
1026:TP2824/TP2802.c **** 	tp28xx_byte_write(0x40, channel);
1027:TP2824/TP2802.c **** 	// tp28xx_byte_write(0x40,0x04); //chunyu
1028:TP2824/TP2802.c **** 	// printf("\r\nChannel-%02x ",(tWord)channel);
1029:TP2824/TP2802.c **** }
1030:TP2824/TP2802.c **** 
1031:TP2824/TP2802.c **** /*
1032:TP2824/TP2802.c **** void Write_AllRegPage(tByte addr, tByte bitpos, tByte bitval){
1033:TP2824/TP2802.c **** 	tByte ch;
1034:TP2824/TP2802.c **** 	tByte val;
1035:TP2824/TP2802.c **** 	tByte mask=0x00;
1036:TP2824/TP2802.c **** 	tByte maskb;
1037:TP2824/TP2802.c **** 	tByte Reg40;
1038:TP2824/TP2802.c **** 
1039:TP2824/TP2802.c **** 	Reg40 = tp28xx_byte_read(TVII2CAddress,0x40);
1040:TP2824/TP2802.c **** 
1041:TP2824/TP2802.c **** 	mask = 0x01 << bitpos;
1042:TP2824/TP2802.c **** 	maskb = ~mask;
1043:TP2824/TP2802.c **** 
1044:TP2824/TP2802.c **** 	for(ch=CH1;ch<=CH4;ch++){
1045:TP2824/TP2802.c **** 		tp28xx_byte_write(TVII2CAddress,0x40,ch);
1046:TP2824/TP2802.c **** 		val = tp28xx_byte_read(TVII2CAddress,addr);
1047:TP2824/TP2802.c **** 		if(bitval)
1048:TP2824/TP2802.c **** 			tp28xx_byte_write(TVII2CAddress,addr,(val|mask));
1049:TP2824/TP2802.c **** 		else
1050:TP2824/TP2802.c **** 			tp28xx_byte_write(TVII2CAddress,addr,(val&maskb));
1051:TP2824/TP2802.c **** 	}
1052:TP2824/TP2802.c **** 
1053:TP2824/TP2802.c **** 	tp28xx_byte_write(TVII2CAddress,0x40,Reg40);
1054:TP2824/TP2802.c **** }
1055:TP2824/TP2802.c **** */
1056:TP2824/TP2802.c **** 
1057:TP2824/TP2802.c **** /*
1058:TP2824/TP2802.c **** void Set_16Bits_VDCLK_Out(){
1059:TP2824/TP2802.c **** 
ARM GAS  C:\Users\ryanc.HS\AppData\Local\Temp\ccAQ3CYh.s 			page 20


1060:TP2824/TP2802.c **** 	Write_AllRegPage(0x02,7,0);
1061:TP2824/TP2802.c **** 	tp28xx_byte_write(TVII2CAddress,0x4b,0x40);
1062:TP2824/TP2802.c **** }
1063:TP2824/TP2802.c **** 
1064:TP2824/TP2802.c **** void Set_16Bits_VD_Out(tByte channel){
1065:TP2824/TP2802.c **** 	tByte Reg02,Reg4b;
1066:TP2824/TP2802.c **** 	tByte VD2SEL;
1067:TP2824/TP2802.c **** 	tByte VD1SEL;
1068:TP2824/TP2802.c **** 	tByte dat;
1069:TP2824/TP2802.c **** 
1070:TP2824/TP2802.c **** 	Reg02 = tp28xx_byte_read(TVII2CAddress,0x02);
1071:TP2824/TP2802.c **** 	Reg4b = tp28xx_byte_read(TVII2CAddress,0x4b);
1072:TP2824/TP2802.c **** 
1073:TP2824/TP2802.c **** 
1074:TP2824/TP2802.c **** 	tp28xx_byte_write(TVII2CAddress,0x02,(Reg02&0x7f));
1075:TP2824/TP2802.c **** 
1076:TP2824/TP2802.c **** 	switch (channel){
1077:TP2824/TP2802.c **** 		case CH1:
1078:TP2824/TP2802.c **** 			VD2SEL = VIN1_C;
1079:TP2824/TP2802.c **** 			VD1SEL = VIN1_Y;
1080:TP2824/TP2802.c **** 			break;
1081:TP2824/TP2802.c **** 		case CH2:
1082:TP2824/TP2802.c **** 			VD2SEL = VIN2_C;
1083:TP2824/TP2802.c **** 			VD1SEL = VIN2_Y;
1084:TP2824/TP2802.c **** 			break;
1085:TP2824/TP2802.c **** 		case CH3:
1086:TP2824/TP2802.c **** 			VD2SEL = VIN3_C;
1087:TP2824/TP2802.c **** 			VD1SEL = VIN3_Y;
1088:TP2824/TP2802.c **** 			break;
1089:TP2824/TP2802.c **** 		case CH4:
1090:TP2824/TP2802.c **** 			VD2SEL = VIN4_C;
1091:TP2824/TP2802.c **** 			VD1SEL = VIN4_Y;
1092:TP2824/TP2802.c **** 			break;
1093:TP2824/TP2802.c **** 		}
1094:TP2824/TP2802.c **** 	dat = (VD2SEL<<4)|VD1SEL;
1095:TP2824/TP2802.c **** 	tp28xx_byte_write(TVII2CAddress,0x4b,dat);
1096:TP2824/TP2802.c **** 
1097:TP2824/TP2802.c **** }
1098:TP2824/TP2802.c **** */
1099:TP2824/TP2802.c **** 
1100:TP2824/TP2802.c **** tcByte TP2802_FORMAT_DataSet[][12] =
1101:TP2824/TP2802.c **** 	{
1102:TP2824/TP2802.c **** 		{0x02, 0x15, 0x16, 0x17, 0x18, 0x19, 0x1a, 0x1c, 0x1d, 0x35, 0x36, 0xff},			   // reg
1103:TP2824/TP2802.c **** 		{0x48, 0x03, 0xd3, 0x80, 0x29, 0x38, 0x47, 0x08, 0x98, 0x05, 0xdc, 0xff},			   // 1080p30
1104:TP2824/TP2802.c **** 		{0x48, 0x03, 0xd3, 0x80, 0x29, 0x38, 0x47, 0x0a, 0x50, 0x05, 0xdc, 0xff},			   // 1080p25
1105:TP2824/TP2802.c **** 		{0x4a, 0x13, 0x16, 0x00, 0x19, 0xd0, 0x25, 0x06, 0x72, 0x05, 0xdc, 0xff},			   // 720p60 720p30V2
1106:TP2824/TP2802.c **** 		{0x4a, 0x13, 0x16, 0x00, 0x19, 0xd0, 0x25, 0x07, 0xbc, 0x05, 0xdc, 0xff},			   // 720p50 720p25V2
1107:TP2824/TP2802.c **** 		{0x4a, 0x13, 0x16, 0x00, 0x19, 0xd0, 0x25, 0x0c, 0xe4, 0x05, 0xdc, 0xff},			   // 720p30    //5
1108:TP2824/TP2802.c **** 		{0x4a, 0x13, 0x16, 0x00, 0x19, 0xd0, 0x25, 0x0f, 0x78, 0x05, 0xdc, 0xff},			   // 720p25
1109:TP2824/TP2802.c **** 		{0x4f, 0x13, 0x63 /*0x4e*/, 0xbc, 0x15, 0xf0, 0x07, 0x09, 0x38, 0x25, 0xdc, 0xff},	   // NTSC
1110:TP2824/TP2802.c **** 		{0x4f, 0x13, 0x73 + 5 /*0x5f*/, 0xbc, 0x17, 0x20, 0x17, 0x09, 0x48, 0x25, 0xdc, 0xff}, // PAL
1111:TP2824/TP2802.c **** 		{0x48, 0x13, 0x6c, 0x00, 0x2c, 0x00, 0x68, 0x09, 0xc4, 0x16, 0x30, 0xff},			   // 3M18
1112:TP2824/TP2802.c **** 		{0x48, 0x13, 0x1f, 0x20, 0x34, 0x98, 0x7a, 0x0b, 0x9a, 0x17, 0xd0, 0xff},			   // 5M12      //10
1113:TP2824/TP2802.c **** 		{0x4a, 0x13, 0x16, 0x00, 0x19, 0xd0, 0x25, 0x06, 0x72, 0x25, 0xdc, 0xff},			   // 720p30V2
1114:TP2824/TP2802.c **** 		{0x4a, 0x13, 0x16, 0x00, 0x19, 0xd0, 0x25, 0x07, 0xbc, 0x25, 0xdc, 0xff},			   // 720p25V2
1115:TP2824/TP2802.c **** 		{0x48, 0x13, 0x1f, 0x80, 0x7d, 0xf0, 0x5a, 0x0b, 0xb8, 0x16, 0x72, 0xff},			   // 4M15
1116:TP2824/TP2802.c **** 		{0x48, 0x13, 0x6c, 0x00, 0x2c, 0x00, 0x68, 0x09, 0xc4, 0x16, 0x72, 0xff},			   // 3M20
ARM GAS  C:\Users\ryanc.HS\AppData\Local\Temp\ccAQ3CYh.s 			page 21


1117:TP2824/TP2802.c **** 		{0x48, 0x23, 0x34, 0x78, 0x8c, 0xf0, 0x5a, 0x0c, 0xe4, 0x17, 0x08, 0xff},			   // 4M12
1118:TP2824/TP2802.c **** 		{0x48, 0x13, 0xec, 0x80, 0xb0, 0x08, 0x7c, 0x0e, 0xa6, 0x17, 0xbc, 0xff},			   // 6M10
1119:TP2824/TP2802.c **** 		{0x48, 0x13, 0x0f, 0x00, 0x32, 0xa0, 0x55, 0x06, 0x72, 0x15, 0xdc, 0xff},			   // 4M30
1120:TP2824/TP2802.c **** 		{0x48, 0x13, 0x20, 0x00, 0x20, 0xa0, 0x55, 0x07, 0xbc, 0x15, 0xdc, 0xff}			   // 4M25
1121:TP2824/TP2802.c **** 
1122:TP2824/TP2802.c **** 		//{0xc8,0x13,0x6c,0x20,0x2c,0xf0,0x5a,0x0b,0xb8,0x16,0x72,0xff}, //2592x1520p15
1123:TP2824/TP2802.c **** };
1124:TP2824/TP2802.c **** 
1125:TP2824/TP2802.c **** static void tp28xx_SYSCLK_V2(unsigned char ch)
1126:TP2824/TP2802.c **** {
1127:TP2824/TP2802.c **** 	unsigned char tmp;
1128:TP2824/TP2802.c **** 	tmp = tp28xx_byte_read(0xf5);
1129:TP2824/TP2802.c **** 	tmp |= SYS_MODE[ch];
1130:TP2824/TP2802.c **** 	tp28xx_byte_write(0xf5, tmp);
1131:TP2824/TP2802.c **** 	tmp = tp28xx_byte_read(0x35);
1132:TP2824/TP2802.c **** 	tmp |= 0x20;
1133:TP2824/TP2802.c **** 	tp28xx_byte_write(0x35, tmp);
1134:TP2824/TP2802.c **** }
1135:TP2824/TP2802.c **** static void tp28xx_SYSCLK_V1(unsigned char ch)
1136:TP2824/TP2802.c **** {
1137:TP2824/TP2802.c **** 	unsigned char tmp;
1138:TP2824/TP2802.c **** 	tmp = tp28xx_byte_read(0xf5);
1139:TP2824/TP2802.c **** 	tmp &= SYS_AND[ch];
1140:TP2824/TP2802.c **** 	tp28xx_byte_write(0xf5, tmp);
1141:TP2824/TP2802.c **** 	tmp = tp28xx_byte_read(0x35);
1142:TP2824/TP2802.c **** 	tmp &= 0xdf;
1143:TP2824/TP2802.c **** 	tp28xx_byte_write(0x35, tmp);
1144:TP2824/TP2802.c **** }
1145:TP2824/TP2802.c **** 
1146:TP2824/TP2802.c **** void Set_VidRes(tByte ch)
1147:TP2824/TP2802.c **** {
1148:TP2824/TP2802.c **** 	tByte index, sys, tmp;
1149:TP2824/TP2802.c **** 	sys = 1; // V1
1150:TP2824/TP2802.c **** 	// printf("Set_VidRes");
1151:TP2824/TP2802.c **** 	switch (mode[ch])
1152:TP2824/TP2802.c **** 	{
1153:TP2824/TP2802.c **** 	case R1080P30:
1154:TP2824/TP2802.c **** 		index = 1; // 1080p30
1155:TP2824/TP2802.c **** 		sys = 1;   // V1
1156:TP2824/TP2802.c **** 		ManVidResRx = RES1920X1080;
1157:TP2824/TP2802.c **** 		printf("1080p30");
1158:TP2824/TP2802.c **** 		break;
1159:TP2824/TP2802.c **** 
1160:TP2824/TP2802.c **** 	case R1080P25:
1161:TP2824/TP2802.c **** 		index = 2; // 1080p25
1162:TP2824/TP2802.c **** 		sys = 1;   // V1
1163:TP2824/TP2802.c **** 		ManVidResRx = RES1920X1080;
1164:TP2824/TP2802.c **** 		printf("1080p25");
1165:TP2824/TP2802.c **** 		break;
1166:TP2824/TP2802.c **** 
1167:TP2824/TP2802.c **** 	case R720P60:
1168:TP2824/TP2802.c **** 		index = 3; // 720p60 720p30V2
1169:TP2824/TP2802.c **** 		sys = 1;   // V1
1170:TP2824/TP2802.c **** 		ManVidResRx = RES1280X720;
1171:TP2824/TP2802.c **** 		printf("720p60");
1172:TP2824/TP2802.c **** 		break;
1173:TP2824/TP2802.c **** 
ARM GAS  C:\Users\ryanc.HS\AppData\Local\Temp\ccAQ3CYh.s 			page 22


1174:TP2824/TP2802.c **** 	case R720P30V2:
1175:TP2824/TP2802.c **** 		index = 11; // 720p30V2
1176:TP2824/TP2802.c **** 		sys = 2;	// V2
1177:TP2824/TP2802.c **** 		ManVidResRx = RES1280X720;
1178:TP2824/TP2802.c **** 		printf("720p30V2");
1179:TP2824/TP2802.c **** 		break;
1180:TP2824/TP2802.c **** 
1181:TP2824/TP2802.c **** 	case R720P50:
1182:TP2824/TP2802.c **** 		index = 4; // 720p50 720p25V2
1183:TP2824/TP2802.c **** 		sys = 1;   // V1
1184:TP2824/TP2802.c **** 		ManVidResRx = RES1280X720;
1185:TP2824/TP2802.c **** 		printf("720p50");
1186:TP2824/TP2802.c **** 		break;
1187:TP2824/TP2802.c **** 
1188:TP2824/TP2802.c **** 	case R720P25V2:
1189:TP2824/TP2802.c **** 		index = 12; // 720p25V2
1190:TP2824/TP2802.c **** 		sys = 2;	// V2
1191:TP2824/TP2802.c **** 		ManVidResRx = RES1280X720;
1192:TP2824/TP2802.c **** 		printf("720p25V2");
1193:TP2824/TP2802.c **** 		break;
1194:TP2824/TP2802.c **** 
1195:TP2824/TP2802.c **** 	case R720P30:
1196:TP2824/TP2802.c **** 		index = 5; // 720p30
1197:TP2824/TP2802.c **** 		sys = 1;   // V1
1198:TP2824/TP2802.c **** 		ManVidResRx = RES1280X720;
1199:TP2824/TP2802.c **** 		printf("720p30");
1200:TP2824/TP2802.c **** 		break;
1201:TP2824/TP2802.c **** 
1202:TP2824/TP2802.c **** 	case R720P25:
1203:TP2824/TP2802.c **** 		index = 6; // 720p25
1204:TP2824/TP2802.c **** 		sys = 1;   // V1
1205:TP2824/TP2802.c **** 		ManVidResRx = RES1280X720;
1206:TP2824/TP2802.c **** 		printf("720p25");
1207:TP2824/TP2802.c **** 		break;
1208:TP2824/TP2802.c **** 
1209:TP2824/TP2802.c **** 	case PAL:
1210:TP2824/TP2802.c **** 		index = 8;
1211:TP2824/TP2802.c **** 		sys = 4;
1212:TP2824/TP2802.c **** 		ManVidResRx = RES1920X576;
1213:TP2824/TP2802.c **** 		printf("PAL");
1214:TP2824/TP2802.c **** 		break;
1215:TP2824/TP2802.c **** 
1216:TP2824/TP2802.c **** 	case NTSC:
1217:TP2824/TP2802.c **** 		index = 7;
1218:TP2824/TP2802.c **** 		sys = 3;
1219:TP2824/TP2802.c **** 		ManVidResRx = RES1920X480;
1220:TP2824/TP2802.c **** 		printf("NTSC");
1221:TP2824/TP2802.c **** 		break;
1222:TP2824/TP2802.c **** 
1223:TP2824/TP2802.c **** 	case R3M18:
1224:TP2824/TP2802.c **** 		index = 9; // 3M18
1225:TP2824/TP2802.c **** 		sys = 1;   // V1
1226:TP2824/TP2802.c **** 		ManVidResRx = RES1920X1080;
1227:TP2824/TP2802.c **** 		printf("3M18");
1228:TP2824/TP2802.c **** 		break;
1229:TP2824/TP2802.c **** 
1230:TP2824/TP2802.c **** 	case R5M12:
ARM GAS  C:\Users\ryanc.HS\AppData\Local\Temp\ccAQ3CYh.s 			page 23


1231:TP2824/TP2802.c **** 		index = 10; // 5M12
1232:TP2824/TP2802.c **** 		sys = 1;	// V1
1233:TP2824/TP2802.c **** 		ManVidResRx = RES1920X1080;
1234:TP2824/TP2802.c **** 		printf("5M12");
1235:TP2824/TP2802.c **** 		break;
1236:TP2824/TP2802.c **** 
1237:TP2824/TP2802.c **** 	case R4M15:
1238:TP2824/TP2802.c **** 		index = 13; // 4M15
1239:TP2824/TP2802.c **** 		sys = 1;	// V1
1240:TP2824/TP2802.c **** 		ManVidResRx = RES1920X1080;
1241:TP2824/TP2802.c **** 		printf("4M15");
1242:TP2824/TP2802.c **** 		break;
1243:TP2824/TP2802.c **** 
1244:TP2824/TP2802.c **** 	case R3M20:
1245:TP2824/TP2802.c **** 		index = 14; // 3M20
1246:TP2824/TP2802.c **** 		sys = 1;	// V1
1247:TP2824/TP2802.c **** 		ManVidResRx = RES1920X1080;
1248:TP2824/TP2802.c **** 		printf("3M20");
1249:TP2824/TP2802.c **** 		break;
1250:TP2824/TP2802.c **** 
1251:TP2824/TP2802.c **** 	case R4M12:
1252:TP2824/TP2802.c **** 		index = 15; // 4M12
1253:TP2824/TP2802.c **** 		sys = 1;	// V1
1254:TP2824/TP2802.c **** 		ManVidResRx = RES1920X1080;
1255:TP2824/TP2802.c **** 		printf("4M12");
1256:TP2824/TP2802.c **** 		break;
1257:TP2824/TP2802.c **** 
1258:TP2824/TP2802.c **** 	case R6M10:
1259:TP2824/TP2802.c **** 		index = 16; // 6M10
1260:TP2824/TP2802.c **** 		sys = 1;	// V1
1261:TP2824/TP2802.c **** 		ManVidResRx = RES1920X1080;
1262:TP2824/TP2802.c **** 		printf("6M10");
1263:TP2824/TP2802.c **** 		break;
1264:TP2824/TP2802.c **** 
1265:TP2824/TP2802.c **** 	case R4M30:
1266:TP2824/TP2802.c **** 		index = 17; // 4M30
1267:TP2824/TP2802.c **** 		sys = 1;	// V1
1268:TP2824/TP2802.c **** 		ManVidResRx = RES1280X720;
1269:TP2824/TP2802.c **** 		printf("4M30");
1270:TP2824/TP2802.c **** 		break;
1271:TP2824/TP2802.c **** 
1272:TP2824/TP2802.c **** 	default:
1273:TP2824/TP2802.c **** 		index = 1; // 1080p30
1274:TP2824/TP2802.c **** 		break;
1275:TP2824/TP2802.c **** 	}
1276:TP2824/TP2802.c **** 	printf("...\r\n");
1277:TP2824/TP2802.c **** 
1278:TP2824/TP2802.c **** 	// I2CDeviceSet(TVII2CAddress, ptr_TP2802_Res );
1279:TP2824/TP2802.c **** 	I2CDeviceSet2(TP2802_FORMAT_DataSet[0], TP2802_FORMAT_DataSet[index]);
1280:TP2824/TP2802.c **** 	//	printf("chip= 0x%4x\r\n",chip);
1281:TP2824/TP2802.c **** 	if (TP2853C == chip)
1282:TP2824/TP2802.c **** 	{
1283:TP2824/TP2802.c **** 		I2CDeviceSet2(TP2853C_MODE_DataSet[0], TP2853C_MODE_DataSet[sys]);
1284:TP2824/TP2802.c **** 	}
1285:TP2824/TP2802.c **** 	else if (TP2833 == chip)
1286:TP2824/TP2802.c **** 	{
1287:TP2824/TP2802.c **** 		I2CDeviceSet2(TP2833_MODE_DataSet[0], TP2833_MODE_DataSet[sys]);
ARM GAS  C:\Users\ryanc.HS\AppData\Local\Temp\ccAQ3CYh.s 			page 24


1288:TP2824/TP2802.c **** 	}
1289:TP2824/TP2802.c **** 	else if (TP2834 == chip)
1290:TP2824/TP2802.c **** 	{
1291:TP2824/TP2802.c **** 		I2CDeviceSet2(TP2834_MODE_DataSet[0], TP2834_MODE_DataSet[sys]);
1292:TP2824/TP2802.c **** 	}
1293:TP2824/TP2802.c **** 	if (TP2826 == chip)
1294:TP2824/TP2802.c **** 	{
1295:TP2824/TP2802.c **** 		printf("tp2826MODEDATASET\r\n");
1296:TP2824/TP2802.c **** 		I2CDeviceSet2(TP2826_MODE_DataSet[0], TP2826_MODE_DataSet[sys]);
1297:TP2824/TP2802.c **** 	}
1298:TP2824/TP2802.c **** 	if (TP2824C == chip)
1299:TP2824/TP2802.c **** 	{
1300:TP2824/TP2802.c **** 		printf("tp2824C MODEDATASET\r\n");
1301:TP2824/TP2802.c **** 		I2CDeviceSet2(TP2824C_MODE_DataSet[0], TP2824C_MODE_DataSet[sys]);
1302:TP2824/TP2802.c **** 	}
1303:TP2824/TP2802.c **** 
1304:TP2824/TP2802.c **** 	if (1 == sys)
1305:TP2824/TP2802.c **** 		tp28xx_SYSCLK_V1(ch);
1306:TP2824/TP2802.c **** 	else
1307:TP2824/TP2802.c **** 		tp28xx_SYSCLK_V2(ch);
1308:TP2824/TP2802.c **** 
1309:TP2824/TP2802.c **** 	tp28xx_byte_write(0x13, 0x00);
1310:TP2824/TP2802.c **** 	tmp = tp28xx_byte_read(0x14);
1311:TP2824/TP2802.c **** 	tmp &= 0x9f;
1312:TP2824/TP2802.c **** 	tp28xx_byte_write(0x14, tmp);
1313:TP2824/TP2802.c **** 
1314:TP2824/TP2802.c **** #if (OUTPUT == Bits16out)
1315:TP2824/TP2802.c **** 	tmp = tp28xx_byte_read(0x02);
1316:TP2824/TP2802.c **** 	tmp &= 0x7f;
1317:TP2824/TP2802.c **** 	tp28xx_byte_write(0x02, tmp);
1318:TP2824/TP2802.c **** #else
1319:TP2824/TP2802.c **** 	tmp = tp28xx_byte_read(0x02);
1320:TP2824/TP2802.c **** 	tmp |= 0x80;
1321:TP2824/TP2802.c **** 	tp28xx_byte_write(0x02, tmp);
1322:TP2824/TP2802.c **** #endif
1323:TP2824/TP2802.c **** }
1324:TP2824/TP2802.c **** 
1325:TP2824/TP2802.c **** tByte Set_HDA(tByte ch)
1326:TP2824/TP2802.c **** {
1327:TP2824/TP2802.c **** 
1328:TP2824/TP2802.c **** 	tByte index, tmp;
1329:TP2824/TP2802.c **** 	index = 0;
1330:TP2824/TP2802.c **** 
1331:TP2824/TP2802.c **** 	switch (mode[ch])
1332:TP2824/TP2802.c **** 	{
1333:TP2824/TP2802.c **** 	case R1080P30:
1334:TP2824/TP2802.c **** 		index = 3;
1335:TP2824/TP2802.c **** 		break;
1336:TP2824/TP2802.c **** 
1337:TP2824/TP2802.c **** 	case R1080P25:
1338:TP2824/TP2802.c **** 		index = 4;
1339:TP2824/TP2802.c **** 		break;
1340:TP2824/TP2802.c **** 
1341:TP2824/TP2802.c **** 	case R720P60: // 20200507
1342:TP2824/TP2802.c **** 		index = 5;
1343:TP2824/TP2802.c **** 		break;
1344:TP2824/TP2802.c **** 	case R720P30V2:
ARM GAS  C:\Users\ryanc.HS\AppData\Local\Temp\ccAQ3CYh.s 			page 25


1345:TP2824/TP2802.c **** 		index = 1;
1346:TP2824/TP2802.c **** 		break;
1347:TP2824/TP2802.c **** 
1348:TP2824/TP2802.c **** 	case R720P50: // 20200507
1349:TP2824/TP2802.c **** 	case R720P25V2:
1350:TP2824/TP2802.c **** 		index = 2;
1351:TP2824/TP2802.c **** 		break;
1352:TP2824/TP2802.c **** 	}
1353:TP2824/TP2802.c **** 	if (index)
1354:TP2824/TP2802.c **** 	{
1355:TP2824/TP2802.c **** 		Set_VidRes(ch);
1356:TP2824/TP2802.c **** 
1357:TP2824/TP2802.c **** 		if (TP2853C == chip)
1358:TP2824/TP2802.c **** 		{
1359:TP2824/TP2802.c **** 			I2CDeviceSet2(TP2853C_HDA_DataSet[0], TP2853C_HDA_DataSet[index]);
1360:TP2824/TP2802.c **** 		}
1361:TP2824/TP2802.c **** 		else if (TP2833 == chip || TP2834 == chip)
1362:TP2824/TP2802.c **** 		{
1363:TP2824/TP2802.c **** 			I2CDeviceSet2(TP2833_HDA_DataSet[0], TP2833_HDA_DataSet[index]);
1364:TP2824/TP2802.c **** 		}
1365:TP2824/TP2802.c **** 		else if (TP2826 == chip)
1366:TP2824/TP2802.c **** 		{
1367:TP2824/TP2802.c **** 			I2CDeviceSet2(TP2826_HDA_DataSet[0], TP2826_HDA_DataSet[index]);
1368:TP2824/TP2802.c **** 		}
1369:TP2824/TP2802.c **** 		else if (TP2824C == chip)
1370:TP2824/TP2802.c **** 		{
1371:TP2824/TP2802.c **** 			I2CDeviceSet2(TP2824C_HDA_DataSet[0], TP2824C_HDA_DataSet[index]);
1372:TP2824/TP2802.c **** 		}
1373:TP2824/TP2802.c **** 		tmp = tp28xx_byte_read(0x14);
1374:TP2824/TP2802.c **** 		tmp |= 0x40;
1375:TP2824/TP2802.c **** 		tp28xx_byte_write(0x14, tmp);
1376:TP2824/TP2802.c **** 	}
1377:TP2824/TP2802.c **** 	return index;
1378:TP2824/TP2802.c **** }
1379:TP2824/TP2802.c **** 
1380:TP2824/TP2802.c **** tByte Set_HDC(tByte ch)
1381:TP2824/TP2802.c **** {
1382:TP2824/TP2802.c **** 
1383:TP2824/TP2802.c **** 	tByte index;
1384:TP2824/TP2802.c **** 
1385:TP2824/TP2802.c **** 	index = 0;
1386:TP2824/TP2802.c **** 
1387:TP2824/TP2802.c **** 	switch (mode[ch])
1388:TP2824/TP2802.c **** 	{
1389:TP2824/TP2802.c **** 
1390:TP2824/TP2802.c **** 	case R1080P30:
1391:TP2824/TP2802.c **** 		index = 3;
1392:TP2824/TP2802.c **** 		break;
1393:TP2824/TP2802.c **** 
1394:TP2824/TP2802.c **** 	case R1080P25:
1395:TP2824/TP2802.c **** 		index = 4;
1396:TP2824/TP2802.c **** 		break;
1397:TP2824/TP2802.c **** 
1398:TP2824/TP2802.c **** 	case R720P60: // 20200507
1399:TP2824/TP2802.c **** 	case R720P30V2:
1400:TP2824/TP2802.c **** 		index = 1;
1401:TP2824/TP2802.c **** 		break;
ARM GAS  C:\Users\ryanc.HS\AppData\Local\Temp\ccAQ3CYh.s 			page 26


1402:TP2824/TP2802.c **** 
1403:TP2824/TP2802.c **** 	case R720P50: // 20200507
1404:TP2824/TP2802.c **** 	case R720P25V2:
1405:TP2824/TP2802.c **** 		index = 2;
1406:TP2824/TP2802.c **** 		break;
1407:TP2824/TP2802.c **** 	}
1408:TP2824/TP2802.c **** 	if (index)
1409:TP2824/TP2802.c **** 	{
1410:TP2824/TP2802.c **** 		Set_VidRes(ch);
1411:TP2824/TP2802.c **** 
1412:TP2824/TP2802.c **** 		if (TP2853C == chip)
1413:TP2824/TP2802.c **** 		{
1414:TP2824/TP2802.c **** 			I2CDeviceSet2(TP2853C_HDC_DataSet[0], TP2853C_HDC_DataSet[index]);
1415:TP2824/TP2802.c **** 		}
1416:TP2824/TP2802.c **** 		else if (TP2833 == chip || TP2834 == chip)
1417:TP2824/TP2802.c **** 		{
1418:TP2824/TP2802.c **** 			I2CDeviceSet2(TP2853C_HDC_DataSet[0], TP2853C_HDC_DataSet[index]);
1419:TP2824/TP2802.c **** 		}
1420:TP2824/TP2802.c **** 		else if (TP2826 == chip)
1421:TP2824/TP2802.c **** 		{
1422:TP2824/TP2802.c **** 			I2CDeviceSet2(TP2826_HDC_DataSet[0], TP2826_HDC_DataSet[index]);
1423:TP2824/TP2802.c **** 		}
1424:TP2824/TP2802.c **** 		else if (TP2824C == chip)
1425:TP2824/TP2802.c **** 		{
1426:TP2824/TP2802.c **** 			I2CDeviceSet2(TP2824C_HDC_DataSet[0], TP2824C_HDC_DataSet[index]);
1427:TP2824/TP2802.c **** 		}
1428:TP2824/TP2802.c **** 		tp28xx_byte_write(0x13, 0x40);
1429:TP2824/TP2802.c **** 	}
1430:TP2824/TP2802.c **** 	return index;
1431:TP2824/TP2802.c **** }
1432:TP2824/TP2802.c **** 
1433:TP2824/TP2802.c **** tByte Det_VidRes()
1434:TP2824/TP2802.c **** {
1435:TP2824/TP2802.c **** 	tByte CVSTD;
1436:TP2824/TP2802.c **** 	tByte RES;
1437:TP2824/TP2802.c **** 
1438:TP2824/TP2802.c **** 	CVSTD = tp28xx_byte_read(0x03) & 0x07;
1439:TP2824/TP2802.c **** 
1440:TP2824/TP2802.c **** 	switch (CVSTD)
1441:TP2824/TP2802.c **** 	{
1442:TP2824/TP2802.c **** 
1443:TP2824/TP2802.c **** 	case 0x00:
1444:TP2824/TP2802.c **** 		RES = R720P60;
1445:TP2824/TP2802.c **** 		break;
1446:TP2824/TP2802.c **** 	case 0x01:
1447:TP2824/TP2802.c **** 		RES = R720P50;
1448:TP2824/TP2802.c **** 		break;
1449:TP2824/TP2802.c **** 	case 0x02:
1450:TP2824/TP2802.c **** 		RES = R1080P30;
1451:TP2824/TP2802.c **** 		break;
1452:TP2824/TP2802.c **** 	case 0x03:
1453:TP2824/TP2802.c **** 		RES = R1080P25;
1454:TP2824/TP2802.c **** 		break;
1455:TP2824/TP2802.c **** 	case 0x04:
1456:TP2824/TP2802.c **** 		RES = R720P30;
1457:TP2824/TP2802.c **** 		break;
1458:TP2824/TP2802.c **** 	case 0x05:
ARM GAS  C:\Users\ryanc.HS\AppData\Local\Temp\ccAQ3CYh.s 			page 27


1459:TP2824/TP2802.c **** 		RES = R720P25;
1460:TP2824/TP2802.c **** 		break;
1461:TP2824/TP2802.c **** 	case 0x06:
1462:TP2824/TP2802.c **** 		printf("\r\nN/P detected");
1463:TP2824/TP2802.c **** 		RES = NTPAL;
1464:TP2824/TP2802.c **** 		break;
1465:TP2824/TP2802.c **** 	default:
1466:TP2824/TP2802.c **** 		printf("\r\nNo res detect...");
1467:TP2824/TP2802.c **** 		RES = NoDet;
1468:TP2824/TP2802.c **** 		break;
1469:TP2824/TP2802.c **** 	}
1470:TP2824/TP2802.c **** 
1471:TP2824/TP2802.c **** 	return RES;
1472:TP2824/TP2802.c **** }
1473:TP2824/TP2802.c **** tByte Det_VideoLoss(tByte ch)
1474:TP2824/TP2802.c **** {
1475:TP2824/TP2802.c **** 
1476:TP2824/TP2802.c **** 	tByte VDLOSS;
1477:TP2824/TP2802.c **** 
1478:TP2824/TP2802.c **** 	tp28xx_byte_write(0x40, ch & 0x03);
1479:TP2824/TP2802.c **** 	VDLOSS = tp28xx_byte_read(0x01);
1480:TP2824/TP2802.c **** 	//	printf("video status 0x%02x on ch%01x\r\n",(tWord)VDLOSS,(tWord)ch);
1481:TP2824/TP2802.c **** 
1482:TP2824/TP2802.c **** 	if (VDLOSS)
1483:TP2824/TP2802.c **** 		printf("No ");
1484:TP2824/TP2802.c **** 
1485:TP2824/TP2802.c **** 	printf("video detected");
1486:TP2824/TP2802.c **** 
1487:TP2824/TP2802.c **** 	VDLOSS = VDLOSS >> 7;
1488:TP2824/TP2802.c **** 	return VDLOSS;
1489:TP2824/TP2802.c **** }
1490:TP2824/TP2802.c **** 
1491:TP2824/TP2802.c **** void ManualAGC(unsigned char ch)
1492:TP2824/TP2802.c **** {
1493:TP2824/TP2802.c **** 	unsigned int agc;
1494:TP2824/TP2802.c **** 	unsigned char tmp;
1495:TP2824/TP2802.c **** 	// unsigned int i;
1496:TP2824/TP2802.c **** 
1497:TP2824/TP2802.c **** 	tp28xx_byte_write(0x2F, 0x02);
1498:TP2824/TP2802.c **** 	agc = tp28xx_byte_read(0x04);
1499:TP2824/TP2802.c **** 	agc += tp28xx_byte_read(0x04);
1500:TP2824/TP2802.c **** 	agc += tp28xx_byte_read(0x04);
1501:TP2824/TP2802.c **** 	agc += tp28xx_byte_read(0x04);
1502:TP2824/TP2802.c **** 	agc &= 0x3f0;
1503:TP2824/TP2802.c **** 	agc >>= 1;
1504:TP2824/TP2802.c **** 	if (agc > 0x1ff)
1505:TP2824/TP2802.c **** 		agc = 0x1ff;
1506:TP2824/TP2802.c **** 
1507:TP2824/TP2802.c **** 	printf("result AGC=0X%04x ch%02X\r\n", (tWord)agc, (tWord)ch);
1508:TP2824/TP2802.c **** 	tp28xx_byte_write(0x08, agc & 0xff);
1509:TP2824/TP2802.c **** 	tmp = tp28xx_byte_read(0x06);
1510:TP2824/TP2802.c **** 	tmp &= 0xf9;
1511:TP2824/TP2802.c **** 	tmp |= (agc >> 7) & 0x02;
1512:TP2824/TP2802.c **** 	tmp |= 0x04;
1513:TP2824/TP2802.c **** 	tmp &= 0x32; /// ryan@20211028 AHD 720P GDAGCgain
1514:TP2824/TP2802.c **** 	tp28xx_byte_write(0x06, tmp);
1515:TP2824/TP2802.c **** 
ARM GAS  C:\Users\ryanc.HS\AppData\Local\Temp\ccAQ3CYh.s 			page 28


1516:TP2824/TP2802.c **** 	// test Dump Reg
1517:TP2824/TP2802.c **** 	/*
1518:TP2824/TP2802.c **** 		printf("DumpReg@strat\r\n") ;
1519:TP2824/TP2802.c **** 		tp28xx_byte_write(0x40,01); //
1520:TP2824/TP2802.c **** 		for (i = 2 ; i< 255 ;i++)
1521:TP2824/TP2802.c **** 		{
1522:TP2824/TP2802.c **** 			tmp = tp28xx_byte_read((tByte)i);
1523:TP2824/TP2802.c **** 			printf("88,%02X,%02X\r\n", i , (int)tmp ) ;
1524:TP2824/TP2802.c **** 		}
1525:TP2824/TP2802.c **** 		printf("DumpReg@end\r\n") ;
1526:TP2824/TP2802.c **** 	*/
1527:TP2824/TP2802.c **** }
1528:TP2824/TP2802.c **** 
1529:TP2824/TP2802.c **** /*
1530:TP2824/TP2802.c **** static void tp2802D_reset_default(unsigned char ch)
1531:TP2824/TP2802.c **** {
1532:TP2824/TP2802.c **** 	unsigned char tmp;
1533:TP2824/TP2802.c **** 	tp28xx_byte_write(0x3A, 0x01);
1534:TP2824/TP2802.c **** 	tp28xx_byte_write(0x0B, 0xC0);
1535:TP2824/TP2802.c **** 	tp28xx_byte_write(0x07, 0xC0);
1536:TP2824/TP2802.c **** 	tp28xx_byte_write(0x2e, 0x70);
1537:TP2824/TP2802.c **** 	tp28xx_byte_write(0x39, 0x42);
1538:TP2824/TP2802.c **** 	tp28xx_byte_write(0x09, 0x24);
1539:TP2824/TP2802.c **** 	tmp = tp28xx_byte_read(0x06);   // soft reset and auto agc when cable is unplug
1540:TP2824/TP2802.c **** 	tmp &= 0x7b;
1541:TP2824/TP2802.c **** 	tp28xx_byte_write(0x06, tmp);
1542:TP2824/TP2802.c **** 
1543:TP2824/TP2802.c **** 	tmp = tp28xx_byte_read(0xf5);
1544:TP2824/TP2802.c **** 	if( tmp & SYS_MODE[ch])
1545:TP2824/TP2802.c **** 	{
1546:TP2824/TP2802.c **** 		tmp &= SYS_AND[ch];
1547:TP2824/TP2802.c **** 		tp28xx_byte_write(0xf5, tmp);
1548:TP2824/TP2802.c **** 	}
1549:TP2824/TP2802.c **** }
1550:TP2824/TP2802.c **** */
1551:TP2824/TP2802.c **** /*  //chunyu
1552:TP2824/TP2802.c **** static void tp282x_reset_AGC_CLK(unsigned char ch)
1553:TP2824/TP2802.c **** {
1554:TP2824/TP2802.c **** 	unsigned char tmp;
1555:TP2824/TP2802.c **** 
1556:TP2824/TP2802.c **** 	tmp = tp28xx_byte_read(0x06);
1557:TP2824/TP2802.c **** 	tmp &= 0xfb;
1558:TP2824/TP2802.c **** 	tp28xx_byte_write(0x06, tmp);
1559:TP2824/TP2802.c **** 
1560:TP2824/TP2802.c **** 	tmp = tp28xx_byte_read(0xf5);
1561:TP2824/TP2802.c **** 	tmp &= SYS_AND[ch];
1562:TP2824/TP2802.c **** 	tp28xx_byte_write(0xf5, tmp);
1563:TP2824/TP2802.c **** 
1564:TP2824/TP2802.c **** 	tp28xx_byte_write(0x35, 0x05);
1565:TP2824/TP2802.c **** 	tp28xx_byte_write(0x26, 0x01);
1566:TP2824/TP2802.c **** }
1567:TP2824/TP2802.c **** */
1568:TP2824/TP2802.c **** static void tp2824_reset_default(void)
1569:TP2824/TP2802.c **** {
  26              		.loc 1 1569 1 view -0
  27              		.cfi_startproc
  28              		@ args = 0, pretend = 0, frame = 0
ARM GAS  C:\Users\ryanc.HS\AppData\Local\Temp\ccAQ3CYh.s 			page 29


  29              		@ frame_needed = 0, uses_anonymous_args = 0
  30 0000 08B5     		push	{r3, lr}
  31              	.LCFI0:
  32              		.cfi_def_cfa_offset 8
  33              		.cfi_offset 3, -8
  34              		.cfi_offset 14, -4
1570:TP2824/TP2802.c **** 	// unsigned char tmp;
1571:TP2824/TP2802.c **** 	// tp28xx_byte_write(addr, 0x07, 0x40);
1572:TP2824/TP2802.c **** 	// tp28xx_byte_write(addr, 0x0b, 0x40);
1573:TP2824/TP2802.c **** 	// tp28xx_byte_write(addr, 0x3A, 0x88);
1574:TP2824/TP2802.c **** 	tp28xx_byte_write(0x26, 0x01);
  35              		.loc 1 1574 2 view .LVU1
  36 0002 0121     		movs	r1, #1
  37 0004 2620     		movs	r0, #38
  38 0006 FFF7FEFF 		bl	tp28xx_byte_write
  39              	.LVL0:
1575:TP2824/TP2802.c **** }
  40              		.loc 1 1575 1 is_stmt 0 view .LVU2
  41 000a 08BD     		pop	{r3, pc}
  42              		.cfi_endproc
  43              	.LFE14:
  45              		.section	.text.tp28xx_SYSCLK_V1,"ax",%progbits
  46              		.align	1
  47              		.syntax unified
  48              		.thumb
  49              		.thumb_func
  50              		.fpu softvfp
  52              	tp28xx_SYSCLK_V1:
  53              	.LVL1:
  54              	.LFB7:
1136:TP2824/TP2802.c **** 	unsigned char tmp;
  55              		.loc 1 1136 1 is_stmt 1 view -0
  56              		.cfi_startproc
  57              		@ args = 0, pretend = 0, frame = 0
  58              		@ frame_needed = 0, uses_anonymous_args = 0
1136:TP2824/TP2802.c **** 	unsigned char tmp;
  59              		.loc 1 1136 1 is_stmt 0 view .LVU4
  60 0000 10B5     		push	{r4, lr}
  61              	.LCFI1:
  62              		.cfi_def_cfa_offset 8
  63              		.cfi_offset 4, -8
  64              		.cfi_offset 14, -4
  65 0002 0446     		mov	r4, r0
1137:TP2824/TP2802.c **** 	tmp = tp28xx_byte_read(0xf5);
  66              		.loc 1 1137 2 is_stmt 1 view .LVU5
1138:TP2824/TP2802.c **** 	tmp &= SYS_AND[ch];
  67              		.loc 1 1138 2 view .LVU6
1138:TP2824/TP2802.c **** 	tmp &= SYS_AND[ch];
  68              		.loc 1 1138 8 is_stmt 0 view .LVU7
  69 0004 F520     		movs	r0, #245
  70              	.LVL2:
1138:TP2824/TP2802.c **** 	tmp &= SYS_AND[ch];
  71              		.loc 1 1138 8 view .LVU8
  72 0006 FFF7FEFF 		bl	tp28xx_byte_read
  73              	.LVL3:
1139:TP2824/TP2802.c **** 	tp28xx_byte_write(0xf5, tmp);
  74              		.loc 1 1139 2 is_stmt 1 view .LVU9
ARM GAS  C:\Users\ryanc.HS\AppData\Local\Temp\ccAQ3CYh.s 			page 30


1139:TP2824/TP2802.c **** 	tp28xx_byte_write(0xf5, tmp);
  75              		.loc 1 1139 16 is_stmt 0 view .LVU10
  76 000a 074B     		ldr	r3, .L5
  77 000c 195D     		ldrb	r1, [r3, r4]	@ zero_extendqisi2
  78              	.LVL4:
1140:TP2824/TP2802.c **** 	tmp = tp28xx_byte_read(0x35);
  79              		.loc 1 1140 2 is_stmt 1 view .LVU11
  80 000e 0140     		ands	r1, r1, r0
  81              	.LVL5:
1140:TP2824/TP2802.c **** 	tmp = tp28xx_byte_read(0x35);
  82              		.loc 1 1140 2 is_stmt 0 view .LVU12
  83 0010 F520     		movs	r0, #245
  84 0012 FFF7FEFF 		bl	tp28xx_byte_write
  85              	.LVL6:
1141:TP2824/TP2802.c **** 	tmp &= 0xdf;
  86              		.loc 1 1141 2 is_stmt 1 view .LVU13
1141:TP2824/TP2802.c **** 	tmp &= 0xdf;
  87              		.loc 1 1141 8 is_stmt 0 view .LVU14
  88 0016 3520     		movs	r0, #53
  89 0018 FFF7FEFF 		bl	tp28xx_byte_read
  90              	.LVL7:
1142:TP2824/TP2802.c **** 	tp28xx_byte_write(0x35, tmp);
  91              		.loc 1 1142 2 is_stmt 1 view .LVU15
1143:TP2824/TP2802.c **** }
  92              		.loc 1 1143 2 view .LVU16
  93 001c 00F0DF01 		and	r1, r0, #223
  94 0020 3520     		movs	r0, #53
  95              	.LVL8:
1143:TP2824/TP2802.c **** }
  96              		.loc 1 1143 2 is_stmt 0 view .LVU17
  97 0022 FFF7FEFF 		bl	tp28xx_byte_write
  98              	.LVL9:
1144:TP2824/TP2802.c **** 
  99              		.loc 1 1144 1 view .LVU18
 100 0026 10BD     		pop	{r4, pc}
 101              	.L6:
 102              		.align	2
 103              	.L5:
 104 0028 00000000 		.word	.LANCHOR0
 105              		.cfi_endproc
 106              	.LFE7:
 108              		.section	.text.tp28xx_SYSCLK_V2,"ax",%progbits
 109              		.align	1
 110              		.syntax unified
 111              		.thumb
 112              		.thumb_func
 113              		.fpu softvfp
 115              	tp28xx_SYSCLK_V2:
 116              	.LVL10:
 117              	.LFB6:
1126:TP2824/TP2802.c **** 	unsigned char tmp;
 118              		.loc 1 1126 1 is_stmt 1 view -0
 119              		.cfi_startproc
 120              		@ args = 0, pretend = 0, frame = 0
 121              		@ frame_needed = 0, uses_anonymous_args = 0
1126:TP2824/TP2802.c **** 	unsigned char tmp;
 122              		.loc 1 1126 1 is_stmt 0 view .LVU20
ARM GAS  C:\Users\ryanc.HS\AppData\Local\Temp\ccAQ3CYh.s 			page 31


 123 0000 10B5     		push	{r4, lr}
 124              	.LCFI2:
 125              		.cfi_def_cfa_offset 8
 126              		.cfi_offset 4, -8
 127              		.cfi_offset 14, -4
 128 0002 0446     		mov	r4, r0
1127:TP2824/TP2802.c **** 	tmp = tp28xx_byte_read(0xf5);
 129              		.loc 1 1127 2 is_stmt 1 view .LVU21
1128:TP2824/TP2802.c **** 	tmp |= SYS_MODE[ch];
 130              		.loc 1 1128 2 view .LVU22
1128:TP2824/TP2802.c **** 	tmp |= SYS_MODE[ch];
 131              		.loc 1 1128 8 is_stmt 0 view .LVU23
 132 0004 F520     		movs	r0, #245
 133              	.LVL11:
1128:TP2824/TP2802.c **** 	tmp |= SYS_MODE[ch];
 134              		.loc 1 1128 8 view .LVU24
 135 0006 FFF7FEFF 		bl	tp28xx_byte_read
 136              	.LVL12:
1129:TP2824/TP2802.c **** 	tp28xx_byte_write(0xf5, tmp);
 137              		.loc 1 1129 2 is_stmt 1 view .LVU25
1129:TP2824/TP2802.c **** 	tp28xx_byte_write(0xf5, tmp);
 138              		.loc 1 1129 17 is_stmt 0 view .LVU26
 139 000a 084B     		ldr	r3, .L9
 140 000c 195D     		ldrb	r1, [r3, r4]	@ zero_extendqisi2
1129:TP2824/TP2802.c **** 	tp28xx_byte_write(0xf5, tmp);
 141              		.loc 1 1129 6 view .LVU27
 142 000e 0143     		orrs	r1, r1, r0
 143              	.LVL13:
1130:TP2824/TP2802.c **** 	tmp = tp28xx_byte_read(0x35);
 144              		.loc 1 1130 2 is_stmt 1 view .LVU28
 145 0010 C9B2     		uxtb	r1, r1
1130:TP2824/TP2802.c **** 	tmp = tp28xx_byte_read(0x35);
 146              		.loc 1 1130 2 is_stmt 0 view .LVU29
 147 0012 F520     		movs	r0, #245
 148 0014 FFF7FEFF 		bl	tp28xx_byte_write
 149              	.LVL14:
1131:TP2824/TP2802.c **** 	tmp |= 0x20;
 150              		.loc 1 1131 2 is_stmt 1 view .LVU30
1131:TP2824/TP2802.c **** 	tmp |= 0x20;
 151              		.loc 1 1131 8 is_stmt 0 view .LVU31
 152 0018 3520     		movs	r0, #53
 153 001a FFF7FEFF 		bl	tp28xx_byte_read
 154              	.LVL15:
1132:TP2824/TP2802.c **** 	tp28xx_byte_write(0x35, tmp);
 155              		.loc 1 1132 2 is_stmt 1 view .LVU32
1132:TP2824/TP2802.c **** 	tp28xx_byte_write(0x35, tmp);
 156              		.loc 1 1132 6 is_stmt 0 view .LVU33
 157 001e 40F02001 		orr	r1, r0, #32
 158              	.LVL16:
1133:TP2824/TP2802.c **** }
 159              		.loc 1 1133 2 is_stmt 1 view .LVU34
 160 0022 C9B2     		uxtb	r1, r1
1133:TP2824/TP2802.c **** }
 161              		.loc 1 1133 2 is_stmt 0 view .LVU35
 162 0024 3520     		movs	r0, #53
 163 0026 FFF7FEFF 		bl	tp28xx_byte_write
 164              	.LVL17:
ARM GAS  C:\Users\ryanc.HS\AppData\Local\Temp\ccAQ3CYh.s 			page 32


1134:TP2824/TP2802.c **** static void tp28xx_SYSCLK_V1(unsigned char ch)
 165              		.loc 1 1134 1 view .LVU36
 166 002a 10BD     		pop	{r4, pc}
 167              	.L10:
 168              		.align	2
 169              	.L9:
 170 002c 00000000 		.word	.LANCHOR1
 171              		.cfi_endproc
 172              	.LFE6:
 174              		.section	.text.tp2853C_reset_default,"ax",%progbits
 175              		.align	1
 176              		.syntax unified
 177              		.thumb
 178              		.thumb_func
 179              		.fpu softvfp
 181              	tp2853C_reset_default:
 182              	.LFB15:
1576:TP2824/TP2802.c **** static void tp2853C_reset_default(void)
1577:TP2824/TP2802.c **** {
 183              		.loc 1 1577 1 is_stmt 1 view -0
 184              		.cfi_startproc
 185              		@ args = 0, pretend = 0, frame = 0
 186              		@ frame_needed = 0, uses_anonymous_args = 0
 187 0000 08B5     		push	{r3, lr}
 188              	.LCFI3:
 189              		.cfi_def_cfa_offset 8
 190              		.cfi_offset 3, -8
 191              		.cfi_offset 14, -4
1578:TP2824/TP2802.c **** 	unsigned char tmp;
 192              		.loc 1 1578 2 view .LVU38
1579:TP2824/TP2802.c **** 	tp28xx_byte_write(0x07, 0xC0);
 193              		.loc 1 1579 2 view .LVU39
 194 0002 C021     		movs	r1, #192
 195 0004 0720     		movs	r0, #7
 196 0006 FFF7FEFF 		bl	tp28xx_byte_write
 197              	.LVL18:
1580:TP2824/TP2802.c **** 	tmp = tp28xx_byte_read(0x14);
 198              		.loc 1 1580 2 view .LVU40
 199              		.loc 1 1580 8 is_stmt 0 view .LVU41
 200 000a 1420     		movs	r0, #20
 201 000c FFF7FEFF 		bl	tp28xx_byte_read
 202              	.LVL19:
1581:TP2824/TP2802.c **** 	tmp &= 0x9f;
 203              		.loc 1 1581 2 is_stmt 1 view .LVU42
1582:TP2824/TP2802.c **** 	tp28xx_byte_write(0x14, tmp);
 204              		.loc 1 1582 2 view .LVU43
 205 0010 00F09F01 		and	r1, r0, #159
 206 0014 1420     		movs	r0, #20
 207              	.LVL20:
 208              		.loc 1 1582 2 is_stmt 0 view .LVU44
 209 0016 FFF7FEFF 		bl	tp28xx_byte_write
 210              	.LVL21:
1583:TP2824/TP2802.c **** 	tp28xx_byte_write(0x13, 0x00);
 211              		.loc 1 1583 2 is_stmt 1 view .LVU45
 212 001a 0021     		movs	r1, #0
 213 001c 1320     		movs	r0, #19
 214 001e FFF7FEFF 		bl	tp28xx_byte_write
ARM GAS  C:\Users\ryanc.HS\AppData\Local\Temp\ccAQ3CYh.s 			page 33


 215              	.LVL22:
1584:TP2824/TP2802.c **** 	tp28xx_byte_write(0x26, 0x04);
 216              		.loc 1 1584 2 view .LVU46
 217 0022 0421     		movs	r1, #4
 218 0024 2620     		movs	r0, #38
 219 0026 FFF7FEFF 		bl	tp28xx_byte_write
 220              	.LVL23:
1585:TP2824/TP2802.c **** 	tp28xx_byte_write(0x06, 0xb2);
 221              		.loc 1 1585 2 view .LVU47
 222 002a B221     		movs	r1, #178
 223 002c 0620     		movs	r0, #6
 224 002e FFF7FEFF 		bl	tp28xx_byte_write
 225              	.LVL24:
1586:TP2824/TP2802.c **** }
 226              		.loc 1 1586 1 is_stmt 0 view .LVU48
 227 0032 08BD     		pop	{r3, pc}
 228              		.cfi_endproc
 229              	.LFE15:
 231              		.section	.text.TP28xx_reset_default,"ax",%progbits
 232              		.align	1
 233              		.syntax unified
 234              		.thumb
 235              		.thumb_func
 236              		.fpu softvfp
 238              	TP28xx_reset_default:
 239              	.LVL25:
 240              	.LFB16:
1587:TP2824/TP2802.c **** static void TP28xx_reset_default(int chip, unsigned char ch)
1588:TP2824/TP2802.c **** {
 241              		.loc 1 1588 1 is_stmt 1 view -0
 242              		.cfi_startproc
 243              		@ args = 0, pretend = 0, frame = 0
 244              		@ frame_needed = 0, uses_anonymous_args = 0
 245              		.loc 1 1588 1 is_stmt 0 view .LVU50
 246 0000 08B5     		push	{r3, lr}
 247              	.LCFI4:
 248              		.cfi_def_cfa_offset 8
 249              		.cfi_offset 3, -8
 250              		.cfi_offset 14, -4
1589:TP2824/TP2802.c **** 	/*    if(TP2823 == chip )
1590:TP2824/TP2802.c **** 		{
1591:TP2824/TP2802.c **** 			   tp282x_reset_AGC_CLK(ch);
1592:TP2824/TP2802.c **** 		}
1593:TP2824/TP2802.c **** 		else if(TP2822 == chip )
1594:TP2824/TP2802.c **** 		{
1595:TP2824/TP2802.c **** 			   tp282x_reset_AGC_CLK(ch);
1596:TP2824/TP2802.c **** 			   tp28xx_byte_write(0x07, 0x40);
1597:TP2824/TP2802.c **** 		}
1598:TP2824/TP2802.c **** 		else if(TP2802D == chip )
1599:TP2824/TP2802.c **** 		{
1600:TP2824/TP2802.c **** 			   tp2802D_reset_default( ch);
1601:TP2824/TP2802.c **** 		}
1602:TP2824/TP2802.c **** 	*/
1603:TP2824/TP2802.c **** 	if (TP2834 == chip)
 251              		.loc 1 1603 2 is_stmt 1 view .LVU51
 252              		.loc 1 1603 5 is_stmt 0 view .LVU52
 253 0002 2428     		cmp	r0, #36
ARM GAS  C:\Users\ryanc.HS\AppData\Local\Temp\ccAQ3CYh.s 			page 34


 254 0004 06D0     		beq	.L19
1604:TP2824/TP2802.c **** 	{
1605:TP2824/TP2802.c **** 		tp2824_reset_default();
1606:TP2824/TP2802.c **** 	}
1607:TP2824/TP2802.c **** 	else if (TP2833 == chip)
 255              		.loc 1 1607 7 is_stmt 1 view .LVU53
 256              		.loc 1 1607 10 is_stmt 0 view .LVU54
 257 0006 2528     		cmp	r0, #37
 258 0008 07D0     		beq	.L20
1608:TP2824/TP2802.c **** 	{
1609:TP2824/TP2802.c **** 		tp2853C_reset_default();
1610:TP2824/TP2802.c **** 	}
1611:TP2824/TP2802.c **** 	else if (TP2853C == chip)
 259              		.loc 1 1611 7 is_stmt 1 view .LVU55
 260              		.loc 1 1611 10 is_stmt 0 view .LVU56
 261 000a 2628     		cmp	r0, #38
 262 000c 08D0     		beq	.L21
1612:TP2824/TP2802.c **** 	{
1613:TP2824/TP2802.c **** 		tp2853C_reset_default();
1614:TP2824/TP2802.c **** 	}
1615:TP2824/TP2802.c **** 	else // chunyu
1616:TP2824/TP2802.c **** 	{
1617:TP2824/TP2802.c **** 		tp2824_reset_default(); // chunyu
 263              		.loc 1 1617 3 is_stmt 1 view .LVU57
 264 000e FFF7FEFF 		bl	tp2824_reset_default
 265              	.LVL26:
 266              	.L13:
1618:TP2824/TP2802.c **** 	}
1619:TP2824/TP2802.c **** }
 267              		.loc 1 1619 1 is_stmt 0 view .LVU58
 268 0012 08BD     		pop	{r3, pc}
 269              	.LVL27:
 270              	.L19:
1605:TP2824/TP2802.c **** 	}
 271              		.loc 1 1605 3 is_stmt 1 view .LVU59
 272 0014 FFF7FEFF 		bl	tp2824_reset_default
 273              	.LVL28:
1605:TP2824/TP2802.c **** 	}
 274              		.loc 1 1605 3 is_stmt 0 view .LVU60
 275 0018 FBE7     		b	.L13
 276              	.LVL29:
 277              	.L20:
1609:TP2824/TP2802.c **** 	}
 278              		.loc 1 1609 3 is_stmt 1 view .LVU61
 279 001a FFF7FEFF 		bl	tp2853C_reset_default
 280              	.LVL30:
1609:TP2824/TP2802.c **** 	}
 281              		.loc 1 1609 3 is_stmt 0 view .LVU62
 282 001e F8E7     		b	.L13
 283              	.LVL31:
 284              	.L21:
1613:TP2824/TP2802.c **** 	}
 285              		.loc 1 1613 3 is_stmt 1 view .LVU63
 286 0020 FFF7FEFF 		bl	tp2853C_reset_default
 287              	.LVL32:
1613:TP2824/TP2802.c **** 	}
 288              		.loc 1 1613 3 is_stmt 0 view .LVU64
ARM GAS  C:\Users\ryanc.HS\AppData\Local\Temp\ccAQ3CYh.s 			page 35


 289 0024 F5E7     		b	.L13
 290              		.cfi_endproc
 291              	.LFE16:
 293              		.section	.text.I2CDeviceSet1,"ax",%progbits
 294              		.align	1
 295              		.global	I2CDeviceSet1
 296              		.syntax unified
 297              		.thumb
 298              		.thumb_func
 299              		.fpu softvfp
 301              	I2CDeviceSet1:
 302              	.LVL33:
 303              	.LFB3:
 971:TP2824/TP2802.c **** 	int cnt = 0;
 304              		.loc 1 971 1 is_stmt 1 view -0
 305              		.cfi_startproc
 306              		@ args = 0, pretend = 0, frame = 0
 307              		@ frame_needed = 0, uses_anonymous_args = 0
 971:TP2824/TP2802.c **** 	int cnt = 0;
 308              		.loc 1 971 1 is_stmt 0 view .LVU66
 309 0000 10B5     		push	{r4, lr}
 310              	.LCFI5:
 311              		.cfi_def_cfa_offset 8
 312              		.cfi_offset 4, -8
 313              		.cfi_offset 14, -4
 314 0002 0446     		mov	r4, r0
 972:TP2824/TP2802.c **** 	tByte index, val;
 315              		.loc 1 972 2 is_stmt 1 view .LVU67
 316              	.LVL34:
 973:TP2824/TP2802.c **** 
 317              		.loc 1 973 2 view .LVU68
 982:TP2824/TP2802.c **** 	{
 318              		.loc 1 982 2 view .LVU69
 319              	.L23:
 982:TP2824/TP2802.c **** 	{
 320              		.loc 1 982 8 view .LVU70
 982:TP2824/TP2802.c **** 	{
 321              		.loc 1 982 9 is_stmt 0 view .LVU71
 322 0004 2078     		ldrb	r0, [r4]	@ zero_extendqisi2
 982:TP2824/TP2802.c **** 	{
 323              		.loc 1 982 8 view .LVU72
 324 0006 FF28     		cmp	r0, #255
 325 0008 04D0     		beq	.L26
 985:TP2824/TP2802.c **** 		val = *(RegSet + 1);
 326              		.loc 1 985 3 is_stmt 1 view .LVU73
 327              	.LVL35:
 986:TP2824/TP2802.c **** 		//		MonWriteI2C(addr, index, val);
 328              		.loc 1 986 3 view .LVU74
 988:TP2824/TP2802.c **** 
 329              		.loc 1 988 3 view .LVU75
 330 000a 6178     		ldrb	r1, [r4, #1]	@ zero_extendqisi2
 331 000c FFF7FEFF 		bl	tp28xx_byte_write
 332              	.LVL36:
 992:TP2824/TP2802.c **** 
 333              		.loc 1 992 3 view .LVU76
 992:TP2824/TP2802.c **** 
 334              		.loc 1 992 10 is_stmt 0 view .LVU77
ARM GAS  C:\Users\ryanc.HS\AppData\Local\Temp\ccAQ3CYh.s 			page 36


 335 0010 0234     		adds	r4, r4, #2
 336              	.LVL37:
 994:TP2824/TP2802.c **** 	}
 337              		.loc 1 994 3 is_stmt 1 view .LVU78
 338 0012 F7E7     		b	.L23
 339              	.L26:
 996:TP2824/TP2802.c **** }
 340              		.loc 1 996 2 view .LVU79
 341 0014 3220     		movs	r0, #50
 342 0016 FFF7FEFF 		bl	delay
 343              	.LVL38:
 997:TP2824/TP2802.c **** 
 344              		.loc 1 997 1 is_stmt 0 view .LVU80
 345 001a 10BD     		pop	{r4, pc}
 997:TP2824/TP2802.c **** 
 346              		.loc 1 997 1 view .LVU81
 347              		.cfi_endproc
 348              	.LFE3:
 350              		.section	.text.I2CDeviceSet2,"ax",%progbits
 351              		.align	1
 352              		.global	I2CDeviceSet2
 353              		.syntax unified
 354              		.thumb
 355              		.thumb_func
 356              		.fpu softvfp
 358              	I2CDeviceSet2:
 359              	.LVL39:
 360              	.LFB4:
1000:TP2824/TP2802.c **** 	int cnt = 0;
 361              		.loc 1 1000 1 is_stmt 1 view -0
 362              		.cfi_startproc
 363              		@ args = 0, pretend = 0, frame = 0
 364              		@ frame_needed = 0, uses_anonymous_args = 0
1000:TP2824/TP2802.c **** 	int cnt = 0;
 365              		.loc 1 1000 1 is_stmt 0 view .LVU83
 366 0000 38B5     		push	{r3, r4, r5, lr}
 367              	.LCFI6:
 368              		.cfi_def_cfa_offset 16
 369              		.cfi_offset 3, -16
 370              		.cfi_offset 4, -12
 371              		.cfi_offset 5, -8
 372              		.cfi_offset 14, -4
 373 0002 0446     		mov	r4, r0
 374 0004 0D46     		mov	r5, r1
1001:TP2824/TP2802.c **** 	tByte index, val;
 375              		.loc 1 1001 2 is_stmt 1 view .LVU84
 376              	.LVL40:
1002:TP2824/TP2802.c **** 
 377              		.loc 1 1002 2 view .LVU85
1004:TP2824/TP2802.c **** 	{
 378              		.loc 1 1004 2 view .LVU86
 379              	.L28:
1004:TP2824/TP2802.c **** 	{
 380              		.loc 1 1004 8 view .LVU87
1004:TP2824/TP2802.c **** 	{
 381              		.loc 1 1004 9 is_stmt 0 view .LVU88
 382 0006 2078     		ldrb	r0, [r4]	@ zero_extendqisi2
ARM GAS  C:\Users\ryanc.HS\AppData\Local\Temp\ccAQ3CYh.s 			page 37


1004:TP2824/TP2802.c **** 	{
 383              		.loc 1 1004 8 view .LVU89
 384 0008 FF28     		cmp	r0, #255
 385 000a 05D0     		beq	.L31
1007:TP2824/TP2802.c **** 		val = *DatSet;
 386              		.loc 1 1007 3 is_stmt 1 view .LVU90
 387              	.LVL41:
1008:TP2824/TP2802.c **** 		//		MonWriteI2C(addr, index, val);
 388              		.loc 1 1008 3 view .LVU91
1010:TP2824/TP2802.c **** 
 389              		.loc 1 1010 3 view .LVU92
 390 000c 15F8011B 		ldrb	r1, [r5], #1	@ zero_extendqisi2
 391              	.LVL42:
1010:TP2824/TP2802.c **** 
 392              		.loc 1 1010 3 is_stmt 0 view .LVU93
 393 0010 FFF7FEFF 		bl	tp28xx_byte_write
 394              	.LVL43:
1014:TP2824/TP2802.c **** 		DatSet++;
 395              		.loc 1 1014 3 is_stmt 1 view .LVU94
1014:TP2824/TP2802.c **** 		DatSet++;
 396              		.loc 1 1014 9 is_stmt 0 view .LVU95
 397 0014 0134     		adds	r4, r4, #1
 398              	.LVL44:
1015:TP2824/TP2802.c **** 
 399              		.loc 1 1015 3 is_stmt 1 view .LVU96
1017:TP2824/TP2802.c **** 	}
 400              		.loc 1 1017 3 view .LVU97
 401 0016 F6E7     		b	.L28
 402              	.L31:
1019:TP2824/TP2802.c **** }
 403              		.loc 1 1019 2 view .LVU98
 404 0018 3220     		movs	r0, #50
 405 001a FFF7FEFF 		bl	delay
 406              	.LVL45:
1020:TP2824/TP2802.c **** 
 407              		.loc 1 1020 1 is_stmt 0 view .LVU99
 408 001e 38BD     		pop	{r3, r4, r5, pc}
1020:TP2824/TP2802.c **** 
 409              		.loc 1 1020 1 view .LVU100
 410              		.cfi_endproc
 411              	.LFE4:
 413              		.section	.text.SetRegPage,"ax",%progbits
 414              		.align	1
 415              		.global	SetRegPage
 416              		.syntax unified
 417              		.thumb
 418              		.thumb_func
 419              		.fpu softvfp
 421              	SetRegPage:
 422              	.LVL46:
 423              	.LFB5:
1023:TP2824/TP2802.c **** 	// tByte tmp;
 424              		.loc 1 1023 1 is_stmt 1 view -0
 425              		.cfi_startproc
 426              		@ args = 0, pretend = 0, frame = 0
 427              		@ frame_needed = 0, uses_anonymous_args = 0
1023:TP2824/TP2802.c **** 	// tByte tmp;
ARM GAS  C:\Users\ryanc.HS\AppData\Local\Temp\ccAQ3CYh.s 			page 38


 428              		.loc 1 1023 1 is_stmt 0 view .LVU102
 429 0000 08B5     		push	{r3, lr}
 430              	.LCFI7:
 431              		.cfi_def_cfa_offset 8
 432              		.cfi_offset 3, -8
 433              		.cfi_offset 14, -4
 434 0002 0146     		mov	r1, r0
1026:TP2824/TP2802.c **** 	// tp28xx_byte_write(0x40,0x04); //chunyu
 435              		.loc 1 1026 2 is_stmt 1 view .LVU103
 436 0004 4020     		movs	r0, #64
 437              	.LVL47:
1026:TP2824/TP2802.c **** 	// tp28xx_byte_write(0x40,0x04); //chunyu
 438              		.loc 1 1026 2 is_stmt 0 view .LVU104
 439 0006 FFF7FEFF 		bl	tp28xx_byte_write
 440              	.LVL48:
1029:TP2824/TP2802.c **** 
 441              		.loc 1 1029 1 view .LVU105
 442 000a 08BD     		pop	{r3, pc}
 443              		.cfi_endproc
 444              	.LFE5:
 446              		.section	.rodata.Set_VidRes.str1.4,"aMS",%progbits,1
 447              		.align	2
 448              	.LC0:
 449 0000 31303830 		.ascii	"1080p30\000"
 449      70333000 
 450              		.align	2
 451              	.LC1:
 452 0008 31303830 		.ascii	"1080p25\000"
 452      70323500 
 453              		.align	2
 454              	.LC2:
 455 0010 37323070 		.ascii	"720p60\000"
 455      363000
 456 0017 00       		.align	2
 457              	.LC3:
 458 0018 37323070 		.ascii	"720p30V2\000"
 458      33305632 
 458      00
 459 0021 000000   		.align	2
 460              	.LC4:
 461 0024 37323070 		.ascii	"720p50\000"
 461      353000
 462 002b 00       		.align	2
 463              	.LC5:
 464 002c 37323070 		.ascii	"720p25V2\000"
 464      32355632 
 464      00
 465 0035 000000   		.align	2
 466              	.LC6:
 467 0038 37323070 		.ascii	"720p30\000"
 467      333000
 468 003f 00       		.align	2
 469              	.LC7:
 470 0040 37323070 		.ascii	"720p25\000"
 470      323500
 471 0047 00       		.align	2
 472              	.LC8:
ARM GAS  C:\Users\ryanc.HS\AppData\Local\Temp\ccAQ3CYh.s 			page 39


 473 0048 50414C00 		.ascii	"PAL\000"
 474              		.align	2
 475              	.LC9:
 476 004c 4E545343 		.ascii	"NTSC\000"
 476      00
 477 0051 000000   		.align	2
 478              	.LC10:
 479 0054 334D3138 		.ascii	"3M18\000"
 479      00
 480 0059 000000   		.align	2
 481              	.LC11:
 482 005c 354D3132 		.ascii	"5M12\000"
 482      00
 483 0061 000000   		.align	2
 484              	.LC12:
 485 0064 344D3135 		.ascii	"4M15\000"
 485      00
 486 0069 000000   		.align	2
 487              	.LC13:
 488 006c 334D3230 		.ascii	"3M20\000"
 488      00
 489 0071 000000   		.align	2
 490              	.LC14:
 491 0074 344D3132 		.ascii	"4M12\000"
 491      00
 492 0079 000000   		.align	2
 493              	.LC15:
 494 007c 364D3130 		.ascii	"6M10\000"
 494      00
 495 0081 000000   		.align	2
 496              	.LC16:
 497 0084 344D3330 		.ascii	"4M30\000"
 497      00
 498 0089 000000   		.align	2
 499              	.LC17:
 500 008c 2E2E2E0D 		.ascii	"...\015\000"
 500      00
 501 0091 000000   		.align	2
 502              	.LC18:
 503 0094 74703238 		.ascii	"tp2826MODEDATASET\015\000"
 503      32364D4F 
 503      44454441 
 503      54415345 
 503      540D00
 504 00a7 00       		.align	2
 505              	.LC19:
 506 00a8 74703238 		.ascii	"tp2824C MODEDATASET\015\000"
 506      32344320 
 506      4D4F4445 
 506      44415441 
 506      5345540D 
 507              		.section	.text.Set_VidRes,"ax",%progbits
 508              		.align	1
 509              		.global	Set_VidRes
 510              		.syntax unified
 511              		.thumb
 512              		.thumb_func
ARM GAS  C:\Users\ryanc.HS\AppData\Local\Temp\ccAQ3CYh.s 			page 40


 513              		.fpu softvfp
 515              	Set_VidRes:
 516              	.LVL49:
 517              	.LFB8:
1147:TP2824/TP2802.c **** 	tByte index, sys, tmp;
 518              		.loc 1 1147 1 is_stmt 1 view -0
 519              		.cfi_startproc
 520              		@ args = 0, pretend = 0, frame = 0
 521              		@ frame_needed = 0, uses_anonymous_args = 0
1147:TP2824/TP2802.c **** 	tByte index, sys, tmp;
 522              		.loc 1 1147 1 is_stmt 0 view .LVU107
 523 0000 70B5     		push	{r4, r5, r6, lr}
 524              	.LCFI8:
 525              		.cfi_def_cfa_offset 16
 526              		.cfi_offset 4, -16
 527              		.cfi_offset 5, -12
 528              		.cfi_offset 6, -8
 529              		.cfi_offset 14, -4
 530 0002 0646     		mov	r6, r0
1148:TP2824/TP2802.c **** 	sys = 1; // V1
 531              		.loc 1 1148 2 is_stmt 1 view .LVU108
1149:TP2824/TP2802.c **** 	// printf("Set_VidRes");
 532              		.loc 1 1149 2 view .LVU109
 533              	.LVL50:
1151:TP2824/TP2802.c **** 	{
 534              		.loc 1 1151 2 view .LVU110
1151:TP2824/TP2802.c **** 	{
 535              		.loc 1 1151 14 is_stmt 0 view .LVU111
 536 0004 8A4B     		ldr	r3, .L69
 537 0006 1C5C     		ldrb	r4, [r3, r0]	@ zero_extendqisi2
 538 0008 262C     		cmp	r4, #38
 539 000a 00F2A680 		bhi	.L61
 540 000e DFE804F0 		tbb	[pc, r4]
 541              	.L37:
 542 0012 24       		.byte	(.L53-.L37)/2
 543 0013 36       		.byte	(.L52-.L37)/2
 544 0014 14       		.byte	(.L51-.L37)/2
 545 0015 1C       		.byte	(.L50-.L37)/2
 546 0016 47       		.byte	(.L49-.L37)/2
 547 0017 50       		.byte	(.L48-.L37)/2
 548 0018 A4       		.byte	(.L61-.L37)/2
 549 0019 A4       		.byte	(.L61-.L37)/2
 550 001a 62       		.byte	(.L47-.L37)/2
 551 001b 59       		.byte	(.L46-.L37)/2
 552 001c A4       		.byte	(.L61-.L37)/2
 553 001d A4       		.byte	(.L61-.L37)/2
 554 001e 2D       		.byte	(.L45-.L37)/2
 555 001f 3E       		.byte	(.L44-.L37)/2
 556 0020 A4       		.byte	(.L61-.L37)/2
 557 0021 A4       		.byte	(.L61-.L37)/2
 558 0022 A4       		.byte	(.L61-.L37)/2
 559 0023 A4       		.byte	(.L61-.L37)/2
 560 0024 A4       		.byte	(.L61-.L37)/2
 561 0025 A4       		.byte	(.L61-.L37)/2
 562 0026 A4       		.byte	(.L61-.L37)/2
 563 0027 A4       		.byte	(.L61-.L37)/2
 564 0028 A4       		.byte	(.L61-.L37)/2
ARM GAS  C:\Users\ryanc.HS\AppData\Local\Temp\ccAQ3CYh.s 			page 41


 565 0029 A4       		.byte	(.L61-.L37)/2
 566 002a A4       		.byte	(.L61-.L37)/2
 567 002b A4       		.byte	(.L61-.L37)/2
 568 002c A4       		.byte	(.L61-.L37)/2
 569 002d A4       		.byte	(.L61-.L37)/2
 570 002e A4       		.byte	(.L61-.L37)/2
 571 002f A4       		.byte	(.L61-.L37)/2
 572 0030 A4       		.byte	(.L61-.L37)/2
 573 0031 A4       		.byte	(.L61-.L37)/2
 574 0032 6B       		.byte	(.L43-.L37)/2
 575 0033 73       		.byte	(.L42-.L37)/2
 576 0034 7B       		.byte	(.L41-.L37)/2
 577 0035 83       		.byte	(.L40-.L37)/2
 578 0036 8B       		.byte	(.L39-.L37)/2
 579 0037 93       		.byte	(.L38-.L37)/2
 580 0038 9B       		.byte	(.L36-.L37)/2
 581 0039 00       		.p2align 1
 582              	.L51:
1154:TP2824/TP2802.c **** 		sys = 1;   // V1
 583              		.loc 1 1154 3 is_stmt 1 view .LVU112
 584              	.LVL51:
1155:TP2824/TP2802.c **** 		ManVidResRx = RES1920X1080;
 585              		.loc 1 1155 3 view .LVU113
1156:TP2824/TP2802.c **** 		printf("1080p30");
 586              		.loc 1 1156 3 view .LVU114
1156:TP2824/TP2802.c **** 		printf("1080p30");
 587              		.loc 1 1156 15 is_stmt 0 view .LVU115
 588 003a 0125     		movs	r5, #1
 589 003c 7D4B     		ldr	r3, .L69+4
 590 003e 1D70     		strb	r5, [r3]
1157:TP2824/TP2802.c **** 		break;
 591              		.loc 1 1157 3 is_stmt 1 view .LVU116
 592 0040 7D48     		ldr	r0, .L69+8
 593              	.LVL52:
1157:TP2824/TP2802.c **** 		break;
 594              		.loc 1 1157 3 is_stmt 0 view .LVU117
 595 0042 FFF7FEFF 		bl	printf
 596              	.LVL53:
1158:TP2824/TP2802.c **** 
 597              		.loc 1 1158 3 is_stmt 1 view .LVU118
1155:TP2824/TP2802.c **** 		ManVidResRx = RES1920X1080;
 598              		.loc 1 1155 7 is_stmt 0 view .LVU119
 599 0046 2C46     		mov	r4, r5
1158:TP2824/TP2802.c **** 
 600              		.loc 1 1158 3 view .LVU120
 601 0048 89E0     		b	.L35
 602              	.LVL54:
 603              	.L50:
1161:TP2824/TP2802.c **** 		sys = 1;   // V1
 604              		.loc 1 1161 3 is_stmt 1 view .LVU121
1162:TP2824/TP2802.c **** 		ManVidResRx = RES1920X1080;
 605              		.loc 1 1162 3 view .LVU122
1163:TP2824/TP2802.c **** 		printf("1080p25");
 606              		.loc 1 1163 3 view .LVU123
1163:TP2824/TP2802.c **** 		printf("1080p25");
 607              		.loc 1 1163 15 is_stmt 0 view .LVU124
 608 004a 0124     		movs	r4, #1
ARM GAS  C:\Users\ryanc.HS\AppData\Local\Temp\ccAQ3CYh.s 			page 42


 609 004c 794B     		ldr	r3, .L69+4
 610 004e 1C70     		strb	r4, [r3]
1164:TP2824/TP2802.c **** 		break;
 611              		.loc 1 1164 3 is_stmt 1 view .LVU125
 612 0050 7A48     		ldr	r0, .L69+12
 613              	.LVL55:
1164:TP2824/TP2802.c **** 		break;
 614              		.loc 1 1164 3 is_stmt 0 view .LVU126
 615 0052 FFF7FEFF 		bl	printf
 616              	.LVL56:
1165:TP2824/TP2802.c **** 
 617              		.loc 1 1165 3 is_stmt 1 view .LVU127
1161:TP2824/TP2802.c **** 		sys = 1;   // V1
 618              		.loc 1 1161 9 is_stmt 0 view .LVU128
 619 0056 0225     		movs	r5, #2
1165:TP2824/TP2802.c **** 
 620              		.loc 1 1165 3 view .LVU129
 621 0058 81E0     		b	.L35
 622              	.LVL57:
 623              	.L53:
1168:TP2824/TP2802.c **** 		sys = 1;   // V1
 624              		.loc 1 1168 3 is_stmt 1 view .LVU130
1169:TP2824/TP2802.c **** 		ManVidResRx = RES1280X720;
 625              		.loc 1 1169 3 view .LVU131
1170:TP2824/TP2802.c **** 		printf("720p60");
 626              		.loc 1 1170 3 view .LVU132
1170:TP2824/TP2802.c **** 		printf("720p60");
 627              		.loc 1 1170 15 is_stmt 0 view .LVU133
 628 005a 764B     		ldr	r3, .L69+4
 629 005c 0022     		movs	r2, #0
 630 005e 1A70     		strb	r2, [r3]
1171:TP2824/TP2802.c **** 		break;
 631              		.loc 1 1171 3 is_stmt 1 view .LVU134
 632 0060 7748     		ldr	r0, .L69+16
 633              	.LVL58:
1171:TP2824/TP2802.c **** 		break;
 634              		.loc 1 1171 3 is_stmt 0 view .LVU135
 635 0062 FFF7FEFF 		bl	printf
 636              	.LVL59:
1172:TP2824/TP2802.c **** 
 637              		.loc 1 1172 3 is_stmt 1 view .LVU136
1169:TP2824/TP2802.c **** 		ManVidResRx = RES1280X720;
 638              		.loc 1 1169 7 is_stmt 0 view .LVU137
 639 0066 0124     		movs	r4, #1
1168:TP2824/TP2802.c **** 		sys = 1;   // V1
 640              		.loc 1 1168 9 view .LVU138
 641 0068 0325     		movs	r5, #3
1172:TP2824/TP2802.c **** 
 642              		.loc 1 1172 3 view .LVU139
 643 006a 78E0     		b	.L35
 644              	.LVL60:
 645              	.L45:
1175:TP2824/TP2802.c **** 		sys = 2;	// V2
 646              		.loc 1 1175 3 is_stmt 1 view .LVU140
1176:TP2824/TP2802.c **** 		ManVidResRx = RES1280X720;
 647              		.loc 1 1176 3 view .LVU141
1177:TP2824/TP2802.c **** 		printf("720p30V2");
ARM GAS  C:\Users\ryanc.HS\AppData\Local\Temp\ccAQ3CYh.s 			page 43


 648              		.loc 1 1177 3 view .LVU142
1177:TP2824/TP2802.c **** 		printf("720p30V2");
 649              		.loc 1 1177 15 is_stmt 0 view .LVU143
 650 006c 714B     		ldr	r3, .L69+4
 651 006e 0022     		movs	r2, #0
 652 0070 1A70     		strb	r2, [r3]
1178:TP2824/TP2802.c **** 		break;
 653              		.loc 1 1178 3 is_stmt 1 view .LVU144
 654 0072 7448     		ldr	r0, .L69+20
 655              	.LVL61:
1178:TP2824/TP2802.c **** 		break;
 656              		.loc 1 1178 3 is_stmt 0 view .LVU145
 657 0074 FFF7FEFF 		bl	printf
 658              	.LVL62:
1179:TP2824/TP2802.c **** 
 659              		.loc 1 1179 3 is_stmt 1 view .LVU146
1176:TP2824/TP2802.c **** 		ManVidResRx = RES1280X720;
 660              		.loc 1 1176 7 is_stmt 0 view .LVU147
 661 0078 0224     		movs	r4, #2
1175:TP2824/TP2802.c **** 		sys = 2;	// V2
 662              		.loc 1 1175 9 view .LVU148
 663 007a 0B25     		movs	r5, #11
1179:TP2824/TP2802.c **** 
 664              		.loc 1 1179 3 view .LVU149
 665 007c 6FE0     		b	.L35
 666              	.LVL63:
 667              	.L52:
1182:TP2824/TP2802.c **** 		sys = 1;   // V1
 668              		.loc 1 1182 3 is_stmt 1 view .LVU150
1183:TP2824/TP2802.c **** 		ManVidResRx = RES1280X720;
 669              		.loc 1 1183 3 view .LVU151
1184:TP2824/TP2802.c **** 		printf("720p50");
 670              		.loc 1 1184 3 view .LVU152
1184:TP2824/TP2802.c **** 		printf("720p50");
 671              		.loc 1 1184 15 is_stmt 0 view .LVU153
 672 007e 6D4B     		ldr	r3, .L69+4
 673 0080 0022     		movs	r2, #0
 674 0082 1A70     		strb	r2, [r3]
1185:TP2824/TP2802.c **** 		break;
 675              		.loc 1 1185 3 is_stmt 1 view .LVU154
 676 0084 7048     		ldr	r0, .L69+24
 677              	.LVL64:
1185:TP2824/TP2802.c **** 		break;
 678              		.loc 1 1185 3 is_stmt 0 view .LVU155
 679 0086 FFF7FEFF 		bl	printf
 680              	.LVL65:
1186:TP2824/TP2802.c **** 
 681              		.loc 1 1186 3 is_stmt 1 view .LVU156
1182:TP2824/TP2802.c **** 		sys = 1;   // V1
 682              		.loc 1 1182 9 is_stmt 0 view .LVU157
 683 008a 0425     		movs	r5, #4
1186:TP2824/TP2802.c **** 
 684              		.loc 1 1186 3 view .LVU158
 685 008c 67E0     		b	.L35
 686              	.LVL66:
 687              	.L44:
1189:TP2824/TP2802.c **** 		sys = 2;	// V2
ARM GAS  C:\Users\ryanc.HS\AppData\Local\Temp\ccAQ3CYh.s 			page 44


 688              		.loc 1 1189 3 is_stmt 1 view .LVU159
1190:TP2824/TP2802.c **** 		ManVidResRx = RES1280X720;
 689              		.loc 1 1190 3 view .LVU160
1191:TP2824/TP2802.c **** 		printf("720p25V2");
 690              		.loc 1 1191 3 view .LVU161
1191:TP2824/TP2802.c **** 		printf("720p25V2");
 691              		.loc 1 1191 15 is_stmt 0 view .LVU162
 692 008e 694B     		ldr	r3, .L69+4
 693 0090 0022     		movs	r2, #0
 694 0092 1A70     		strb	r2, [r3]
1192:TP2824/TP2802.c **** 		break;
 695              		.loc 1 1192 3 is_stmt 1 view .LVU163
 696 0094 6D48     		ldr	r0, .L69+28
 697              	.LVL67:
1192:TP2824/TP2802.c **** 		break;
 698              		.loc 1 1192 3 is_stmt 0 view .LVU164
 699 0096 FFF7FEFF 		bl	printf
 700              	.LVL68:
1193:TP2824/TP2802.c **** 
 701              		.loc 1 1193 3 is_stmt 1 view .LVU165
1190:TP2824/TP2802.c **** 		ManVidResRx = RES1280X720;
 702              		.loc 1 1190 7 is_stmt 0 view .LVU166
 703 009a 0224     		movs	r4, #2
1189:TP2824/TP2802.c **** 		sys = 2;	// V2
 704              		.loc 1 1189 9 view .LVU167
 705 009c 0C25     		movs	r5, #12
1193:TP2824/TP2802.c **** 
 706              		.loc 1 1193 3 view .LVU168
 707 009e 5EE0     		b	.L35
 708              	.LVL69:
 709              	.L49:
1196:TP2824/TP2802.c **** 		sys = 1;   // V1
 710              		.loc 1 1196 3 is_stmt 1 view .LVU169
1197:TP2824/TP2802.c **** 		ManVidResRx = RES1280X720;
 711              		.loc 1 1197 3 view .LVU170
1198:TP2824/TP2802.c **** 		printf("720p30");
 712              		.loc 1 1198 3 view .LVU171
1198:TP2824/TP2802.c **** 		printf("720p30");
 713              		.loc 1 1198 15 is_stmt 0 view .LVU172
 714 00a0 644B     		ldr	r3, .L69+4
 715 00a2 0022     		movs	r2, #0
 716 00a4 1A70     		strb	r2, [r3]
1199:TP2824/TP2802.c **** 		break;
 717              		.loc 1 1199 3 is_stmt 1 view .LVU173
 718 00a6 6A48     		ldr	r0, .L69+32
 719              	.LVL70:
1199:TP2824/TP2802.c **** 		break;
 720              		.loc 1 1199 3 is_stmt 0 view .LVU174
 721 00a8 FFF7FEFF 		bl	printf
 722              	.LVL71:
1200:TP2824/TP2802.c **** 
 723              		.loc 1 1200 3 is_stmt 1 view .LVU175
1197:TP2824/TP2802.c **** 		ManVidResRx = RES1280X720;
 724              		.loc 1 1197 7 is_stmt 0 view .LVU176
 725 00ac 0124     		movs	r4, #1
1196:TP2824/TP2802.c **** 		sys = 1;   // V1
 726              		.loc 1 1196 9 view .LVU177
ARM GAS  C:\Users\ryanc.HS\AppData\Local\Temp\ccAQ3CYh.s 			page 45


 727 00ae 0525     		movs	r5, #5
1200:TP2824/TP2802.c **** 
 728              		.loc 1 1200 3 view .LVU178
 729 00b0 55E0     		b	.L35
 730              	.LVL72:
 731              	.L48:
1203:TP2824/TP2802.c **** 		sys = 1;   // V1
 732              		.loc 1 1203 3 is_stmt 1 view .LVU179
1204:TP2824/TP2802.c **** 		ManVidResRx = RES1280X720;
 733              		.loc 1 1204 3 view .LVU180
1205:TP2824/TP2802.c **** 		printf("720p25");
 734              		.loc 1 1205 3 view .LVU181
1205:TP2824/TP2802.c **** 		printf("720p25");
 735              		.loc 1 1205 15 is_stmt 0 view .LVU182
 736 00b2 604B     		ldr	r3, .L69+4
 737 00b4 0022     		movs	r2, #0
 738 00b6 1A70     		strb	r2, [r3]
1206:TP2824/TP2802.c **** 		break;
 739              		.loc 1 1206 3 is_stmt 1 view .LVU183
 740 00b8 6648     		ldr	r0, .L69+36
 741              	.LVL73:
1206:TP2824/TP2802.c **** 		break;
 742              		.loc 1 1206 3 is_stmt 0 view .LVU184
 743 00ba FFF7FEFF 		bl	printf
 744              	.LVL74:
1207:TP2824/TP2802.c **** 
 745              		.loc 1 1207 3 is_stmt 1 view .LVU185
1204:TP2824/TP2802.c **** 		ManVidResRx = RES1280X720;
 746              		.loc 1 1204 7 is_stmt 0 view .LVU186
 747 00be 0124     		movs	r4, #1
1203:TP2824/TP2802.c **** 		sys = 1;   // V1
 748              		.loc 1 1203 9 view .LVU187
 749 00c0 0625     		movs	r5, #6
1207:TP2824/TP2802.c **** 
 750              		.loc 1 1207 3 view .LVU188
 751 00c2 4CE0     		b	.L35
 752              	.LVL75:
 753              	.L46:
1210:TP2824/TP2802.c **** 		sys = 4;
 754              		.loc 1 1210 3 is_stmt 1 view .LVU189
1211:TP2824/TP2802.c **** 		ManVidResRx = RES1920X576;
 755              		.loc 1 1211 3 view .LVU190
1212:TP2824/TP2802.c **** 		printf("PAL");
 756              		.loc 1 1212 3 view .LVU191
1212:TP2824/TP2802.c **** 		printf("PAL");
 757              		.loc 1 1212 15 is_stmt 0 view .LVU192
 758 00c4 5B4B     		ldr	r3, .L69+4
 759 00c6 0322     		movs	r2, #3
 760 00c8 1A70     		strb	r2, [r3]
1213:TP2824/TP2802.c **** 		break;
 761              		.loc 1 1213 3 is_stmt 1 view .LVU193
 762 00ca 6348     		ldr	r0, .L69+40
 763              	.LVL76:
1213:TP2824/TP2802.c **** 		break;
 764              		.loc 1 1213 3 is_stmt 0 view .LVU194
 765 00cc FFF7FEFF 		bl	printf
 766              	.LVL77:
ARM GAS  C:\Users\ryanc.HS\AppData\Local\Temp\ccAQ3CYh.s 			page 46


1214:TP2824/TP2802.c **** 
 767              		.loc 1 1214 3 is_stmt 1 view .LVU195
1211:TP2824/TP2802.c **** 		ManVidResRx = RES1920X576;
 768              		.loc 1 1211 7 is_stmt 0 view .LVU196
 769 00d0 0424     		movs	r4, #4
1210:TP2824/TP2802.c **** 		sys = 4;
 770              		.loc 1 1210 9 view .LVU197
 771 00d2 0825     		movs	r5, #8
1214:TP2824/TP2802.c **** 
 772              		.loc 1 1214 3 view .LVU198
 773 00d4 43E0     		b	.L35
 774              	.LVL78:
 775              	.L47:
1217:TP2824/TP2802.c **** 		sys = 3;
 776              		.loc 1 1217 3 is_stmt 1 view .LVU199
1218:TP2824/TP2802.c **** 		ManVidResRx = RES1920X480;
 777              		.loc 1 1218 3 view .LVU200
1219:TP2824/TP2802.c **** 		printf("NTSC");
 778              		.loc 1 1219 3 view .LVU201
1219:TP2824/TP2802.c **** 		printf("NTSC");
 779              		.loc 1 1219 15 is_stmt 0 view .LVU202
 780 00d6 574B     		ldr	r3, .L69+4
 781 00d8 0222     		movs	r2, #2
 782 00da 1A70     		strb	r2, [r3]
1220:TP2824/TP2802.c **** 		break;
 783              		.loc 1 1220 3 is_stmt 1 view .LVU203
 784 00dc 5F48     		ldr	r0, .L69+44
 785              	.LVL79:
1220:TP2824/TP2802.c **** 		break;
 786              		.loc 1 1220 3 is_stmt 0 view .LVU204
 787 00de FFF7FEFF 		bl	printf
 788              	.LVL80:
1221:TP2824/TP2802.c **** 
 789              		.loc 1 1221 3 is_stmt 1 view .LVU205
1218:TP2824/TP2802.c **** 		ManVidResRx = RES1920X480;
 790              		.loc 1 1218 7 is_stmt 0 view .LVU206
 791 00e2 0324     		movs	r4, #3
1217:TP2824/TP2802.c **** 		sys = 3;
 792              		.loc 1 1217 9 view .LVU207
 793 00e4 0725     		movs	r5, #7
1221:TP2824/TP2802.c **** 
 794              		.loc 1 1221 3 view .LVU208
 795 00e6 3AE0     		b	.L35
 796              	.LVL81:
 797              	.L43:
1224:TP2824/TP2802.c **** 		sys = 1;   // V1
 798              		.loc 1 1224 3 is_stmt 1 view .LVU209
1225:TP2824/TP2802.c **** 		ManVidResRx = RES1920X1080;
 799              		.loc 1 1225 3 view .LVU210
1226:TP2824/TP2802.c **** 		printf("3M18");
 800              		.loc 1 1226 3 view .LVU211
1226:TP2824/TP2802.c **** 		printf("3M18");
 801              		.loc 1 1226 15 is_stmt 0 view .LVU212
 802 00e8 0124     		movs	r4, #1
 803 00ea 524B     		ldr	r3, .L69+4
 804 00ec 1C70     		strb	r4, [r3]
1227:TP2824/TP2802.c **** 		break;
ARM GAS  C:\Users\ryanc.HS\AppData\Local\Temp\ccAQ3CYh.s 			page 47


 805              		.loc 1 1227 3 is_stmt 1 view .LVU213
 806 00ee 5C48     		ldr	r0, .L69+48
 807              	.LVL82:
1227:TP2824/TP2802.c **** 		break;
 808              		.loc 1 1227 3 is_stmt 0 view .LVU214
 809 00f0 FFF7FEFF 		bl	printf
 810              	.LVL83:
1228:TP2824/TP2802.c **** 
 811              		.loc 1 1228 3 is_stmt 1 view .LVU215
1224:TP2824/TP2802.c **** 		sys = 1;   // V1
 812              		.loc 1 1224 9 is_stmt 0 view .LVU216
 813 00f4 0925     		movs	r5, #9
1228:TP2824/TP2802.c **** 
 814              		.loc 1 1228 3 view .LVU217
 815 00f6 32E0     		b	.L35
 816              	.LVL84:
 817              	.L42:
1231:TP2824/TP2802.c **** 		sys = 1;	// V1
 818              		.loc 1 1231 3 is_stmt 1 view .LVU218
1232:TP2824/TP2802.c **** 		ManVidResRx = RES1920X1080;
 819              		.loc 1 1232 3 view .LVU219
1233:TP2824/TP2802.c **** 		printf("5M12");
 820              		.loc 1 1233 3 view .LVU220
1233:TP2824/TP2802.c **** 		printf("5M12");
 821              		.loc 1 1233 15 is_stmt 0 view .LVU221
 822 00f8 0124     		movs	r4, #1
 823 00fa 4E4B     		ldr	r3, .L69+4
 824 00fc 1C70     		strb	r4, [r3]
1234:TP2824/TP2802.c **** 		break;
 825              		.loc 1 1234 3 is_stmt 1 view .LVU222
 826 00fe 5948     		ldr	r0, .L69+52
 827              	.LVL85:
1234:TP2824/TP2802.c **** 		break;
 828              		.loc 1 1234 3 is_stmt 0 view .LVU223
 829 0100 FFF7FEFF 		bl	printf
 830              	.LVL86:
1235:TP2824/TP2802.c **** 
 831              		.loc 1 1235 3 is_stmt 1 view .LVU224
1231:TP2824/TP2802.c **** 		sys = 1;	// V1
 832              		.loc 1 1231 9 is_stmt 0 view .LVU225
 833 0104 0A25     		movs	r5, #10
1235:TP2824/TP2802.c **** 
 834              		.loc 1 1235 3 view .LVU226
 835 0106 2AE0     		b	.L35
 836              	.LVL87:
 837              	.L41:
1238:TP2824/TP2802.c **** 		sys = 1;	// V1
 838              		.loc 1 1238 3 is_stmt 1 view .LVU227
1239:TP2824/TP2802.c **** 		ManVidResRx = RES1920X1080;
 839              		.loc 1 1239 3 view .LVU228
1240:TP2824/TP2802.c **** 		printf("4M15");
 840              		.loc 1 1240 3 view .LVU229
1240:TP2824/TP2802.c **** 		printf("4M15");
 841              		.loc 1 1240 15 is_stmt 0 view .LVU230
 842 0108 0124     		movs	r4, #1
 843 010a 4A4B     		ldr	r3, .L69+4
 844 010c 1C70     		strb	r4, [r3]
ARM GAS  C:\Users\ryanc.HS\AppData\Local\Temp\ccAQ3CYh.s 			page 48


1241:TP2824/TP2802.c **** 		break;
 845              		.loc 1 1241 3 is_stmt 1 view .LVU231
 846 010e 5648     		ldr	r0, .L69+56
 847              	.LVL88:
1241:TP2824/TP2802.c **** 		break;
 848              		.loc 1 1241 3 is_stmt 0 view .LVU232
 849 0110 FFF7FEFF 		bl	printf
 850              	.LVL89:
1242:TP2824/TP2802.c **** 
 851              		.loc 1 1242 3 is_stmt 1 view .LVU233
1238:TP2824/TP2802.c **** 		sys = 1;	// V1
 852              		.loc 1 1238 9 is_stmt 0 view .LVU234
 853 0114 0D25     		movs	r5, #13
1242:TP2824/TP2802.c **** 
 854              		.loc 1 1242 3 view .LVU235
 855 0116 22E0     		b	.L35
 856              	.LVL90:
 857              	.L40:
1245:TP2824/TP2802.c **** 		sys = 1;	// V1
 858              		.loc 1 1245 3 is_stmt 1 view .LVU236
1246:TP2824/TP2802.c **** 		ManVidResRx = RES1920X1080;
 859              		.loc 1 1246 3 view .LVU237
1247:TP2824/TP2802.c **** 		printf("3M20");
 860              		.loc 1 1247 3 view .LVU238
1247:TP2824/TP2802.c **** 		printf("3M20");
 861              		.loc 1 1247 15 is_stmt 0 view .LVU239
 862 0118 0124     		movs	r4, #1
 863 011a 464B     		ldr	r3, .L69+4
 864 011c 1C70     		strb	r4, [r3]
1248:TP2824/TP2802.c **** 		break;
 865              		.loc 1 1248 3 is_stmt 1 view .LVU240
 866 011e 5348     		ldr	r0, .L69+60
 867              	.LVL91:
1248:TP2824/TP2802.c **** 		break;
 868              		.loc 1 1248 3 is_stmt 0 view .LVU241
 869 0120 FFF7FEFF 		bl	printf
 870              	.LVL92:
1249:TP2824/TP2802.c **** 
 871              		.loc 1 1249 3 is_stmt 1 view .LVU242
1245:TP2824/TP2802.c **** 		sys = 1;	// V1
 872              		.loc 1 1245 9 is_stmt 0 view .LVU243
 873 0124 0E25     		movs	r5, #14
1249:TP2824/TP2802.c **** 
 874              		.loc 1 1249 3 view .LVU244
 875 0126 1AE0     		b	.L35
 876              	.LVL93:
 877              	.L39:
1252:TP2824/TP2802.c **** 		sys = 1;	// V1
 878              		.loc 1 1252 3 is_stmt 1 view .LVU245
1253:TP2824/TP2802.c **** 		ManVidResRx = RES1920X1080;
 879              		.loc 1 1253 3 view .LVU246
1254:TP2824/TP2802.c **** 		printf("4M12");
 880              		.loc 1 1254 3 view .LVU247
1254:TP2824/TP2802.c **** 		printf("4M12");
 881              		.loc 1 1254 15 is_stmt 0 view .LVU248
 882 0128 0124     		movs	r4, #1
 883 012a 424B     		ldr	r3, .L69+4
ARM GAS  C:\Users\ryanc.HS\AppData\Local\Temp\ccAQ3CYh.s 			page 49


 884 012c 1C70     		strb	r4, [r3]
1255:TP2824/TP2802.c **** 		break;
 885              		.loc 1 1255 3 is_stmt 1 view .LVU249
 886 012e 5048     		ldr	r0, .L69+64
 887              	.LVL94:
1255:TP2824/TP2802.c **** 		break;
 888              		.loc 1 1255 3 is_stmt 0 view .LVU250
 889 0130 FFF7FEFF 		bl	printf
 890              	.LVL95:
1256:TP2824/TP2802.c **** 
 891              		.loc 1 1256 3 is_stmt 1 view .LVU251
1252:TP2824/TP2802.c **** 		sys = 1;	// V1
 892              		.loc 1 1252 9 is_stmt 0 view .LVU252
 893 0134 0F25     		movs	r5, #15
1256:TP2824/TP2802.c **** 
 894              		.loc 1 1256 3 view .LVU253
 895 0136 12E0     		b	.L35
 896              	.LVL96:
 897              	.L38:
1259:TP2824/TP2802.c **** 		sys = 1;	// V1
 898              		.loc 1 1259 3 is_stmt 1 view .LVU254
1260:TP2824/TP2802.c **** 		ManVidResRx = RES1920X1080;
 899              		.loc 1 1260 3 view .LVU255
1261:TP2824/TP2802.c **** 		printf("6M10");
 900              		.loc 1 1261 3 view .LVU256
1261:TP2824/TP2802.c **** 		printf("6M10");
 901              		.loc 1 1261 15 is_stmt 0 view .LVU257
 902 0138 0124     		movs	r4, #1
 903 013a 3E4B     		ldr	r3, .L69+4
 904 013c 1C70     		strb	r4, [r3]
1262:TP2824/TP2802.c **** 		break;
 905              		.loc 1 1262 3 is_stmt 1 view .LVU258
 906 013e 4D48     		ldr	r0, .L69+68
 907              	.LVL97:
1262:TP2824/TP2802.c **** 		break;
 908              		.loc 1 1262 3 is_stmt 0 view .LVU259
 909 0140 FFF7FEFF 		bl	printf
 910              	.LVL98:
1263:TP2824/TP2802.c **** 
 911              		.loc 1 1263 3 is_stmt 1 view .LVU260
1259:TP2824/TP2802.c **** 		sys = 1;	// V1
 912              		.loc 1 1259 9 is_stmt 0 view .LVU261
 913 0144 1025     		movs	r5, #16
1263:TP2824/TP2802.c **** 
 914              		.loc 1 1263 3 view .LVU262
 915 0146 0AE0     		b	.L35
 916              	.LVL99:
 917              	.L36:
1266:TP2824/TP2802.c **** 		sys = 1;	// V1
 918              		.loc 1 1266 3 is_stmt 1 view .LVU263
1267:TP2824/TP2802.c **** 		ManVidResRx = RES1280X720;
 919              		.loc 1 1267 3 view .LVU264
1268:TP2824/TP2802.c **** 		printf("4M30");
 920              		.loc 1 1268 3 view .LVU265
1268:TP2824/TP2802.c **** 		printf("4M30");
 921              		.loc 1 1268 15 is_stmt 0 view .LVU266
 922 0148 3A4B     		ldr	r3, .L69+4
ARM GAS  C:\Users\ryanc.HS\AppData\Local\Temp\ccAQ3CYh.s 			page 50


 923 014a 0022     		movs	r2, #0
 924 014c 1A70     		strb	r2, [r3]
1269:TP2824/TP2802.c **** 		break;
 925              		.loc 1 1269 3 is_stmt 1 view .LVU267
 926 014e 4A48     		ldr	r0, .L69+72
 927              	.LVL100:
1269:TP2824/TP2802.c **** 		break;
 928              		.loc 1 1269 3 is_stmt 0 view .LVU268
 929 0150 FFF7FEFF 		bl	printf
 930              	.LVL101:
1270:TP2824/TP2802.c **** 
 931              		.loc 1 1270 3 is_stmt 1 view .LVU269
1267:TP2824/TP2802.c **** 		ManVidResRx = RES1280X720;
 932              		.loc 1 1267 7 is_stmt 0 view .LVU270
 933 0154 0124     		movs	r4, #1
1266:TP2824/TP2802.c **** 		sys = 1;	// V1
 934              		.loc 1 1266 9 view .LVU271
 935 0156 1125     		movs	r5, #17
1270:TP2824/TP2802.c **** 
 936              		.loc 1 1270 3 view .LVU272
 937 0158 01E0     		b	.L35
 938              	.LVL102:
 939              	.L61:
1151:TP2824/TP2802.c **** 	{
 940              		.loc 1 1151 14 view .LVU273
 941 015a 0124     		movs	r4, #1
 942 015c 2546     		mov	r5, r4
 943              	.LVL103:
 944              	.L35:
1276:TP2824/TP2802.c **** 
 945              		.loc 1 1276 2 is_stmt 1 view .LVU274
 946 015e 4748     		ldr	r0, .L69+76
 947 0160 FFF7FEFF 		bl	puts
 948              	.LVL104:
1279:TP2824/TP2802.c **** 	//	printf("chip= 0x%4x\r\n",chip);
 949              		.loc 1 1279 2 view .LVU275
1279:TP2824/TP2802.c **** 	//	printf("chip= 0x%4x\r\n",chip);
 950              		.loc 1 1279 63 is_stmt 0 view .LVU276
 951 0164 4648     		ldr	r0, .L69+80
 952 0166 05EB4505 		add	r5, r5, r5, lsl #1
 953              	.LVL105:
1279:TP2824/TP2802.c **** 	//	printf("chip= 0x%4x\r\n",chip);
 954              		.loc 1 1279 2 view .LVU277
 955 016a 00EB8501 		add	r1, r0, r5, lsl #2
 956 016e FFF7FEFF 		bl	I2CDeviceSet2
 957              	.LVL106:
1281:TP2824/TP2802.c **** 	{
 958              		.loc 1 1281 2 is_stmt 1 view .LVU278
1281:TP2824/TP2802.c **** 	{
 959              		.loc 1 1281 14 is_stmt 0 view .LVU279
 960 0172 444B     		ldr	r3, .L69+84
 961 0174 1B78     		ldrb	r3, [r3]	@ zero_extendqisi2
1281:TP2824/TP2802.c **** 	{
 962              		.loc 1 1281 5 view .LVU280
 963 0176 262B     		cmp	r3, #38
 964 0178 26D0     		beq	.L63
1285:TP2824/TP2802.c **** 	{
ARM GAS  C:\Users\ryanc.HS\AppData\Local\Temp\ccAQ3CYh.s 			page 51


 965              		.loc 1 1285 7 is_stmt 1 view .LVU281
1285:TP2824/TP2802.c **** 	{
 966              		.loc 1 1285 10 is_stmt 0 view .LVU282
 967 017a 252B     		cmp	r3, #37
 968 017c 2CD0     		beq	.L64
1289:TP2824/TP2802.c **** 	{
 969              		.loc 1 1289 7 is_stmt 1 view .LVU283
1289:TP2824/TP2802.c **** 	{
 970              		.loc 1 1289 10 is_stmt 0 view .LVU284
 971 017e 242B     		cmp	r3, #36
 972 0180 32D0     		beq	.L65
 973              	.L55:
1293:TP2824/TP2802.c **** 	{
 974              		.loc 1 1293 2 is_stmt 1 view .LVU285
1293:TP2824/TP2802.c **** 	{
 975              		.loc 1 1293 13 is_stmt 0 view .LVU286
 976 0182 404B     		ldr	r3, .L69+84
 977 0184 1B78     		ldrb	r3, [r3]	@ zero_extendqisi2
1293:TP2824/TP2802.c **** 	{
 978              		.loc 1 1293 5 view .LVU287
 979 0186 2F2B     		cmp	r3, #47
 980 0188 37D0     		beq	.L66
 981              	.L57:
1298:TP2824/TP2802.c **** 	{
 982              		.loc 1 1298 2 is_stmt 1 view .LVU288
1298:TP2824/TP2802.c **** 	{
 983              		.loc 1 1298 14 is_stmt 0 view .LVU289
 984 018a 3E4B     		ldr	r3, .L69+84
 985 018c 1B78     		ldrb	r3, [r3]	@ zero_extendqisi2
1298:TP2824/TP2802.c **** 	{
 986              		.loc 1 1298 5 view .LVU290
 987 018e 272B     		cmp	r3, #39
 988 0190 3ED0     		beq	.L67
 989              	.L58:
1304:TP2824/TP2802.c **** 		tp28xx_SYSCLK_V1(ch);
 990              		.loc 1 1304 2 is_stmt 1 view .LVU291
1304:TP2824/TP2802.c **** 		tp28xx_SYSCLK_V1(ch);
 991              		.loc 1 1304 5 is_stmt 0 view .LVU292
 992 0192 012C     		cmp	r4, #1
 993 0194 47D0     		beq	.L68
1307:TP2824/TP2802.c **** 
 994              		.loc 1 1307 3 is_stmt 1 view .LVU293
 995 0196 3046     		mov	r0, r6
 996 0198 FFF7FEFF 		bl	tp28xx_SYSCLK_V2
 997              	.LVL107:
 998              	.L60:
1309:TP2824/TP2802.c **** 	tmp = tp28xx_byte_read(0x14);
 999              		.loc 1 1309 2 view .LVU294
 1000 019c 0021     		movs	r1, #0
 1001 019e 1320     		movs	r0, #19
 1002 01a0 FFF7FEFF 		bl	tp28xx_byte_write
 1003              	.LVL108:
1310:TP2824/TP2802.c **** 	tmp &= 0x9f;
 1004              		.loc 1 1310 2 view .LVU295
1310:TP2824/TP2802.c **** 	tmp &= 0x9f;
 1005              		.loc 1 1310 8 is_stmt 0 view .LVU296
 1006 01a4 1420     		movs	r0, #20
ARM GAS  C:\Users\ryanc.HS\AppData\Local\Temp\ccAQ3CYh.s 			page 52


 1007 01a6 FFF7FEFF 		bl	tp28xx_byte_read
 1008              	.LVL109:
1311:TP2824/TP2802.c **** 	tp28xx_byte_write(0x14, tmp);
 1009              		.loc 1 1311 2 is_stmt 1 view .LVU297
1312:TP2824/TP2802.c **** 
 1010              		.loc 1 1312 2 view .LVU298
 1011 01aa 00F09F01 		and	r1, r0, #159
 1012 01ae 1420     		movs	r0, #20
 1013              	.LVL110:
1312:TP2824/TP2802.c **** 
 1014              		.loc 1 1312 2 is_stmt 0 view .LVU299
 1015 01b0 FFF7FEFF 		bl	tp28xx_byte_write
 1016              	.LVL111:
1319:TP2824/TP2802.c **** 	tmp |= 0x80;
 1017              		.loc 1 1319 2 is_stmt 1 view .LVU300
1319:TP2824/TP2802.c **** 	tmp |= 0x80;
 1018              		.loc 1 1319 8 is_stmt 0 view .LVU301
 1019 01b4 0220     		movs	r0, #2
 1020 01b6 FFF7FEFF 		bl	tp28xx_byte_read
 1021              	.LVL112:
1320:TP2824/TP2802.c **** 	tp28xx_byte_write(0x02, tmp);
 1022              		.loc 1 1320 2 is_stmt 1 view .LVU302
1320:TP2824/TP2802.c **** 	tp28xx_byte_write(0x02, tmp);
 1023              		.loc 1 1320 6 is_stmt 0 view .LVU303
 1024 01ba 60F07F01 		orn	r1, r0, #127
 1025              	.LVL113:
1321:TP2824/TP2802.c **** #endif
 1026              		.loc 1 1321 2 is_stmt 1 view .LVU304
 1027 01be C9B2     		uxtb	r1, r1
1321:TP2824/TP2802.c **** #endif
 1028              		.loc 1 1321 2 is_stmt 0 view .LVU305
 1029 01c0 0220     		movs	r0, #2
 1030 01c2 FFF7FEFF 		bl	tp28xx_byte_write
 1031              	.LVL114:
1323:TP2824/TP2802.c **** 
 1032              		.loc 1 1323 1 view .LVU306
 1033 01c6 70BD     		pop	{r4, r5, r6, pc}
 1034              	.LVL115:
 1035              	.L63:
1283:TP2824/TP2802.c **** 	}
 1036              		.loc 1 1283 3 is_stmt 1 view .LVU307
1283:TP2824/TP2802.c **** 	}
 1037              		.loc 1 1283 62 is_stmt 0 view .LVU308
 1038 01c8 2F48     		ldr	r0, .L69+88
 1039 01ca 04EBC401 		add	r1, r4, r4, lsl #3
1283:TP2824/TP2802.c **** 	}
 1040              		.loc 1 1283 3 view .LVU309
 1041 01ce 00EB4101 		add	r1, r0, r1, lsl #1
 1042 01d2 FFF7FEFF 		bl	I2CDeviceSet2
 1043              	.LVL116:
 1044 01d6 D4E7     		b	.L55
 1045              	.L64:
1287:TP2824/TP2802.c **** 	}
 1046              		.loc 1 1287 3 is_stmt 1 view .LVU310
1287:TP2824/TP2802.c **** 	}
 1047              		.loc 1 1287 60 is_stmt 0 view .LVU311
 1048 01d8 2C48     		ldr	r0, .L69+92
ARM GAS  C:\Users\ryanc.HS\AppData\Local\Temp\ccAQ3CYh.s 			page 53


 1049 01da C4EBC401 		rsb	r1, r4, r4, lsl #3
1287:TP2824/TP2802.c **** 	}
 1050              		.loc 1 1287 3 view .LVU312
 1051 01de 00EB4101 		add	r1, r0, r1, lsl #1
 1052 01e2 FFF7FEFF 		bl	I2CDeviceSet2
 1053              	.LVL117:
 1054 01e6 CCE7     		b	.L55
 1055              	.L65:
1291:TP2824/TP2802.c **** 	}
 1056              		.loc 1 1291 3 is_stmt 1 view .LVU313
1291:TP2824/TP2802.c **** 	}
 1057              		.loc 1 1291 60 is_stmt 0 view .LVU314
 1058 01e8 2948     		ldr	r0, .L69+96
 1059 01ea 04EB4401 		add	r1, r4, r4, lsl #1
 1060 01ee 04EB8101 		add	r1, r4, r1, lsl #2
1291:TP2824/TP2802.c **** 	}
 1061              		.loc 1 1291 3 view .LVU315
 1062 01f2 0144     		add	r1, r1, r0
 1063 01f4 FFF7FEFF 		bl	I2CDeviceSet2
 1064              	.LVL118:
 1065 01f8 C3E7     		b	.L55
 1066              	.L66:
1295:TP2824/TP2802.c **** 		I2CDeviceSet2(TP2826_MODE_DataSet[0], TP2826_MODE_DataSet[sys]);
 1067              		.loc 1 1295 3 is_stmt 1 view .LVU316
 1068 01fa 2648     		ldr	r0, .L69+100
 1069 01fc FFF7FEFF 		bl	puts
 1070              	.LVL119:
1296:TP2824/TP2802.c **** 	}
 1071              		.loc 1 1296 3 view .LVU317
1296:TP2824/TP2802.c **** 	}
 1072              		.loc 1 1296 60 is_stmt 0 view .LVU318
 1073 0200 2548     		ldr	r0, .L69+104
 1074 0202 04EB8401 		add	r1, r4, r4, lsl #2
1296:TP2824/TP2802.c **** 	}
 1075              		.loc 1 1296 3 view .LVU319
 1076 0206 00EB8101 		add	r1, r0, r1, lsl #2
 1077 020a FFF7FEFF 		bl	I2CDeviceSet2
 1078              	.LVL120:
 1079 020e BCE7     		b	.L57
 1080              	.L67:
1300:TP2824/TP2802.c **** 		I2CDeviceSet2(TP2824C_MODE_DataSet[0], TP2824C_MODE_DataSet[sys]);
 1081              		.loc 1 1300 3 is_stmt 1 view .LVU320
 1082 0210 2248     		ldr	r0, .L69+108
 1083 0212 FFF7FEFF 		bl	puts
 1084              	.LVL121:
1301:TP2824/TP2802.c **** 	}
 1085              		.loc 1 1301 3 view .LVU321
1301:TP2824/TP2802.c **** 	}
 1086              		.loc 1 1301 62 is_stmt 0 view .LVU322
 1087 0216 2248     		ldr	r0, .L69+112
 1088 0218 04EB8401 		add	r1, r4, r4, lsl #2
1301:TP2824/TP2802.c **** 	}
 1089              		.loc 1 1301 3 view .LVU323
 1090 021c 00EB8101 		add	r1, r0, r1, lsl #2
 1091 0220 FFF7FEFF 		bl	I2CDeviceSet2
 1092              	.LVL122:
 1093 0224 B5E7     		b	.L58
ARM GAS  C:\Users\ryanc.HS\AppData\Local\Temp\ccAQ3CYh.s 			page 54


 1094              	.L68:
1305:TP2824/TP2802.c **** 	else
 1095              		.loc 1 1305 3 is_stmt 1 view .LVU324
 1096 0226 3046     		mov	r0, r6
 1097 0228 FFF7FEFF 		bl	tp28xx_SYSCLK_V1
 1098              	.LVL123:
 1099 022c B6E7     		b	.L60
 1100              	.L70:
 1101 022e 00BF     		.align	2
 1102              	.L69:
 1103 0230 00000000 		.word	mode
 1104 0234 00000000 		.word	ManVidResRx
 1105 0238 00000000 		.word	.LC0
 1106 023c 08000000 		.word	.LC1
 1107 0240 10000000 		.word	.LC2
 1108 0244 18000000 		.word	.LC3
 1109 0248 24000000 		.word	.LC4
 1110 024c 2C000000 		.word	.LC5
 1111 0250 38000000 		.word	.LC6
 1112 0254 40000000 		.word	.LC7
 1113 0258 48000000 		.word	.LC8
 1114 025c 4C000000 		.word	.LC9
 1115 0260 54000000 		.word	.LC10
 1116 0264 5C000000 		.word	.LC11
 1117 0268 64000000 		.word	.LC12
 1118 026c 6C000000 		.word	.LC13
 1119 0270 74000000 		.word	.LC14
 1120 0274 7C000000 		.word	.LC15
 1121 0278 84000000 		.word	.LC16
 1122 027c 8C000000 		.word	.LC17
 1123 0280 00000000 		.word	.LANCHOR2
 1124 0284 00000000 		.word	chip
 1125 0288 00000000 		.word	.LANCHOR3
 1126 028c 00000000 		.word	.LANCHOR4
 1127 0290 00000000 		.word	.LANCHOR5
 1128 0294 94000000 		.word	.LC18
 1129 0298 00000000 		.word	.LANCHOR6
 1130 029c A8000000 		.word	.LC19
 1131 02a0 00000000 		.word	.LANCHOR7
 1132              		.cfi_endproc
 1133              	.LFE8:
 1135              		.section	.text.Set_HDA,"ax",%progbits
 1136              		.align	1
 1137              		.global	Set_HDA
 1138              		.syntax unified
 1139              		.thumb
 1140              		.thumb_func
 1141              		.fpu softvfp
 1143              	Set_HDA:
 1144              	.LVL124:
 1145              	.LFB9:
1326:TP2824/TP2802.c **** 
 1146              		.loc 1 1326 1 view -0
 1147              		.cfi_startproc
 1148              		@ args = 0, pretend = 0, frame = 0
 1149              		@ frame_needed = 0, uses_anonymous_args = 0
1326:TP2824/TP2802.c **** 
ARM GAS  C:\Users\ryanc.HS\AppData\Local\Temp\ccAQ3CYh.s 			page 55


 1150              		.loc 1 1326 1 is_stmt 0 view .LVU326
 1151 0000 10B5     		push	{r4, lr}
 1152              	.LCFI9:
 1153              		.cfi_def_cfa_offset 8
 1154              		.cfi_offset 4, -8
 1155              		.cfi_offset 14, -4
1328:TP2824/TP2802.c **** 	index = 0;
 1156              		.loc 1 1328 2 is_stmt 1 view .LVU327
1329:TP2824/TP2802.c **** 
 1157              		.loc 1 1329 2 view .LVU328
 1158              	.LVL125:
1331:TP2824/TP2802.c **** 	{
 1159              		.loc 1 1331 2 view .LVU329
1331:TP2824/TP2802.c **** 	{
 1160              		.loc 1 1331 14 is_stmt 0 view .LVU330
 1161 0002 284B     		ldr	r3, .L90
 1162 0004 1B5C     		ldrb	r3, [r3, r0]	@ zero_extendqisi2
 1163 0006 0D2B     		cmp	r3, #13
 1164 0008 4AD8     		bhi	.L83
 1165 000a DFE803F0 		tbb	[pc, r3]
 1166              	.L74:
 1167 000e 09       		.byte	(.L78-.L74)/2
 1168 000f 07       		.byte	(.L73-.L74)/2
 1169 0010 26       		.byte	(.L77-.L74)/2
 1170 0011 24       		.byte	(.L76-.L74)/2
 1171 0012 49       		.byte	(.L83-.L74)/2
 1172 0013 49       		.byte	(.L83-.L74)/2
 1173 0014 49       		.byte	(.L83-.L74)/2
 1174 0015 49       		.byte	(.L83-.L74)/2
 1175 0016 49       		.byte	(.L83-.L74)/2
 1176 0017 49       		.byte	(.L83-.L74)/2
 1177 0018 49       		.byte	(.L83-.L74)/2
 1178 0019 49       		.byte	(.L83-.L74)/2
 1179 001a 28       		.byte	(.L84-.L74)/2
 1180 001b 07       		.byte	(.L73-.L74)/2
 1181              		.p2align 1
 1182              	.L73:
 1183 001c 0224     		movs	r4, #2
 1184 001e 00E0     		b	.L75
 1185              	.L78:
1342:TP2824/TP2802.c **** 		break;
 1186              		.loc 1 1342 3 is_stmt 1 view .LVU331
 1187              	.LVL126:
1343:TP2824/TP2802.c **** 	case R720P30V2:
 1188              		.loc 1 1343 3 view .LVU332
1353:TP2824/TP2802.c **** 	{
 1189              		.loc 1 1353 2 view .LVU333
1342:TP2824/TP2802.c **** 		break;
 1190              		.loc 1 1342 9 is_stmt 0 view .LVU334
 1191 0020 0524     		movs	r4, #5
 1192              	.LVL127:
 1193              	.L75:
1355:TP2824/TP2802.c **** 
 1194              		.loc 1 1355 3 is_stmt 1 view .LVU335
 1195 0022 FFF7FEFF 		bl	Set_VidRes
 1196              	.LVL128:
1357:TP2824/TP2802.c **** 		{
ARM GAS  C:\Users\ryanc.HS\AppData\Local\Temp\ccAQ3CYh.s 			page 56


 1197              		.loc 1 1357 3 view .LVU336
1357:TP2824/TP2802.c **** 		{
 1198              		.loc 1 1357 15 is_stmt 0 view .LVU337
 1199 0026 204B     		ldr	r3, .L90+4
 1200 0028 1B78     		ldrb	r3, [r3]	@ zero_extendqisi2
1357:TP2824/TP2802.c **** 		{
 1201              		.loc 1 1357 6 view .LVU338
 1202 002a 262B     		cmp	r3, #38
 1203 002c 19D0     		beq	.L86
1361:TP2824/TP2802.c **** 		{
 1204              		.loc 1 1361 8 is_stmt 1 view .LVU339
1361:TP2824/TP2802.c **** 		{
 1205              		.loc 1 1361 27 is_stmt 0 view .LVU340
 1206 002e A3F12402 		sub	r2, r3, #36
 1207 0032 D2B2     		uxtb	r2, r2
1361:TP2824/TP2802.c **** 		{
 1208              		.loc 1 1361 11 view .LVU341
 1209 0034 012A     		cmp	r2, #1
 1210 0036 1CD9     		bls	.L87
1365:TP2824/TP2802.c **** 		{
 1211              		.loc 1 1365 8 is_stmt 1 view .LVU342
1365:TP2824/TP2802.c **** 		{
 1212              		.loc 1 1365 11 is_stmt 0 view .LVU343
 1213 0038 2F2B     		cmp	r3, #47
 1214 003a 20D0     		beq	.L88
1369:TP2824/TP2802.c **** 		{
 1215              		.loc 1 1369 8 is_stmt 1 view .LVU344
1369:TP2824/TP2802.c **** 		{
 1216              		.loc 1 1369 11 is_stmt 0 view .LVU345
 1217 003c 272B     		cmp	r3, #39
 1218 003e 26D0     		beq	.L89
 1219              	.L80:
1373:TP2824/TP2802.c **** 		tmp |= 0x40;
 1220              		.loc 1 1373 3 is_stmt 1 view .LVU346
1373:TP2824/TP2802.c **** 		tmp |= 0x40;
 1221              		.loc 1 1373 9 is_stmt 0 view .LVU347
 1222 0040 1420     		movs	r0, #20
 1223 0042 FFF7FEFF 		bl	tp28xx_byte_read
 1224              	.LVL129:
1374:TP2824/TP2802.c **** 		tp28xx_byte_write(0x14, tmp);
 1225              		.loc 1 1374 3 is_stmt 1 view .LVU348
1374:TP2824/TP2802.c **** 		tp28xx_byte_write(0x14, tmp);
 1226              		.loc 1 1374 7 is_stmt 0 view .LVU349
 1227 0046 40F04001 		orr	r1, r0, #64
 1228              	.LVL130:
1375:TP2824/TP2802.c **** 	}
 1229              		.loc 1 1375 3 is_stmt 1 view .LVU350
 1230 004a C9B2     		uxtb	r1, r1
1375:TP2824/TP2802.c **** 	}
 1231              		.loc 1 1375 3 is_stmt 0 view .LVU351
 1232 004c 1420     		movs	r0, #20
 1233 004e FFF7FEFF 		bl	tp28xx_byte_write
 1234              	.LVL131:
 1235              	.L72:
1377:TP2824/TP2802.c **** }
 1236              		.loc 1 1377 2 is_stmt 1 view .LVU352
1378:TP2824/TP2802.c **** 
ARM GAS  C:\Users\ryanc.HS\AppData\Local\Temp\ccAQ3CYh.s 			page 57


 1237              		.loc 1 1378 1 is_stmt 0 view .LVU353
 1238 0052 2046     		mov	r0, r4
 1239 0054 10BD     		pop	{r4, pc}
 1240              	.LVL132:
 1241              	.L76:
1338:TP2824/TP2802.c **** 		break;
 1242              		.loc 1 1338 3 is_stmt 1 view .LVU354
1339:TP2824/TP2802.c **** 
 1243              		.loc 1 1339 3 view .LVU355
1353:TP2824/TP2802.c **** 	{
 1244              		.loc 1 1353 2 view .LVU356
1338:TP2824/TP2802.c **** 		break;
 1245              		.loc 1 1338 9 is_stmt 0 view .LVU357
 1246 0056 0424     		movs	r4, #4
 1247 0058 E3E7     		b	.L75
 1248              	.LVL133:
 1249              	.L77:
1334:TP2824/TP2802.c **** 		break;
 1250              		.loc 1 1334 3 is_stmt 1 view .LVU358
1335:TP2824/TP2802.c **** 
 1251              		.loc 1 1335 3 view .LVU359
1353:TP2824/TP2802.c **** 	{
 1252              		.loc 1 1353 2 view .LVU360
1334:TP2824/TP2802.c **** 		break;
 1253              		.loc 1 1334 9 is_stmt 0 view .LVU361
 1254 005a 0324     		movs	r4, #3
 1255 005c E1E7     		b	.L75
 1256              	.LVL134:
 1257              	.L84:
1345:TP2824/TP2802.c **** 		break;
 1258              		.loc 1 1345 9 view .LVU362
 1259 005e 0124     		movs	r4, #1
 1260 0060 DFE7     		b	.L75
 1261              	.LVL135:
 1262              	.L86:
1359:TP2824/TP2802.c **** 		}
 1263              		.loc 1 1359 4 is_stmt 1 view .LVU363
1359:TP2824/TP2802.c **** 		}
 1264              		.loc 1 1359 61 is_stmt 0 view .LVU364
 1265 0062 1248     		ldr	r0, .L90+8
 1266 0064 04EB8401 		add	r1, r4, r4, lsl #2
1359:TP2824/TP2802.c **** 		}
 1267              		.loc 1 1359 4 view .LVU365
 1268 0068 00EB4101 		add	r1, r0, r1, lsl #1
 1269 006c FFF7FEFF 		bl	I2CDeviceSet2
 1270              	.LVL136:
 1271 0070 E6E7     		b	.L80
 1272              	.L87:
1363:TP2824/TP2802.c **** 		}
 1273              		.loc 1 1363 4 is_stmt 1 view .LVU366
1363:TP2824/TP2802.c **** 		}
 1274              		.loc 1 1363 59 is_stmt 0 view .LVU367
 1275 0072 0F48     		ldr	r0, .L90+12
1363:TP2824/TP2802.c **** 		}
 1276              		.loc 1 1363 4 view .LVU368
 1277 0074 00EBC401 		add	r1, r0, r4, lsl #3
 1278 0078 FFF7FEFF 		bl	I2CDeviceSet2
ARM GAS  C:\Users\ryanc.HS\AppData\Local\Temp\ccAQ3CYh.s 			page 58


 1279              	.LVL137:
 1280 007c E0E7     		b	.L80
 1281              	.L88:
1367:TP2824/TP2802.c **** 		}
 1282              		.loc 1 1367 4 is_stmt 1 view .LVU369
1367:TP2824/TP2802.c **** 		}
 1283              		.loc 1 1367 59 is_stmt 0 view .LVU370
 1284 007e 0D48     		ldr	r0, .L90+16
 1285 0080 04EB4401 		add	r1, r4, r4, lsl #1
1367:TP2824/TP2802.c **** 		}
 1286              		.loc 1 1367 4 view .LVU371
 1287 0084 00EB8101 		add	r1, r0, r1, lsl #2
 1288 0088 FFF7FEFF 		bl	I2CDeviceSet2
 1289              	.LVL138:
 1290 008c D8E7     		b	.L80
 1291              	.L89:
1371:TP2824/TP2802.c **** 		}
 1292              		.loc 1 1371 4 is_stmt 1 view .LVU372
1371:TP2824/TP2802.c **** 		}
 1293              		.loc 1 1371 61 is_stmt 0 view .LVU373
 1294 008e 0A48     		ldr	r0, .L90+20
 1295 0090 04EB4401 		add	r1, r4, r4, lsl #1
 1296 0094 04EB8101 		add	r1, r4, r1, lsl #2
1371:TP2824/TP2802.c **** 		}
 1297              		.loc 1 1371 4 view .LVU374
 1298 0098 0144     		add	r1, r1, r0
 1299 009a FFF7FEFF 		bl	I2CDeviceSet2
 1300              	.LVL139:
 1301 009e CFE7     		b	.L80
 1302              	.LVL140:
 1303              	.L83:
1331:TP2824/TP2802.c **** 	{
 1304              		.loc 1 1331 14 view .LVU375
 1305 00a0 0024     		movs	r4, #0
 1306 00a2 D6E7     		b	.L72
 1307              	.L91:
 1308              		.align	2
 1309              	.L90:
 1310 00a4 00000000 		.word	mode
 1311 00a8 00000000 		.word	chip
 1312 00ac 00000000 		.word	.LANCHOR8
 1313 00b0 00000000 		.word	.LANCHOR9
 1314 00b4 00000000 		.word	.LANCHOR10
 1315 00b8 00000000 		.word	.LANCHOR11
 1316              		.cfi_endproc
 1317              	.LFE9:
 1319              		.section	.text.Set_HDC,"ax",%progbits
 1320              		.align	1
 1321              		.global	Set_HDC
 1322              		.syntax unified
 1323              		.thumb
 1324              		.thumb_func
 1325              		.fpu softvfp
 1327              	Set_HDC:
 1328              	.LVL141:
 1329              	.LFB10:
1381:TP2824/TP2802.c **** 
ARM GAS  C:\Users\ryanc.HS\AppData\Local\Temp\ccAQ3CYh.s 			page 59


 1330              		.loc 1 1381 1 is_stmt 1 view -0
 1331              		.cfi_startproc
 1332              		@ args = 0, pretend = 0, frame = 0
 1333              		@ frame_needed = 0, uses_anonymous_args = 0
1381:TP2824/TP2802.c **** 
 1334              		.loc 1 1381 1 is_stmt 0 view .LVU377
 1335 0000 10B5     		push	{r4, lr}
 1336              	.LCFI10:
 1337              		.cfi_def_cfa_offset 8
 1338              		.cfi_offset 4, -8
 1339              		.cfi_offset 14, -4
1383:TP2824/TP2802.c **** 
 1340              		.loc 1 1383 2 is_stmt 1 view .LVU378
1385:TP2824/TP2802.c **** 
 1341              		.loc 1 1385 2 view .LVU379
 1342              	.LVL142:
1387:TP2824/TP2802.c **** 	{
 1343              		.loc 1 1387 2 view .LVU380
1387:TP2824/TP2802.c **** 	{
 1344              		.loc 1 1387 14 is_stmt 0 view .LVU381
 1345 0002 264B     		ldr	r3, .L110
 1346 0004 1B5C     		ldrb	r3, [r3, r0]	@ zero_extendqisi2
 1347 0006 0D2B     		cmp	r3, #13
 1348 0008 46D8     		bhi	.L103
 1349 000a DFE803F0 		tbb	[pc, r3]
 1350              	.L95:
 1351 000e 0D       		.byte	(.L104-.L95)/2
 1352 000f 07       		.byte	(.L94-.L95)/2
 1353 0010 0B       		.byte	(.L98-.L95)/2
 1354 0011 09       		.byte	(.L97-.L95)/2
 1355 0012 45       		.byte	(.L103-.L95)/2
 1356 0013 45       		.byte	(.L103-.L95)/2
 1357 0014 45       		.byte	(.L103-.L95)/2
 1358 0015 45       		.byte	(.L103-.L95)/2
 1359 0016 45       		.byte	(.L103-.L95)/2
 1360 0017 45       		.byte	(.L103-.L95)/2
 1361 0018 45       		.byte	(.L103-.L95)/2
 1362 0019 45       		.byte	(.L103-.L95)/2
 1363 001a 0D       		.byte	(.L104-.L95)/2
 1364 001b 07       		.byte	(.L94-.L95)/2
 1365              		.p2align 1
 1366              	.L94:
 1367 001c 0224     		movs	r4, #2
 1368 001e 04E0     		b	.L96
 1369              	.L97:
1395:TP2824/TP2802.c **** 		break;
 1370              		.loc 1 1395 3 is_stmt 1 view .LVU382
 1371              	.LVL143:
1396:TP2824/TP2802.c **** 
 1372              		.loc 1 1396 3 view .LVU383
1408:TP2824/TP2802.c **** 	{
 1373              		.loc 1 1408 2 view .LVU384
1395:TP2824/TP2802.c **** 		break;
 1374              		.loc 1 1395 9 is_stmt 0 view .LVU385
 1375 0020 0424     		movs	r4, #4
 1376 0022 02E0     		b	.L96
 1377              	.LVL144:
ARM GAS  C:\Users\ryanc.HS\AppData\Local\Temp\ccAQ3CYh.s 			page 60


 1378              	.L98:
1391:TP2824/TP2802.c **** 		break;
 1379              		.loc 1 1391 3 is_stmt 1 view .LVU386
1392:TP2824/TP2802.c **** 
 1380              		.loc 1 1392 3 view .LVU387
1408:TP2824/TP2802.c **** 	{
 1381              		.loc 1 1408 2 view .LVU388
1391:TP2824/TP2802.c **** 		break;
 1382              		.loc 1 1391 9 is_stmt 0 view .LVU389
 1383 0024 0324     		movs	r4, #3
 1384 0026 00E0     		b	.L96
 1385              	.LVL145:
 1386              	.L104:
1400:TP2824/TP2802.c **** 		break;
 1387              		.loc 1 1400 9 view .LVU390
 1388 0028 0124     		movs	r4, #1
 1389              	.LVL146:
 1390              	.L96:
1410:TP2824/TP2802.c **** 
 1391              		.loc 1 1410 3 is_stmt 1 view .LVU391
 1392 002a FFF7FEFF 		bl	Set_VidRes
 1393              	.LVL147:
1412:TP2824/TP2802.c **** 		{
 1394              		.loc 1 1412 3 view .LVU392
1412:TP2824/TP2802.c **** 		{
 1395              		.loc 1 1412 15 is_stmt 0 view .LVU393
 1396 002e 1C4B     		ldr	r3, .L110+4
 1397 0030 1B78     		ldrb	r3, [r3]	@ zero_extendqisi2
1412:TP2824/TP2802.c **** 		{
 1398              		.loc 1 1412 6 view .LVU394
 1399 0032 262B     		cmp	r3, #38
 1400 0034 0ED0     		beq	.L106
1416:TP2824/TP2802.c **** 		{
 1401              		.loc 1 1416 8 is_stmt 1 view .LVU395
1416:TP2824/TP2802.c **** 		{
 1402              		.loc 1 1416 27 is_stmt 0 view .LVU396
 1403 0036 A3F12402 		sub	r2, r3, #36
 1404 003a D2B2     		uxtb	r2, r2
1416:TP2824/TP2802.c **** 		{
 1405              		.loc 1 1416 11 view .LVU397
 1406 003c 012A     		cmp	r2, #1
 1407 003e 12D9     		bls	.L107
1420:TP2824/TP2802.c **** 		{
 1408              		.loc 1 1420 8 is_stmt 1 view .LVU398
1420:TP2824/TP2802.c **** 		{
 1409              		.loc 1 1420 11 is_stmt 0 view .LVU399
 1410 0040 2F2B     		cmp	r3, #47
 1411 0042 19D0     		beq	.L108
1424:TP2824/TP2802.c **** 		{
 1412              		.loc 1 1424 8 is_stmt 1 view .LVU400
1424:TP2824/TP2802.c **** 		{
 1413              		.loc 1 1424 11 is_stmt 0 view .LVU401
 1414 0044 272B     		cmp	r3, #39
 1415 0046 1FD0     		beq	.L109
 1416              	.L100:
1428:TP2824/TP2802.c **** 	}
 1417              		.loc 1 1428 3 is_stmt 1 view .LVU402
ARM GAS  C:\Users\ryanc.HS\AppData\Local\Temp\ccAQ3CYh.s 			page 61


 1418 0048 4021     		movs	r1, #64
 1419 004a 1320     		movs	r0, #19
 1420 004c FFF7FEFF 		bl	tp28xx_byte_write
 1421              	.LVL148:
 1422              	.L93:
1430:TP2824/TP2802.c **** }
 1423              		.loc 1 1430 2 view .LVU403
1431:TP2824/TP2802.c **** 
 1424              		.loc 1 1431 1 is_stmt 0 view .LVU404
 1425 0050 2046     		mov	r0, r4
 1426 0052 10BD     		pop	{r4, pc}
 1427              	.L106:
1414:TP2824/TP2802.c **** 		}
 1428              		.loc 1 1414 4 is_stmt 1 view .LVU405
1414:TP2824/TP2802.c **** 		}
 1429              		.loc 1 1414 61 is_stmt 0 view .LVU406
 1430 0054 1348     		ldr	r0, .L110+8
 1431 0056 04EB4401 		add	r1, r4, r4, lsl #1
 1432 005a 04EB8101 		add	r1, r4, r1, lsl #2
1414:TP2824/TP2802.c **** 		}
 1433              		.loc 1 1414 4 view .LVU407
 1434 005e 0144     		add	r1, r1, r0
 1435 0060 FFF7FEFF 		bl	I2CDeviceSet2
 1436              	.LVL149:
 1437 0064 F0E7     		b	.L100
 1438              	.L107:
1418:TP2824/TP2802.c **** 		}
 1439              		.loc 1 1418 4 is_stmt 1 view .LVU408
1418:TP2824/TP2802.c **** 		}
 1440              		.loc 1 1418 61 is_stmt 0 view .LVU409
 1441 0066 0F48     		ldr	r0, .L110+8
 1442 0068 04EB4401 		add	r1, r4, r4, lsl #1
 1443 006c 04EB8101 		add	r1, r4, r1, lsl #2
1418:TP2824/TP2802.c **** 		}
 1444              		.loc 1 1418 4 view .LVU410
 1445 0070 0144     		add	r1, r1, r0
 1446 0072 FFF7FEFF 		bl	I2CDeviceSet2
 1447              	.LVL150:
 1448 0076 E7E7     		b	.L100
 1449              	.L108:
1422:TP2824/TP2802.c **** 		}
 1450              		.loc 1 1422 4 is_stmt 1 view .LVU411
1422:TP2824/TP2802.c **** 		}
 1451              		.loc 1 1422 59 is_stmt 0 view .LVU412
 1452 0078 0B48     		ldr	r0, .L110+12
 1453 007a 04EB8401 		add	r1, r4, r4, lsl #2
1422:TP2824/TP2802.c **** 		}
 1454              		.loc 1 1422 4 view .LVU413
 1455 007e 00EB8101 		add	r1, r0, r1, lsl #2
 1456 0082 FFF7FEFF 		bl	I2CDeviceSet2
 1457              	.LVL151:
 1458 0086 DFE7     		b	.L100
 1459              	.L109:
1426:TP2824/TP2802.c **** 		}
 1460              		.loc 1 1426 4 is_stmt 1 view .LVU414
1426:TP2824/TP2802.c **** 		}
 1461              		.loc 1 1426 61 is_stmt 0 view .LVU415
ARM GAS  C:\Users\ryanc.HS\AppData\Local\Temp\ccAQ3CYh.s 			page 62


 1462 0088 0848     		ldr	r0, .L110+16
 1463 008a 04EB8401 		add	r1, r4, r4, lsl #2
1426:TP2824/TP2802.c **** 		}
 1464              		.loc 1 1426 4 view .LVU416
 1465 008e 00EB8101 		add	r1, r0, r1, lsl #2
 1466 0092 FFF7FEFF 		bl	I2CDeviceSet2
 1467              	.LVL152:
 1468 0096 D7E7     		b	.L100
 1469              	.LVL153:
 1470              	.L103:
1387:TP2824/TP2802.c **** 	{
 1471              		.loc 1 1387 14 view .LVU417
 1472 0098 0024     		movs	r4, #0
 1473 009a D9E7     		b	.L93
 1474              	.L111:
 1475              		.align	2
 1476              	.L110:
 1477 009c 00000000 		.word	mode
 1478 00a0 00000000 		.word	chip
 1479 00a4 00000000 		.word	.LANCHOR12
 1480 00a8 00000000 		.word	.LANCHOR13
 1481 00ac 00000000 		.word	.LANCHOR14
 1482              		.cfi_endproc
 1483              	.LFE10:
 1485              		.section	.rodata.Det_VidRes.str1.4,"aMS",%progbits,1
 1486              		.align	2
 1487              	.LC20:
 1488 0000 0D0A4E2F 		.ascii	"\015\012N/P detected\000"
 1488      50206465 
 1488      74656374 
 1488      656400
 1489 000f 00       		.align	2
 1490              	.LC21:
 1491 0010 0D0A4E6F 		.ascii	"\015\012No res detect...\000"
 1491      20726573 
 1491      20646574 
 1491      6563742E 
 1491      2E2E00
 1492              		.section	.text.Det_VidRes,"ax",%progbits
 1493              		.align	1
 1494              		.global	Det_VidRes
 1495              		.syntax unified
 1496              		.thumb
 1497              		.thumb_func
 1498              		.fpu softvfp
 1500              	Det_VidRes:
 1501              	.LFB11:
1434:TP2824/TP2802.c **** 	tByte CVSTD;
 1502              		.loc 1 1434 1 is_stmt 1 view -0
 1503              		.cfi_startproc
 1504              		@ args = 0, pretend = 0, frame = 0
 1505              		@ frame_needed = 0, uses_anonymous_args = 0
 1506 0000 10B5     		push	{r4, lr}
 1507              	.LCFI11:
 1508              		.cfi_def_cfa_offset 8
 1509              		.cfi_offset 4, -8
 1510              		.cfi_offset 14, -4
ARM GAS  C:\Users\ryanc.HS\AppData\Local\Temp\ccAQ3CYh.s 			page 63


1435:TP2824/TP2802.c **** 	tByte RES;
 1511              		.loc 1 1435 2 view .LVU419
1436:TP2824/TP2802.c **** 
 1512              		.loc 1 1436 2 view .LVU420
1438:TP2824/TP2802.c **** 
 1513              		.loc 1 1438 2 view .LVU421
1438:TP2824/TP2802.c **** 
 1514              		.loc 1 1438 10 is_stmt 0 view .LVU422
 1515 0002 0320     		movs	r0, #3
 1516 0004 FFF7FEFF 		bl	tp28xx_byte_read
 1517              	.LVL154:
1438:TP2824/TP2802.c **** 
 1518              		.loc 1 1438 8 view .LVU423
 1519 0008 00F00704 		and	r4, r0, #7
 1520              	.LVL155:
1440:TP2824/TP2802.c **** 	{
 1521              		.loc 1 1440 2 is_stmt 1 view .LVU424
 1522 000c 062C     		cmp	r4, #6
 1523 000e 0AD8     		bhi	.L113
 1524 0010 DFE804F0 		tbb	[pc, r4]
 1525              	.L115:
 1526 0014 07       		.byte	(.L116-.L115)/2
 1527 0015 07       		.byte	(.L116-.L115)/2
 1528 0016 07       		.byte	(.L116-.L115)/2
 1529 0017 07       		.byte	(.L116-.L115)/2
 1530 0018 07       		.byte	(.L116-.L115)/2
 1531 0019 07       		.byte	(.L116-.L115)/2
 1532 001a 04       		.byte	(.L114-.L115)/2
 1533 001b 00       		.p2align 1
 1534              	.L114:
1462:TP2824/TP2802.c **** 		RES = NTPAL;
 1535              		.loc 1 1462 3 view .LVU425
 1536 001c 0448     		ldr	r0, .L118
 1537 001e FFF7FEFF 		bl	printf
 1538              	.LVL156:
1463:TP2824/TP2802.c **** 		break;
 1539              		.loc 1 1463 3 view .LVU426
1464:TP2824/TP2802.c **** 	default:
 1540              		.loc 1 1464 3 view .LVU427
 1541              	.L116:
1471:TP2824/TP2802.c **** }
 1542              		.loc 1 1471 2 view .LVU428
1472:TP2824/TP2802.c **** tByte Det_VideoLoss(tByte ch)
 1543              		.loc 1 1472 1 is_stmt 0 view .LVU429
 1544 0022 2046     		mov	r0, r4
 1545 0024 10BD     		pop	{r4, pc}
 1546              	.LVL157:
 1547              	.L113:
1466:TP2824/TP2802.c **** 		RES = NoDet;
 1548              		.loc 1 1466 3 is_stmt 1 view .LVU430
 1549 0026 0348     		ldr	r0, .L118+4
 1550 0028 FFF7FEFF 		bl	printf
 1551              	.LVL158:
1467:TP2824/TP2802.c **** 		break;
 1552              		.loc 1 1467 3 view .LVU431
1468:TP2824/TP2802.c **** 	}
 1553              		.loc 1 1468 3 view .LVU432
ARM GAS  C:\Users\ryanc.HS\AppData\Local\Temp\ccAQ3CYh.s 			page 64


1467:TP2824/TP2802.c **** 		break;
 1554              		.loc 1 1467 7 is_stmt 0 view .LVU433
 1555 002c 0724     		movs	r4, #7
 1556              	.LVL159:
1468:TP2824/TP2802.c **** 	}
 1557              		.loc 1 1468 3 view .LVU434
 1558 002e F8E7     		b	.L116
 1559              	.L119:
 1560              		.align	2
 1561              	.L118:
 1562 0030 00000000 		.word	.LC20
 1563 0034 10000000 		.word	.LC21
 1564              		.cfi_endproc
 1565              	.LFE11:
 1567              		.section	.rodata.Det_VideoLoss.str1.4,"aMS",%progbits,1
 1568              		.align	2
 1569              	.LC22:
 1570 0000 4E6F2000 		.ascii	"No \000"
 1571              		.align	2
 1572              	.LC23:
 1573 0004 76696465 		.ascii	"video detected\000"
 1573      6F206465 
 1573      74656374 
 1573      656400
 1574              		.section	.text.Det_VideoLoss,"ax",%progbits
 1575              		.align	1
 1576              		.global	Det_VideoLoss
 1577              		.syntax unified
 1578              		.thumb
 1579              		.thumb_func
 1580              		.fpu softvfp
 1582              	Det_VideoLoss:
 1583              	.LVL160:
 1584              	.LFB12:
1474:TP2824/TP2802.c **** 
 1585              		.loc 1 1474 1 is_stmt 1 view -0
 1586              		.cfi_startproc
 1587              		@ args = 0, pretend = 0, frame = 0
 1588              		@ frame_needed = 0, uses_anonymous_args = 0
1474:TP2824/TP2802.c **** 
 1589              		.loc 1 1474 1 is_stmt 0 view .LVU436
 1590 0000 10B5     		push	{r4, lr}
 1591              	.LCFI12:
 1592              		.cfi_def_cfa_offset 8
 1593              		.cfi_offset 4, -8
 1594              		.cfi_offset 14, -4
1476:TP2824/TP2802.c **** 
 1595              		.loc 1 1476 2 is_stmt 1 view .LVU437
1478:TP2824/TP2802.c **** 	VDLOSS = tp28xx_byte_read(0x01);
 1596              		.loc 1 1478 2 view .LVU438
 1597 0002 00F00301 		and	r1, r0, #3
 1598 0006 4020     		movs	r0, #64
 1599              	.LVL161:
1478:TP2824/TP2802.c **** 	VDLOSS = tp28xx_byte_read(0x01);
 1600              		.loc 1 1478 2 is_stmt 0 view .LVU439
 1601 0008 FFF7FEFF 		bl	tp28xx_byte_write
 1602              	.LVL162:
ARM GAS  C:\Users\ryanc.HS\AppData\Local\Temp\ccAQ3CYh.s 			page 65


1479:TP2824/TP2802.c **** 	//	printf("video status 0x%02x on ch%01x\r\n",(tWord)VDLOSS,(tWord)ch);
 1603              		.loc 1 1479 2 is_stmt 1 view .LVU440
1479:TP2824/TP2802.c **** 	//	printf("video status 0x%02x on ch%01x\r\n",(tWord)VDLOSS,(tWord)ch);
 1604              		.loc 1 1479 11 is_stmt 0 view .LVU441
 1605 000c 0120     		movs	r0, #1
 1606 000e FFF7FEFF 		bl	tp28xx_byte_read
 1607              	.LVL163:
1482:TP2824/TP2802.c **** 		printf("No ");
 1608              		.loc 1 1482 2 is_stmt 1 view .LVU442
1482:TP2824/TP2802.c **** 		printf("No ");
 1609              		.loc 1 1482 5 is_stmt 0 view .LVU443
 1610 0012 0446     		mov	r4, r0
 1611 0014 28B9     		cbnz	r0, .L123
 1612              	.LVL164:
 1613              	.L121:
1485:TP2824/TP2802.c **** 
 1614              		.loc 1 1485 2 is_stmt 1 view .LVU444
 1615 0016 0548     		ldr	r0, .L124
 1616 0018 FFF7FEFF 		bl	printf
 1617              	.LVL165:
1487:TP2824/TP2802.c **** 	return VDLOSS;
 1618              		.loc 1 1487 2 view .LVU445
1488:TP2824/TP2802.c **** }
 1619              		.loc 1 1488 2 view .LVU446
1489:TP2824/TP2802.c **** 
 1620              		.loc 1 1489 1 is_stmt 0 view .LVU447
 1621 001c C4F3C710 		ubfx	r0, r4, #7, #8
 1622 0020 10BD     		pop	{r4, pc}
 1623              	.LVL166:
 1624              	.L123:
1483:TP2824/TP2802.c **** 
 1625              		.loc 1 1483 3 is_stmt 1 view .LVU448
 1626 0022 0348     		ldr	r0, .L124+4
 1627              	.LVL167:
1483:TP2824/TP2802.c **** 
 1628              		.loc 1 1483 3 is_stmt 0 view .LVU449
 1629 0024 FFF7FEFF 		bl	printf
 1630              	.LVL168:
 1631 0028 F5E7     		b	.L121
 1632              	.L125:
 1633 002a 00BF     		.align	2
 1634              	.L124:
 1635 002c 04000000 		.word	.LC23
 1636 0030 00000000 		.word	.LC22
 1637              		.cfi_endproc
 1638              	.LFE12:
 1640              		.section	.rodata.ManualAGC.str1.4,"aMS",%progbits,1
 1641              		.align	2
 1642              	.LC24:
 1643 0000 72657375 		.ascii	"result AGC=0X%04x ch%02X\015\012\000"
 1643      6C742041 
 1643      47433D30 
 1643      58253034 
 1643      78206368 
 1644              		.section	.text.ManualAGC,"ax",%progbits
 1645              		.align	1
 1646              		.global	ManualAGC
ARM GAS  C:\Users\ryanc.HS\AppData\Local\Temp\ccAQ3CYh.s 			page 66


 1647              		.syntax unified
 1648              		.thumb
 1649              		.thumb_func
 1650              		.fpu softvfp
 1652              	ManualAGC:
 1653              	.LVL169:
 1654              	.LFB13:
1492:TP2824/TP2802.c **** 	unsigned int agc;
 1655              		.loc 1 1492 1 is_stmt 1 view -0
 1656              		.cfi_startproc
 1657              		@ args = 0, pretend = 0, frame = 0
 1658              		@ frame_needed = 0, uses_anonymous_args = 0
1492:TP2824/TP2802.c **** 	unsigned int agc;
 1659              		.loc 1 1492 1 is_stmt 0 view .LVU451
 1660 0000 38B5     		push	{r3, r4, r5, lr}
 1661              	.LCFI13:
 1662              		.cfi_def_cfa_offset 16
 1663              		.cfi_offset 3, -16
 1664              		.cfi_offset 4, -12
 1665              		.cfi_offset 5, -8
 1666              		.cfi_offset 14, -4
 1667 0002 0546     		mov	r5, r0
1493:TP2824/TP2802.c **** 	unsigned char tmp;
 1668              		.loc 1 1493 2 is_stmt 1 view .LVU452
1494:TP2824/TP2802.c **** 	// unsigned int i;
 1669              		.loc 1 1494 2 view .LVU453
1497:TP2824/TP2802.c **** 	agc = tp28xx_byte_read(0x04);
 1670              		.loc 1 1497 2 view .LVU454
 1671 0004 0221     		movs	r1, #2
 1672 0006 2F20     		movs	r0, #47
 1673              	.LVL170:
1497:TP2824/TP2802.c **** 	agc = tp28xx_byte_read(0x04);
 1674              		.loc 1 1497 2 is_stmt 0 view .LVU455
 1675 0008 FFF7FEFF 		bl	tp28xx_byte_write
 1676              	.LVL171:
1498:TP2824/TP2802.c **** 	agc += tp28xx_byte_read(0x04);
 1677              		.loc 1 1498 2 is_stmt 1 view .LVU456
1498:TP2824/TP2802.c **** 	agc += tp28xx_byte_read(0x04);
 1678              		.loc 1 1498 8 is_stmt 0 view .LVU457
 1679 000c 0420     		movs	r0, #4
 1680 000e FFF7FEFF 		bl	tp28xx_byte_read
 1681              	.LVL172:
 1682 0012 0446     		mov	r4, r0
 1683              	.LVL173:
1499:TP2824/TP2802.c **** 	agc += tp28xx_byte_read(0x04);
 1684              		.loc 1 1499 2 is_stmt 1 view .LVU458
1499:TP2824/TP2802.c **** 	agc += tp28xx_byte_read(0x04);
 1685              		.loc 1 1499 9 is_stmt 0 view .LVU459
 1686 0014 0420     		movs	r0, #4
 1687              	.LVL174:
1499:TP2824/TP2802.c **** 	agc += tp28xx_byte_read(0x04);
 1688              		.loc 1 1499 9 view .LVU460
 1689 0016 FFF7FEFF 		bl	tp28xx_byte_read
 1690              	.LVL175:
1499:TP2824/TP2802.c **** 	agc += tp28xx_byte_read(0x04);
 1691              		.loc 1 1499 6 view .LVU461
 1692 001a 0444     		add	r4, r4, r0
ARM GAS  C:\Users\ryanc.HS\AppData\Local\Temp\ccAQ3CYh.s 			page 67


 1693              	.LVL176:
1500:TP2824/TP2802.c **** 	agc += tp28xx_byte_read(0x04);
 1694              		.loc 1 1500 2 is_stmt 1 view .LVU462
1500:TP2824/TP2802.c **** 	agc += tp28xx_byte_read(0x04);
 1695              		.loc 1 1500 9 is_stmt 0 view .LVU463
 1696 001c 0420     		movs	r0, #4
 1697 001e FFF7FEFF 		bl	tp28xx_byte_read
 1698              	.LVL177:
1500:TP2824/TP2802.c **** 	agc += tp28xx_byte_read(0x04);
 1699              		.loc 1 1500 6 view .LVU464
 1700 0022 0444     		add	r4, r4, r0
 1701              	.LVL178:
1501:TP2824/TP2802.c **** 	agc &= 0x3f0;
 1702              		.loc 1 1501 2 is_stmt 1 view .LVU465
1501:TP2824/TP2802.c **** 	agc &= 0x3f0;
 1703              		.loc 1 1501 9 is_stmt 0 view .LVU466
 1704 0024 0420     		movs	r0, #4
 1705 0026 FFF7FEFF 		bl	tp28xx_byte_read
 1706              	.LVL179:
1501:TP2824/TP2802.c **** 	agc &= 0x3f0;
 1707              		.loc 1 1501 6 view .LVU467
 1708 002a 0119     		adds	r1, r0, r4
 1709              	.LVL180:
1502:TP2824/TP2802.c **** 	agc >>= 1;
 1710              		.loc 1 1502 2 is_stmt 1 view .LVU468
1503:TP2824/TP2802.c **** 	if (agc > 0x1ff)
 1711              		.loc 1 1503 2 view .LVU469
 1712 002c 4908     		lsrs	r1, r1, #1
 1713              	.LVL181:
1503:TP2824/TP2802.c **** 	if (agc > 0x1ff)
 1714              		.loc 1 1503 6 is_stmt 0 view .LVU470
 1715 002e 01F4FC74 		and	r4, r1, #504
 1716              	.LVL182:
1504:TP2824/TP2802.c **** 		agc = 0x1ff;
 1717              		.loc 1 1504 2 is_stmt 1 view .LVU471
1507:TP2824/TP2802.c **** 	tp28xx_byte_write(0x08, agc & 0xff);
 1718              		.loc 1 1507 2 view .LVU472
 1719 0032 2A46     		mov	r2, r5
 1720 0034 2146     		mov	r1, r4
 1721 0036 0B48     		ldr	r0, .L130
 1722 0038 FFF7FEFF 		bl	printf
 1723              	.LVL183:
1508:TP2824/TP2802.c **** 	tmp = tp28xx_byte_read(0x06);
 1724              		.loc 1 1508 2 view .LVU473
 1725 003c 04F0F801 		and	r1, r4, #248
 1726 0040 0820     		movs	r0, #8
 1727 0042 FFF7FEFF 		bl	tp28xx_byte_write
 1728              	.LVL184:
1509:TP2824/TP2802.c **** 	tmp &= 0xf9;
 1729              		.loc 1 1509 2 view .LVU474
1509:TP2824/TP2802.c **** 	tmp &= 0xf9;
 1730              		.loc 1 1509 8 is_stmt 0 view .LVU475
 1731 0046 0620     		movs	r0, #6
 1732 0048 FFF7FEFF 		bl	tp28xx_byte_read
 1733              	.LVL185:
1510:TP2824/TP2802.c **** 	tmp |= (agc >> 7) & 0x02;
 1734              		.loc 1 1510 2 is_stmt 1 view .LVU476
ARM GAS  C:\Users\ryanc.HS\AppData\Local\Temp\ccAQ3CYh.s 			page 68


1510:TP2824/TP2802.c **** 	tmp |= (agc >> 7) & 0x02;
 1735              		.loc 1 1510 6 is_stmt 0 view .LVU477
 1736 004c 00F0F900 		and	r0, r0, #249
 1737              	.LVL186:
1511:TP2824/TP2802.c **** 	tmp |= 0x04;
 1738              		.loc 1 1511 2 is_stmt 1 view .LVU478
1511:TP2824/TP2802.c **** 	tmp |= 0x04;
 1739              		.loc 1 1511 14 is_stmt 0 view .LVU479
 1740 0050 E109     		lsrs	r1, r4, #7
1511:TP2824/TP2802.c **** 	tmp |= 0x04;
 1741              		.loc 1 1511 20 view .LVU480
 1742 0052 01F00201 		and	r1, r1, #2
1511:TP2824/TP2802.c **** 	tmp |= 0x04;
 1743              		.loc 1 1511 6 view .LVU481
 1744 0056 0143     		orrs	r1, r1, r0
 1745              	.LVL187:
1512:TP2824/TP2802.c **** 	tmp &= 0x32; /// ryan@20211028 AHD 720P GDAGCgain
 1746              		.loc 1 1512 2 is_stmt 1 view .LVU482
1513:TP2824/TP2802.c **** 	tp28xx_byte_write(0x06, tmp);
 1747              		.loc 1 1513 2 view .LVU483
1514:TP2824/TP2802.c **** 
 1748              		.loc 1 1514 2 view .LVU484
 1749 0058 01F03201 		and	r1, r1, #50
 1750              	.LVL188:
1514:TP2824/TP2802.c **** 
 1751              		.loc 1 1514 2 is_stmt 0 view .LVU485
 1752 005c 0620     		movs	r0, #6
 1753              	.LVL189:
1514:TP2824/TP2802.c **** 
 1754              		.loc 1 1514 2 view .LVU486
 1755 005e FFF7FEFF 		bl	tp28xx_byte_write
 1756              	.LVL190:
1527:TP2824/TP2802.c **** 
 1757              		.loc 1 1527 1 view .LVU487
 1758 0062 38BD     		pop	{r3, r4, r5, pc}
 1759              	.LVL191:
 1760              	.L131:
1527:TP2824/TP2802.c **** 
 1761              		.loc 1 1527 1 view .LVU488
 1762              		.align	2
 1763              	.L130:
 1764 0064 00000000 		.word	.LC24
 1765              		.cfi_endproc
 1766              	.LFE13:
 1768              		.section	.text.ReadGain,"ax",%progbits
 1769              		.align	1
 1770              		.global	ReadGain
 1771              		.syntax unified
 1772              		.thumb
 1773              		.thumb_func
 1774              		.fpu softvfp
 1776              	ReadGain:
 1777              	.LFB17:
1620:TP2824/TP2802.c **** ////////////////////////////////////////
1621:TP2824/TP2802.c **** tByte ReadGain(void)
1622:TP2824/TP2802.c **** {
 1778              		.loc 1 1622 1 is_stmt 1 view -0
ARM GAS  C:\Users\ryanc.HS\AppData\Local\Temp\ccAQ3CYh.s 			page 69


 1779              		.cfi_startproc
 1780              		@ args = 0, pretend = 0, frame = 0
 1781              		@ frame_needed = 0, uses_anonymous_args = 0
 1782 0000 08B5     		push	{r3, lr}
 1783              	.LCFI14:
 1784              		.cfi_def_cfa_offset 8
 1785              		.cfi_offset 3, -8
 1786              		.cfi_offset 14, -4
1623:TP2824/TP2802.c **** 	tp28xx_byte_write(0x2f, 0x00);
 1787              		.loc 1 1623 2 view .LVU490
 1788 0002 0021     		movs	r1, #0
 1789 0004 2F20     		movs	r0, #47
 1790 0006 FFF7FEFF 		bl	tp28xx_byte_write
 1791              	.LVL192:
1624:TP2824/TP2802.c **** 	return tp28xx_byte_read(0x04);
 1792              		.loc 1 1624 2 view .LVU491
 1793              		.loc 1 1624 9 is_stmt 0 view .LVU492
 1794 000a 0420     		movs	r0, #4
 1795 000c FFF7FEFF 		bl	tp28xx_byte_read
 1796              	.LVL193:
1625:TP2824/TP2802.c **** }
 1797              		.loc 1 1625 1 view .LVU493
 1798 0010 08BD     		pop	{r3, pc}
 1799              		.cfi_endproc
 1800              	.LFE17:
 1802              		.section	.rodata.SetCGain.str1.4,"aMS",%progbits,1
 1803              		.align	2
 1804              	.LC25:
 1805 0000 53657443 		.ascii	"SetCGain\000"
 1805      4761696E 
 1805      00
 1806              		.section	.text.SetCGain,"ax",%progbits
 1807              		.align	1
 1808              		.global	SetCGain
 1809              		.syntax unified
 1810              		.thumb
 1811              		.thumb_func
 1812              		.fpu softvfp
 1814              	SetCGain:
 1815              	.LVL194:
 1816              	.LFB18:
1626:TP2824/TP2802.c **** ////////////////////////////////////////
1627:TP2824/TP2802.c **** void SetCGain(unsigned char CGAIN_STD)
1628:TP2824/TP2802.c **** {
 1817              		.loc 1 1628 1 is_stmt 1 view -0
 1818              		.cfi_startproc
 1819              		@ args = 0, pretend = 0, frame = 0
 1820              		@ frame_needed = 0, uses_anonymous_args = 0
 1821              		.loc 1 1628 1 is_stmt 0 view .LVU495
 1822 0000 F8B5     		push	{r3, r4, r5, r6, r7, lr}
 1823              	.LCFI15:
 1824              		.cfi_def_cfa_offset 24
 1825              		.cfi_offset 3, -24
 1826              		.cfi_offset 4, -20
 1827              		.cfi_offset 5, -16
 1828              		.cfi_offset 6, -12
 1829              		.cfi_offset 7, -8
ARM GAS  C:\Users\ryanc.HS\AppData\Local\Temp\ccAQ3CYh.s 			page 70


 1830              		.cfi_offset 14, -4
 1831 0002 0646     		mov	r6, r0
1629:TP2824/TP2802.c **** 	unsigned char tmp, cgain;
 1832              		.loc 1 1629 2 is_stmt 1 view .LVU496
1630:TP2824/TP2802.c **** 	unsigned char retry = 30;
 1833              		.loc 1 1630 2 view .LVU497
 1834              	.LVL195:
1631:TP2824/TP2802.c **** 
1632:TP2824/TP2802.c **** 	tp28xx_byte_write(0x2f, 0x06);
 1835              		.loc 1 1632 2 view .LVU498
 1836 0004 0621     		movs	r1, #6
 1837 0006 2F20     		movs	r0, #47
 1838              	.LVL196:
 1839              		.loc 1 1632 2 is_stmt 0 view .LVU499
 1840 0008 FFF7FEFF 		bl	tp28xx_byte_write
 1841              	.LVL197:
1633:TP2824/TP2802.c **** 	cgain = tp28xx_byte_read(0x04);
 1842              		.loc 1 1633 2 is_stmt 1 view .LVU500
 1843              		.loc 1 1633 10 is_stmt 0 view .LVU501
 1844 000c 0420     		movs	r0, #4
 1845 000e FFF7FEFF 		bl	tp28xx_byte_read
 1846              	.LVL198:
1634:TP2824/TP2802.c **** 
1635:TP2824/TP2802.c **** 	if (cgain < CGAIN_STD)
 1847              		.loc 1 1635 2 is_stmt 1 view .LVU502
 1848              		.loc 1 1635 5 is_stmt 0 view .LVU503
 1849 0012 B042     		cmp	r0, r6
 1850 0014 42D3     		bcc	.L144
 1851              	.LVL199:
 1852              	.L134:
1636:TP2824/TP2802.c **** 	{
1637:TP2824/TP2802.c **** 		while (retry)
1638:TP2824/TP2802.c **** 		{
1639:TP2824/TP2802.c **** 			retry--;
1640:TP2824/TP2802.c **** 
1641:TP2824/TP2802.c **** 			tmp = tp28xx_byte_read(0x07);
1642:TP2824/TP2802.c **** 			tmp &= 0x3f;
1643:TP2824/TP2802.c **** 			while (abs(CGAIN_STD - cgain))
1644:TP2824/TP2802.c **** 			{
1645:TP2824/TP2802.c **** 				if (tmp)
1646:TP2824/TP2802.c **** 					tmp--;
1647:TP2824/TP2802.c **** 				else
1648:TP2824/TP2802.c **** 					break;
1649:TP2824/TP2802.c **** 				cgain++;
1650:TP2824/TP2802.c **** 			}
1651:TP2824/TP2802.c **** 
1652:TP2824/TP2802.c **** 			tp28xx_byte_write(0x07, 0x80 | tmp);
1653:TP2824/TP2802.c **** 			if (0 == tmp)
1654:TP2824/TP2802.c **** 				break;
1655:TP2824/TP2802.c **** 			delay(8); // delay 40ms
1656:TP2824/TP2802.c **** 			tp28xx_byte_write(0x2f, 0x06);
1657:TP2824/TP2802.c **** 			cgain = tp28xx_byte_read(0x04);
1658:TP2824/TP2802.c **** 
1659:TP2824/TP2802.c **** 			if (cgain > (CGAIN_STD + 1))
1660:TP2824/TP2802.c **** 			{
1661:TP2824/TP2802.c **** 				tmp = tp28xx_byte_read(0x07);
1662:TP2824/TP2802.c **** 				tmp &= 0x3f;
ARM GAS  C:\Users\ryanc.HS\AppData\Local\Temp\ccAQ3CYh.s 			page 71


1663:TP2824/TP2802.c **** 				// tmp +=0x02;
1664:TP2824/TP2802.c **** 				tmp++;
1665:TP2824/TP2802.c **** 				tmp++;
1666:TP2824/TP2802.c **** 				if (tmp > 0x3f)
1667:TP2824/TP2802.c **** 					tmp = 0x3f;
1668:TP2824/TP2802.c **** 				tp28xx_byte_write(0x07, 0x80 | tmp);
1669:TP2824/TP2802.c **** 				if (0x3f == tmp)
1670:TP2824/TP2802.c **** 					break;
1671:TP2824/TP2802.c **** 				delay(8); // delay 40ms
1672:TP2824/TP2802.c **** 				cgain = tp28xx_byte_read(0x04);
1673:TP2824/TP2802.c **** 			}
1674:TP2824/TP2802.c **** 			if (abs(cgain - CGAIN_STD) < 2)
1675:TP2824/TP2802.c **** 				break;
1676:TP2824/TP2802.c **** 		}
1677:TP2824/TP2802.c **** 
1678:TP2824/TP2802.c **** #if (_DEBUG_MESSAGE_TP2824 == ON)
1679:TP2824/TP2802.c **** 		Printf("SetCGain");
1680:TP2824/TP2802.c **** #endif
1681:TP2824/TP2802.c **** 	}
1682:TP2824/TP2802.c **** }
 1853              		.loc 1 1682 1 view .LVU504
 1854 0016 F8BD     		pop	{r3, r4, r5, r6, r7, pc}
 1855              	.LVL200:
 1856              	.L138:
1652:TP2824/TP2802.c **** 			if (0 == tmp)
 1857              		.loc 1 1652 4 is_stmt 1 view .LVU505
 1858 0018 45F08001 		orr	r1, r5, #128
 1859 001c 0720     		movs	r0, #7
 1860 001e FFF7FEFF 		bl	tp28xx_byte_write
 1861              	.LVL201:
1653:TP2824/TP2802.c **** 				break;
 1862              		.loc 1 1653 4 view .LVU506
1653:TP2824/TP2802.c **** 				break;
 1863              		.loc 1 1653 7 is_stmt 0 view .LVU507
 1864 0022 002D     		cmp	r5, #0
 1865 0024 3DD0     		beq	.L140
1655:TP2824/TP2802.c **** 			tp28xx_byte_write(0x2f, 0x06);
 1866              		.loc 1 1655 4 is_stmt 1 view .LVU508
 1867 0026 0820     		movs	r0, #8
 1868 0028 FFF7FEFF 		bl	delay
 1869              	.LVL202:
1656:TP2824/TP2802.c **** 			cgain = tp28xx_byte_read(0x04);
 1870              		.loc 1 1656 4 view .LVU509
 1871 002c 0621     		movs	r1, #6
 1872 002e 2F20     		movs	r0, #47
 1873 0030 FFF7FEFF 		bl	tp28xx_byte_write
 1874              	.LVL203:
1657:TP2824/TP2802.c **** 
 1875              		.loc 1 1657 4 view .LVU510
1657:TP2824/TP2802.c **** 
 1876              		.loc 1 1657 12 is_stmt 0 view .LVU511
 1877 0034 0420     		movs	r0, #4
 1878 0036 FFF7FEFF 		bl	tp28xx_byte_read
 1879              	.LVL204:
 1880 003a 0446     		mov	r4, r0
 1881              	.LVL205:
1659:TP2824/TP2802.c **** 			{
ARM GAS  C:\Users\ryanc.HS\AppData\Local\Temp\ccAQ3CYh.s 			page 72


 1882              		.loc 1 1659 4 is_stmt 1 view .LVU512
1659:TP2824/TP2802.c **** 			{
 1883              		.loc 1 1659 27 is_stmt 0 view .LVU513
 1884 003c 731C     		adds	r3, r6, #1
1659:TP2824/TP2802.c **** 			{
 1885              		.loc 1 1659 7 view .LVU514
 1886 003e 9842     		cmp	r0, r3
 1887 0040 14DC     		bgt	.L147
 1888              	.LVL206:
 1889              	.L141:
1674:TP2824/TP2802.c **** 				break;
 1890              		.loc 1 1674 4 is_stmt 1 view .LVU515
1674:TP2824/TP2802.c **** 				break;
 1891              		.loc 1 1674 18 is_stmt 0 view .LVU516
 1892 0042 A31B     		subs	r3, r4, r6
1674:TP2824/TP2802.c **** 				break;
 1893              		.loc 1 1674 31 view .LVU517
 1894 0044 0133     		adds	r3, r3, #1
1674:TP2824/TP2802.c **** 				break;
 1895              		.loc 1 1674 7 view .LVU518
 1896 0046 022B     		cmp	r3, #2
 1897 0048 2BD9     		bls	.L140
 1898              	.LVL207:
 1899              	.L135:
1637:TP2824/TP2802.c **** 		{
 1900              		.loc 1 1637 9 is_stmt 1 view .LVU519
 1901 004a 57B3     		cbz	r7, .L140
1639:TP2824/TP2802.c **** 
 1902              		.loc 1 1639 4 view .LVU520
1639:TP2824/TP2802.c **** 
 1903              		.loc 1 1639 9 is_stmt 0 view .LVU521
 1904 004c 013F     		subs	r7, r7, #1
 1905              	.LVL208:
1639:TP2824/TP2802.c **** 
 1906              		.loc 1 1639 9 view .LVU522
 1907 004e FFB2     		uxtb	r7, r7
 1908              	.LVL209:
1641:TP2824/TP2802.c **** 			tmp &= 0x3f;
 1909              		.loc 1 1641 4 is_stmt 1 view .LVU523
1641:TP2824/TP2802.c **** 			tmp &= 0x3f;
 1910              		.loc 1 1641 10 is_stmt 0 view .LVU524
 1911 0050 0720     		movs	r0, #7
 1912 0052 FFF7FEFF 		bl	tp28xx_byte_read
 1913              	.LVL210:
1642:TP2824/TP2802.c **** 			while (abs(CGAIN_STD - cgain))
 1914              		.loc 1 1642 4 is_stmt 1 view .LVU525
1642:TP2824/TP2802.c **** 			while (abs(CGAIN_STD - cgain))
 1915              		.loc 1 1642 8 is_stmt 0 view .LVU526
 1916 0056 00F03F05 		and	r5, r0, #63
 1917              	.LVL211:
1643:TP2824/TP2802.c **** 			{
 1918              		.loc 1 1643 4 is_stmt 1 view .LVU527
 1919              	.L137:
1643:TP2824/TP2802.c **** 			{
 1920              		.loc 1 1643 10 view .LVU528
 1921 005a B442     		cmp	r4, r6
 1922 005c DCD0     		beq	.L138
ARM GAS  C:\Users\ryanc.HS\AppData\Local\Temp\ccAQ3CYh.s 			page 73


1645:TP2824/TP2802.c **** 					tmp--;
 1923              		.loc 1 1645 5 view .LVU529
1645:TP2824/TP2802.c **** 					tmp--;
 1924              		.loc 1 1645 8 is_stmt 0 view .LVU530
 1925 005e 002D     		cmp	r5, #0
 1926 0060 DAD0     		beq	.L138
1646:TP2824/TP2802.c **** 				else
 1927              		.loc 1 1646 6 is_stmt 1 view .LVU531
1646:TP2824/TP2802.c **** 				else
 1928              		.loc 1 1646 9 is_stmt 0 view .LVU532
 1929 0062 013D     		subs	r5, r5, #1
 1930              	.LVL212:
1646:TP2824/TP2802.c **** 				else
 1931              		.loc 1 1646 9 view .LVU533
 1932 0064 EDB2     		uxtb	r5, r5
 1933              	.LVL213:
1649:TP2824/TP2802.c **** 			}
 1934              		.loc 1 1649 5 is_stmt 1 view .LVU534
1649:TP2824/TP2802.c **** 			}
 1935              		.loc 1 1649 10 is_stmt 0 view .LVU535
 1936 0066 0134     		adds	r4, r4, #1
 1937              	.LVL214:
1649:TP2824/TP2802.c **** 			}
 1938              		.loc 1 1649 10 view .LVU536
 1939 0068 E4B2     		uxtb	r4, r4
 1940              	.LVL215:
1649:TP2824/TP2802.c **** 			}
 1941              		.loc 1 1649 10 view .LVU537
 1942 006a F6E7     		b	.L137
 1943              	.LVL216:
 1944              	.L147:
1661:TP2824/TP2802.c **** 				tmp &= 0x3f;
 1945              		.loc 1 1661 5 is_stmt 1 view .LVU538
1661:TP2824/TP2802.c **** 				tmp &= 0x3f;
 1946              		.loc 1 1661 11 is_stmt 0 view .LVU539
 1947 006c 0720     		movs	r0, #7
 1948              	.LVL217:
1661:TP2824/TP2802.c **** 				tmp &= 0x3f;
 1949              		.loc 1 1661 11 view .LVU540
 1950 006e FFF7FEFF 		bl	tp28xx_byte_read
 1951              	.LVL218:
1662:TP2824/TP2802.c **** 				// tmp +=0x02;
 1952              		.loc 1 1662 5 is_stmt 1 view .LVU541
1662:TP2824/TP2802.c **** 				// tmp +=0x02;
 1953              		.loc 1 1662 9 is_stmt 0 view .LVU542
 1954 0072 00F03F04 		and	r4, r0, #63
 1955              	.LVL219:
1664:TP2824/TP2802.c **** 				tmp++;
 1956              		.loc 1 1664 5 is_stmt 1 view .LVU543
1665:TP2824/TP2802.c **** 				if (tmp > 0x3f)
 1957              		.loc 1 1665 5 view .LVU544
1665:TP2824/TP2802.c **** 				if (tmp > 0x3f)
 1958              		.loc 1 1665 8 is_stmt 0 view .LVU545
 1959 0076 0234     		adds	r4, r4, #2
 1960              	.LVL220:
1666:TP2824/TP2802.c **** 					tmp = 0x3f;
 1961              		.loc 1 1666 5 is_stmt 1 view .LVU546
ARM GAS  C:\Users\ryanc.HS\AppData\Local\Temp\ccAQ3CYh.s 			page 74


1666:TP2824/TP2802.c **** 					tmp = 0x3f;
 1962              		.loc 1 1666 8 is_stmt 0 view .LVU547
 1963 0078 3F2C     		cmp	r4, #63
 1964 007a 00D9     		bls	.L142
1667:TP2824/TP2802.c **** 				tp28xx_byte_write(0x07, 0x80 | tmp);
 1965              		.loc 1 1667 10 view .LVU548
 1966 007c 3F24     		movs	r4, #63
 1967              	.LVL221:
 1968              	.L142:
1668:TP2824/TP2802.c **** 				if (0x3f == tmp)
 1969              		.loc 1 1668 5 is_stmt 1 view .LVU549
 1970 007e 44F08001 		orr	r1, r4, #128
 1971 0082 0720     		movs	r0, #7
 1972 0084 FFF7FEFF 		bl	tp28xx_byte_write
 1973              	.LVL222:
1669:TP2824/TP2802.c **** 					break;
 1974              		.loc 1 1669 5 view .LVU550
1669:TP2824/TP2802.c **** 					break;
 1975              		.loc 1 1669 8 is_stmt 0 view .LVU551
 1976 0088 3F2C     		cmp	r4, #63
 1977 008a 0AD0     		beq	.L140
1671:TP2824/TP2802.c **** 				cgain = tp28xx_byte_read(0x04);
 1978              		.loc 1 1671 5 is_stmt 1 view .LVU552
 1979 008c 0820     		movs	r0, #8
 1980 008e FFF7FEFF 		bl	delay
 1981              	.LVL223:
1672:TP2824/TP2802.c **** 			}
 1982              		.loc 1 1672 5 view .LVU553
1672:TP2824/TP2802.c **** 			}
 1983              		.loc 1 1672 13 is_stmt 0 view .LVU554
 1984 0092 0420     		movs	r0, #4
 1985 0094 FFF7FEFF 		bl	tp28xx_byte_read
 1986              	.LVL224:
 1987 0098 0446     		mov	r4, r0
 1988              	.LVL225:
1672:TP2824/TP2802.c **** 			}
 1989              		.loc 1 1672 13 view .LVU555
 1990 009a D2E7     		b	.L141
 1991              	.LVL226:
 1992              	.L144:
1672:TP2824/TP2802.c **** 			}
 1993              		.loc 1 1672 13 view .LVU556
 1994 009c 0446     		mov	r4, r0
1630:TP2824/TP2802.c **** 
 1995              		.loc 1 1630 16 view .LVU557
 1996 009e 1E27     		movs	r7, #30
 1997 00a0 D3E7     		b	.L135
 1998              	.LVL227:
 1999              	.L140:
1679:TP2824/TP2802.c **** #endif
 2000              		.loc 1 1679 3 is_stmt 1 view .LVU558
 2001 00a2 0248     		ldr	r0, .L148
 2002 00a4 FFF7FEFF 		bl	Printf
 2003              	.LVL228:
 2004              		.loc 1 1682 1 is_stmt 0 view .LVU559
 2005 00a8 B5E7     		b	.L134
 2006              	.L149:
ARM GAS  C:\Users\ryanc.HS\AppData\Local\Temp\ccAQ3CYh.s 			page 75


 2007 00aa 00BF     		.align	2
 2008              	.L148:
 2009 00ac 00000000 		.word	.LC25
 2010              		.cfi_endproc
 2011              	.LFE18:
 2013              		.section	.text.INPUT_VIDEO_CHECK,"ax",%progbits
 2014              		.align	1
 2015              		.global	INPUT_VIDEO_CHECK
 2016              		.syntax unified
 2017              		.thumb
 2018              		.thumb_func
 2019              		.fpu softvfp
 2021              	INPUT_VIDEO_CHECK:
 2022              	.LVL229:
 2023              	.LFB19:
1683:TP2824/TP2802.c **** ////////////////////////////////////////
1684:TP2824/TP2802.c **** 
1685:TP2824/TP2802.c **** BYTE INPUT_VIDEO_CHECK(BYTE ch)
1686:TP2824/TP2802.c **** {
 2024              		.loc 1 1686 1 is_stmt 1 view -0
 2025              		.cfi_startproc
 2026              		@ args = 0, pretend = 0, frame = 0
 2027              		@ frame_needed = 0, uses_anonymous_args = 0
 2028              		@ link register save eliminated.
 2029              		.loc 1 1686 1 is_stmt 0 view .LVU561
 2030 0000 0346     		mov	r3, r0
1687:TP2824/TP2802.c **** 
1688:TP2824/TP2802.c **** 	BYTE ret = 0;
 2031              		.loc 1 1688 2 is_stmt 1 view .LVU562
 2032              	.LVL230:
1689:TP2824/TP2802.c **** 
1690:TP2824/TP2802.c **** 	switch (CURRENT_CH)
 2033              		.loc 1 1690 2 view .LVU563
 2034 0002 424A     		ldr	r2, .L185
 2035 0004 1078     		ldrb	r0, [r2]	@ zero_extendqisi2
 2036              	.LVL231:
 2037              		.loc 1 1690 2 is_stmt 0 view .LVU564
 2038 0006 2628     		cmp	r0, #38
 2039 0008 5BD8     		bhi	.L167
 2040 000a DFE800F0 		tbb	[pc, r0]
 2041              	.L153:
 2042 000e 14       		.byte	(.L166-.L153)/2
 2043 000f 19       		.byte	(.L165-.L153)/2
 2044 0010 21       		.byte	(.L164-.L153)/2
 2045 0011 27       		.byte	(.L163-.L153)/2
 2046 0012 27       		.byte	(.L163-.L153)/2
 2047 0013 5A       		.byte	(.L167-.L153)/2
 2048 0014 5A       		.byte	(.L167-.L153)/2
 2049 0015 37       		.byte	(.L156-.L153)/2
 2050 0016 37       		.byte	(.L156-.L153)/2
 2051 0017 37       		.byte	(.L156-.L153)/2
 2052 0018 2B       		.byte	(.L160-.L153)/2
 2053 0019 40       		.byte	(.L161-.L153)/2
 2054 001a 31       		.byte	(.L162-.L153)/2
 2055 001b 5A       		.byte	(.L167-.L153)/2
 2056 001c 4A       		.byte	(.L159-.L153)/2
 2057 001d 40       		.byte	(.L161-.L153)/2
ARM GAS  C:\Users\ryanc.HS\AppData\Local\Temp\ccAQ3CYh.s 			page 76


 2058 001e 2B       		.byte	(.L160-.L153)/2
 2059 001f 3B       		.byte	(.L157-.L153)/2
 2060 0020 4A       		.byte	(.L159-.L153)/2
 2061 0021 44       		.byte	(.L158-.L153)/2
 2062 0022 44       		.byte	(.L158-.L153)/2
 2063 0023 3B       		.byte	(.L157-.L153)/2
 2064 0024 4F       		.byte	(.L152-.L153)/2
 2065 0025 37       		.byte	(.L156-.L153)/2
 2066 0026 4F       		.byte	(.L152-.L153)/2
 2067 0027 53       		.byte	(.L155-.L153)/2
 2068 0028 37       		.byte	(.L156-.L153)/2
 2069 0029 4F       		.byte	(.L152-.L153)/2
 2070 002a 57       		.byte	(.L154-.L153)/2
 2071 002b 37       		.byte	(.L156-.L153)/2
 2072 002c 53       		.byte	(.L155-.L153)/2
 2073 002d 57       		.byte	(.L154-.L153)/2
 2074 002e 4F       		.byte	(.L152-.L153)/2
 2075 002f 53       		.byte	(.L155-.L153)/2
 2076 0030 57       		.byte	(.L154-.L153)/2
 2077 0031 53       		.byte	(.L155-.L153)/2
 2078 0032 57       		.byte	(.L154-.L153)/2
 2079 0033 5A       		.byte	(.L167-.L153)/2
 2080 0034 4F       		.byte	(.L152-.L153)/2
 2081 0035 00       		.p2align 1
 2082              	.L166:
1691:TP2824/TP2802.c **** 	{
1692:TP2824/TP2802.c **** 	case VS4210_LOOP_MODE0_w0:
1693:TP2824/TP2802.c **** 		if ((ch == CH2) || (ch == CH3) || (ch == CH4))
 2083              		.loc 1 1693 3 is_stmt 1 view .LVU565
 2084              		.loc 1 1693 34 is_stmt 0 view .LVU566
 2085 0036 013B     		subs	r3, r3, #1
 2086 0038 DBB2     		uxtb	r3, r3
 2087              		.loc 1 1693 6 view .LVU567
 2088 003a 022B     		cmp	r3, #2
 2089 003c 43D9     		bls	.L168
 2090 003e 7047     		bx	lr
 2091              	.L165:
1694:TP2824/TP2802.c **** 			ret = _TRUE;
1695:TP2824/TP2802.c **** 		break;
1696:TP2824/TP2802.c **** 	case VS4210_LOOP_MODE0_w1:
1697:TP2824/TP2802.c **** 		if ((ch == CH1) || (ch == CH3) || (ch == CH4))
 2092              		.loc 1 1697 3 is_stmt 1 view .LVU568
 2093              		.loc 1 1697 6 is_stmt 0 view .LVU569
 2094 0040 002B     		cmp	r3, #0
 2095 0042 61D0     		beq	.L151
 2096              		.loc 1 1697 19 discriminator 1 view .LVU570
 2097 0044 022B     		cmp	r3, #2
 2098 0046 5FD0     		beq	.L151
 2099              		.loc 1 1697 34 discriminator 2 view .LVU571
 2100 0048 032B     		cmp	r3, #3
 2101 004a 5DD0     		beq	.L151
1688:TP2824/TP2802.c **** 
 2102              		.loc 1 1688 7 view .LVU572
 2103 004c 0020     		movs	r0, #0
 2104 004e 7047     		bx	lr
 2105              	.L164:
1698:TP2824/TP2802.c **** 			ret = _TRUE;
ARM GAS  C:\Users\ryanc.HS\AppData\Local\Temp\ccAQ3CYh.s 			page 77


1699:TP2824/TP2802.c **** 		break;
1700:TP2824/TP2802.c **** 	case VS4210_LOOP_MODE0_w2:
1701:TP2824/TP2802.c **** 		if ((ch == CH1) || (ch == CH2) || (ch == CH4))
 2106              		.loc 1 1701 3 is_stmt 1 view .LVU573
 2107              		.loc 1 1701 6 is_stmt 0 view .LVU574
 2108 0050 012B     		cmp	r3, #1
 2109 0052 3AD9     		bls	.L169
 2110              		.loc 1 1701 34 discriminator 1 view .LVU575
 2111 0054 032B     		cmp	r3, #3
 2112 0056 3AD0     		beq	.L170
1688:TP2824/TP2802.c **** 
 2113              		.loc 1 1688 7 view .LVU576
 2114 0058 0020     		movs	r0, #0
 2115 005a 7047     		bx	lr
 2116              	.L163:
1702:TP2824/TP2802.c **** 			ret = _TRUE;
1703:TP2824/TP2802.c **** 		break;
1704:TP2824/TP2802.c **** 	case VS4210_LOOP_MODE0_w3:
1705:TP2824/TP2802.c **** 	case VS4210_LOOP_MODE0_w4:
1706:TP2824/TP2802.c **** 		if ((ch == CH1) || (ch == CH2) || (ch == CH3))
 2117              		.loc 1 1706 3 is_stmt 1 view .LVU577
 2118              		.loc 1 1706 6 is_stmt 0 view .LVU578
 2119 005c 022B     		cmp	r3, #2
 2120 005e 38D9     		bls	.L171
1688:TP2824/TP2802.c **** 
 2121              		.loc 1 1688 7 view .LVU579
 2122 0060 0020     		movs	r0, #0
 2123 0062 7047     		bx	lr
 2124              	.L160:
1707:TP2824/TP2802.c **** 			ret = _TRUE;
1708:TP2824/TP2802.c **** 		break;
1709:TP2824/TP2802.c **** 	case VS4210_LOOP_MODE12_12:
1710:TP2824/TP2802.c **** 	case VS4210_LOOP_MODE12_21:
1711:TP2824/TP2802.c **** 		if ((ch == CH3) || (ch == CH4))
 2125              		.loc 1 1711 3 is_stmt 1 view .LVU580
 2126              		.loc 1 1711 19 is_stmt 0 view .LVU581
 2127 0064 023B     		subs	r3, r3, #2
 2128 0066 DBB2     		uxtb	r3, r3
 2129              		.loc 1 1711 6 view .LVU582
 2130 0068 012B     		cmp	r3, #1
 2131 006a 34D9     		bls	.L172
1688:TP2824/TP2802.c **** 
 2132              		.loc 1 1688 7 view .LVU583
 2133 006c 0020     		movs	r0, #0
 2134 006e 7047     		bx	lr
 2135              	.L162:
1712:TP2824/TP2802.c **** 			ret = _TRUE;
1713:TP2824/TP2802.c **** 		break;
1714:TP2824/TP2802.c **** 	case VS4210_LOOP_MODE12_14:
1715:TP2824/TP2802.c **** 		if ((ch == CH2) || (ch == CH3))
 2136              		.loc 1 1715 3 is_stmt 1 view .LVU584
 2137              		.loc 1 1715 19 is_stmt 0 view .LVU585
 2138 0070 013B     		subs	r3, r3, #1
 2139 0072 DBB2     		uxtb	r3, r3
 2140              		.loc 1 1715 6 view .LVU586
 2141 0074 012B     		cmp	r3, #1
 2142 0076 30D9     		bls	.L173
ARM GAS  C:\Users\ryanc.HS\AppData\Local\Temp\ccAQ3CYh.s 			page 78


1688:TP2824/TP2802.c **** 
 2143              		.loc 1 1688 7 view .LVU587
 2144 0078 0020     		movs	r0, #0
 2145 007a 7047     		bx	lr
 2146              	.L156:
1716:TP2824/TP2802.c **** 			ret = _TRUE;
1717:TP2824/TP2802.c **** 		break;
1718:TP2824/TP2802.c **** 	case VS4210_LOOP_MODE10_123:
1719:TP2824/TP2802.c **** 	case VS4210_LOOP_MODE8:
1720:TP2824/TP2802.c **** 	case VS4210_LOOP_MODE8_123:
1721:TP2824/TP2802.c **** 	case VS4210_LOOP_MODE8_213:
1722:TP2824/TP2802.c **** 	case VS4210_LOOP_MODE8_312:
1723:TP2824/TP2802.c **** 	case VS4210_LOOP_MODE9:
1724:TP2824/TP2802.c **** 		if (ch == CH4)
 2147              		.loc 1 1724 3 is_stmt 1 view .LVU588
 2148              		.loc 1 1724 6 is_stmt 0 view .LVU589
 2149 007c 032B     		cmp	r3, #3
 2150 007e 2ED0     		beq	.L174
1688:TP2824/TP2802.c **** 
 2151              		.loc 1 1688 7 view .LVU590
 2152 0080 0020     		movs	r0, #0
 2153 0082 7047     		bx	lr
 2154              	.L157:
1725:TP2824/TP2802.c **** 			ret = _TRUE;
1726:TP2824/TP2802.c **** 		break;
1727:TP2824/TP2802.c **** 
1728:TP2824/TP2802.c **** 	case VS4210_LOOP_MODE12_23:
1729:TP2824/TP2802.c **** 	case VS4210_LOOP_MODE12_32:
1730:TP2824/TP2802.c **** 		if ((ch == CH1) || (ch == CH4))
 2155              		.loc 1 1730 3 is_stmt 1 view .LVU591
 2156              		.loc 1 1730 6 is_stmt 0 view .LVU592
 2157 0084 6BB3     		cbz	r3, .L175
 2158              		.loc 1 1730 19 discriminator 1 view .LVU593
 2159 0086 032B     		cmp	r3, #3
 2160 0088 2DD0     		beq	.L176
1688:TP2824/TP2802.c **** 
 2161              		.loc 1 1688 7 view .LVU594
 2162 008a 0020     		movs	r0, #0
 2163 008c 7047     		bx	lr
 2164              	.L161:
1731:TP2824/TP2802.c **** 			ret = _TRUE;
1732:TP2824/TP2802.c **** 		break;
1733:TP2824/TP2802.c **** 	case VS4210_LOOP_MODE12_34:
1734:TP2824/TP2802.c **** 	case VS4210_LOOP_MODE12_43:
1735:TP2824/TP2802.c **** 		if ((ch == CH1) || (ch == CH2))
 2165              		.loc 1 1735 3 is_stmt 1 view .LVU595
 2166              		.loc 1 1735 6 is_stmt 0 view .LVU596
 2167 008e 012B     		cmp	r3, #1
 2168 0090 2BD9     		bls	.L177
1688:TP2824/TP2802.c **** 
 2169              		.loc 1 1688 7 view .LVU597
 2170 0092 0020     		movs	r0, #0
 2171 0094 7047     		bx	lr
 2172              	.L158:
1736:TP2824/TP2802.c **** 			ret = _TRUE;
1737:TP2824/TP2802.c **** 		break;
1738:TP2824/TP2802.c **** 	case VS4210_LOOP_MODE12_31:
ARM GAS  C:\Users\ryanc.HS\AppData\Local\Temp\ccAQ3CYh.s 			page 79


1739:TP2824/TP2802.c **** 	case VS4210_LOOP_MODE12_13:
1740:TP2824/TP2802.c **** 		if ((ch == CH2) || (ch == CH4))
 2173              		.loc 1 1740 3 is_stmt 1 view .LVU598
 2174              		.loc 1 1740 6 is_stmt 0 view .LVU599
 2175 0096 012B     		cmp	r3, #1
 2176 0098 29D0     		beq	.L178
 2177              		.loc 1 1740 19 discriminator 1 view .LVU600
 2178 009a 032B     		cmp	r3, #3
 2179 009c 29D0     		beq	.L179
1688:TP2824/TP2802.c **** 
 2180              		.loc 1 1688 7 view .LVU601
 2181 009e 0020     		movs	r0, #0
 2182 00a0 7047     		bx	lr
 2183              	.L159:
1741:TP2824/TP2802.c **** 			ret = _TRUE;
1742:TP2824/TP2802.c **** 		break;
1743:TP2824/TP2802.c **** 	case VS4210_LOOP_MODE1:
1744:TP2824/TP2802.c **** 	case VS4210_LOOP_MODE2:
1745:TP2824/TP2802.c **** 		ret = _FALSE;
1746:TP2824/TP2802.c **** 		break;
1747:TP2824/TP2802.c **** 	case VS4210_LOOP_MODE12_42:
1748:TP2824/TP2802.c **** 	case VS4210_LOOP_MODE12_24:
1749:TP2824/TP2802.c **** 		if ((ch == CH1) || (ch == CH3))
 2184              		.loc 1 1749 3 is_stmt 1 view .LVU602
 2185              		.loc 1 1749 6 is_stmt 0 view .LVU603
 2186 00a2 43B3     		cbz	r3, .L180
 2187              		.loc 1 1749 19 discriminator 1 view .LVU604
 2188 00a4 022B     		cmp	r3, #2
 2189 00a6 28D0     		beq	.L181
1688:TP2824/TP2802.c **** 
 2190              		.loc 1 1688 7 view .LVU605
 2191 00a8 0020     		movs	r0, #0
 2192 00aa 7047     		bx	lr
 2193              	.L152:
1750:TP2824/TP2802.c **** 			ret = _TRUE;
1751:TP2824/TP2802.c **** 		break;
1752:TP2824/TP2802.c **** 	case VS4210_LOOP_MODE8_412:
1753:TP2824/TP2802.c **** 	case VS4210_LOOP_MODE8_124:
1754:TP2824/TP2802.c **** 	case VS4210_LOOP_MODE8_214:
1755:TP2824/TP2802.c **** 	case VS4210_LOOP_MODE10_412:
1756:TP2824/TP2802.c **** 	case VS4210_LOOP_MODE9_412:
1757:TP2824/TP2802.c **** 		if (ch == CH3)
 2194              		.loc 1 1757 3 is_stmt 1 view .LVU606
 2195              		.loc 1 1757 6 is_stmt 0 view .LVU607
 2196 00ac 022B     		cmp	r3, #2
 2197 00ae 26D0     		beq	.L182
1688:TP2824/TP2802.c **** 
 2198              		.loc 1 1688 7 view .LVU608
 2199 00b0 0020     		movs	r0, #0
 2200 00b2 7047     		bx	lr
 2201              	.L155:
1758:TP2824/TP2802.c **** 			ret = _TRUE;
1759:TP2824/TP2802.c **** 		break;
1760:TP2824/TP2802.c **** 	case VS4210_LOOP_MODE8_134:
1761:TP2824/TP2802.c **** 	case VS4210_LOOP_MODE8_314:
1762:TP2824/TP2802.c **** 	case VS4210_LOOP_MODE10_413:
1763:TP2824/TP2802.c **** 	case VS4210_LOOP_MODE8_413:
ARM GAS  C:\Users\ryanc.HS\AppData\Local\Temp\ccAQ3CYh.s 			page 80


1764:TP2824/TP2802.c **** 		if (ch == CH2)
 2202              		.loc 1 1764 3 is_stmt 1 view .LVU609
 2203              		.loc 1 1764 6 is_stmt 0 view .LVU610
 2204 00b4 012B     		cmp	r3, #1
 2205 00b6 24D0     		beq	.L183
1688:TP2824/TP2802.c **** 
 2206              		.loc 1 1688 7 view .LVU611
 2207 00b8 0020     		movs	r0, #0
 2208 00ba 7047     		bx	lr
 2209              	.L154:
1765:TP2824/TP2802.c **** 			ret = _TRUE;
1766:TP2824/TP2802.c **** 		break;
1767:TP2824/TP2802.c **** 	case VS4210_LOOP_MODE8_234:
1768:TP2824/TP2802.c **** 	case VS4210_LOOP_MODE8_324:
1769:TP2824/TP2802.c **** 	case VS4210_LOOP_MODE10_423:
1770:TP2824/TP2802.c **** 	case VS4210_LOOP_MODE8_423:
1771:TP2824/TP2802.c **** 		if (ch == CH1)
 2210              		.loc 1 1771 3 is_stmt 1 view .LVU612
 2211              		.loc 1 1771 6 is_stmt 0 view .LVU613
 2212 00bc 1BB3     		cbz	r3, .L184
1688:TP2824/TP2802.c **** 
 2213              		.loc 1 1688 7 view .LVU614
 2214 00be 0020     		movs	r0, #0
 2215 00c0 7047     		bx	lr
 2216              	.L167:
1690:TP2824/TP2802.c **** 	{
 2217              		.loc 1 1690 2 view .LVU615
 2218 00c2 0020     		movs	r0, #0
 2219 00c4 7047     		bx	lr
 2220              	.L168:
1694:TP2824/TP2802.c **** 		break;
 2221              		.loc 1 1694 8 view .LVU616
 2222 00c6 0120     		movs	r0, #1
 2223 00c8 7047     		bx	lr
 2224              	.L169:
1702:TP2824/TP2802.c **** 		break;
 2225              		.loc 1 1702 8 view .LVU617
 2226 00ca 0120     		movs	r0, #1
 2227 00cc 7047     		bx	lr
 2228              	.L170:
 2229 00ce 0120     		movs	r0, #1
 2230 00d0 7047     		bx	lr
 2231              	.L171:
1707:TP2824/TP2802.c **** 		break;
 2232              		.loc 1 1707 8 view .LVU618
 2233 00d2 0120     		movs	r0, #1
 2234 00d4 7047     		bx	lr
 2235              	.L172:
1712:TP2824/TP2802.c **** 		break;
 2236              		.loc 1 1712 8 view .LVU619
 2237 00d6 0120     		movs	r0, #1
 2238 00d8 7047     		bx	lr
 2239              	.L173:
1716:TP2824/TP2802.c **** 		break;
 2240              		.loc 1 1716 8 view .LVU620
 2241 00da 0120     		movs	r0, #1
 2242 00dc 7047     		bx	lr
ARM GAS  C:\Users\ryanc.HS\AppData\Local\Temp\ccAQ3CYh.s 			page 81


 2243              	.L174:
1725:TP2824/TP2802.c **** 		break;
 2244              		.loc 1 1725 8 view .LVU621
 2245 00de 0120     		movs	r0, #1
 2246 00e0 7047     		bx	lr
 2247              	.L175:
1731:TP2824/TP2802.c **** 		break;
 2248              		.loc 1 1731 8 view .LVU622
 2249 00e2 0120     		movs	r0, #1
 2250 00e4 7047     		bx	lr
 2251              	.L176:
 2252 00e6 0120     		movs	r0, #1
 2253 00e8 7047     		bx	lr
 2254              	.L177:
1736:TP2824/TP2802.c **** 		break;
 2255              		.loc 1 1736 8 view .LVU623
 2256 00ea 0120     		movs	r0, #1
 2257 00ec 7047     		bx	lr
 2258              	.L178:
1741:TP2824/TP2802.c **** 		break;
 2259              		.loc 1 1741 8 view .LVU624
 2260 00ee 0120     		movs	r0, #1
 2261 00f0 7047     		bx	lr
 2262              	.L179:
 2263 00f2 0120     		movs	r0, #1
 2264 00f4 7047     		bx	lr
 2265              	.L180:
1750:TP2824/TP2802.c **** 		break;
 2266              		.loc 1 1750 8 view .LVU625
 2267 00f6 0120     		movs	r0, #1
 2268 00f8 7047     		bx	lr
 2269              	.L181:
 2270 00fa 0120     		movs	r0, #1
 2271 00fc 7047     		bx	lr
 2272              	.L182:
1758:TP2824/TP2802.c **** 		break;
 2273              		.loc 1 1758 8 view .LVU626
 2274 00fe 0120     		movs	r0, #1
 2275 0100 7047     		bx	lr
 2276              	.L183:
1765:TP2824/TP2802.c **** 		break;
 2277              		.loc 1 1765 8 view .LVU627
 2278 0102 1846     		mov	r0, r3
 2279 0104 7047     		bx	lr
 2280              	.L184:
1772:TP2824/TP2802.c **** 			ret = _TRUE;
 2281              		.loc 1 1772 8 view .LVU628
 2282 0106 0120     		movs	r0, #1
 2283              	.L151:
 2284              	.LVL232:
1773:TP2824/TP2802.c **** 		break;
1774:TP2824/TP2802.c **** 	default:
1775:TP2824/TP2802.c **** 		ret = 0;
1776:TP2824/TP2802.c **** 		break;
1777:TP2824/TP2802.c **** 	}
1778:TP2824/TP2802.c **** 
1779:TP2824/TP2802.c **** 	return ret;
ARM GAS  C:\Users\ryanc.HS\AppData\Local\Temp\ccAQ3CYh.s 			page 82


 2285              		.loc 1 1779 2 is_stmt 1 view .LVU629
1780:TP2824/TP2802.c **** }
 2286              		.loc 1 1780 1 is_stmt 0 view .LVU630
 2287 0108 7047     		bx	lr
 2288              	.L186:
 2289 010a 00BF     		.align	2
 2290              	.L185:
 2291 010c 00000000 		.word	CURRENT_CH
 2292              		.cfi_endproc
 2293              	.LFE19:
 2295              		.section	.rodata.SetTP2824CHVloss.str1.4,"aMS",%progbits,1
 2296              		.align	2
 2297              	.LC26:
 2298 0000 0D0A2853 		.ascii	"\015\012(SetTP2824CHVloss ch%02x)\000"
 2298      65745450 
 2298      32383234 
 2298      4348566C 
 2298      6F737320 
 2299              		.section	.text.SetTP2824CHVloss,"ax",%progbits
 2300              		.align	1
 2301              		.global	SetTP2824CHVloss
 2302              		.syntax unified
 2303              		.thumb
 2304              		.thumb_func
 2305              		.fpu softvfp
 2307              	SetTP2824CHVloss:
 2308              	.LVL233:
 2309              	.LFB20:
1781:TP2824/TP2802.c **** void SetTP2824CHVloss(BYTE index)
1782:TP2824/TP2802.c **** {
 2310              		.loc 1 1782 1 is_stmt 1 view -0
 2311              		.cfi_startproc
 2312              		@ args = 0, pretend = 0, frame = 0
 2313              		@ frame_needed = 0, uses_anonymous_args = 0
 2314              		.loc 1 1782 1 is_stmt 0 view .LVU632
 2315 0000 10B5     		push	{r4, lr}
 2316              	.LCFI16:
 2317              		.cfi_def_cfa_offset 8
 2318              		.cfi_offset 4, -8
 2319              		.cfi_offset 14, -4
 2320 0002 0446     		mov	r4, r0
1783:TP2824/TP2802.c **** 	state[index] = VIDEO_UNPLUG;
 2321              		.loc 1 1783 2 is_stmt 1 view .LVU633
 2322              		.loc 1 1783 15 is_stmt 0 view .LVU634
 2323 0004 0023     		movs	r3, #0
 2324 0006 084A     		ldr	r2, .L189
 2325 0008 1354     		strb	r3, [r2, r0]
1784:TP2824/TP2802.c **** 	count[index] = 0;
 2326              		.loc 1 1784 2 is_stmt 1 view .LVU635
 2327              		.loc 1 1784 15 is_stmt 0 view .LVU636
 2328 000a 084A     		ldr	r2, .L189+4
 2329 000c 1354     		strb	r3, [r2, r0]
1785:TP2824/TP2802.c **** 	TP28xx_reset_default(chip, index);
 2330              		.loc 1 1785 2 is_stmt 1 view .LVU637
 2331 000e 0146     		mov	r1, r0
 2332 0010 074B     		ldr	r3, .L189+8
 2333 0012 1878     		ldrb	r0, [r3]	@ zero_extendqisi2
ARM GAS  C:\Users\ryanc.HS\AppData\Local\Temp\ccAQ3CYh.s 			page 83


 2334              	.LVL234:
 2335              		.loc 1 1785 2 is_stmt 0 view .LVU638
 2336 0014 FFF7FEFF 		bl	TP28xx_reset_default
 2337              	.LVL235:
1786:TP2824/TP2802.c **** 	Printf("\r\n(SetTP2824CHVloss ch%02x)", (tWord)index);
 2338              		.loc 1 1786 2 is_stmt 1 view .LVU639
 2339 0018 2146     		mov	r1, r4
 2340 001a 0648     		ldr	r0, .L189+12
 2341 001c FFF7FEFF 		bl	Printf
 2342              	.LVL236:
1787:TP2824/TP2802.c **** 	VS4210_Rx_NoSignal(index); // chunyu
 2343              		.loc 1 1787 2 view .LVU640
 2344 0020 2046     		mov	r0, r4
 2345 0022 FFF7FEFF 		bl	VS4210_Rx_NoSignal
 2346              	.LVL237:
1788:TP2824/TP2802.c **** }
 2347              		.loc 1 1788 1 is_stmt 0 view .LVU641
 2348 0026 10BD     		pop	{r4, pc}
 2349              	.L190:
 2350              		.align	2
 2351              	.L189:
 2352 0028 00000000 		.word	state
 2353 002c 00000000 		.word	count
 2354 0030 00000000 		.word	chip
 2355 0034 00000000 		.word	.LC26
 2356              		.cfi_endproc
 2357              	.LFE20:
 2359              		.section	.rodata.SETChannelReset.str1.4,"aMS",%progbits,1
 2360              		.align	2
 2361              	.LC27:
 2362 0000 0D0A2853 		.ascii	"\015\012(SETChannelReset=%02x)\000"
 2362      45544368 
 2362      616E6E65 
 2362      6C526573 
 2362      65743D25 
 2363              		.section	.text.SETChannelReset,"ax",%progbits
 2364              		.align	1
 2365              		.global	SETChannelReset
 2366              		.syntax unified
 2367              		.thumb
 2368              		.thumb_func
 2369              		.fpu softvfp
 2371              	SETChannelReset:
 2372              	.LVL238:
 2373              	.LFB21:
1789:TP2824/TP2802.c **** void SETChannelReset(BYTE index)
1790:TP2824/TP2802.c **** {
 2374              		.loc 1 1790 1 is_stmt 1 view -0
 2375              		.cfi_startproc
 2376              		@ args = 0, pretend = 0, frame = 0
 2377              		@ frame_needed = 0, uses_anonymous_args = 0
 2378              		.loc 1 1790 1 is_stmt 0 view .LVU643
 2379 0000 10B5     		push	{r4, lr}
 2380              	.LCFI17:
 2381              		.cfi_def_cfa_offset 8
 2382              		.cfi_offset 4, -8
 2383              		.cfi_offset 14, -4
ARM GAS  C:\Users\ryanc.HS\AppData\Local\Temp\ccAQ3CYh.s 			page 84


 2384 0002 0446     		mov	r4, r0
1791:TP2824/TP2802.c **** 	Printf("\r\n(SETChannelReset=%02x)", (WORD)index);
 2385              		.loc 1 1791 2 is_stmt 1 view .LVU644
 2386 0004 0146     		mov	r1, r0
 2387 0006 0D48     		ldr	r0, .L193
 2388              	.LVL239:
 2389              		.loc 1 1791 2 is_stmt 0 view .LVU645
 2390 0008 FFF7FEFF 		bl	Printf
 2391              	.LVL240:
1792:TP2824/TP2802.c **** 
1793:TP2824/TP2802.c **** 	SetRegPage(index);
 2392              		.loc 1 1793 2 is_stmt 1 view .LVU646
 2393 000c 2046     		mov	r0, r4
 2394 000e FFF7FEFF 		bl	SetRegPage
 2395              	.LVL241:
1794:TP2824/TP2802.c **** 	tp2824_reset_default(); // chunyu
 2396              		.loc 1 1794 2 view .LVU647
 2397 0012 FFF7FEFF 		bl	tp2824_reset_default
 2398              	.LVL242:
1795:TP2824/TP2802.c **** 	Set_VidRes(index);
 2399              		.loc 1 1795 2 view .LVU648
 2400 0016 2046     		mov	r0, r4
 2401 0018 FFF7FEFF 		bl	Set_VidRes
 2402              	.LVL243:
1796:TP2824/TP2802.c **** 	// VS4210_Rx_NoSignal(index) ; //chunyu
1797:TP2824/TP2802.c **** 	gbVXIS_InputMode[index] = _OSD_No_Signal;
 2403              		.loc 1 1797 2 view .LVU649
 2404              		.loc 1 1797 26 is_stmt 0 view .LVU650
 2405 001c 0722     		movs	r2, #7
 2406 001e 084B     		ldr	r3, .L193+4
 2407 0020 1A55     		strb	r2, [r3, r4]
1798:TP2824/TP2802.c **** 	bSignal[index] = 0;
 2408              		.loc 1 1798 2 is_stmt 1 view .LVU651
 2409              		.loc 1 1798 17 is_stmt 0 view .LVU652
 2410 0022 0023     		movs	r3, #0
 2411 0024 0749     		ldr	r1, .L193+8
 2412 0026 0B55     		strb	r3, [r1, r4]
1799:TP2824/TP2802.c **** 	mode[index] = 0x07;
 2413              		.loc 1 1799 2 is_stmt 1 view .LVU653
 2414              		.loc 1 1799 14 is_stmt 0 view .LVU654
 2415 0028 0749     		ldr	r1, .L193+12
 2416 002a 0A55     		strb	r2, [r1, r4]
1800:TP2824/TP2802.c **** 	state[index] = 0;
 2417              		.loc 1 1800 2 is_stmt 1 view .LVU655
 2418              		.loc 1 1800 15 is_stmt 0 view .LVU656
 2419 002c 074A     		ldr	r2, .L193+16
 2420 002e 1355     		strb	r3, [r2, r4]
1801:TP2824/TP2802.c **** 	count[index] = 0;
 2421              		.loc 1 1801 2 is_stmt 1 view .LVU657
 2422              		.loc 1 1801 15 is_stmt 0 view .LVU658
 2423 0030 074A     		ldr	r2, .L193+20
 2424 0032 1355     		strb	r3, [r2, r4]
1802:TP2824/TP2802.c **** 	VideoSave[index] = 0;
 2425              		.loc 1 1802 2 is_stmt 1 view .LVU659
 2426              		.loc 1 1802 19 is_stmt 0 view .LVU660
 2427 0034 074A     		ldr	r2, .L193+24
 2428 0036 1355     		strb	r3, [r2, r4]
ARM GAS  C:\Users\ryanc.HS\AppData\Local\Temp\ccAQ3CYh.s 			page 85


1803:TP2824/TP2802.c **** }
 2429              		.loc 1 1803 1 view .LVU661
 2430 0038 10BD     		pop	{r4, pc}
 2431              	.L194:
 2432 003a 00BF     		.align	2
 2433              	.L193:
 2434 003c 00000000 		.word	.LC27
 2435 0040 00000000 		.word	gbVXIS_InputMode
 2436 0044 00000000 		.word	bSignal
 2437 0048 00000000 		.word	mode
 2438 004c 00000000 		.word	state
 2439 0050 00000000 		.word	count
 2440 0054 00000000 		.word	VideoSave
 2441              		.cfi_endproc
 2442              	.LFE21:
 2444              		.section	.rodata.EQ_Detect.str1.4,"aMS",%progbits,1
 2445              		.align	2
 2446              	.LC28:
 2447 0000 0D0A2823 		.ascii	"\015\012(#video loss ch%02x)\000"
 2447      76696465 
 2447      6F206C6F 
 2447      73732063 
 2447      68253032 
 2448 0017 00       		.align	2
 2449              	.LC29:
 2450 0018 76696465 		.ascii	"video loss ch%02x\015\012\000"
 2450      6F206C6F 
 2450      73732063 
 2450      68253032 
 2450      780D0A00 
 2451              		.align	2
 2452              	.LC30:
 2453 002c 31766964 		.ascii	"1video in ch%02x \015\012\000"
 2453      656F2069 
 2453      6E206368 
 2453      25303278 
 2453      200D0A00 
 2454              		.align	2
 2455              	.LC31:
 2456 0040 76696465 		.ascii	"video locked ch%02x \015\012\000"
 2456      6F206C6F 
 2456      636B6564 
 2456      20636825 
 2456      30327820 
 2457 0057 00       		.align	2
 2458              	.LC32:
 2459 0058 76696465 		.ascii	"video in ch%02x \015\012\000"
 2459      6F20696E 
 2459      20636825 
 2459      30327820 
 2459      0D0A00
 2460 006b 00       		.align	2
 2461              	.LC33:
 2462 006c 76696465 		.ascii	"video unstable ch%02x \015\012\000"
 2462      6F20756E 
 2462      73746162 
 2462      6C652063 
ARM GAS  C:\Users\ryanc.HS\AppData\Local\Temp\ccAQ3CYh.s 			page 86


 2462      68253032 
 2463 0085 000000   		.align	2
 2464              	.LC34:
 2465 0088 76696465 		.ascii	"video unlocked ch%02x \015\012\000"
 2465      6F20756E 
 2465      6C6F636B 
 2465      65642063 
 2465      68253032 
 2466 00a1 000000   		.align	2
 2467              	.LC35:
 2468 00a4 5365745F 		.ascii	"Set_VidResmode[%d] =%d\015\012\000"
 2468      56696452 
 2468      65736D6F 
 2468      64655B25 
 2468      645D203D 
 2469 00bd 000000   		.align	2
 2470              	.LC36:
 2471 00c0 2F2F3735 		.ascii	"//75.25M output\015\000"
 2471      2E32354D 
 2471      206F7574 
 2471      7075740D 
 2471      00
 2472 00d1 000000   		.align	2
 2473              	.LC37:
 2474 00d4 4D616E56 		.ascii	"ManVidResRx=0x%02x\015\012\000"
 2474      69645265 
 2474      7352783D 
 2474      30782530 
 2474      32780D0A 
 2475 00e9 000000   		.align	2
 2476              	.LC38:
 2477 00ec 52656730 		.ascii	"Reg01 %02x\015\012\000"
 2477      31202530 
 2477      32780D0A 
 2477      00
 2478 00f9 000000   		.align	2
 2479              	.LC39:
 2480 00fc 43564253 		.ascii	"CVBS  mode:%d\015\012\000"
 2480      20206D6F 
 2480      64653A25 
 2480      640D0A00 
 2481              		.align	2
 2482              	.LC40:
 2483 010c 7475726E 		.ascii	"turn to C ch%02x\015\012\000"
 2483      20746F20 
 2483      43206368 
 2483      25303278 
 2483      0D0A00
 2484 011f 00       		.align	2
 2485              	.LC41:
 2486 0120 28747572 		.ascii	"(turn to AHD ch%02x)\015\012\000"
 2486      6E20746F 
 2486      20414844 
 2486      20636825 
 2486      30327829 
 2487 0137 00       		.align	2
 2488              	.LC42:
ARM GAS  C:\Users\ryanc.HS\AppData\Local\Temp\ccAQ3CYh.s 			page 87


 2489 0138 7475726E 		.ascii	"turn to A ch%02x\015\012\000"
 2489      20746F20 
 2489      41206368 
 2489      25303278 
 2489      0D0A00
 2490 014b 00       		.align	2
 2491              	.LC43:
 2492 014c 41484420 		.ascii	"AHD 1080P30/P25  mode:%d\015\012\000"
 2492      31303830 
 2492      5033302F 
 2492      50323520 
 2492      206D6F64 
 2493 0167 00       		.align	2
 2494              	.LC44:
 2495 0168 54564920 		.ascii	"TVI 1080P30/P25   mode:%d\015\012\000"
 2495      31303830 
 2495      5033302F 
 2495      50323520 
 2495      20206D6F 
 2496              		.align	2
 2497              	.LC45:
 2498 0184 41484420 		.ascii	"AHD 720P30/P25/P60/P50   mode:%d\015\012\000"
 2498      37323050 
 2498      33302F50 
 2498      32352F50 
 2498      36302F50 
 2499 01a7 00       		.align	2
 2500              	.LC46:
 2501 01a8 43564253 		.ascii	"CVBS    mode:%d\015\012\000"
 2501      20202020 
 2501      6D6F6465 
 2501      3A25640D 
 2501      0A00
 2502 01ba 0000     		.align	2
 2503              	.LC47:
 2504 01bc 6261636B 		.ascii	"back to T ch%02x\015\012\000"
 2504      20746F20 
 2504      54206368 
 2504      25303278 
 2504      0D0A00
 2505 01cf 00       		.align	2
 2506              	.LC48:
 2507 01d0 45676169 		.ascii	"Egain=0x%02x ch%02x,std=%d,mode=0x%02X\015\012\000"
 2507      6E3D3078 
 2507      25303278 
 2507      20636825 
 2507      3032782C 
 2508 01f9 000000   		.align	2
 2509              	.LC49:
 2510 01fc 28577269 		.ascii	"(WriteModeDataToEEPROM ch=%02x std=%02x mode=%02x)\015"
 2510      74654D6F 
 2510      64654461 
 2510      7461546F 
 2510      45455052 
 2511 022f 0A00     		.ascii	"\012\000"
 2512 0231 000000   		.align	2
 2513              	.LC50:
ARM GAS  C:\Users\ryanc.HS\AppData\Local\Temp\ccAQ3CYh.s 			page 88


 2514 0234 41484420 		.ascii	"AHD Mode\015\000"
 2514      4D6F6465 
 2514      0D00
 2515 023e 0000     		.align	2
 2516              	.LC51:
 2517 0240 43564920 		.ascii	"CVI Mode\015\000"
 2517      4D6F6465 
 2517      0D00
 2518 024a 0000     		.align	2
 2519              	.LC52:
 2520 024c 43564253 		.ascii	"CVBS NTSC   mode\015\000"
 2520      204E5453 
 2520      43202020 
 2520      6D6F6465 
 2520      0D00
 2521 025e 0000     		.align	2
 2522              	.LC53:
 2523 0260 43564253 		.ascii	"CVBS PAL   mode\015\000"
 2523      2050414C 
 2523      2020206D 
 2523      6F64650D 
 2523      00
 2524 0271 000000   		.align	2
 2525              	.LC54:
 2526 0274 4C494E45 		.ascii	"LINE=%d,TVI Mode\015\012\000"
 2526      3D25642C 
 2526      54564920 
 2526      4D6F6465 
 2526      0D0A00
 2527 0287 00       		.align	2
 2528              	.LC55:
 2529 0288 28545032 		.ascii	"(TP2824C_CVBS_PTZ_DataSet)\000"
 2529      38323443 
 2529      5F435642 
 2529      535F5054 
 2529      5A5F4461 
 2530 02a3 00       		.align	2
 2531              	.LC56:
 2532 02a4 28545032 		.ascii	"(TP2824C_TVI_FHD_PTZ_DataSet)\000"
 2532      38323443 
 2532      5F545649 
 2532      5F464844 
 2532      5F50545A 
 2533 02c2 0000     		.align	2
 2534              	.LC57:
 2535 02c4 45516465 		.ascii	"EQdet %d\015\012\000"
 2535      74202564 
 2535      0D0A00
 2536              		.section	.text.EQ_Detect,"ax",%progbits
 2537              		.align	1
 2538              		.global	EQ_Detect
 2539              		.syntax unified
 2540              		.thumb
 2541              		.thumb_func
 2542              		.fpu softvfp
 2544              	EQ_Detect:
 2545              	.LFB22:
ARM GAS  C:\Users\ryanc.HS\AppData\Local\Temp\ccAQ3CYh.s 			page 89


1804:TP2824/TP2802.c **** void EQ_Detect()
1805:TP2824/TP2802.c **** {
 2546              		.loc 1 1805 1 is_stmt 1 view -0
 2547              		.cfi_startproc
 2548              		@ args = 0, pretend = 0, frame = 0
 2549              		@ frame_needed = 0, uses_anonymous_args = 0
 2550 0000 2DE9F043 		push	{r4, r5, r6, r7, r8, r9, lr}
 2551              	.LCFI18:
 2552              		.cfi_def_cfa_offset 28
 2553              		.cfi_offset 4, -28
 2554              		.cfi_offset 5, -24
 2555              		.cfi_offset 6, -20
 2556              		.cfi_offset 7, -16
 2557              		.cfi_offset 8, -12
 2558              		.cfi_offset 9, -8
 2559              		.cfi_offset 14, -4
 2560 0004 83B0     		sub	sp, sp, #12
 2561              	.LCFI19:
 2562              		.cfi_def_cfa_offset 40
1806:TP2824/TP2802.c **** 	// tByte tmpval;
1807:TP2824/TP2802.c **** 	tByte cvstd, status, i;
 2563              		.loc 1 1807 2 view .LVU663
1808:TP2824/TP2802.c **** 	tByte gain, tmp, fmt, tmpab;
 2564              		.loc 1 1808 2 view .LVU664
1809:TP2824/TP2802.c **** 
1810:TP2824/TP2802.c **** 	for (i = 0; i < CH_PER_CHIP; i++) // scan four inputs:
 2565              		.loc 1 1810 2 view .LVU665
 2566              	.LVL244:
 2567              		.loc 1 1810 9 is_stmt 0 view .LVU666
 2568 0006 0024     		movs	r4, #0
 2569              		.loc 1 1810 2 view .LVU667
 2570 0008 51E0     		b	.L196
 2571              	.LVL245:
 2572              	.L294:
1811:TP2824/TP2802.c **** 	{
1812:TP2824/TP2802.c **** 		//	if((INPUT_VIDEO_CHECK(i))&&(BOOT_ISSUE==ON))
1813:TP2824/TP2802.c **** 		//      continue;
1814:TP2824/TP2802.c **** 
1815:TP2824/TP2802.c **** 		SetRegPage(i);
1816:TP2824/TP2802.c **** 		status = tp28xx_byte_read(0x01);
1817:TP2824/TP2802.c **** 
1818:TP2824/TP2802.c **** 		// state machine for video checking
1819:TP2824/TP2802.c **** 		if (status & FLAG_LOSS)
1820:TP2824/TP2802.c **** 		{
1821:TP2824/TP2802.c **** 
1822:TP2824/TP2802.c **** 			if (VIDEO_UNPLUG == state[i])
 2573              		.loc 1 1822 4 is_stmt 1 view .LVU668
 2574              		.loc 1 1822 29 is_stmt 0 view .LVU669
 2575 000a 2646     		mov	r6, r4
 2576 000c B74B     		ldr	r3, .L352
 2577 000e 1B5D     		ldrb	r3, [r3, r4]	@ zero_extendqisi2
 2578              		.loc 1 1822 7 view .LVU670
 2579 0010 002B     		cmp	r3, #0
 2580 0012 00F08E80 		beq	.L288
1823:TP2824/TP2802.c **** 			{
1824:TP2824/TP2802.c **** 				if (count[i] < MAX_COUNT)
1825:TP2824/TP2802.c **** 					count[i]++;
ARM GAS  C:\Users\ryanc.HS\AppData\Local\Temp\ccAQ3CYh.s 			page 90


1826:TP2824/TP2802.c **** 				continue;
1827:TP2824/TP2802.c **** 			}
1828:TP2824/TP2802.c **** 			else
1829:TP2824/TP2802.c **** 			{
1830:TP2824/TP2802.c **** 
1831:TP2824/TP2802.c **** 				state[i] = VIDEO_UNPLUG;
 2581              		.loc 1 1831 5 is_stmt 1 view .LVU671
 2582              		.loc 1 1831 14 is_stmt 0 view .LVU672
 2583 0016 0023     		movs	r3, #0
 2584 0018 B44A     		ldr	r2, .L352
 2585 001a 1355     		strb	r3, [r2, r4]
1832:TP2824/TP2802.c **** 				count[i] = 0;
 2586              		.loc 1 1832 5 is_stmt 1 view .LVU673
 2587              		.loc 1 1832 14 is_stmt 0 view .LVU674
 2588 001c B44A     		ldr	r2, .L352+4
 2589 001e 1355     		strb	r3, [r2, r4]
1833:TP2824/TP2802.c **** 
1834:TP2824/TP2802.c **** 				VideoSave[i] = 0;
 2590              		.loc 1 1834 5 is_stmt 1 view .LVU675
 2591              		.loc 1 1834 18 is_stmt 0 view .LVU676
 2592 0020 B44A     		ldr	r2, .L352+8
 2593 0022 1355     		strb	r3, [r2, r4]
1835:TP2824/TP2802.c **** 
1836:TP2824/TP2802.c **** #if 0
1837:TP2824/TP2802.c **** 	if(i==2)
1838:TP2824/TP2802.c **** 		{
1839:TP2824/TP2802.c **** 		if(bytSelectCAMRD==SelectCameraR)	
1840:TP2824/TP2802.c **** 		WriteEEP(EEP_TP2824_STD3,0);
1841:TP2824/TP2802.c **** 		else
1842:TP2824/TP2802.c **** 		WriteEEP(EEP_TP2824_STD4,0);
1843:TP2824/TP2802.c **** 		}
1844:TP2824/TP2802.c **** 	else
1845:TP2824/TP2802.c **** 		{
1846:TP2824/TP2802.c **** 		WriteEEP(EEP_TP2824_STD3,0);
1847:TP2824/TP2802.c **** 		}
1848:TP2824/TP2802.c **** 
1849:TP2824/TP2802.c **** #else
1850:TP2824/TP2802.c **** 				if (i == 3)
 2594              		.loc 1 1850 5 is_stmt 1 view .LVU677
 2595              		.loc 1 1850 8 is_stmt 0 view .LVU678
 2596 0024 032C     		cmp	r4, #3
 2597 0026 00F08C80 		beq	.L289
1851:TP2824/TP2802.c **** 				{
1852:TP2824/TP2802.c **** 					if (bytSelectCAMRD == SelectCameraR)
1853:TP2824/TP2802.c **** 					{
1854:TP2824/TP2802.c **** 						WriteEEP(EEP_TP2824_STD0 + (i * 3) + 2, 0xFF);
1855:TP2824/TP2802.c **** 						Printf("\r\n(#video loss ch%02x)", (WORD)i);
1856:TP2824/TP2802.c **** 					}
1857:TP2824/TP2802.c **** 					else
1858:TP2824/TP2802.c **** 					{
1859:TP2824/TP2802.c **** 						WriteEEP(EEP_TP2824_STD0 + ((i + 1) * 3) + 2, 0xFF);
1860:TP2824/TP2802.c **** 						Printf("\r\n(#video loss ch%02x)", (WORD)i);
1861:TP2824/TP2802.c **** 					}
1862:TP2824/TP2802.c **** 				}
1863:TP2824/TP2802.c **** 				else
1864:TP2824/TP2802.c **** 				{
1865:TP2824/TP2802.c **** 					WriteEEP(EEP_TP2824_STD0 + (i * 3) + 2, 0xFF);
ARM GAS  C:\Users\ryanc.HS\AppData\Local\Temp\ccAQ3CYh.s 			page 91


 2598              		.loc 1 1865 6 is_stmt 1 view .LVU679
 2599              		.loc 1 1865 36 is_stmt 0 view .LVU680
 2600 002a 04EB4400 		add	r0, r4, r4, lsl #1
 2601              	.LVL246:
 2602              		.loc 1 1865 6 view .LVU681
 2603 002e FF21     		movs	r1, #255
 2604 0030 C930     		adds	r0, r0, #201
 2605 0032 FFF7FEFF 		bl	WriteEEP
 2606              	.LVL247:
1866:TP2824/TP2802.c **** 					Printf("\r\n(#video loss ch%02x)", (WORD)i);
 2607              		.loc 1 1866 6 is_stmt 1 view .LVU682
 2608 0036 2146     		mov	r1, r4
 2609 0038 AF48     		ldr	r0, .L352+12
 2610 003a FFF7FEFF 		bl	Printf
 2611              	.LVL248:
 2612              	.L203:
1867:TP2824/TP2802.c **** 				}
1868:TP2824/TP2802.c **** 
1869:TP2824/TP2802.c **** #endif
1870:TP2824/TP2802.c **** 				TP28xx_reset_default(chip, i);
 2613              		.loc 1 1870 5 view .LVU683
 2614 003e 2146     		mov	r1, r4
 2615 0040 AE4B     		ldr	r3, .L352+16
 2616 0042 1878     		ldrb	r0, [r3]	@ zero_extendqisi2
 2617 0044 FFF7FEFF 		bl	TP28xx_reset_default
 2618              	.LVL249:
1871:TP2824/TP2802.c **** 				printf("video loss ch%02x\r\n", (tWord)i);
 2619              		.loc 1 1871 5 view .LVU684
 2620 0048 3146     		mov	r1, r6
 2621 004a AD48     		ldr	r0, .L352+20
 2622 004c FFF7FEFF 		bl	printf
 2623              	.LVL250:
1872:TP2824/TP2802.c **** 
1873:TP2824/TP2802.c **** 				mode[i] = NoDet;
 2624              		.loc 1 1873 5 view .LVU685
 2625              		.loc 1 1873 13 is_stmt 0 view .LVU686
 2626 0050 AC4B     		ldr	r3, .L352+24
 2627 0052 0722     		movs	r2, #7
 2628 0054 9A55     		strb	r2, [r3, r6]
1874:TP2824/TP2802.c **** 				Set_VidRes(i);
 2629              		.loc 1 1874 5 is_stmt 1 view .LVU687
 2630 0056 2046     		mov	r0, r4
 2631 0058 FFF7FEFF 		bl	Set_VidRes
 2632              	.LVL251:
1875:TP2824/TP2802.c **** 				VS4210_Rx_NoSignal(i); // chunyu
 2633              		.loc 1 1875 5 view .LVU688
 2634 005c 2046     		mov	r0, r4
 2635 005e FFF7FEFF 		bl	VS4210_Rx_NoSignal
 2636              	.LVL252:
1876:TP2824/TP2802.c **** 				QuadBoxId &= ~(1 << i);
 2637              		.loc 1 1876 5 view .LVU689
 2638              		.loc 1 1876 22 is_stmt 0 view .LVU690
 2639 0062 0123     		movs	r3, #1
 2640 0064 03FA06F2 		lsl	r2, r3, r6
 2641              		.loc 1 1876 15 view .LVU691
 2642 0068 A749     		ldr	r1, .L352+28
 2643 006a 0B78     		ldrb	r3, [r1]	@ zero_extendqisi2
ARM GAS  C:\Users\ryanc.HS\AppData\Local\Temp\ccAQ3CYh.s 			page 92


 2644 006c 23EA0203 		bic	r3, r3, r2
 2645 0070 0B70     		strb	r3, [r1]
1877:TP2824/TP2802.c **** 
1878:TP2824/TP2802.c **** 				Flisheye_CAM[i] = FALSE;
 2646              		.loc 1 1878 5 is_stmt 1 view .LVU692
 2647              		.loc 1 1878 21 is_stmt 0 view .LVU693
 2648 0072 0021     		movs	r1, #0
 2649 0074 A54B     		ldr	r3, .L352+32
 2650 0076 9955     		strb	r1, [r3, r6]
1879:TP2824/TP2802.c **** 				Flisheye_VLOSS_Count[i] = 0;
 2651              		.loc 1 1879 5 is_stmt 1 view .LVU694
 2652              		.loc 1 1879 29 is_stmt 0 view .LVU695
 2653 0078 A54B     		ldr	r3, .L352+36
 2654 007a 43F82610 		str	r1, [r3, r6, lsl #2]
1880:TP2824/TP2802.c **** 				WriteEEP((EEP_FlishCAM1 + i), FALSE);
 2655              		.loc 1 1880 5 is_stmt 1 view .LVU696
 2656 007e 06F1D800 		add	r0, r6, #216
 2657 0082 FFF7FEFF 		bl	WriteEEP
 2658              	.LVL253:
1881:TP2824/TP2802.c **** 
1882:TP2824/TP2802.c **** 				if (GetDisplayedOSD() & (MENU | TVVOL | _COC_OSD | _VERSION_OSD))
 2659              		.loc 1 1882 5 view .LVU697
 2660              		.loc 1 1882 9 is_stmt 0 view .LVU698
 2661 0086 FFF7FEFF 		bl	GetDisplayedOSD
 2662              	.LVL254:
 2663              		.loc 1 1882 8 view .LVU699
 2664 008a 10F0660F 		tst	r0, #102
 2665 008e 73D1     		bne	.L290
 2666              	.L204:
1883:TP2824/TP2802.c **** 					CloseOSDMenu();
1884:TP2824/TP2802.c **** 
1885:TP2824/TP2802.c **** 				ShowJUMPOSD();
 2667              		.loc 1 1885 5 is_stmt 1 view .LVU700
 2668 0090 FFF7FEFF 		bl	ShowJUMPOSD
 2669              	.LVL255:
 2670              	.L205:
1886:TP2824/TP2802.c **** 			}
1887:TP2824/TP2802.c **** 		}
1888:TP2824/TP2802.c **** 		else
1889:TP2824/TP2802.c **** 		{
1890:TP2824/TP2802.c **** 			if (PAL == mode[i] || NTSC == mode[i])
1891:TP2824/TP2802.c **** 				flag_LOCKED = CVBS_FLAG_LOCKED;
1892:TP2824/TP2802.c **** 			else
1893:TP2824/TP2802.c **** 				flag_LOCKED = TVI_FLAG_LOCKED;
1894:TP2824/TP2802.c **** 
1895:TP2824/TP2802.c **** 			if (flag_LOCKED == (status & flag_LOCKED)) // video locked
1896:TP2824/TP2802.c **** 			{
1897:TP2824/TP2802.c **** 				if (VIDEO_LOCKED == state[i])
1898:TP2824/TP2802.c **** 				{
1899:TP2824/TP2802.c **** 					if (count[i] < MAX_COUNT)
1900:TP2824/TP2802.c **** 					{
1901:TP2824/TP2802.c **** 						count[i]++;
1902:TP2824/TP2802.c **** 						// if (i==0)
1903:TP2824/TP2802.c **** 						// Printf("(count[%02x]=%02x)",(tWord)i, (tWord)count[i]);
1904:TP2824/TP2802.c **** 					}
1905:TP2824/TP2802.c **** #if 0
1906:TP2824/TP2802.c **** 				if(VideoSave[i]==_TRUE)
ARM GAS  C:\Users\ryanc.HS\AppData\Local\Temp\ccAQ3CYh.s 			page 93


1907:TP2824/TP2802.c **** 				{
1908:TP2824/TP2802.c **** 			 		if((count[i]==1)&&((mode[i] == NTSC) ||( mode[i] == PAL)))
1909:TP2824/TP2802.c **** 			 		count[i]=20;//ryan@20200903
1910:TP2824/TP2802.c **** 			 		else if((count[i]==1)/*&&(ReadEEP(EEP_TP2824_STD0+(i*3))==HDA)*/)
1911:TP2824/TP2802.c **** 			 			{
1912:TP2824/TP2802.c **** 			 			std[i]=ReadEEP(EEP_TP2824_STD0+(i*3));
1913:TP2824/TP2802.c **** 						
1914:TP2824/TP2802.c **** 		 			 		if(std[i]==HDC)
1915:TP2824/TP2802.c **** 							{
1916:TP2824/TP2802.c **** 							Set_HDC(i);
1917:TP2824/TP2802.c **** 							printf("(Set_HDC)");
1918:TP2824/TP2802.c **** 							}
1919:TP2824/TP2802.c **** 							 if(std[i]==HDA)
1920:TP2824/TP2802.c **** 						 	{
1921:TP2824/TP2802.c **** 						 	Set_HDA(i);
1922:TP2824/TP2802.c **** 							printf("(Set_HDA)");
1923:TP2824/TP2802.c **** 						 	}
1924:TP2824/TP2802.c **** 							 
1925:TP2824/TP2802.c **** 						count[i]=20;
1926:TP2824/TP2802.c **** 			 			}
1927:TP2824/TP2802.c **** 					
1928:TP2824/TP2802.c **** 				}
1929:TP2824/TP2802.c **** #endif
1930:TP2824/TP2802.c **** 				}
1931:TP2824/TP2802.c **** 				else if (VIDEO_UNPLUG == state[i])
1932:TP2824/TP2802.c **** 				{
1933:TP2824/TP2802.c **** 					state[i] = VIDEO_IN;
1934:TP2824/TP2802.c **** 					count[i] = 0;
1935:TP2824/TP2802.c **** 					printf("1video in ch%02x \r\n", (tWord)i);
1936:TP2824/TP2802.c **** 				}
1937:TP2824/TP2802.c **** 				else
1938:TP2824/TP2802.c **** 				{
1939:TP2824/TP2802.c **** 					state[i] = VIDEO_LOCKED;
1940:TP2824/TP2802.c **** 					count[i] = 0;
1941:TP2824/TP2802.c **** 					printf("video locked ch%02x \r\n", (tWord)i);
1942:TP2824/TP2802.c **** 					Flisheye_VLOSS_Count[i] = 0;
1943:TP2824/TP2802.c **** 				}
1944:TP2824/TP2802.c **** 			}
1945:TP2824/TP2802.c **** 			else // video in but unlocked
1946:TP2824/TP2802.c **** 			{
1947:TP2824/TP2802.c **** 
1948:TP2824/TP2802.c **** 				if (VIDEO_UNPLUG == state[i])
1949:TP2824/TP2802.c **** 				{
1950:TP2824/TP2802.c **** 					state[i] = VIDEO_IN;
1951:TP2824/TP2802.c **** 					count[i] = 0;
1952:TP2824/TP2802.c **** 					printf("video in ch%02x \r\n", (tWord)i);
1953:TP2824/TP2802.c **** 				}
1954:TP2824/TP2802.c **** 				else if (VIDEO_LOCKED == state[i])
1955:TP2824/TP2802.c **** 				{
1956:TP2824/TP2802.c **** 
1957:TP2824/TP2802.c **** 					if ((Flisheye_CAM[i] == TRUE) && (Flisheye_VLOSS_Count[i] < 100))
1958:TP2824/TP2802.c **** 					{
1959:TP2824/TP2802.c **** 						Flisheye_VLOSS_Count[i]++;
1960:TP2824/TP2802.c **** 					}
1961:TP2824/TP2802.c **** 					else if ((PAL == mode[i]) && (Flisheye_VLOSS_Count[i] < 2)) ///CAM R PALq
1962:TP2824/TP2802.c **** 					{
1963:TP2824/TP2802.c **** 						Flisheye_VLOSS_Count[i]++;
ARM GAS  C:\Users\ryanc.HS\AppData\Local\Temp\ccAQ3CYh.s 			page 94


1964:TP2824/TP2802.c **** 					}
1965:TP2824/TP2802.c **** 					else
1966:TP2824/TP2802.c **** 					{
1967:TP2824/TP2802.c **** 						VS4210_Rx_NoSignal(i); // chunyu
1968:TP2824/TP2802.c **** 						state[i] = VIDEO_UNLOCK;
1969:TP2824/TP2802.c **** 						count[i] = 0;
1970:TP2824/TP2802.c **** 						Printf("video unstable ch%02x \r\n", (tWord)i);
1971:TP2824/TP2802.c **** 
1972:TP2824/TP2802.c **** 						if (i == 3)
1973:TP2824/TP2802.c **** 						{
1974:TP2824/TP2802.c **** 							if (bytSelectCAMRD == SelectCameraR)
1975:TP2824/TP2802.c **** 							{
1976:TP2824/TP2802.c **** 								WriteEEP(EEP_TP2824_STD0 + (i * 3) + 2, 0xFF);
1977:TP2824/TP2802.c **** 								WriteEEP(EEP_TP2824_SAVE3, 0xFF);
1978:TP2824/TP2802.c **** 								VideoSave[i] = 0;
1979:TP2824/TP2802.c **** 								Printf("\r\n(#video loss ch%02x)", (WORD)i);
1980:TP2824/TP2802.c **** 							}
1981:TP2824/TP2802.c **** 							else
1982:TP2824/TP2802.c **** 							{
1983:TP2824/TP2802.c **** 								WriteEEP(EEP_TP2824_STD0 + ((i + 1) * 3) + 2, 0xFF);
1984:TP2824/TP2802.c **** 								WriteEEP(EEP_TP2824_SAVE4, 0xFF);
1985:TP2824/TP2802.c **** 								VideoSave[i] = 0;
1986:TP2824/TP2802.c **** 								Printf("\r\n(#video loss ch%02x)", (WORD)i);
1987:TP2824/TP2802.c **** 							}
1988:TP2824/TP2802.c **** 						}
1989:TP2824/TP2802.c **** 						else
1990:TP2824/TP2802.c **** 						{
1991:TP2824/TP2802.c **** 							WriteEEP(EEP_TP2824_STD0 + (i * 3) + 2, 0xFF);
1992:TP2824/TP2802.c **** 							VideoSave[i] = 0;
1993:TP2824/TP2802.c **** 							Printf("\r\n(#video loss ch%02x)", (WORD)i);
1994:TP2824/TP2802.c **** 						}
1995:TP2824/TP2802.c **** 					}
1996:TP2824/TP2802.c **** 				}
1997:TP2824/TP2802.c **** 				else
1998:TP2824/TP2802.c **** 				{
1999:TP2824/TP2802.c **** 					if (count[i] < MAX_COUNT)
2000:TP2824/TP2802.c **** 						count[i]++;
2001:TP2824/TP2802.c **** 					if (VIDEO_UNLOCK == state[i] && count[i] > 2)
2002:TP2824/TP2802.c **** 					{
2003:TP2824/TP2802.c **** 						state[i] = VIDEO_IN;
2004:TP2824/TP2802.c **** 						count[i] = 0;
2005:TP2824/TP2802.c **** 						TP28xx_reset_default(chip, i);
2006:TP2824/TP2802.c **** 						printf("video unlocked ch%02x \r\n", (tWord)i);
2007:TP2824/TP2802.c **** 						VS4210_Rx_NoSignal(i); // chunyu
2008:TP2824/TP2802.c **** 					}
2009:TP2824/TP2802.c **** 				}
2010:TP2824/TP2802.c **** 			}
2011:TP2824/TP2802.c **** 		}
2012:TP2824/TP2802.c **** 
2013:TP2824/TP2802.c **** 		if (VIDEO_IN == state[i])
 2671              		.loc 1 2013 3 view .LVU701
 2672              		.loc 1 2013 24 is_stmt 0 view .LVU702
 2673 0094 2646     		mov	r6, r4
 2674 0096 954B     		ldr	r3, .L352
 2675 0098 1B5D     		ldrb	r3, [r3, r4]	@ zero_extendqisi2
 2676              		.loc 1 2013 6 view .LVU703
 2677 009a 012B     		cmp	r3, #1
ARM GAS  C:\Users\ryanc.HS\AppData\Local\Temp\ccAQ3CYh.s 			page 95


 2678 009c 00F00581 		beq	.L291
 2679              	.L218:
2014:TP2824/TP2802.c **** 		{
2015:TP2824/TP2802.c **** 			cvstd = tp28xx_byte_read(0x03);
2016:TP2824/TP2802.c **** 			sywd = cvstd & 0x08;
2017:TP2824/TP2802.c **** 			cvstd &= 0x07;
2018:TP2824/TP2802.c **** 			fmt = mode[i];
2019:TP2824/TP2802.c **** 			if (NTPAL == cvstd && flag_CVBS)
2020:TP2824/TP2802.c **** 			{
2021:TP2824/TP2802.c **** 				// if(count[i] & 0x01)
2022:TP2824/TP2802.c **** 				if (status & 0x04)
2023:TP2824/TP2802.c **** 					fmt = PAL;
2024:TP2824/TP2802.c **** 				else
2025:TP2824/TP2802.c **** 					fmt = NTSC;
2026:TP2824/TP2802.c **** 			}
2027:TP2824/TP2802.c **** 			else if (cvstd == R720P30)
2028:TP2824/TP2802.c **** 			{
2029:TP2824/TP2802.c **** 				if (flag_MEGA && (count[i] & 0x02)) // 3M auto detect test
2030:TP2824/TP2802.c **** 					fmt = R4M12;
2031:TP2824/TP2802.c **** 				else
2032:TP2824/TP2802.c **** 					fmt = R720P30V2;
2033:TP2824/TP2802.c **** 			}
2034:TP2824/TP2802.c **** 			else if (cvstd == R720P25)
2035:TP2824/TP2802.c **** 			{
2036:TP2824/TP2802.c **** 				fmt = R720P25V2;
2037:TP2824/TP2802.c **** 			}
2038:TP2824/TP2802.c **** 			else if (cvstd == R1080P30)
2039:TP2824/TP2802.c **** 			{
2040:TP2824/TP2802.c **** 				if (flag_MEGA && (count[i] & 0x02)) // TP2853C 3M auto detect test
2041:TP2824/TP2802.c **** 					fmt = R3M20;
2042:TP2824/TP2802.c **** 				else
2043:TP2824/TP2802.c **** 					fmt = R1080P30;
2044:TP2824/TP2802.c **** 			}
2045:TP2824/TP2802.c **** 			else if (cvstd == R720P60)
2046:TP2824/TP2802.c **** 			{
2047:TP2824/TP2802.c **** 				if (flag_MEGA && (count[i] & 0x02)) // TP2853C 3M auto detect test
2048:TP2824/TP2802.c **** 					fmt = R4M30;
2049:TP2824/TP2802.c **** 				else
2050:TP2824/TP2802.c **** 					fmt = R720P60;
2051:TP2824/TP2802.c **** 			}
2052:TP2824/TP2802.c **** 			else if (cvstd < 4)
2053:TP2824/TP2802.c **** 			{
2054:TP2824/TP2802.c **** 				fmt = cvstd;
2055:TP2824/TP2802.c **** 			}
2056:TP2824/TP2802.c **** 			else
2057:TP2824/TP2802.c **** 			{
2058:TP2824/TP2802.c **** 				if (flag_MEGA) // TP2853C 3M auto detect test
2059:TP2824/TP2802.c **** 				{
2060:TP2824/TP2802.c **** 					tp28xx_byte_write(0x2f, 0x09);
2061:TP2824/TP2802.c **** 					tmp = tp28xx_byte_read(0x04);
2062:TP2824/TP2802.c **** 					if ((tmp > 0x48) && (tmp < 0x55))
2063:TP2824/TP2802.c **** 					{
2064:TP2824/TP2802.c **** 						fmt = R3M18;
2065:TP2824/TP2802.c **** 					}
2066:TP2824/TP2802.c **** 					else if ((tmp > 0x55) && (tmp < 0x62))
2067:TP2824/TP2802.c **** 					{
2068:TP2824/TP2802.c **** 						fmt = R4M15;
ARM GAS  C:\Users\ryanc.HS\AppData\Local\Temp\ccAQ3CYh.s 			page 96


2069:TP2824/TP2802.c **** 					}
2070:TP2824/TP2802.c **** 					else if ((tmp > 0x70) && (tmp < 0x80))
2071:TP2824/TP2802.c **** 					{
2072:TP2824/TP2802.c **** 						fmt = R6M10;
2073:TP2824/TP2802.c **** 					}
2074:TP2824/TP2802.c **** 				}
2075:TP2824/TP2802.c **** 			}
2076:TP2824/TP2802.c **** 			/*
2077:TP2824/TP2802.c **** 					if(VideoSave[i]==_TRUE)
2078:TP2824/TP2802.c **** 					{
2079:TP2824/TP2802.c **** 					printf("(B)");
2080:TP2824/TP2802.c **** 					Set_VidRes(i);
2081:TP2824/TP2802.c **** 					}
2082:TP2824/TP2802.c **** 					else
2083:TP2824/TP2802.c **** 						*/
2084:TP2824/TP2802.c **** 			{
2085:TP2824/TP2802.c **** 				if (mode[i] != fmt)
2086:TP2824/TP2802.c **** 				{
2087:TP2824/TP2802.c **** 					mode[i] = fmt;
2088:TP2824/TP2802.c **** 					printf("Set_VidResmode[%d] =%d\r\n", (int)i, (int)fmt);
2089:TP2824/TP2802.c **** 					Set_VidRes(i);
2090:TP2824/TP2802.c **** 				}
2091:TP2824/TP2802.c **** 			}
2092:TP2824/TP2802.c **** 		}
2093:TP2824/TP2802.c **** 
2094:TP2824/TP2802.c **** 		if (VIDEO_LOCKED == state[i]) // check signal lock
 2680              		.loc 1 2094 3 is_stmt 1 view .LVU704
 2681              		.loc 1 2094 28 is_stmt 0 view .LVU705
 2682 00a0 924B     		ldr	r3, .L352
 2683 00a2 9B5D     		ldrb	r3, [r3, r6]	@ zero_extendqisi2
 2684              		.loc 1 2094 6 view .LVU706
 2685 00a4 022B     		cmp	r3, #2
 2686 00a6 00F0A081 		beq	.L292
 2687              	.L200:
1810:TP2824/TP2802.c **** 	{
 2688              		.loc 1 1810 31 is_stmt 1 discriminator 2 view .LVU707
1810:TP2824/TP2802.c **** 	{
 2689              		.loc 1 1810 32 is_stmt 0 discriminator 2 view .LVU708
 2690 00aa 0134     		adds	r4, r4, #1
 2691              	.LVL256:
1810:TP2824/TP2802.c **** 	{
 2692              		.loc 1 1810 32 discriminator 2 view .LVU709
 2693 00ac E4B2     		uxtb	r4, r4
 2694              	.LVL257:
 2695              	.L196:
1810:TP2824/TP2802.c **** 	{
 2696              		.loc 1 1810 14 is_stmt 1 discriminator 1 view .LVU710
1810:TP2824/TP2802.c **** 	{
 2697              		.loc 1 1810 2 is_stmt 0 discriminator 1 view .LVU711
 2698 00ae 032C     		cmp	r4, #3
 2699 00b0 00F2CE85 		bhi	.L293
1815:TP2824/TP2802.c **** 		status = tp28xx_byte_read(0x01);
 2700              		.loc 1 1815 3 is_stmt 1 view .LVU712
 2701 00b4 2046     		mov	r0, r4
 2702 00b6 FFF7FEFF 		bl	SetRegPage
 2703              	.LVL258:
1816:TP2824/TP2802.c **** 
ARM GAS  C:\Users\ryanc.HS\AppData\Local\Temp\ccAQ3CYh.s 			page 97


 2704              		.loc 1 1816 3 view .LVU713
1816:TP2824/TP2802.c **** 
 2705              		.loc 1 1816 12 is_stmt 0 view .LVU714
 2706 00ba 0120     		movs	r0, #1
 2707 00bc FFF7FEFF 		bl	tp28xx_byte_read
 2708              	.LVL259:
 2709 00c0 0546     		mov	r5, r0
 2710              	.LVL260:
1819:TP2824/TP2802.c **** 		{
 2711              		.loc 1 1819 3 is_stmt 1 view .LVU715
1819:TP2824/TP2802.c **** 		{
 2712              		.loc 1 1819 6 is_stmt 0 view .LVU716
 2713 00c2 10F0800F 		tst	r0, #128
 2714 00c6 A0D1     		bne	.L294
1890:TP2824/TP2802.c **** 				flag_LOCKED = CVBS_FLAG_LOCKED;
 2715              		.loc 1 1890 4 is_stmt 1 view .LVU717
1890:TP2824/TP2802.c **** 				flag_LOCKED = CVBS_FLAG_LOCKED;
 2716              		.loc 1 1890 19 is_stmt 0 view .LVU718
 2717 00c8 2646     		mov	r6, r4
 2718 00ca 8E4B     		ldr	r3, .L352+24
 2719 00cc 1A5D     		ldrb	r2, [r3, r4]	@ zero_extendqisi2
1890:TP2824/TP2802.c **** 				flag_LOCKED = CVBS_FLAG_LOCKED;
 2720              		.loc 1 1890 23 view .LVU719
 2721 00ce A2F10803 		sub	r3, r2, #8
 2722 00d2 DBB2     		uxtb	r3, r3
1890:TP2824/TP2802.c **** 				flag_LOCKED = CVBS_FLAG_LOCKED;
 2723              		.loc 1 1890 7 view .LVU720
 2724 00d4 012B     		cmp	r3, #1
 2725 00d6 52D9     		bls	.L295
1893:TP2824/TP2802.c **** 
 2726              		.loc 1 1893 5 is_stmt 1 view .LVU721
1893:TP2824/TP2802.c **** 
 2727              		.loc 1 1893 17 is_stmt 0 view .LVU722
 2728 00d8 8E4B     		ldr	r3, .L352+40
 2729 00da 6021     		movs	r1, #96
 2730 00dc 1970     		strb	r1, [r3]
 2731              	.L207:
1895:TP2824/TP2802.c **** 			{
 2732              		.loc 1 1895 4 is_stmt 1 view .LVU723
1895:TP2824/TP2802.c **** 			{
 2733              		.loc 1 1895 20 is_stmt 0 view .LVU724
 2734 00de 8D4B     		ldr	r3, .L352+40
 2735 00e0 1B78     		ldrb	r3, [r3]	@ zero_extendqisi2
1895:TP2824/TP2802.c **** 			{
 2736              		.loc 1 1895 7 view .LVU725
 2737 00e2 AB43     		bics	r3, r3, r5
 2738 00e4 4FD0     		beq	.L296
1948:TP2824/TP2802.c **** 				{
 2739              		.loc 1 1948 5 is_stmt 1 view .LVU726
1948:TP2824/TP2802.c **** 				{
 2740              		.loc 1 1948 30 is_stmt 0 view .LVU727
 2741 00e6 814B     		ldr	r3, .L352
 2742 00e8 9B5D     		ldrb	r3, [r3, r6]	@ zero_extendqisi2
1948:TP2824/TP2802.c **** 				{
 2743              		.loc 1 1948 8 view .LVU728
 2744 00ea 002B     		cmp	r3, #0
 2745 00ec 72D0     		beq	.L297
ARM GAS  C:\Users\ryanc.HS\AppData\Local\Temp\ccAQ3CYh.s 			page 98


1954:TP2824/TP2802.c **** 				{
 2746              		.loc 1 1954 10 is_stmt 1 view .LVU729
1954:TP2824/TP2802.c **** 				{
 2747              		.loc 1 1954 13 is_stmt 0 view .LVU730
 2748 00ee 022B     		cmp	r3, #2
 2749 00f0 7BD0     		beq	.L298
1999:TP2824/TP2802.c **** 						count[i]++;
 2750              		.loc 1 1999 6 is_stmt 1 view .LVU731
1999:TP2824/TP2802.c **** 						count[i]++;
 2751              		.loc 1 1999 15 is_stmt 0 view .LVU732
 2752 00f2 7F4A     		ldr	r2, .L352+4
 2753 00f4 925D     		ldrb	r2, [r2, r6]	@ zero_extendqisi2
1999:TP2824/TP2802.c **** 						count[i]++;
 2754              		.loc 1 1999 9 view .LVU733
 2755 00f6 FF2A     		cmp	r2, #255
 2756 00f8 02D0     		beq	.L217
2000:TP2824/TP2802.c **** 					if (VIDEO_UNLOCK == state[i] && count[i] > 2)
 2757              		.loc 1 2000 7 is_stmt 1 view .LVU734
2000:TP2824/TP2802.c **** 					if (VIDEO_UNLOCK == state[i] && count[i] > 2)
 2758              		.loc 1 2000 15 is_stmt 0 view .LVU735
 2759 00fa 0132     		adds	r2, r2, #1
 2760 00fc 7C49     		ldr	r1, .L352+4
 2761 00fe 8A55     		strb	r2, [r1, r6]
 2762              	.L217:
2001:TP2824/TP2802.c **** 					{
 2763              		.loc 1 2001 6 is_stmt 1 view .LVU736
2001:TP2824/TP2802.c **** 					{
 2764              		.loc 1 2001 9 is_stmt 0 view .LVU737
 2765 0100 032B     		cmp	r3, #3
 2766 0102 C7D1     		bne	.L205
2001:TP2824/TP2802.c **** 					{
 2767              		.loc 1 2001 43 discriminator 1 view .LVU738
 2768 0104 7A4B     		ldr	r3, .L352+4
 2769 0106 9B5D     		ldrb	r3, [r3, r6]	@ zero_extendqisi2
2001:TP2824/TP2802.c **** 					{
 2770              		.loc 1 2001 35 discriminator 1 view .LVU739
 2771 0108 022B     		cmp	r3, #2
 2772 010a C3D9     		bls	.L205
2003:TP2824/TP2802.c **** 						count[i] = 0;
 2773              		.loc 1 2003 7 is_stmt 1 view .LVU740
2003:TP2824/TP2802.c **** 						count[i] = 0;
 2774              		.loc 1 2003 16 is_stmt 0 view .LVU741
 2775 010c 774B     		ldr	r3, .L352
 2776 010e 0122     		movs	r2, #1
 2777 0110 9A55     		strb	r2, [r3, r6]
2004:TP2824/TP2802.c **** 						TP28xx_reset_default(chip, i);
 2778              		.loc 1 2004 7 is_stmt 1 view .LVU742
2004:TP2824/TP2802.c **** 						TP28xx_reset_default(chip, i);
 2779              		.loc 1 2004 16 is_stmt 0 view .LVU743
 2780 0112 774B     		ldr	r3, .L352+4
 2781 0114 0022     		movs	r2, #0
 2782 0116 9A55     		strb	r2, [r3, r6]
2005:TP2824/TP2802.c **** 						printf("video unlocked ch%02x \r\n", (tWord)i);
 2783              		.loc 1 2005 7 is_stmt 1 view .LVU744
 2784 0118 2146     		mov	r1, r4
 2785 011a 784B     		ldr	r3, .L352+16
 2786 011c 1878     		ldrb	r0, [r3]	@ zero_extendqisi2
ARM GAS  C:\Users\ryanc.HS\AppData\Local\Temp\ccAQ3CYh.s 			page 99


 2787              	.LVL261:
2005:TP2824/TP2802.c **** 						printf("video unlocked ch%02x \r\n", (tWord)i);
 2788              		.loc 1 2005 7 is_stmt 0 view .LVU745
 2789 011e FFF7FEFF 		bl	TP28xx_reset_default
 2790              	.LVL262:
2006:TP2824/TP2802.c **** 						VS4210_Rx_NoSignal(i); // chunyu
 2791              		.loc 1 2006 7 is_stmt 1 view .LVU746
 2792 0122 3146     		mov	r1, r6
 2793 0124 7C48     		ldr	r0, .L352+44
 2794 0126 FFF7FEFF 		bl	printf
 2795              	.LVL263:
2007:TP2824/TP2802.c **** 					}
 2796              		.loc 1 2007 7 view .LVU747
 2797 012a 2046     		mov	r0, r4
 2798 012c FFF7FEFF 		bl	VS4210_Rx_NoSignal
 2799              	.LVL264:
 2800 0130 B0E7     		b	.L205
 2801              	.LVL265:
 2802              	.L288:
1824:TP2824/TP2802.c **** 					count[i]++;
 2803              		.loc 1 1824 5 view .LVU748
1824:TP2824/TP2802.c **** 					count[i]++;
 2804              		.loc 1 1824 14 is_stmt 0 view .LVU749
 2805 0132 6F4B     		ldr	r3, .L352+4
 2806 0134 1B5D     		ldrb	r3, [r3, r4]	@ zero_extendqisi2
1824:TP2824/TP2802.c **** 					count[i]++;
 2807              		.loc 1 1824 8 view .LVU750
 2808 0136 FF2B     		cmp	r3, #255
 2809 0138 B7D0     		beq	.L200
1825:TP2824/TP2802.c **** 				continue;
 2810              		.loc 1 1825 6 is_stmt 1 view .LVU751
1825:TP2824/TP2802.c **** 				continue;
 2811              		.loc 1 1825 14 is_stmt 0 view .LVU752
 2812 013a 0133     		adds	r3, r3, #1
 2813 013c 6C4A     		ldr	r2, .L352+4
 2814 013e 1355     		strb	r3, [r2, r4]
1826:TP2824/TP2802.c **** 			}
 2815              		.loc 1 1826 5 is_stmt 1 view .LVU753
 2816 0140 B3E7     		b	.L200
 2817              	.L289:
1852:TP2824/TP2802.c **** 					{
 2818              		.loc 1 1852 6 view .LVU754
1852:TP2824/TP2802.c **** 					{
 2819              		.loc 1 1852 25 is_stmt 0 view .LVU755
 2820 0142 764B     		ldr	r3, .L352+48
 2821 0144 1B78     		ldrb	r3, [r3]	@ zero_extendqisi2
1852:TP2824/TP2802.c **** 					{
 2822              		.loc 1 1852 9 view .LVU756
 2823 0146 032B     		cmp	r3, #3
 2824 0148 0BD0     		beq	.L299
1859:TP2824/TP2802.c **** 						Printf("\r\n(#video loss ch%02x)", (WORD)i);
 2825              		.loc 1 1859 7 is_stmt 1 view .LVU757
1859:TP2824/TP2802.c **** 						Printf("\r\n(#video loss ch%02x)", (WORD)i);
 2826              		.loc 1 1859 38 is_stmt 0 view .LVU758
 2827 014a 601C     		adds	r0, r4, #1
 2828              	.LVL266:
1859:TP2824/TP2802.c **** 						Printf("\r\n(#video loss ch%02x)", (WORD)i);
ARM GAS  C:\Users\ryanc.HS\AppData\Local\Temp\ccAQ3CYh.s 			page 100


 2829              		.loc 1 1859 43 view .LVU759
 2830 014c 00EB4000 		add	r0, r0, r0, lsl #1
1859:TP2824/TP2802.c **** 						Printf("\r\n(#video loss ch%02x)", (WORD)i);
 2831              		.loc 1 1859 7 view .LVU760
 2832 0150 FF21     		movs	r1, #255
 2833 0152 C930     		adds	r0, r0, #201
 2834 0154 FFF7FEFF 		bl	WriteEEP
 2835              	.LVL267:
1860:TP2824/TP2802.c **** 					}
 2836              		.loc 1 1860 7 is_stmt 1 view .LVU761
 2837 0158 2146     		mov	r1, r4
 2838 015a 6748     		ldr	r0, .L352+12
 2839 015c FFF7FEFF 		bl	Printf
 2840              	.LVL268:
 2841 0160 6DE7     		b	.L203
 2842              	.LVL269:
 2843              	.L299:
1854:TP2824/TP2802.c **** 						Printf("\r\n(#video loss ch%02x)", (WORD)i);
 2844              		.loc 1 1854 7 view .LVU762
1854:TP2824/TP2802.c **** 						Printf("\r\n(#video loss ch%02x)", (WORD)i);
 2845              		.loc 1 1854 37 is_stmt 0 view .LVU763
 2846 0162 04EB4400 		add	r0, r4, r4, lsl #1
 2847              	.LVL270:
1854:TP2824/TP2802.c **** 						Printf("\r\n(#video loss ch%02x)", (WORD)i);
 2848              		.loc 1 1854 7 view .LVU764
 2849 0166 FF21     		movs	r1, #255
 2850 0168 C930     		adds	r0, r0, #201
 2851 016a FFF7FEFF 		bl	WriteEEP
 2852              	.LVL271:
1855:TP2824/TP2802.c **** 					}
 2853              		.loc 1 1855 7 is_stmt 1 view .LVU765
 2854 016e 2146     		mov	r1, r4
 2855 0170 6148     		ldr	r0, .L352+12
 2856 0172 FFF7FEFF 		bl	Printf
 2857              	.LVL272:
 2858 0176 62E7     		b	.L203
 2859              	.L290:
1883:TP2824/TP2802.c **** 
 2860              		.loc 1 1883 6 view .LVU766
 2861 0178 FFF7FEFF 		bl	CloseOSDMenu
 2862              	.LVL273:
 2863 017c 88E7     		b	.L204
 2864              	.LVL274:
 2865              	.L295:
1891:TP2824/TP2802.c **** 			else
 2866              		.loc 1 1891 5 view .LVU767
1891:TP2824/TP2802.c **** 			else
 2867              		.loc 1 1891 17 is_stmt 0 view .LVU768
 2868 017e 654B     		ldr	r3, .L352+40
 2869 0180 6021     		movs	r1, #96
 2870 0182 1970     		strb	r1, [r3]
 2871 0184 ABE7     		b	.L207
 2872              	.L296:
1897:TP2824/TP2802.c **** 				{
 2873              		.loc 1 1897 5 is_stmt 1 view .LVU769
1897:TP2824/TP2802.c **** 				{
 2874              		.loc 1 1897 30 is_stmt 0 view .LVU770
ARM GAS  C:\Users\ryanc.HS\AppData\Local\Temp\ccAQ3CYh.s 			page 101


 2875 0186 594B     		ldr	r3, .L352
 2876 0188 9B5D     		ldrb	r3, [r3, r6]	@ zero_extendqisi2
1897:TP2824/TP2802.c **** 				{
 2877              		.loc 1 1897 8 view .LVU771
 2878 018a 022B     		cmp	r3, #2
 2879 018c 0BD0     		beq	.L300
1931:TP2824/TP2802.c **** 				{
 2880              		.loc 1 1931 10 is_stmt 1 view .LVU772
1931:TP2824/TP2802.c **** 				{
 2881              		.loc 1 1931 13 is_stmt 0 view .LVU773
 2882 018e 9BB9     		cbnz	r3, .L210
1933:TP2824/TP2802.c **** 					count[i] = 0;
 2883              		.loc 1 1933 6 is_stmt 1 view .LVU774
1933:TP2824/TP2802.c **** 					count[i] = 0;
 2884              		.loc 1 1933 15 is_stmt 0 view .LVU775
 2885 0190 564B     		ldr	r3, .L352
 2886 0192 0122     		movs	r2, #1
 2887 0194 9A55     		strb	r2, [r3, r6]
1934:TP2824/TP2802.c **** 					printf("1video in ch%02x \r\n", (tWord)i);
 2888              		.loc 1 1934 6 is_stmt 1 view .LVU776
1934:TP2824/TP2802.c **** 					printf("1video in ch%02x \r\n", (tWord)i);
 2889              		.loc 1 1934 15 is_stmt 0 view .LVU777
 2890 0196 564B     		ldr	r3, .L352+4
 2891 0198 0022     		movs	r2, #0
 2892 019a 9A55     		strb	r2, [r3, r6]
1935:TP2824/TP2802.c **** 				}
 2893              		.loc 1 1935 6 is_stmt 1 view .LVU778
 2894 019c 3146     		mov	r1, r6
 2895 019e 6048     		ldr	r0, .L352+52
 2896              	.LVL275:
1935:TP2824/TP2802.c **** 				}
 2897              		.loc 1 1935 6 is_stmt 0 view .LVU779
 2898 01a0 FFF7FEFF 		bl	printf
 2899              	.LVL276:
 2900 01a4 76E7     		b	.L205
 2901              	.LVL277:
 2902              	.L300:
1899:TP2824/TP2802.c **** 					{
 2903              		.loc 1 1899 6 is_stmt 1 view .LVU780
1899:TP2824/TP2802.c **** 					{
 2904              		.loc 1 1899 15 is_stmt 0 view .LVU781
 2905 01a6 524B     		ldr	r3, .L352+4
 2906 01a8 9B5D     		ldrb	r3, [r3, r6]	@ zero_extendqisi2
1899:TP2824/TP2802.c **** 					{
 2907              		.loc 1 1899 9 view .LVU782
 2908 01aa FF2B     		cmp	r3, #255
 2909 01ac 3FF472AF 		beq	.L205
1901:TP2824/TP2802.c **** 						// if (i==0)
 2910              		.loc 1 1901 7 is_stmt 1 view .LVU783
1901:TP2824/TP2802.c **** 						// if (i==0)
 2911              		.loc 1 1901 15 is_stmt 0 view .LVU784
 2912 01b0 0133     		adds	r3, r3, #1
 2913 01b2 4F4A     		ldr	r2, .L352+4
 2914 01b4 9355     		strb	r3, [r2, r6]
 2915 01b6 6DE7     		b	.L205
 2916              	.L210:
1939:TP2824/TP2802.c **** 					count[i] = 0;
ARM GAS  C:\Users\ryanc.HS\AppData\Local\Temp\ccAQ3CYh.s 			page 102


 2917              		.loc 1 1939 6 is_stmt 1 view .LVU785
1939:TP2824/TP2802.c **** 					count[i] = 0;
 2918              		.loc 1 1939 15 is_stmt 0 view .LVU786
 2919 01b8 4C4B     		ldr	r3, .L352
 2920 01ba 0222     		movs	r2, #2
 2921 01bc 9A55     		strb	r2, [r3, r6]
1940:TP2824/TP2802.c **** 					printf("video locked ch%02x \r\n", (tWord)i);
 2922              		.loc 1 1940 6 is_stmt 1 view .LVU787
1940:TP2824/TP2802.c **** 					printf("video locked ch%02x \r\n", (tWord)i);
 2923              		.loc 1 1940 15 is_stmt 0 view .LVU788
 2924 01be 0027     		movs	r7, #0
 2925 01c0 4B4B     		ldr	r3, .L352+4
 2926 01c2 9F55     		strb	r7, [r3, r6]
1941:TP2824/TP2802.c **** 					Flisheye_VLOSS_Count[i] = 0;
 2927              		.loc 1 1941 6 is_stmt 1 view .LVU789
 2928 01c4 3146     		mov	r1, r6
 2929 01c6 5748     		ldr	r0, .L352+56
 2930              	.LVL278:
1941:TP2824/TP2802.c **** 					Flisheye_VLOSS_Count[i] = 0;
 2931              		.loc 1 1941 6 is_stmt 0 view .LVU790
 2932 01c8 FFF7FEFF 		bl	printf
 2933              	.LVL279:
1942:TP2824/TP2802.c **** 				}
 2934              		.loc 1 1942 6 is_stmt 1 view .LVU791
1942:TP2824/TP2802.c **** 				}
 2935              		.loc 1 1942 30 is_stmt 0 view .LVU792
 2936 01cc 504B     		ldr	r3, .L352+36
 2937 01ce 43F82670 		str	r7, [r3, r6, lsl #2]
 2938 01d2 5FE7     		b	.L205
 2939              	.LVL280:
 2940              	.L297:
1950:TP2824/TP2802.c **** 					count[i] = 0;
 2941              		.loc 1 1950 6 is_stmt 1 view .LVU793
1950:TP2824/TP2802.c **** 					count[i] = 0;
 2942              		.loc 1 1950 15 is_stmt 0 view .LVU794
 2943 01d4 454B     		ldr	r3, .L352
 2944 01d6 0122     		movs	r2, #1
 2945 01d8 9A55     		strb	r2, [r3, r6]
1951:TP2824/TP2802.c **** 					printf("video in ch%02x \r\n", (tWord)i);
 2946              		.loc 1 1951 6 is_stmt 1 view .LVU795
1951:TP2824/TP2802.c **** 					printf("video in ch%02x \r\n", (tWord)i);
 2947              		.loc 1 1951 15 is_stmt 0 view .LVU796
 2948 01da 454B     		ldr	r3, .L352+4
 2949 01dc 0022     		movs	r2, #0
 2950 01de 9A55     		strb	r2, [r3, r6]
1952:TP2824/TP2802.c **** 				}
 2951              		.loc 1 1952 6 is_stmt 1 view .LVU797
 2952 01e0 3146     		mov	r1, r6
 2953 01e2 5148     		ldr	r0, .L352+60
 2954              	.LVL281:
1952:TP2824/TP2802.c **** 				}
 2955              		.loc 1 1952 6 is_stmt 0 view .LVU798
 2956 01e4 FFF7FEFF 		bl	printf
 2957              	.LVL282:
 2958 01e8 54E7     		b	.L205
 2959              	.LVL283:
 2960              	.L298:
ARM GAS  C:\Users\ryanc.HS\AppData\Local\Temp\ccAQ3CYh.s 			page 103


1957:TP2824/TP2802.c **** 					{
 2961              		.loc 1 1957 6 is_stmt 1 view .LVU799
1957:TP2824/TP2802.c **** 					{
 2962              		.loc 1 1957 23 is_stmt 0 view .LVU800
 2963 01ea 484B     		ldr	r3, .L352+32
 2964 01ec 9B5D     		ldrb	r3, [r3, r6]	@ zero_extendqisi2
1957:TP2824/TP2802.c **** 					{
 2965              		.loc 1 1957 9 view .LVU801
 2966 01ee 012B     		cmp	r3, #1
 2967 01f0 23D0     		beq	.L301
 2968              	.L213:
1961:TP2824/TP2802.c **** 					{
 2969              		.loc 1 1961 11 is_stmt 1 view .LVU802
1961:TP2824/TP2802.c **** 					{
 2970              		.loc 1 1961 14 is_stmt 0 view .LVU803
 2971 01f2 092A     		cmp	r2, #9
 2972 01f4 04D1     		bne	.L214
1961:TP2824/TP2802.c **** 					{
 2973              		.loc 1 1961 56 discriminator 1 view .LVU804
 2974 01f6 464B     		ldr	r3, .L352+36
 2975 01f8 53F82630 		ldr	r3, [r3, r6, lsl #2]
1961:TP2824/TP2802.c **** 					{
 2976              		.loc 1 1961 32 discriminator 1 view .LVU805
 2977 01fc 012B     		cmp	r3, #1
 2978 01fe 26D9     		bls	.L302
 2979              	.L214:
1967:TP2824/TP2802.c **** 						state[i] = VIDEO_UNLOCK;
 2980              		.loc 1 1967 7 is_stmt 1 view .LVU806
 2981 0200 2046     		mov	r0, r4
 2982              	.LVL284:
1967:TP2824/TP2802.c **** 						state[i] = VIDEO_UNLOCK;
 2983              		.loc 1 1967 7 is_stmt 0 view .LVU807
 2984 0202 FFF7FEFF 		bl	VS4210_Rx_NoSignal
 2985              	.LVL285:
1968:TP2824/TP2802.c **** 						count[i] = 0;
 2986              		.loc 1 1968 7 is_stmt 1 view .LVU808
1968:TP2824/TP2802.c **** 						count[i] = 0;
 2987              		.loc 1 1968 16 is_stmt 0 view .LVU809
 2988 0206 394B     		ldr	r3, .L352
 2989 0208 0322     		movs	r2, #3
 2990 020a 9A55     		strb	r2, [r3, r6]
1969:TP2824/TP2802.c **** 						Printf("video unstable ch%02x \r\n", (tWord)i);
 2991              		.loc 1 1969 7 is_stmt 1 view .LVU810
1969:TP2824/TP2802.c **** 						Printf("video unstable ch%02x \r\n", (tWord)i);
 2992              		.loc 1 1969 16 is_stmt 0 view .LVU811
 2993 020c 384B     		ldr	r3, .L352+4
 2994 020e 0022     		movs	r2, #0
 2995 0210 9A55     		strb	r2, [r3, r6]
1970:TP2824/TP2802.c **** 
 2996              		.loc 1 1970 7 is_stmt 1 view .LVU812
 2997 0212 3146     		mov	r1, r6
 2998 0214 4548     		ldr	r0, .L352+64
 2999 0216 FFF7FEFF 		bl	Printf
 3000              	.LVL286:
1972:TP2824/TP2802.c **** 						{
 3001              		.loc 1 1972 7 view .LVU813
1972:TP2824/TP2802.c **** 						{
ARM GAS  C:\Users\ryanc.HS\AppData\Local\Temp\ccAQ3CYh.s 			page 104


 3002              		.loc 1 1972 10 is_stmt 0 view .LVU814
 3003 021a 032C     		cmp	r4, #3
 3004 021c 1CD0     		beq	.L303
1991:TP2824/TP2802.c **** 							VideoSave[i] = 0;
 3005              		.loc 1 1991 8 is_stmt 1 view .LVU815
1991:TP2824/TP2802.c **** 							VideoSave[i] = 0;
 3006              		.loc 1 1991 38 is_stmt 0 view .LVU816
 3007 021e 06EB4600 		add	r0, r6, r6, lsl #1
1991:TP2824/TP2802.c **** 							VideoSave[i] = 0;
 3008              		.loc 1 1991 8 view .LVU817
 3009 0222 FF21     		movs	r1, #255
 3010 0224 C930     		adds	r0, r0, #201
 3011 0226 FFF7FEFF 		bl	WriteEEP
 3012              	.LVL287:
1992:TP2824/TP2802.c **** 							Printf("\r\n(#video loss ch%02x)", (WORD)i);
 3013              		.loc 1 1992 8 is_stmt 1 view .LVU818
1992:TP2824/TP2802.c **** 							Printf("\r\n(#video loss ch%02x)", (WORD)i);
 3014              		.loc 1 1992 21 is_stmt 0 view .LVU819
 3015 022a 324B     		ldr	r3, .L352+8
 3016 022c 0022     		movs	r2, #0
 3017 022e 9A55     		strb	r2, [r3, r6]
1993:TP2824/TP2802.c **** 						}
 3018              		.loc 1 1993 8 is_stmt 1 view .LVU820
 3019 0230 2146     		mov	r1, r4
 3020 0232 3148     		ldr	r0, .L352+12
 3021 0234 FFF7FEFF 		bl	Printf
 3022              	.LVL288:
 3023 0238 2CE7     		b	.L205
 3024              	.LVL289:
 3025              	.L301:
1957:TP2824/TP2802.c **** 					{
 3026              		.loc 1 1957 60 is_stmt 0 discriminator 1 view .LVU821
 3027 023a 354B     		ldr	r3, .L352+36
 3028 023c 53F82630 		ldr	r3, [r3, r6, lsl #2]
1957:TP2824/TP2802.c **** 					{
 3029              		.loc 1 1957 36 discriminator 1 view .LVU822
 3030 0240 632B     		cmp	r3, #99
 3031 0242 D6D8     		bhi	.L213
1959:TP2824/TP2802.c **** 					}
 3032              		.loc 1 1959 7 is_stmt 1 view .LVU823
1959:TP2824/TP2802.c **** 					}
 3033              		.loc 1 1959 30 is_stmt 0 view .LVU824
 3034 0244 0133     		adds	r3, r3, #1
 3035 0246 324A     		ldr	r2, .L352+36
 3036 0248 42F82630 		str	r3, [r2, r6, lsl #2]
 3037 024c 22E7     		b	.L205
 3038              	.L302:
1963:TP2824/TP2802.c **** 					}
 3039              		.loc 1 1963 7 is_stmt 1 view .LVU825
1963:TP2824/TP2802.c **** 					}
 3040              		.loc 1 1963 30 is_stmt 0 view .LVU826
 3041 024e 0133     		adds	r3, r3, #1
 3042 0250 2F4A     		ldr	r2, .L352+36
 3043 0252 42F82630 		str	r3, [r2, r6, lsl #2]
 3044 0256 1DE7     		b	.L205
 3045              	.LVL290:
 3046              	.L303:
ARM GAS  C:\Users\ryanc.HS\AppData\Local\Temp\ccAQ3CYh.s 			page 105


1974:TP2824/TP2802.c **** 							{
 3047              		.loc 1 1974 8 is_stmt 1 view .LVU827
1974:TP2824/TP2802.c **** 							{
 3048              		.loc 1 1974 27 is_stmt 0 view .LVU828
 3049 0258 304B     		ldr	r3, .L352+48
 3050 025a 1B78     		ldrb	r3, [r3]	@ zero_extendqisi2
1974:TP2824/TP2802.c **** 							{
 3051              		.loc 1 1974 11 view .LVU829
 3052 025c 032B     		cmp	r3, #3
 3053 025e 12D0     		beq	.L304
1983:TP2824/TP2802.c **** 								WriteEEP(EEP_TP2824_SAVE4, 0xFF);
 3054              		.loc 1 1983 9 is_stmt 1 view .LVU830
1983:TP2824/TP2802.c **** 								WriteEEP(EEP_TP2824_SAVE4, 0xFF);
 3055              		.loc 1 1983 40 is_stmt 0 view .LVU831
 3056 0260 701C     		adds	r0, r6, #1
1983:TP2824/TP2802.c **** 								WriteEEP(EEP_TP2824_SAVE4, 0xFF);
 3057              		.loc 1 1983 45 view .LVU832
 3058 0262 00EB4000 		add	r0, r0, r0, lsl #1
1983:TP2824/TP2802.c **** 								WriteEEP(EEP_TP2824_SAVE4, 0xFF);
 3059              		.loc 1 1983 9 view .LVU833
 3060 0266 FF21     		movs	r1, #255
 3061 0268 C930     		adds	r0, r0, #201
 3062 026a FFF7FEFF 		bl	WriteEEP
 3063              	.LVL291:
1984:TP2824/TP2802.c **** 								VideoSave[i] = 0;
 3064              		.loc 1 1984 9 is_stmt 1 view .LVU834
 3065 026e FF21     		movs	r1, #255
 3066 0270 D520     		movs	r0, #213
 3067 0272 FFF7FEFF 		bl	WriteEEP
 3068              	.LVL292:
1985:TP2824/TP2802.c **** 								Printf("\r\n(#video loss ch%02x)", (WORD)i);
 3069              		.loc 1 1985 9 view .LVU835
1985:TP2824/TP2802.c **** 								Printf("\r\n(#video loss ch%02x)", (WORD)i);
 3070              		.loc 1 1985 22 is_stmt 0 view .LVU836
 3071 0276 1F4B     		ldr	r3, .L352+8
 3072 0278 0022     		movs	r2, #0
 3073 027a 9A55     		strb	r2, [r3, r6]
1986:TP2824/TP2802.c **** 							}
 3074              		.loc 1 1986 9 is_stmt 1 view .LVU837
 3075 027c 2146     		mov	r1, r4
 3076 027e 1E48     		ldr	r0, .L352+12
 3077 0280 FFF7FEFF 		bl	Printf
 3078              	.LVL293:
 3079 0284 06E7     		b	.L205
 3080              	.L304:
1976:TP2824/TP2802.c **** 								WriteEEP(EEP_TP2824_SAVE3, 0xFF);
 3081              		.loc 1 1976 9 view .LVU838
1976:TP2824/TP2802.c **** 								WriteEEP(EEP_TP2824_SAVE3, 0xFF);
 3082              		.loc 1 1976 39 is_stmt 0 view .LVU839
 3083 0286 06EB4600 		add	r0, r6, r6, lsl #1
1976:TP2824/TP2802.c **** 								WriteEEP(EEP_TP2824_SAVE3, 0xFF);
 3084              		.loc 1 1976 9 view .LVU840
 3085 028a FF21     		movs	r1, #255
 3086 028c C930     		adds	r0, r0, #201
 3087 028e FFF7FEFF 		bl	WriteEEP
 3088              	.LVL294:
1977:TP2824/TP2802.c **** 								VideoSave[i] = 0;
ARM GAS  C:\Users\ryanc.HS\AppData\Local\Temp\ccAQ3CYh.s 			page 106


 3089              		.loc 1 1977 9 is_stmt 1 view .LVU841
 3090 0292 FF21     		movs	r1, #255
 3091 0294 D220     		movs	r0, #210
 3092 0296 FFF7FEFF 		bl	WriteEEP
 3093              	.LVL295:
1978:TP2824/TP2802.c **** 								Printf("\r\n(#video loss ch%02x)", (WORD)i);
 3094              		.loc 1 1978 9 view .LVU842
1978:TP2824/TP2802.c **** 								Printf("\r\n(#video loss ch%02x)", (WORD)i);
 3095              		.loc 1 1978 22 is_stmt 0 view .LVU843
 3096 029a 164B     		ldr	r3, .L352+8
 3097 029c 0022     		movs	r2, #0
 3098 029e 9A55     		strb	r2, [r3, r6]
1979:TP2824/TP2802.c **** 							}
 3099              		.loc 1 1979 9 is_stmt 1 view .LVU844
 3100 02a0 2146     		mov	r1, r4
 3101 02a2 1548     		ldr	r0, .L352+12
 3102 02a4 FFF7FEFF 		bl	Printf
 3103              	.LVL296:
 3104 02a8 F4E6     		b	.L205
 3105              	.L291:
2015:TP2824/TP2802.c **** 			sywd = cvstd & 0x08;
 3106              		.loc 1 2015 4 view .LVU845
2015:TP2824/TP2802.c **** 			sywd = cvstd & 0x08;
 3107              		.loc 1 2015 12 is_stmt 0 view .LVU846
 3108 02aa 0320     		movs	r0, #3
 3109 02ac FFF7FEFF 		bl	tp28xx_byte_read
 3110              	.LVL297:
2016:TP2824/TP2802.c **** 			cvstd &= 0x07;
 3111              		.loc 1 2016 4 is_stmt 1 view .LVU847
2016:TP2824/TP2802.c **** 			cvstd &= 0x07;
 3112              		.loc 1 2016 17 is_stmt 0 view .LVU848
 3113 02b0 00F00802 		and	r2, r0, #8
2016:TP2824/TP2802.c **** 			cvstd &= 0x07;
 3114              		.loc 1 2016 9 view .LVU849
 3115 02b4 1E4B     		ldr	r3, .L352+68
 3116 02b6 1A60     		str	r2, [r3]
2017:TP2824/TP2802.c **** 			fmt = mode[i];
 3117              		.loc 1 2017 4 is_stmt 1 view .LVU850
2017:TP2824/TP2802.c **** 			fmt = mode[i];
 3118              		.loc 1 2017 10 is_stmt 0 view .LVU851
 3119 02b8 00F00702 		and	r2, r0, #7
 3120              	.LVL298:
2018:TP2824/TP2802.c **** 			if (NTPAL == cvstd && flag_CVBS)
 3121              		.loc 1 2018 4 is_stmt 1 view .LVU852
2018:TP2824/TP2802.c **** 			if (NTPAL == cvstd && flag_CVBS)
 3122              		.loc 1 2018 8 is_stmt 0 view .LVU853
 3123 02bc 114B     		ldr	r3, .L352+24
 3124 02be 1F5D     		ldrb	r7, [r3, r4]	@ zero_extendqisi2
 3125              	.LVL299:
2019:TP2824/TP2802.c **** 			{
 3126              		.loc 1 2019 4 is_stmt 1 view .LVU854
2019:TP2824/TP2802.c **** 			{
 3127              		.loc 1 2019 7 is_stmt 0 view .LVU855
 3128 02c0 062A     		cmp	r2, #6
 3129 02c2 39D0     		beq	.L305
 3130              	.L219:
2027:TP2824/TP2802.c **** 			{
ARM GAS  C:\Users\ryanc.HS\AppData\Local\Temp\ccAQ3CYh.s 			page 107


 3131              		.loc 1 2027 9 is_stmt 1 view .LVU856
2027:TP2824/TP2802.c **** 			{
 3132              		.loc 1 2027 12 is_stmt 0 view .LVU857
 3133 02c4 042A     		cmp	r2, #4
 3134 02c6 40D0     		beq	.L306
2034:TP2824/TP2802.c **** 			{
 3135              		.loc 1 2034 9 is_stmt 1 view .LVU858
2034:TP2824/TP2802.c **** 			{
 3136              		.loc 1 2034 12 is_stmt 0 view .LVU859
 3137 02c8 052A     		cmp	r2, #5
 3138 02ca 78D0     		beq	.L280
2038:TP2824/TP2802.c **** 			{
 3139              		.loc 1 2038 9 is_stmt 1 view .LVU860
2038:TP2824/TP2802.c **** 			{
 3140              		.loc 1 2038 12 is_stmt 0 view .LVU861
 3141 02cc 022A     		cmp	r2, #2
 3142 02ce 46D0     		beq	.L307
2045:TP2824/TP2802.c **** 			{
 3143              		.loc 1 2045 9 is_stmt 1 view .LVU862
2045:TP2824/TP2802.c **** 			{
 3144              		.loc 1 2045 12 is_stmt 0 view .LVU863
 3145 02d0 002A     		cmp	r2, #0
 3146 02d2 4ED1     		bne	.L223
2047:TP2824/TP2802.c **** 					fmt = R4M30;
 3147              		.loc 1 2047 5 is_stmt 1 view .LVU864
2047:TP2824/TP2802.c **** 					fmt = R4M30;
 3148              		.loc 1 2047 9 is_stmt 0 view .LVU865
 3149 02d4 174B     		ldr	r3, .L352+72
 3150 02d6 1B68     		ldr	r3, [r3]
2047:TP2824/TP2802.c **** 					fmt = R4M30;
 3151              		.loc 1 2047 8 view .LVU866
 3152 02d8 002B     		cmp	r3, #0
 3153 02da 71D0     		beq	.L220
2047:TP2824/TP2802.c **** 					fmt = R4M30;
 3154              		.loc 1 2047 28 discriminator 1 view .LVU867
 3155 02dc 044B     		ldr	r3, .L352+4
 3156 02de 9B5D     		ldrb	r3, [r3, r6]	@ zero_extendqisi2
2047:TP2824/TP2802.c **** 					fmt = R4M30;
 3157              		.loc 1 2047 19 discriminator 1 view .LVU868
 3158 02e0 13F0020F 		tst	r3, #2
 3159 02e4 6CD0     		beq	.L220
2048:TP2824/TP2802.c **** 				else
 3160              		.loc 1 2048 10 view .LVU869
 3161 02e6 2622     		movs	r2, #38
 3162              	.LVL300:
2048:TP2824/TP2802.c **** 				else
 3163              		.loc 1 2048 10 view .LVU870
 3164 02e8 6AE0     		b	.L220
 3165              	.L353:
 3166 02ea 00BF     		.align	2
 3167              	.L352:
 3168 02ec 00000000 		.word	state
 3169 02f0 00000000 		.word	count
 3170 02f4 00000000 		.word	VideoSave
 3171 02f8 00000000 		.word	.LC28
 3172 02fc 00000000 		.word	chip
 3173 0300 18000000 		.word	.LC29
ARM GAS  C:\Users\ryanc.HS\AppData\Local\Temp\ccAQ3CYh.s 			page 108


 3174 0304 00000000 		.word	mode
 3175 0308 00000000 		.word	.LANCHOR17
 3176 030c 00000000 		.word	.LANCHOR18
 3177 0310 00000000 		.word	.LANCHOR19
 3178 0314 00000000 		.word	flag_LOCKED
 3179 0318 88000000 		.word	.LC34
 3180 031c 00000000 		.word	bytSelectCAMRD
 3181 0320 2C000000 		.word	.LC30
 3182 0324 40000000 		.word	.LC31
 3183 0328 58000000 		.word	.LC32
 3184 032c 6C000000 		.word	.LC33
 3185 0330 00000000 		.word	sywd
 3186 0334 00000000 		.word	flag_MEGA
 3187              	.LVL301:
 3188              	.L305:
2019:TP2824/TP2802.c **** 			{
 3189              		.loc 1 2019 23 discriminator 1 view .LVU871
 3190 0338 AC4B     		ldr	r3, .L354
 3191 033a 1B68     		ldr	r3, [r3]
 3192 033c 002B     		cmp	r3, #0
 3193 033e C1D0     		beq	.L219
2022:TP2824/TP2802.c **** 					fmt = PAL;
 3194              		.loc 1 2022 5 is_stmt 1 view .LVU872
2022:TP2824/TP2802.c **** 					fmt = PAL;
 3195              		.loc 1 2022 8 is_stmt 0 view .LVU873
 3196 0340 15F0040F 		tst	r5, #4
 3197 0344 35D0     		beq	.L277
2023:TP2824/TP2802.c **** 				else
 3198              		.loc 1 2023 10 view .LVU874
 3199 0346 0922     		movs	r2, #9
 3200              	.LVL302:
2023:TP2824/TP2802.c **** 				else
 3201              		.loc 1 2023 10 view .LVU875
 3202 0348 3AE0     		b	.L220
 3203              	.LVL303:
 3204              	.L306:
2029:TP2824/TP2802.c **** 					fmt = R4M12;
 3205              		.loc 1 2029 5 is_stmt 1 view .LVU876
2029:TP2824/TP2802.c **** 					fmt = R4M12;
 3206              		.loc 1 2029 9 is_stmt 0 view .LVU877
 3207 034a A94B     		ldr	r3, .L354+4
 3208 034c 1B68     		ldr	r3, [r3]
2029:TP2824/TP2802.c **** 					fmt = R4M12;
 3209              		.loc 1 2029 8 view .LVU878
 3210 034e 93B3     		cbz	r3, .L278
2029:TP2824/TP2802.c **** 					fmt = R4M12;
 3211              		.loc 1 2029 28 discriminator 1 view .LVU879
 3212 0350 A84B     		ldr	r3, .L354+8
 3213 0352 9B5D     		ldrb	r3, [r3, r6]	@ zero_extendqisi2
2029:TP2824/TP2802.c **** 					fmt = R4M12;
 3214              		.loc 1 2029 19 discriminator 1 view .LVU880
 3215 0354 13F0020F 		tst	r3, #2
 3216 0358 2FD1     		bne	.L279
2032:TP2824/TP2802.c **** 			}
 3217              		.loc 1 2032 10 view .LVU881
 3218 035a 0C22     		movs	r2, #12
 3219              	.LVL304:
ARM GAS  C:\Users\ryanc.HS\AppData\Local\Temp\ccAQ3CYh.s 			page 109


2032:TP2824/TP2802.c **** 			}
 3220              		.loc 1 2032 10 view .LVU882
 3221 035c 30E0     		b	.L220
 3222              	.LVL305:
 3223              	.L307:
2040:TP2824/TP2802.c **** 					fmt = R3M20;
 3224              		.loc 1 2040 5 is_stmt 1 view .LVU883
2040:TP2824/TP2802.c **** 					fmt = R3M20;
 3225              		.loc 1 2040 9 is_stmt 0 view .LVU884
 3226 035e A44B     		ldr	r3, .L354+4
 3227 0360 1B68     		ldr	r3, [r3]
2040:TP2824/TP2802.c **** 					fmt = R3M20;
 3228              		.loc 1 2040 8 view .LVU885
 3229 0362 6BB3     		cbz	r3, .L220
2040:TP2824/TP2802.c **** 					fmt = R3M20;
 3230              		.loc 1 2040 28 discriminator 1 view .LVU886
 3231 0364 A34B     		ldr	r3, .L354+8
 3232 0366 9B5D     		ldrb	r3, [r3, r6]	@ zero_extendqisi2
2040:TP2824/TP2802.c **** 					fmt = R3M20;
 3233              		.loc 1 2040 19 discriminator 1 view .LVU887
 3234 0368 13F0020F 		tst	r3, #2
 3235 036c 28D0     		beq	.L220
2041:TP2824/TP2802.c **** 				else
 3236              		.loc 1 2041 10 view .LVU888
 3237 036e 2322     		movs	r2, #35
 3238              	.LVL306:
2041:TP2824/TP2802.c **** 				else
 3239              		.loc 1 2041 10 view .LVU889
 3240 0370 26E0     		b	.L220
 3241              	.LVL307:
 3242              	.L223:
2052:TP2824/TP2802.c **** 			{
 3243              		.loc 1 2052 9 is_stmt 1 view .LVU890
2052:TP2824/TP2802.c **** 			{
 3244              		.loc 1 2052 12 is_stmt 0 view .LVU891
 3245 0372 10F0040F 		tst	r0, #4
 3246 0376 23D0     		beq	.L220
2058:TP2824/TP2802.c **** 				{
 3247              		.loc 1 2058 5 is_stmt 1 view .LVU892
2058:TP2824/TP2802.c **** 				{
 3248              		.loc 1 2058 9 is_stmt 0 view .LVU893
 3249 0378 9D4B     		ldr	r3, .L354+4
 3250 037a 1B68     		ldr	r3, [r3]
2058:TP2824/TP2802.c **** 				{
 3251              		.loc 1 2058 8 view .LVU894
 3252 037c 0BB9     		cbnz	r3, .L308
2018:TP2824/TP2802.c **** 			if (NTPAL == cvstd && flag_CVBS)
 3253              		.loc 1 2018 8 view .LVU895
 3254 037e 3A46     		mov	r2, r7
 3255              	.LVL308:
2018:TP2824/TP2802.c **** 			if (NTPAL == cvstd && flag_CVBS)
 3256              		.loc 1 2018 8 view .LVU896
 3257 0380 1EE0     		b	.L220
 3258              	.LVL309:
 3259              	.L308:
2060:TP2824/TP2802.c **** 					tmp = tp28xx_byte_read(0x04);
 3260              		.loc 1 2060 6 is_stmt 1 view .LVU897
ARM GAS  C:\Users\ryanc.HS\AppData\Local\Temp\ccAQ3CYh.s 			page 110


 3261 0382 0921     		movs	r1, #9
 3262 0384 2F20     		movs	r0, #47
 3263 0386 FFF7FEFF 		bl	tp28xx_byte_write
 3264              	.LVL310:
2061:TP2824/TP2802.c **** 					if ((tmp > 0x48) && (tmp < 0x55))
 3265              		.loc 1 2061 6 view .LVU898
2061:TP2824/TP2802.c **** 					if ((tmp > 0x48) && (tmp < 0x55))
 3266              		.loc 1 2061 12 is_stmt 0 view .LVU899
 3267 038a 0420     		movs	r0, #4
 3268 038c FFF7FEFF 		bl	tp28xx_byte_read
 3269              	.LVL311:
2062:TP2824/TP2802.c **** 					{
 3270              		.loc 1 2062 6 is_stmt 1 view .LVU900
2062:TP2824/TP2802.c **** 					{
 3271              		.loc 1 2062 23 is_stmt 0 view .LVU901
 3272 0390 A0F14903 		sub	r3, r0, #73
 3273 0394 DBB2     		uxtb	r3, r3
2062:TP2824/TP2802.c **** 					{
 3274              		.loc 1 2062 9 view .LVU902
 3275 0396 0B2B     		cmp	r3, #11
 3276 0398 21D9     		bls	.L284
2066:TP2824/TP2802.c **** 					{
 3277              		.loc 1 2066 11 is_stmt 1 view .LVU903
2066:TP2824/TP2802.c **** 					{
 3278              		.loc 1 2066 28 is_stmt 0 view .LVU904
 3279 039a A0F15603 		sub	r3, r0, #86
 3280 039e DBB2     		uxtb	r3, r3
2066:TP2824/TP2802.c **** 					{
 3281              		.loc 1 2066 14 view .LVU905
 3282 03a0 0B2B     		cmp	r3, #11
 3283 03a2 1ED9     		bls	.L285
2070:TP2824/TP2802.c **** 					{
 3284              		.loc 1 2070 11 is_stmt 1 view .LVU906
2070:TP2824/TP2802.c **** 					{
 3285              		.loc 1 2070 28 is_stmt 0 view .LVU907
 3286 03a4 A0F17103 		sub	r3, r0, #113
 3287 03a8 DBB2     		uxtb	r3, r3
2070:TP2824/TP2802.c **** 					{
 3288              		.loc 1 2070 14 view .LVU908
 3289 03aa 0E2B     		cmp	r3, #14
 3290 03ac 1BD9     		bls	.L286
2018:TP2824/TP2802.c **** 			if (NTPAL == cvstd && flag_CVBS)
 3291              		.loc 1 2018 8 view .LVU909
 3292 03ae 3A46     		mov	r2, r7
 3293 03b0 06E0     		b	.L220
 3294              	.LVL312:
 3295              	.L277:
2025:TP2824/TP2802.c **** 			}
 3296              		.loc 1 2025 10 view .LVU910
 3297 03b2 0822     		movs	r2, #8
 3298              	.LVL313:
2025:TP2824/TP2802.c **** 			}
 3299              		.loc 1 2025 10 view .LVU911
 3300 03b4 04E0     		b	.L220
 3301              	.LVL314:
 3302              	.L278:
2032:TP2824/TP2802.c **** 			}
ARM GAS  C:\Users\ryanc.HS\AppData\Local\Temp\ccAQ3CYh.s 			page 111


 3303              		.loc 1 2032 10 view .LVU912
 3304 03b6 0C22     		movs	r2, #12
 3305              	.LVL315:
2032:TP2824/TP2802.c **** 			}
 3306              		.loc 1 2032 10 view .LVU913
 3307 03b8 02E0     		b	.L220
 3308              	.LVL316:
 3309              	.L279:
2030:TP2824/TP2802.c **** 				else
 3310              		.loc 1 2030 10 view .LVU914
 3311 03ba 2422     		movs	r2, #36
 3312              	.LVL317:
2030:TP2824/TP2802.c **** 				else
 3313              		.loc 1 2030 10 view .LVU915
 3314 03bc 00E0     		b	.L220
 3315              	.LVL318:
 3316              	.L280:
2036:TP2824/TP2802.c **** 			}
 3317              		.loc 1 2036 9 view .LVU916
 3318 03be 0D22     		movs	r2, #13
 3319              	.LVL319:
 3320              	.L220:
2085:TP2824/TP2802.c **** 				{
 3321              		.loc 1 2085 5 is_stmt 1 view .LVU917
2085:TP2824/TP2802.c **** 				{
 3322              		.loc 1 2085 13 is_stmt 0 view .LVU918
 3323 03c0 8D4B     		ldr	r3, .L354+12
 3324 03c2 9B5D     		ldrb	r3, [r3, r6]	@ zero_extendqisi2
2085:TP2824/TP2802.c **** 				{
 3325              		.loc 1 2085 8 view .LVU919
 3326 03c4 9342     		cmp	r3, r2
 3327 03c6 3FF46BAE 		beq	.L218
2087:TP2824/TP2802.c **** 					printf("Set_VidResmode[%d] =%d\r\n", (int)i, (int)fmt);
 3328              		.loc 1 2087 6 is_stmt 1 view .LVU920
2087:TP2824/TP2802.c **** 					printf("Set_VidResmode[%d] =%d\r\n", (int)i, (int)fmt);
 3329              		.loc 1 2087 14 is_stmt 0 view .LVU921
 3330 03ca 8B4B     		ldr	r3, .L354+12
 3331 03cc 9A55     		strb	r2, [r3, r6]
2088:TP2824/TP2802.c **** 					Set_VidRes(i);
 3332              		.loc 1 2088 6 is_stmt 1 view .LVU922
 3333 03ce 3146     		mov	r1, r6
 3334 03d0 8A48     		ldr	r0, .L354+16
 3335 03d2 FFF7FEFF 		bl	printf
 3336              	.LVL320:
2089:TP2824/TP2802.c **** 				}
 3337              		.loc 1 2089 6 view .LVU923
 3338 03d6 2046     		mov	r0, r4
 3339 03d8 FFF7FEFF 		bl	Set_VidRes
 3340              	.LVL321:
 3341 03dc 60E6     		b	.L218
 3342              	.LVL322:
 3343              	.L284:
2064:TP2824/TP2802.c **** 					}
 3344              		.loc 1 2064 11 is_stmt 0 view .LVU924
 3345 03de 2022     		movs	r2, #32
 3346 03e0 EEE7     		b	.L220
 3347              	.L285:
ARM GAS  C:\Users\ryanc.HS\AppData\Local\Temp\ccAQ3CYh.s 			page 112


2068:TP2824/TP2802.c **** 					}
 3348              		.loc 1 2068 11 view .LVU925
 3349 03e2 2222     		movs	r2, #34
 3350 03e4 ECE7     		b	.L220
 3351              	.L286:
2072:TP2824/TP2802.c **** 					}
 3352              		.loc 1 2072 11 view .LVU926
 3353 03e6 2522     		movs	r2, #37
 3354 03e8 EAE7     		b	.L220
 3355              	.LVL323:
 3356              	.L292:
2095:TP2824/TP2802.c **** 		{
2096:TP2824/TP2802.c **** 			if (0 == count[i])
 3357              		.loc 1 2096 4 is_stmt 1 view .LVU927
 3358              		.loc 1 2096 18 is_stmt 0 view .LVU928
 3359 03ea 824B     		ldr	r3, .L354+8
 3360 03ec 9B5D     		ldrb	r3, [r3, r6]	@ zero_extendqisi2
 3361              		.loc 1 2096 7 view .LVU929
 3362 03ee 002B     		cmp	r3, #0
 3363 03f0 40F01881 		bne	.L224
2097:TP2824/TP2802.c **** 			{
2098:TP2824/TP2802.c **** 				std[i] = TVI;
 3364              		.loc 1 2098 5 is_stmt 1 view .LVU930
 3365              		.loc 1 2098 12 is_stmt 0 view .LVU931
 3366 03f4 824B     		ldr	r3, .L354+20
 3367 03f6 0022     		movs	r2, #0
 3368 03f8 9A55     		strb	r2, [r3, r6]
2099:TP2824/TP2802.c **** 				CurCH = i;
 3369              		.loc 1 2099 5 is_stmt 1 view .LVU932
 3370              		.loc 1 2099 11 is_stmt 0 view .LVU933
 3371 03fa 824B     		ldr	r3, .L354+24
 3372 03fc 1C70     		strb	r4, [r3]
2100:TP2824/TP2802.c **** 				if ((R720P30V2 == mode[i]) || (R720P25V2 == mode[i]))
 3373              		.loc 1 2100 5 is_stmt 1 view .LVU934
 3374              		.loc 1 2100 27 is_stmt 0 view .LVU935
 3375 03fe 7E4B     		ldr	r3, .L354+12
 3376 0400 9B5D     		ldrb	r3, [r3, r6]	@ zero_extendqisi2
 3377              		.loc 1 2100 32 view .LVU936
 3378 0402 0C3B     		subs	r3, r3, #12
 3379 0404 DBB2     		uxtb	r3, r3
 3380              		.loc 1 2100 8 view .LVU937
 3381 0406 012B     		cmp	r3, #1
 3382 0408 30D9     		bls	.L309
 3383              	.L225:
2101:TP2824/TP2802.c **** 				{
2102:TP2824/TP2802.c **** 					if (0x00 == (0x08 & tp28xx_byte_read(0x03)))
2103:TP2824/TP2802.c **** 					{
2104:TP2824/TP2802.c **** 						mode[i] &= 0xf7;
2105:TP2824/TP2802.c **** 						Set_VidRes(i);
2106:TP2824/TP2802.c **** 						// printf("TVI_Set_VidRes\r\n");
2107:TP2824/TP2802.c **** 					}
2108:TP2824/TP2802.c **** 				}
2109:TP2824/TP2802.c **** 
2110:TP2824/TP2802.c **** 				// tp28xx_byte_write(0xf6  , REG_F6[i]);
2111:TP2824/TP2802.c **** 				tp28xx_byte_write(0xf6 + i, REG_F6[i]); // chunyu
 3384              		.loc 1 2111 5 is_stmt 1 view .LVU938
 3385 040a A4F10A00 		sub	r0, r4, #10
ARM GAS  C:\Users\ryanc.HS\AppData\Local\Temp\ccAQ3CYh.s 			page 113


 3386 040e 7E4B     		ldr	r3, .L354+28
 3387 0410 995D     		ldrb	r1, [r3, r6]	@ zero_extendqisi2
 3388 0412 C0B2     		uxtb	r0, r0
 3389 0414 FFF7FEFF 		bl	tp28xx_byte_write
 3390              	.LVL324:
2112:TP2824/TP2802.c **** 
2113:TP2824/TP2802.c **** #if (OUTPUT == Bits16out)
2114:TP2824/TP2802.c **** 				if (TP2826 == chip)
2115:TP2824/TP2802.c **** 				{
2116:TP2824/TP2802.c **** 					tp28xx_byte_write(0xf8, REG_F7[i]);
2117:TP2824/TP2802.c **** 					tp28xx_byte_write(0xfa, REG_FA[i]);
2118:TP2824/TP2802.c **** 					tp28xx_byte_write(0xfb, REG_FA[i]);
2119:TP2824/TP2802.c **** 				}
2120:TP2824/TP2802.c **** 				else
2121:TP2824/TP2802.c **** 				{
2122:TP2824/TP2802.c **** 					tp28xx_byte_write(0xf7, REG_F7[i]);
2123:TP2824/TP2802.c **** 					tp28xx_byte_write(0xfa, REG_FA[i]);
2124:TP2824/TP2802.c **** 					// printf("set output ch%02x \r\n", (tWord)CH[i]);
2125:TP2824/TP2802.c **** 				}
2126:TP2824/TP2802.c **** #else // BT656
2127:TP2824/TP2802.c **** 
2128:TP2824/TP2802.c **** 				tmp = tp28xx_byte_read(0xf5);
 3391              		.loc 1 2128 5 view .LVU939
 3392              		.loc 1 2128 11 is_stmt 0 view .LVU940
 3393 0418 F520     		movs	r0, #245
 3394 041a FFF7FEFF 		bl	tp28xx_byte_read
 3395              	.LVL325:
2129:TP2824/TP2802.c **** 				if (tmp &= SYS_MODE[i])
 3396              		.loc 1 2129 5 is_stmt 1 view .LVU941
 3397              		.loc 1 2129 24 is_stmt 0 view .LVU942
 3398 041e 7B4B     		ldr	r3, .L354+32
 3399 0420 9B5D     		ldrb	r3, [r3, r6]	@ zero_extendqisi2
 3400              	.LVL326:
 3401              		.loc 1 2129 8 view .LVU943
 3402 0422 0342     		tst	r3, r0
 3403 0424 31D1     		bne	.L310
 3404              	.LBB2:
2130:TP2824/TP2802.c **** 				{
2131:TP2824/TP2802.c **** 					printf("//75.25M output\r\n");
2132:TP2824/TP2802.c **** 
2133:TP2824/TP2802.c **** 					if (i == 0)
2134:TP2824/TP2802.c **** 					{
2135:TP2824/TP2802.c **** 						tmpab = tp28xx_byte_read(0xfa);
2136:TP2824/TP2802.c **** 						tmpab = (tmpab & 0xF0) | 0x0A;
2137:TP2824/TP2802.c **** 						tp28xx_byte_write(0xfa, tmpab);
2138:TP2824/TP2802.c **** 					}
2139:TP2824/TP2802.c **** 					else if (i == 1)
2140:TP2824/TP2802.c **** 					{
2141:TP2824/TP2802.c **** 						tmpab = tp28xx_byte_read(0xfa);
2142:TP2824/TP2802.c **** 						tmpab = (tmpab & 0x0F) | 0xA0;
2143:TP2824/TP2802.c **** 						tp28xx_byte_write(0xfa, tmpab);
2144:TP2824/TP2802.c **** 					}
2145:TP2824/TP2802.c **** 
2146:TP2824/TP2802.c **** 					if (i == 2)
2147:TP2824/TP2802.c **** 					{
2148:TP2824/TP2802.c **** 						tmpab = tp28xx_byte_read(0xfb);
2149:TP2824/TP2802.c **** 						tmpab = (tmpab & 0xF0) | 0x0A;
ARM GAS  C:\Users\ryanc.HS\AppData\Local\Temp\ccAQ3CYh.s 			page 114


2150:TP2824/TP2802.c **** 						tp28xx_byte_write(0xfb, tmpab);
2151:TP2824/TP2802.c **** 					}
2152:TP2824/TP2802.c **** 					else if (i == 3)
2153:TP2824/TP2802.c **** 					{
2154:TP2824/TP2802.c **** 						tmpab = tp28xx_byte_read(0xfb);
2155:TP2824/TP2802.c **** 						tmpab = (tmpab & 0x0F) | 0xA0;
2156:TP2824/TP2802.c **** 						tp28xx_byte_write(0xfb, tmpab);
2157:TP2824/TP2802.c **** 					}
2158:TP2824/TP2802.c **** 				}
2159:TP2824/TP2802.c **** 				else
2160:TP2824/TP2802.c **** 				{
2161:TP2824/TP2802.c **** 					extern tByte half_scaler;
 3405              		.loc 1 2161 6 is_stmt 1 view .LVU944
2162:TP2824/TP2802.c **** 					if (half_scaler) // down scaler output
 3406              		.loc 1 2162 6 view .LVU945
 3407              		.loc 1 2162 10 is_stmt 0 view .LVU946
 3408 0426 7A4B     		ldr	r3, .L354+36
 3409              	.LVL327:
 3410              		.loc 1 2162 10 view .LVU947
 3411 0428 1B78     		ldrb	r3, [r3]	@ zero_extendqisi2
 3412              		.loc 1 2162 9 view .LVU948
 3413 042a 002B     		cmp	r3, #0
 3414 042c 00F09B80 		beq	.L231
2163:TP2824/TP2802.c **** 					{
2164:TP2824/TP2802.c **** 						tmp = tp28xx_byte_read(0x35);
 3415              		.loc 1 2164 7 is_stmt 1 view .LVU949
 3416              		.loc 1 2164 13 is_stmt 0 view .LVU950
 3417 0430 3520     		movs	r0, #53
 3418              	.LVL328:
 3419              		.loc 1 2164 13 view .LVU951
 3420 0432 FFF7FEFF 		bl	tp28xx_byte_read
 3421              	.LVL329:
2165:TP2824/TP2802.c **** 						tmp |= 0x40;
 3422              		.loc 1 2165 7 is_stmt 1 view .LVU952
 3423              		.loc 1 2165 11 is_stmt 0 view .LVU953
 3424 0436 40F04001 		orr	r1, r0, #64
 3425              	.LVL330:
2166:TP2824/TP2802.c **** 						tp28xx_byte_write(0x35, tmp);
 3426              		.loc 1 2166 7 is_stmt 1 view .LVU954
 3427 043a C9B2     		uxtb	r1, r1
 3428              		.loc 1 2166 7 is_stmt 0 view .LVU955
 3429 043c 3520     		movs	r0, #53
 3430 043e FFF7FEFF 		bl	tp28xx_byte_write
 3431              	.LVL331:
2167:TP2824/TP2802.c **** 
2168:TP2824/TP2802.c **** 						if (i == 0)
 3432              		.loc 1 2168 7 is_stmt 1 view .LVU956
 3433              		.loc 1 2168 10 is_stmt 0 view .LVU957
 3434 0442 002C     		cmp	r4, #0
 3435 0444 5DD0     		beq	.L311
2169:TP2824/TP2802.c **** 						{
2170:TP2824/TP2802.c **** 							tmpab = tp28xx_byte_read(0xfa);
2171:TP2824/TP2802.c **** 							tmpab = (tmpab & 0xF0) | 0x0A;
2172:TP2824/TP2802.c **** 							tp28xx_byte_write(0xfa, tmpab);
2173:TP2824/TP2802.c **** 						}
2174:TP2824/TP2802.c **** 						else if (i == 1)
 3436              		.loc 1 2174 12 is_stmt 1 view .LVU958
ARM GAS  C:\Users\ryanc.HS\AppData\Local\Temp\ccAQ3CYh.s 			page 115


 3437              		.loc 1 2174 15 is_stmt 0 view .LVU959
 3438 0446 012C     		cmp	r4, #1
 3439 0448 69D0     		beq	.L312
 3440              	.L233:
2175:TP2824/TP2802.c **** 						{
2176:TP2824/TP2802.c **** 							tmpab = tp28xx_byte_read(0xfa);
2177:TP2824/TP2802.c **** 							tmpab = (tmpab & 0x0F) | 0xA0;
2178:TP2824/TP2802.c **** 							tp28xx_byte_write(0xfa, tmpab);
2179:TP2824/TP2802.c **** 						}
2180:TP2824/TP2802.c **** 
2181:TP2824/TP2802.c **** 						if (i == 2)
 3441              		.loc 1 2181 7 is_stmt 1 view .LVU960
 3442              		.loc 1 2181 10 is_stmt 0 view .LVU961
 3443 044a 022C     		cmp	r4, #2
 3444 044c 72D0     		beq	.L313
2182:TP2824/TP2802.c **** 						{
2183:TP2824/TP2802.c **** 							tmpab = tp28xx_byte_read(0xfb);
2184:TP2824/TP2802.c **** 							tmpab = (tmpab & 0xF0) | 0x0A;
2185:TP2824/TP2802.c **** 							tp28xx_byte_write(0xfb, tmpab);
2186:TP2824/TP2802.c **** 						}
2187:TP2824/TP2802.c **** 						else if (i == 3)
 3445              		.loc 1 2187 12 is_stmt 1 view .LVU962
 3446              		.loc 1 2187 15 is_stmt 0 view .LVU963
 3447 044e 032C     		cmp	r4, #3
 3448 0450 7ED0     		beq	.L314
 3449              	.L230:
 3450              		.loc 1 2187 15 view .LVU964
 3451              	.LBE2:
2188:TP2824/TP2802.c **** 						{
2189:TP2824/TP2802.c **** 							tmpab = tp28xx_byte_read(0xfb);
2190:TP2824/TP2802.c **** 							tmpab = (tmpab & 0x0F) | 0xA0;
2191:TP2824/TP2802.c **** 							tp28xx_byte_write(0xfb, tmpab);
2192:TP2824/TP2802.c **** 						}
2193:TP2824/TP2802.c **** 					}
2194:TP2824/TP2802.c **** 					else
2195:TP2824/TP2802.c **** 					{
2196:TP2824/TP2802.c **** 						tmp = tp28xx_byte_read(0x35);
2197:TP2824/TP2802.c **** 						tmp &= 0xbf;
2198:TP2824/TP2802.c **** 						tp28xx_byte_write(0x35, tmp);
2199:TP2824/TP2802.c **** 
2200:TP2824/TP2802.c **** 						if (i == 0)
2201:TP2824/TP2802.c **** 						{
2202:TP2824/TP2802.c **** 							tmpab = tp28xx_byte_read(0xfa);
2203:TP2824/TP2802.c **** 							tmpab = (tmpab & 0xF0) | 0x08;
2204:TP2824/TP2802.c **** 							tp28xx_byte_write(0xfa, tmpab);
2205:TP2824/TP2802.c **** 						}
2206:TP2824/TP2802.c **** 						else if (i == 1)
2207:TP2824/TP2802.c **** 						{
2208:TP2824/TP2802.c **** 							tmpab = tp28xx_byte_read(0xfa);
2209:TP2824/TP2802.c **** 							tmpab = (tmpab & 0x0F) | 0x80;
2210:TP2824/TP2802.c **** 							tp28xx_byte_write(0xfa, tmpab);
2211:TP2824/TP2802.c **** 						}
2212:TP2824/TP2802.c **** 
2213:TP2824/TP2802.c **** 						if (i == 2)
2214:TP2824/TP2802.c **** 						{
2215:TP2824/TP2802.c **** 							tmpab = tp28xx_byte_read(0xfb);
2216:TP2824/TP2802.c **** 							tmpab = (tmpab & 0xF0) | 0x08;
ARM GAS  C:\Users\ryanc.HS\AppData\Local\Temp\ccAQ3CYh.s 			page 116


2217:TP2824/TP2802.c **** 							tp28xx_byte_write(0xfb, tmpab);
2218:TP2824/TP2802.c **** 						}
2219:TP2824/TP2802.c **** 						else if (i == 3)
2220:TP2824/TP2802.c **** 						{
2221:TP2824/TP2802.c **** 							tmpab = tp28xx_byte_read(0xfb);
2222:TP2824/TP2802.c **** 							tmpab = (tmpab & 0x0F) | 0x80;
2223:TP2824/TP2802.c **** 							tp28xx_byte_write(0xfb, tmpab);
2224:TP2824/TP2802.c **** 						}
2225:TP2824/TP2802.c **** 					}
2226:TP2824/TP2802.c **** 				}
2227:TP2824/TP2802.c **** #endif
2228:TP2824/TP2802.c **** 				if (CurRes != ManVidResRx)
 3452              		.loc 1 2228 5 is_stmt 1 view .LVU965
 3453              		.loc 1 2228 16 is_stmt 0 view .LVU966
 3454 0452 704B     		ldr	r3, .L354+40
 3455 0454 1B78     		ldrb	r3, [r3]	@ zero_extendqisi2
 3456 0456 704A     		ldr	r2, .L354+44
 3457 0458 1178     		ldrb	r1, [r2]	@ zero_extendqisi2
 3458              		.loc 1 2228 8 view .LVU967
 3459 045a 8B42     		cmp	r3, r1
 3460 045c 3FF425AE 		beq	.L200
2229:TP2824/TP2802.c **** 				{
2230:TP2824/TP2802.c **** 					CurRes = ManVidResRx;
 3461              		.loc 1 2230 6 is_stmt 1 view .LVU968
 3462              		.loc 1 2230 13 is_stmt 0 view .LVU969
 3463 0460 6C4B     		ldr	r3, .L354+40
 3464 0462 1970     		strb	r1, [r3]
2231:TP2824/TP2802.c **** 					// CreateMDIN340VideoInstance();  //chunyu
2232:TP2824/TP2802.c **** 					printf("ManVidResRx=0x%02x\r\n", ManVidResRx);
 3465              		.loc 1 2232 6 is_stmt 1 view .LVU970
 3466 0464 6D48     		ldr	r0, .L354+48
 3467 0466 FFF7FEFF 		bl	printf
 3468              	.LVL332:
 3469 046a 1EE6     		b	.L200
 3470              	.L309:
2102:TP2824/TP2802.c **** 					{
 3471              		.loc 1 2102 6 view .LVU971
2102:TP2824/TP2802.c **** 					{
 3472              		.loc 1 2102 26 is_stmt 0 view .LVU972
 3473 046c 0320     		movs	r0, #3
 3474 046e FFF7FEFF 		bl	tp28xx_byte_read
 3475              	.LVL333:
2102:TP2824/TP2802.c **** 					{
 3476              		.loc 1 2102 9 view .LVU973
 3477 0472 10F0080F 		tst	r0, #8
 3478 0476 C8D1     		bne	.L225
2104:TP2824/TP2802.c **** 						Set_VidRes(i);
 3479              		.loc 1 2104 7 is_stmt 1 view .LVU974
2104:TP2824/TP2802.c **** 						Set_VidRes(i);
 3480              		.loc 1 2104 15 is_stmt 0 view .LVU975
 3481 0478 5F4A     		ldr	r2, .L354+12
 3482 047a 935D     		ldrb	r3, [r2, r6]	@ zero_extendqisi2
 3483 047c 23F00803 		bic	r3, r3, #8
 3484 0480 9355     		strb	r3, [r2, r6]
2105:TP2824/TP2802.c **** 						// printf("TVI_Set_VidRes\r\n");
 3485              		.loc 1 2105 7 is_stmt 1 view .LVU976
 3486 0482 2046     		mov	r0, r4
ARM GAS  C:\Users\ryanc.HS\AppData\Local\Temp\ccAQ3CYh.s 			page 117


 3487 0484 FFF7FEFF 		bl	Set_VidRes
 3488              	.LVL334:
 3489 0488 BFE7     		b	.L225
 3490              	.LVL335:
 3491              	.L310:
2131:TP2824/TP2802.c **** 
 3492              		.loc 1 2131 6 view .LVU977
 3493 048a 6548     		ldr	r0, .L354+52
 3494              	.LVL336:
2131:TP2824/TP2802.c **** 
 3495              		.loc 1 2131 6 is_stmt 0 view .LVU978
 3496 048c FFF7FEFF 		bl	puts
 3497              	.LVL337:
2133:TP2824/TP2802.c **** 					{
 3498              		.loc 1 2133 6 is_stmt 1 view .LVU979
2133:TP2824/TP2802.c **** 					{
 3499              		.loc 1 2133 9 is_stmt 0 view .LVU980
 3500 0490 84B1     		cbz	r4, .L315
2139:TP2824/TP2802.c **** 					{
 3501              		.loc 1 2139 11 is_stmt 1 view .LVU981
2139:TP2824/TP2802.c **** 					{
 3502              		.loc 1 2139 14 is_stmt 0 view .LVU982
 3503 0492 012C     		cmp	r4, #1
 3504 0494 1CD0     		beq	.L316
 3505              	.L228:
2146:TP2824/TP2802.c **** 					{
 3506              		.loc 1 2146 6 is_stmt 1 view .LVU983
2146:TP2824/TP2802.c **** 					{
 3507              		.loc 1 2146 9 is_stmt 0 view .LVU984
 3508 0496 022C     		cmp	r4, #2
 3509 0498 25D0     		beq	.L317
2152:TP2824/TP2802.c **** 					{
 3510              		.loc 1 2152 11 is_stmt 1 view .LVU985
2152:TP2824/TP2802.c **** 					{
 3511              		.loc 1 2152 14 is_stmt 0 view .LVU986
 3512 049a 032C     		cmp	r4, #3
 3513 049c D9D1     		bne	.L230
2154:TP2824/TP2802.c **** 						tmpab = (tmpab & 0x0F) | 0xA0;
 3514              		.loc 1 2154 7 is_stmt 1 view .LVU987
2154:TP2824/TP2802.c **** 						tmpab = (tmpab & 0x0F) | 0xA0;
 3515              		.loc 1 2154 15 is_stmt 0 view .LVU988
 3516 049e FB20     		movs	r0, #251
 3517 04a0 FFF7FEFF 		bl	tp28xx_byte_read
 3518              	.LVL338:
2155:TP2824/TP2802.c **** 						tp28xx_byte_write(0xfb, tmpab);
 3519              		.loc 1 2155 7 is_stmt 1 view .LVU989
2155:TP2824/TP2802.c **** 						tp28xx_byte_write(0xfb, tmpab);
 3520              		.loc 1 2155 22 is_stmt 0 view .LVU990
 3521 04a4 00F00F01 		and	r1, r0, #15
 3522              	.LVL339:
2156:TP2824/TP2802.c **** 					}
 3523              		.loc 1 2156 7 is_stmt 1 view .LVU991
 3524 04a8 41F0A001 		orr	r1, r1, #160
 3525              	.LVL340:
2156:TP2824/TP2802.c **** 					}
 3526              		.loc 1 2156 7 is_stmt 0 view .LVU992
 3527 04ac FB20     		movs	r0, #251
ARM GAS  C:\Users\ryanc.HS\AppData\Local\Temp\ccAQ3CYh.s 			page 118


 3528              	.LVL341:
2156:TP2824/TP2802.c **** 					}
 3529              		.loc 1 2156 7 view .LVU993
 3530 04ae FFF7FEFF 		bl	tp28xx_byte_write
 3531              	.LVL342:
 3532 04b2 CEE7     		b	.L230
 3533              	.L315:
2135:TP2824/TP2802.c **** 						tmpab = (tmpab & 0xF0) | 0x0A;
 3534              		.loc 1 2135 7 is_stmt 1 view .LVU994
2135:TP2824/TP2802.c **** 						tmpab = (tmpab & 0xF0) | 0x0A;
 3535              		.loc 1 2135 15 is_stmt 0 view .LVU995
 3536 04b4 FA20     		movs	r0, #250
 3537 04b6 FFF7FEFF 		bl	tp28xx_byte_read
 3538              	.LVL343:
2136:TP2824/TP2802.c **** 						tp28xx_byte_write(0xfa, tmpab);
 3539              		.loc 1 2136 7 is_stmt 1 view .LVU996
2136:TP2824/TP2802.c **** 						tp28xx_byte_write(0xfa, tmpab);
 3540              		.loc 1 2136 22 is_stmt 0 view .LVU997
 3541 04ba 20F00F01 		bic	r1, r0, #15
 3542 04be 49B2     		sxtb	r1, r1
2136:TP2824/TP2802.c **** 						tp28xx_byte_write(0xfa, tmpab);
 3543              		.loc 1 2136 30 view .LVU998
 3544 04c0 41F00A01 		orr	r1, r1, #10
 3545              	.LVL344:
2137:TP2824/TP2802.c **** 					}
 3546              		.loc 1 2137 7 is_stmt 1 view .LVU999
 3547 04c4 01F0FA01 		and	r1, r1, #250
 3548              	.LVL345:
2137:TP2824/TP2802.c **** 					}
 3549              		.loc 1 2137 7 is_stmt 0 view .LVU1000
 3550 04c8 FA20     		movs	r0, #250
 3551              	.LVL346:
2137:TP2824/TP2802.c **** 					}
 3552              		.loc 1 2137 7 view .LVU1001
 3553 04ca FFF7FEFF 		bl	tp28xx_byte_write
 3554              	.LVL347:
 3555 04ce E2E7     		b	.L228
 3556              	.L316:
2141:TP2824/TP2802.c **** 						tmpab = (tmpab & 0x0F) | 0xA0;
 3557              		.loc 1 2141 7 is_stmt 1 view .LVU1002
2141:TP2824/TP2802.c **** 						tmpab = (tmpab & 0x0F) | 0xA0;
 3558              		.loc 1 2141 15 is_stmt 0 view .LVU1003
 3559 04d0 FA20     		movs	r0, #250
 3560 04d2 FFF7FEFF 		bl	tp28xx_byte_read
 3561              	.LVL348:
2142:TP2824/TP2802.c **** 						tp28xx_byte_write(0xfa, tmpab);
 3562              		.loc 1 2142 7 is_stmt 1 view .LVU1004
2142:TP2824/TP2802.c **** 						tp28xx_byte_write(0xfa, tmpab);
 3563              		.loc 1 2142 22 is_stmt 0 view .LVU1005
 3564 04d6 00F00F01 		and	r1, r0, #15
 3565              	.LVL349:
2143:TP2824/TP2802.c **** 					}
 3566              		.loc 1 2143 7 is_stmt 1 view .LVU1006
 3567 04da 41F0A001 		orr	r1, r1, #160
 3568              	.LVL350:
2143:TP2824/TP2802.c **** 					}
 3569              		.loc 1 2143 7 is_stmt 0 view .LVU1007
ARM GAS  C:\Users\ryanc.HS\AppData\Local\Temp\ccAQ3CYh.s 			page 119


 3570 04de FA20     		movs	r0, #250
 3571              	.LVL351:
2143:TP2824/TP2802.c **** 					}
 3572              		.loc 1 2143 7 view .LVU1008
 3573 04e0 FFF7FEFF 		bl	tp28xx_byte_write
 3574              	.LVL352:
 3575 04e4 D7E7     		b	.L228
 3576              	.L317:
2148:TP2824/TP2802.c **** 						tmpab = (tmpab & 0xF0) | 0x0A;
 3577              		.loc 1 2148 7 is_stmt 1 view .LVU1009
2148:TP2824/TP2802.c **** 						tmpab = (tmpab & 0xF0) | 0x0A;
 3578              		.loc 1 2148 15 is_stmt 0 view .LVU1010
 3579 04e6 FB20     		movs	r0, #251
 3580 04e8 FFF7FEFF 		bl	tp28xx_byte_read
 3581              	.LVL353:
2149:TP2824/TP2802.c **** 						tp28xx_byte_write(0xfb, tmpab);
 3582              		.loc 1 2149 7 is_stmt 1 view .LVU1011
2149:TP2824/TP2802.c **** 						tp28xx_byte_write(0xfb, tmpab);
 3583              		.loc 1 2149 22 is_stmt 0 view .LVU1012
 3584 04ec 20F00F01 		bic	r1, r0, #15
 3585 04f0 49B2     		sxtb	r1, r1
2149:TP2824/TP2802.c **** 						tp28xx_byte_write(0xfb, tmpab);
 3586              		.loc 1 2149 30 view .LVU1013
 3587 04f2 41F00A01 		orr	r1, r1, #10
 3588              	.LVL354:
2150:TP2824/TP2802.c **** 					}
 3589              		.loc 1 2150 7 is_stmt 1 view .LVU1014
 3590 04f6 01F0FA01 		and	r1, r1, #250
 3591              	.LVL355:
2150:TP2824/TP2802.c **** 					}
 3592              		.loc 1 2150 7 is_stmt 0 view .LVU1015
 3593 04fa FB20     		movs	r0, #251
 3594              	.LVL356:
2150:TP2824/TP2802.c **** 					}
 3595              		.loc 1 2150 7 view .LVU1016
 3596 04fc FFF7FEFF 		bl	tp28xx_byte_write
 3597              	.LVL357:
 3598 0500 A7E7     		b	.L230
 3599              	.L311:
 3600              	.LBB3:
2170:TP2824/TP2802.c **** 							tmpab = (tmpab & 0xF0) | 0x0A;
 3601              		.loc 1 2170 8 is_stmt 1 view .LVU1017
2170:TP2824/TP2802.c **** 							tmpab = (tmpab & 0xF0) | 0x0A;
 3602              		.loc 1 2170 16 is_stmt 0 view .LVU1018
 3603 0502 FA20     		movs	r0, #250
 3604 0504 FFF7FEFF 		bl	tp28xx_byte_read
 3605              	.LVL358:
2171:TP2824/TP2802.c **** 							tp28xx_byte_write(0xfa, tmpab);
 3606              		.loc 1 2171 8 is_stmt 1 view .LVU1019
2171:TP2824/TP2802.c **** 							tp28xx_byte_write(0xfa, tmpab);
 3607              		.loc 1 2171 23 is_stmt 0 view .LVU1020
 3608 0508 20F00F01 		bic	r1, r0, #15
 3609 050c 49B2     		sxtb	r1, r1
2171:TP2824/TP2802.c **** 							tp28xx_byte_write(0xfa, tmpab);
 3610              		.loc 1 2171 31 view .LVU1021
 3611 050e 41F00A01 		orr	r1, r1, #10
 3612              	.LVL359:
ARM GAS  C:\Users\ryanc.HS\AppData\Local\Temp\ccAQ3CYh.s 			page 120


2172:TP2824/TP2802.c **** 						}
 3613              		.loc 1 2172 8 is_stmt 1 view .LVU1022
 3614 0512 01F0FA01 		and	r1, r1, #250
 3615              	.LVL360:
2172:TP2824/TP2802.c **** 						}
 3616              		.loc 1 2172 8 is_stmt 0 view .LVU1023
 3617 0516 FA20     		movs	r0, #250
 3618              	.LVL361:
2172:TP2824/TP2802.c **** 						}
 3619              		.loc 1 2172 8 view .LVU1024
 3620 0518 FFF7FEFF 		bl	tp28xx_byte_write
 3621              	.LVL362:
 3622 051c 95E7     		b	.L233
 3623              	.L312:
2176:TP2824/TP2802.c **** 							tmpab = (tmpab & 0x0F) | 0xA0;
 3624              		.loc 1 2176 8 is_stmt 1 view .LVU1025
2176:TP2824/TP2802.c **** 							tmpab = (tmpab & 0x0F) | 0xA0;
 3625              		.loc 1 2176 16 is_stmt 0 view .LVU1026
 3626 051e FA20     		movs	r0, #250
 3627 0520 FFF7FEFF 		bl	tp28xx_byte_read
 3628              	.LVL363:
2177:TP2824/TP2802.c **** 							tp28xx_byte_write(0xfa, tmpab);
 3629              		.loc 1 2177 8 is_stmt 1 view .LVU1027
2177:TP2824/TP2802.c **** 							tp28xx_byte_write(0xfa, tmpab);
 3630              		.loc 1 2177 23 is_stmt 0 view .LVU1028
 3631 0524 00F00F01 		and	r1, r0, #15
 3632              	.LVL364:
2178:TP2824/TP2802.c **** 						}
 3633              		.loc 1 2178 8 is_stmt 1 view .LVU1029
 3634 0528 41F0A001 		orr	r1, r1, #160
 3635              	.LVL365:
2178:TP2824/TP2802.c **** 						}
 3636              		.loc 1 2178 8 is_stmt 0 view .LVU1030
 3637 052c FA20     		movs	r0, #250
 3638              	.LVL366:
2178:TP2824/TP2802.c **** 						}
 3639              		.loc 1 2178 8 view .LVU1031
 3640 052e FFF7FEFF 		bl	tp28xx_byte_write
 3641              	.LVL367:
 3642 0532 8AE7     		b	.L233
 3643              	.L313:
2183:TP2824/TP2802.c **** 							tmpab = (tmpab & 0xF0) | 0x0A;
 3644              		.loc 1 2183 8 is_stmt 1 view .LVU1032
2183:TP2824/TP2802.c **** 							tmpab = (tmpab & 0xF0) | 0x0A;
 3645              		.loc 1 2183 16 is_stmt 0 view .LVU1033
 3646 0534 FB20     		movs	r0, #251
 3647 0536 FFF7FEFF 		bl	tp28xx_byte_read
 3648              	.LVL368:
2184:TP2824/TP2802.c **** 							tp28xx_byte_write(0xfb, tmpab);
 3649              		.loc 1 2184 8 is_stmt 1 view .LVU1034
2184:TP2824/TP2802.c **** 							tp28xx_byte_write(0xfb, tmpab);
 3650              		.loc 1 2184 23 is_stmt 0 view .LVU1035
 3651 053a 20F00F01 		bic	r1, r0, #15
 3652 053e 49B2     		sxtb	r1, r1
2184:TP2824/TP2802.c **** 							tp28xx_byte_write(0xfb, tmpab);
 3653              		.loc 1 2184 31 view .LVU1036
 3654 0540 41F00A01 		orr	r1, r1, #10
ARM GAS  C:\Users\ryanc.HS\AppData\Local\Temp\ccAQ3CYh.s 			page 121


 3655              	.LVL369:
2185:TP2824/TP2802.c **** 						}
 3656              		.loc 1 2185 8 is_stmt 1 view .LVU1037
 3657 0544 01F0FA01 		and	r1, r1, #250
 3658              	.LVL370:
2185:TP2824/TP2802.c **** 						}
 3659              		.loc 1 2185 8 is_stmt 0 view .LVU1038
 3660 0548 FB20     		movs	r0, #251
 3661              	.LVL371:
2185:TP2824/TP2802.c **** 						}
 3662              		.loc 1 2185 8 view .LVU1039
 3663 054a FFF7FEFF 		bl	tp28xx_byte_write
 3664              	.LVL372:
 3665 054e 80E7     		b	.L230
 3666              	.L314:
2189:TP2824/TP2802.c **** 							tmpab = (tmpab & 0x0F) | 0xA0;
 3667              		.loc 1 2189 8 is_stmt 1 view .LVU1040
2189:TP2824/TP2802.c **** 							tmpab = (tmpab & 0x0F) | 0xA0;
 3668              		.loc 1 2189 16 is_stmt 0 view .LVU1041
 3669 0550 FB20     		movs	r0, #251
 3670 0552 FFF7FEFF 		bl	tp28xx_byte_read
 3671              	.LVL373:
2190:TP2824/TP2802.c **** 							tp28xx_byte_write(0xfb, tmpab);
 3672              		.loc 1 2190 8 is_stmt 1 view .LVU1042
2190:TP2824/TP2802.c **** 							tp28xx_byte_write(0xfb, tmpab);
 3673              		.loc 1 2190 23 is_stmt 0 view .LVU1043
 3674 0556 00F00F01 		and	r1, r0, #15
 3675              	.LVL374:
2191:TP2824/TP2802.c **** 						}
 3676              		.loc 1 2191 8 is_stmt 1 view .LVU1044
 3677 055a 41F0A001 		orr	r1, r1, #160
 3678              	.LVL375:
2191:TP2824/TP2802.c **** 						}
 3679              		.loc 1 2191 8 is_stmt 0 view .LVU1045
 3680 055e FB20     		movs	r0, #251
 3681              	.LVL376:
2191:TP2824/TP2802.c **** 						}
 3682              		.loc 1 2191 8 view .LVU1046
 3683 0560 FFF7FEFF 		bl	tp28xx_byte_write
 3684              	.LVL377:
 3685 0564 75E7     		b	.L230
 3686              	.LVL378:
 3687              	.L231:
2196:TP2824/TP2802.c **** 						tmp &= 0xbf;
 3688              		.loc 1 2196 7 is_stmt 1 view .LVU1047
2196:TP2824/TP2802.c **** 						tmp &= 0xbf;
 3689              		.loc 1 2196 13 is_stmt 0 view .LVU1048
 3690 0566 3520     		movs	r0, #53
 3691              	.LVL379:
2196:TP2824/TP2802.c **** 						tmp &= 0xbf;
 3692              		.loc 1 2196 13 view .LVU1049
 3693 0568 FFF7FEFF 		bl	tp28xx_byte_read
 3694              	.LVL380:
2197:TP2824/TP2802.c **** 						tp28xx_byte_write(0x35, tmp);
 3695              		.loc 1 2197 7 is_stmt 1 view .LVU1050
2198:TP2824/TP2802.c **** 
 3696              		.loc 1 2198 7 view .LVU1051
ARM GAS  C:\Users\ryanc.HS\AppData\Local\Temp\ccAQ3CYh.s 			page 122


 3697 056c 00F0BF01 		and	r1, r0, #191
 3698 0570 3520     		movs	r0, #53
 3699              	.LVL381:
2198:TP2824/TP2802.c **** 
 3700              		.loc 1 2198 7 is_stmt 0 view .LVU1052
 3701 0572 FFF7FEFF 		bl	tp28xx_byte_write
 3702              	.LVL382:
2200:TP2824/TP2802.c **** 						{
 3703              		.loc 1 2200 7 is_stmt 1 view .LVU1053
2200:TP2824/TP2802.c **** 						{
 3704              		.loc 1 2200 10 is_stmt 0 view .LVU1054
 3705 0576 8CB1     		cbz	r4, .L318
2206:TP2824/TP2802.c **** 						{
 3706              		.loc 1 2206 12 is_stmt 1 view .LVU1055
2206:TP2824/TP2802.c **** 						{
 3707              		.loc 1 2206 15 is_stmt 0 view .LVU1056
 3708 0578 012C     		cmp	r4, #1
 3709 057a 1DD0     		beq	.L319
 3710              	.L236:
2213:TP2824/TP2802.c **** 						{
 3711              		.loc 1 2213 7 is_stmt 1 view .LVU1057
2213:TP2824/TP2802.c **** 						{
 3712              		.loc 1 2213 10 is_stmt 0 view .LVU1058
 3713 057c 022C     		cmp	r4, #2
 3714 057e 26D0     		beq	.L320
2219:TP2824/TP2802.c **** 						{
 3715              		.loc 1 2219 12 is_stmt 1 view .LVU1059
2219:TP2824/TP2802.c **** 						{
 3716              		.loc 1 2219 15 is_stmt 0 view .LVU1060
 3717 0580 032C     		cmp	r4, #3
 3718 0582 7FF466AF 		bne	.L230
2221:TP2824/TP2802.c **** 							tmpab = (tmpab & 0x0F) | 0x80;
 3719              		.loc 1 2221 8 is_stmt 1 view .LVU1061
2221:TP2824/TP2802.c **** 							tmpab = (tmpab & 0x0F) | 0x80;
 3720              		.loc 1 2221 16 is_stmt 0 view .LVU1062
 3721 0586 FB20     		movs	r0, #251
 3722 0588 FFF7FEFF 		bl	tp28xx_byte_read
 3723              	.LVL383:
2222:TP2824/TP2802.c **** 							tp28xx_byte_write(0xfb, tmpab);
 3724              		.loc 1 2222 8 is_stmt 1 view .LVU1063
2222:TP2824/TP2802.c **** 							tp28xx_byte_write(0xfb, tmpab);
 3725              		.loc 1 2222 23 is_stmt 0 view .LVU1064
 3726 058c 00F00F01 		and	r1, r0, #15
 3727              	.LVL384:
2223:TP2824/TP2802.c **** 						}
 3728              		.loc 1 2223 8 is_stmt 1 view .LVU1065
 3729 0590 41F08001 		orr	r1, r1, #128
 3730              	.LVL385:
2223:TP2824/TP2802.c **** 						}
 3731              		.loc 1 2223 8 is_stmt 0 view .LVU1066
 3732 0594 FB20     		movs	r0, #251
 3733              	.LVL386:
2223:TP2824/TP2802.c **** 						}
 3734              		.loc 1 2223 8 view .LVU1067
 3735 0596 FFF7FEFF 		bl	tp28xx_byte_write
 3736              	.LVL387:
 3737 059a 5AE7     		b	.L230
ARM GAS  C:\Users\ryanc.HS\AppData\Local\Temp\ccAQ3CYh.s 			page 123


 3738              	.L318:
2202:TP2824/TP2802.c **** 							tmpab = (tmpab & 0xF0) | 0x08;
 3739              		.loc 1 2202 8 is_stmt 1 view .LVU1068
2202:TP2824/TP2802.c **** 							tmpab = (tmpab & 0xF0) | 0x08;
 3740              		.loc 1 2202 16 is_stmt 0 view .LVU1069
 3741 059c FA20     		movs	r0, #250
 3742 059e FFF7FEFF 		bl	tp28xx_byte_read
 3743              	.LVL388:
2203:TP2824/TP2802.c **** 							tp28xx_byte_write(0xfa, tmpab);
 3744              		.loc 1 2203 8 is_stmt 1 view .LVU1070
2203:TP2824/TP2802.c **** 							tp28xx_byte_write(0xfa, tmpab);
 3745              		.loc 1 2203 23 is_stmt 0 view .LVU1071
 3746 05a2 20F00F01 		bic	r1, r0, #15
 3747 05a6 49B2     		sxtb	r1, r1
2203:TP2824/TP2802.c **** 							tp28xx_byte_write(0xfa, tmpab);
 3748              		.loc 1 2203 31 view .LVU1072
 3749 05a8 41F00801 		orr	r1, r1, #8
 3750              	.LVL389:
2204:TP2824/TP2802.c **** 						}
 3751              		.loc 1 2204 8 is_stmt 1 view .LVU1073
 3752 05ac 01F0F801 		and	r1, r1, #248
 3753              	.LVL390:
2204:TP2824/TP2802.c **** 						}
 3754              		.loc 1 2204 8 is_stmt 0 view .LVU1074
 3755 05b0 FA20     		movs	r0, #250
 3756              	.LVL391:
2204:TP2824/TP2802.c **** 						}
 3757              		.loc 1 2204 8 view .LVU1075
 3758 05b2 FFF7FEFF 		bl	tp28xx_byte_write
 3759              	.LVL392:
 3760 05b6 E1E7     		b	.L236
 3761              	.L319:
2208:TP2824/TP2802.c **** 							tmpab = (tmpab & 0x0F) | 0x80;
 3762              		.loc 1 2208 8 is_stmt 1 view .LVU1076
2208:TP2824/TP2802.c **** 							tmpab = (tmpab & 0x0F) | 0x80;
 3763              		.loc 1 2208 16 is_stmt 0 view .LVU1077
 3764 05b8 FA20     		movs	r0, #250
 3765 05ba FFF7FEFF 		bl	tp28xx_byte_read
 3766              	.LVL393:
2209:TP2824/TP2802.c **** 							tp28xx_byte_write(0xfa, tmpab);
 3767              		.loc 1 2209 8 is_stmt 1 view .LVU1078
2209:TP2824/TP2802.c **** 							tp28xx_byte_write(0xfa, tmpab);
 3768              		.loc 1 2209 23 is_stmt 0 view .LVU1079
 3769 05be 00F00F01 		and	r1, r0, #15
 3770              	.LVL394:
2210:TP2824/TP2802.c **** 						}
 3771              		.loc 1 2210 8 is_stmt 1 view .LVU1080
 3772 05c2 41F08001 		orr	r1, r1, #128
 3773              	.LVL395:
2210:TP2824/TP2802.c **** 						}
 3774              		.loc 1 2210 8 is_stmt 0 view .LVU1081
 3775 05c6 FA20     		movs	r0, #250
 3776              	.LVL396:
2210:TP2824/TP2802.c **** 						}
 3777              		.loc 1 2210 8 view .LVU1082
 3778 05c8 FFF7FEFF 		bl	tp28xx_byte_write
 3779              	.LVL397:
ARM GAS  C:\Users\ryanc.HS\AppData\Local\Temp\ccAQ3CYh.s 			page 124


 3780 05cc D6E7     		b	.L236
 3781              	.L320:
2215:TP2824/TP2802.c **** 							tmpab = (tmpab & 0xF0) | 0x08;
 3782              		.loc 1 2215 8 is_stmt 1 view .LVU1083
2215:TP2824/TP2802.c **** 							tmpab = (tmpab & 0xF0) | 0x08;
 3783              		.loc 1 2215 16 is_stmt 0 view .LVU1084
 3784 05ce FB20     		movs	r0, #251
 3785 05d0 FFF7FEFF 		bl	tp28xx_byte_read
 3786              	.LVL398:
2216:TP2824/TP2802.c **** 							tp28xx_byte_write(0xfb, tmpab);
 3787              		.loc 1 2216 8 is_stmt 1 view .LVU1085
2216:TP2824/TP2802.c **** 							tp28xx_byte_write(0xfb, tmpab);
 3788              		.loc 1 2216 23 is_stmt 0 view .LVU1086
 3789 05d4 20F00F01 		bic	r1, r0, #15
 3790 05d8 49B2     		sxtb	r1, r1
2216:TP2824/TP2802.c **** 							tp28xx_byte_write(0xfb, tmpab);
 3791              		.loc 1 2216 31 view .LVU1087
 3792 05da 41F00801 		orr	r1, r1, #8
 3793              	.LVL399:
2217:TP2824/TP2802.c **** 						}
 3794              		.loc 1 2217 8 is_stmt 1 view .LVU1088
 3795 05de 01F0F801 		and	r1, r1, #248
 3796              	.LVL400:
2217:TP2824/TP2802.c **** 						}
 3797              		.loc 1 2217 8 is_stmt 0 view .LVU1089
 3798 05e2 FB20     		movs	r0, #251
 3799              	.LVL401:
2217:TP2824/TP2802.c **** 						}
 3800              		.loc 1 2217 8 view .LVU1090
 3801 05e4 FFF7FEFF 		bl	tp28xx_byte_write
 3802              	.LVL402:
 3803 05e8 33E7     		b	.L230
 3804              	.L355:
 3805 05ea 00BF     		.align	2
 3806              	.L354:
 3807 05ec 00000000 		.word	flag_CVBS
 3808 05f0 00000000 		.word	flag_MEGA
 3809 05f4 00000000 		.word	count
 3810 05f8 00000000 		.word	mode
 3811 05fc A4000000 		.word	.LC35
 3812 0600 00000000 		.word	std
 3813 0604 00000000 		.word	CurCH
 3814 0608 00000000 		.word	.LANCHOR20
 3815 060c 00000000 		.word	.LANCHOR1
 3816 0610 00000000 		.word	half_scaler
 3817 0614 00000000 		.word	CurRes
 3818 0618 00000000 		.word	ManVidResRx
 3819 061c D4000000 		.word	.LC37
 3820 0620 C0000000 		.word	.LC36
 3821              	.L224:
2217:TP2824/TP2802.c **** 						}
 3822              		.loc 1 2217 8 view .LVU1091
 3823              	.LBE3:
2233:TP2824/TP2802.c **** 				}
2234:TP2824/TP2802.c **** 			}
2235:TP2824/TP2802.c **** 			else if (1 == count[i])
 3824              		.loc 1 2235 9 is_stmt 1 view .LVU1092
ARM GAS  C:\Users\ryanc.HS\AppData\Local\Temp\ccAQ3CYh.s 			page 125


 3825              		.loc 1 2235 12 is_stmt 0 view .LVU1093
 3826 0624 012B     		cmp	r3, #1
 3827 0626 77D0     		beq	.L321
2236:TP2824/TP2802.c **** 			{
2237:TP2824/TP2802.c **** 				if (chip > TP2823)
2238:TP2824/TP2802.c **** 				{
2239:TP2824/TP2802.c **** 					tmp = tp28xx_byte_read(0x01);
2240:TP2824/TP2802.c **** 					printf("Reg01 %02x\r\n", (tWord)tmp);
2241:TP2824/TP2802.c **** 					if (mode[i] == NTSC || mode[i] == PAL)
2242:TP2824/TP2802.c **** 						printf("CVBS  mode:%d\r\n", (tWord)mode[i]);
2243:TP2824/TP2802.c **** 					//                 if( 0x60 == (0x64 & tmp))
2244:TP2824/TP2802.c **** 					else if ((0x60 == (0x64 & tmp)) &&
2245:TP2824/TP2802.c **** 							 (mode[i] != R720P30 && mode[i] != R720P25 && mode[i] != R720P30V2 && mode[i] != R720P25V2 &
2246:TP2824/TP2802.c **** 					{
2247:TP2824/TP2802.c **** 						// if(Set_HDA(mode[i])) printf("turn to A ch%02x\r\n", (tWord)i);
2248:TP2824/TP2802.c **** 						if (Set_HDC(i))
2249:TP2824/TP2802.c **** 						{
2250:TP2824/TP2802.c **** 							std[i] = HDC;
2251:TP2824/TP2802.c **** 							printf("turn to C ch%02x\r\n", (tWord)i);
2252:TP2824/TP2802.c **** 
2253:TP2824/TP2802.c **** 							Set_HDA(i);	  // ryan@20211125 disable CVI function
2254:TP2824/TP2802.c **** 							std[i] = HDA; // ryan@20211125
2255:TP2824/TP2802.c **** 							printf("(turn to AHD ch%02x)\r\n", (tWord)i);
2256:TP2824/TP2802.c **** 						}
2257:TP2824/TP2802.c **** 					}
2258:TP2824/TP2802.c **** 				}
2259:TP2824/TP2802.c **** 			}
2260:TP2824/TP2802.c **** 			else if (2 == count[i])
 3828              		.loc 1 2260 9 is_stmt 1 view .LVU1094
 3829              		.loc 1 2260 12 is_stmt 0 view .LVU1095
 3830 0628 022B     		cmp	r3, #2
 3831 062a 00F0BA80 		beq	.L322
2261:TP2824/TP2802.c **** 			{
2262:TP2824/TP2802.c **** 				if (chip > TP2823)
2263:TP2824/TP2802.c **** 				{
2264:TP2824/TP2802.c **** 					tmp = tp28xx_byte_read(0x01);
2265:TP2824/TP2802.c **** 					printf("Reg01 %02x\r\n", (tWord)tmp);
2266:TP2824/TP2802.c **** 					if (mode[i] == NTSC || mode[i] == PAL)
2267:TP2824/TP2802.c **** 						printf("CVBS  mode:%d\r\n", (tWord)mode[i]);
2268:TP2824/TP2802.c **** 					//                 if( 0x10 != (0x11 & tmp) && HDC == std[i])
2269:TP2824/TP2802.c **** 					else if ((0x10 != (0x11 & tmp) && HDC == std[i]) ||
2270:TP2824/TP2802.c **** 							 (0x00 == (0x04 & tmp) &&
2271:TP2824/TP2802.c **** 							  (mode[i] == R720P30 || mode[i] == R720P25 || mode[i] == R720P30V2 || mode[i] == R720P25V2 
2272:TP2824/TP2802.c **** 					{
2273:TP2824/TP2802.c **** 						if (Set_HDA(i))
2274:TP2824/TP2802.c **** 						{
2275:TP2824/TP2802.c **** 							std[i] = HDA;
2276:TP2824/TP2802.c **** 							printf("turn to A ch%02x\r\n", (tWord)i);
2277:TP2824/TP2802.c **** 						}
2278:TP2824/TP2802.c **** 					}
2279:TP2824/TP2802.c **** 				}
2280:TP2824/TP2802.c **** 			}
2281:TP2824/TP2802.c **** 			else if (3 == count[i])
 3832              		.loc 1 2281 9 is_stmt 1 view .LVU1096
 3833              		.loc 1 2281 12 is_stmt 0 view .LVU1097
 3834 062e 032B     		cmp	r3, #3
 3835 0630 00F0F580 		beq	.L323
ARM GAS  C:\Users\ryanc.HS\AppData\Local\Temp\ccAQ3CYh.s 			page 126


2282:TP2824/TP2802.c **** 			{
2283:TP2824/TP2802.c **** 				if (chip > TP2823)
2284:TP2824/TP2802.c **** 				{
2285:TP2824/TP2802.c **** 					tmp = tp28xx_byte_read(0x01);
2286:TP2824/TP2802.c **** 					printf("Reg01 %02x\r\n", (tWord)tmp);
2287:TP2824/TP2802.c **** 
2288:TP2824/TP2802.c **** 					if ((mode[i] == R1080P30 || mode[i] == R1080P25) && 0x00 == (0x04 & tmp))
2289:TP2824/TP2802.c **** 						printf("AHD 1080P30/P25  mode:%d\r\n", (tWord)mode[i]);
2290:TP2824/TP2802.c **** 					else if ((mode[i] == R1080P30 || mode[i] == R1080P25) && 0x04 == (0x04 & tmp) && std[i] == TVI
2291:TP2824/TP2802.c **** 						printf("TVI 1080P30/P25   mode:%d\r\n", (tWord)mode[i]);
2292:TP2824/TP2802.c **** 					else if ((mode[i] == R720P30 || mode[i] == R720P25 || mode[i] == R720P30V2 || mode[i] == R720P
2293:TP2824/TP2802.c **** 							 0x00 == (0x04 & tmp) && std[i] == HDA)
2294:TP2824/TP2802.c **** 						printf("AHD 720P30/P25/P60/P50   mode:%d\r\n", (tWord)mode[i]);
2295:TP2824/TP2802.c **** 					else if (mode[i] == NTSC || mode[i] == PAL)
2296:TP2824/TP2802.c **** 						printf("CVBS    mode:%d\r\n", (tWord)mode[i]);
2297:TP2824/TP2802.c **** 					//		      if( 0x00 != (0x01 & tmp))
2298:TP2824/TP2802.c **** 					else if (0x00 != (0x01 & tmp))
2299:TP2824/TP2802.c **** 					{
2300:TP2824/TP2802.c **** 						// Set_VidRes(mode[i]); //chunyu
2301:TP2824/TP2802.c **** 						// Set_VidRes(i); //is it right? ryan@20200904
2302:TP2824/TP2802.c **** 						printf("back to T ch%02x\r\n", (tWord)i); // chunyu
2303:TP2824/TP2802.c **** 						state[i] = VIDEO_UNPLUG;
2304:TP2824/TP2802.c **** 						count[i] = 0;
2305:TP2824/TP2802.c **** 						VideoSave[i] = 0;
2306:TP2824/TP2802.c **** 						mode[i] = NoDet;
2307:TP2824/TP2802.c **** 						Set_VidRes(i);
2308:TP2824/TP2802.c **** 						VS4210_Rx_NoSignal(i); // chunyu
2309:TP2824/TP2802.c **** 					}
2310:TP2824/TP2802.c **** 				}
2311:TP2824/TP2802.c **** 			}
2312:TP2824/TP2802.c **** 			else if (count[i] < 7) // skip first 3 second
 3836              		.loc 1 2312 9 is_stmt 1 view .LVU1098
 3837              		.loc 1 2312 12 is_stmt 0 view .LVU1099
 3838 0634 062B     		cmp	r3, #6
 3839 0636 40F25581 		bls	.L324
2313:TP2824/TP2802.c **** 			{
2314:TP2824/TP2802.c **** 				egain[i][3] = egain[i][2];
2315:TP2824/TP2802.c **** 				egain[i][2] = egain[i][1];
2316:TP2824/TP2802.c **** 				egain[i][1] = egain[i][0];
2317:TP2824/TP2802.c **** 
2318:TP2824/TP2802.c **** 				gain = ReadGain();
2319:TP2824/TP2802.c **** 				egain[i][0] = gain;
2320:TP2824/TP2802.c **** 			}
2321:TP2824/TP2802.c **** 			else if (count[i] < EQ_COUNT)
 3840              		.loc 1 2321 9 is_stmt 1 view .LVU1100
 3841              		.loc 1 2321 12 is_stmt 0 view .LVU1101
 3842 063a 132B     		cmp	r3, #19
 3843 063c 40F26281 		bls	.L325
2322:TP2824/TP2802.c **** 			{
2323:TP2824/TP2802.c **** 				egain[i][3] = egain[i][2];
2324:TP2824/TP2802.c **** 				egain[i][2] = egain[i][1];
2325:TP2824/TP2802.c **** 				egain[i][1] = egain[i][0];
2326:TP2824/TP2802.c **** 
2327:TP2824/TP2802.c **** 				gain = ReadGain();
2328:TP2824/TP2802.c **** 				egain[i][0] = gain;
2329:TP2824/TP2802.c **** 
2330:TP2824/TP2802.c **** 				if (abs(egain[i][3] - egain[i][0]) < EQ_DIFF && abs(egain[i][2] - egain[i][0]) < EQ_DIFF && abs
ARM GAS  C:\Users\ryanc.HS\AppData\Local\Temp\ccAQ3CYh.s 			page 127


2331:TP2824/TP2802.c **** 				{
2332:TP2824/TP2802.c **** 					count[i] = EQ_COUNT - 1;
2333:TP2824/TP2802.c **** 				}
2334:TP2824/TP2802.c **** 			}
2335:TP2824/TP2802.c **** 			else if (EQ_COUNT == count[i])
 3844              		.loc 1 2335 9 is_stmt 1 view .LVU1102
 3845              		.loc 1 2335 12 is_stmt 0 view .LVU1103
 3846 0640 142B     		cmp	r3, #20
 3847 0642 00F0AD81 		beq	.L326
2336:TP2824/TP2802.c **** 			{
2337:TP2824/TP2802.c **** 				gain = ReadGain();
2338:TP2824/TP2802.c **** 				printf("Egain=0x%02x ch%02x,std=%d,mode=0x%02X\r\n", (tWord)gain, (tWord)i, (tWord)std[i], (tWo
2339:TP2824/TP2802.c **** 
2340:TP2824/TP2802.c **** 				if ((mode[i] == R1080P30) || (mode[i] == R1080P25))
2341:TP2824/TP2802.c **** 				{
2342:TP2824/TP2802.c **** 					newInRes[i] = _OSD_1920X1080P;
2343:TP2824/TP2802.c **** 				}
2344:TP2824/TP2802.c **** 				else if ((mode[i] == R720P50) || (mode[i] == R720P60))
2345:TP2824/TP2802.c **** 				{
2346:TP2824/TP2802.c **** 					newInRes[i] = _OSD_1280X720P;
2347:TP2824/TP2802.c **** 				}
2348:TP2824/TP2802.c **** 				else if ((mode[i] == R720P25) || (mode[i] == R720P30))
2349:TP2824/TP2802.c **** 				{
2350:TP2824/TP2802.c **** 					newInRes[i] = _OSD_1280X720P;
2351:TP2824/TP2802.c **** 				}
2352:TP2824/TP2802.c **** 				else if ((mode[i] == R720P30V2) || (mode[i] == R720P25V2))
2353:TP2824/TP2802.c **** 				{
2354:TP2824/TP2802.c **** 					newInRes[i] = _OSD_1280X720P;
2355:TP2824/TP2802.c **** 				}
2356:TP2824/TP2802.c **** 				else if (mode[i] == NTSC)
2357:TP2824/TP2802.c **** 				{
2358:TP2824/TP2802.c **** 					newInRes[i] = _OSD_720X480I60;
2359:TP2824/TP2802.c **** 				}
2360:TP2824/TP2802.c **** 				else if (mode[i] == PAL)
2361:TP2824/TP2802.c **** 				{
2362:TP2824/TP2802.c **** 					newInRes[i] = _OSD_720X576I50;
2363:TP2824/TP2802.c **** 				}
2364:TP2824/TP2802.c **** 				else
2365:TP2824/TP2802.c **** 				{
2366:TP2824/TP2802.c **** 					newInRes[i] = _OSD_No_Signal;
2367:TP2824/TP2802.c **** 				}
2368:TP2824/TP2802.c **** 
2369:TP2824/TP2802.c **** 				if (newInRes[i] != gbVXIS_InputMode[i])
2370:TP2824/TP2802.c **** 				{
2371:TP2824/TP2802.c **** 
2372:TP2824/TP2802.c **** 					if (bytResetOSDValue == 0)
2373:TP2824/TP2802.c **** 						VideoChangeFlag = 1;
2374:TP2824/TP2802.c **** 
2375:TP2824/TP2802.c **** 					VS4210_SetInModeOutMode(i, newInRes[i], gbVXIS_OuputModeflg);
2376:TP2824/TP2802.c **** 
2377:TP2824/TP2802.c **** // save tp2824 data
2378:TP2824/TP2802.c **** #if 0
2379:TP2824/TP2802.c **** 		if((bytSelectCAMRD==SelectCameraD)&&(i==2))	
2380:TP2824/TP2802.c **** 			{
2381:TP2824/TP2802.c **** 
2382:TP2824/TP2802.c **** 			if( ReadEEP(EEP_TP2824_SAVE4)==0)
2383:TP2824/TP2802.c **** 			{
ARM GAS  C:\Users\ryanc.HS\AppData\Local\Temp\ccAQ3CYh.s 			page 128


2384:TP2824/TP2802.c **** 			 WriteEEP(EEP_TP2824_STD4,std[i]);
2385:TP2824/TP2802.c **** 			 WriteEEP(EEP_TP2824_MODE4,mode[i]); 	
2386:TP2824/TP2802.c **** 			  WriteEEP(EEP_TP2824_SAVE4,1);
2387:TP2824/TP2802.c **** 			  VideoSave[i]=_TRUE;
2388:TP2824/TP2802.c **** 
2389:TP2824/TP2802.c **** #if (_DEBUG_MESSAGE_TP2824 == ON)
2390:TP2824/TP2802.c **** 			 Printf("\r\n(WriteModeDataToEEPROM ch=%02x)",(WORD)i+1) ;
2391:TP2824/TP2802.c **** #endif
2392:TP2824/TP2802.c **** 			}
2393:TP2824/TP2802.c **** 
2394:TP2824/TP2802.c **** 			}
2395:TP2824/TP2802.c **** 		else
2396:TP2824/TP2802.c **** 			{
2397:TP2824/TP2802.c **** 				if( ReadEEP(EEP_TP2824_SAVE2)==0)
2398:TP2824/TP2802.c **** 				{
2399:TP2824/TP2802.c **** 				 WriteEEP(EEP_TP2824_STD2,std[i]);
2400:TP2824/TP2802.c **** 				 WriteEEP(EEP_TP2824_MODE2,mode[i]);		
2401:TP2824/TP2802.c **** 			    	  WriteEEP(EEP_TP2824_SAVE2,1);
2402:TP2824/TP2802.c **** 				  VideoSave[i]=_TRUE;
2403:TP2824/TP2802.c **** 
2404:TP2824/TP2802.c **** #if (_DEBUG_MESSAGE_TP2824 == ON)
2405:TP2824/TP2802.c **** 				 Printf("\r\n(WriteModeDataToEEPROM ch=%02x)",(WORD)i) ;
2406:TP2824/TP2802.c **** #endif
2407:TP2824/TP2802.c **** 				}
2408:TP2824/TP2802.c **** 			}
2409:TP2824/TP2802.c **** 
2410:TP2824/TP2802.c **** #else
2411:TP2824/TP2802.c **** 					if ((bytSelectCAMRD == SelectCameraD) && (i == 3))
2412:TP2824/TP2802.c **** 					{
2413:TP2824/TP2802.c **** 
2414:TP2824/TP2802.c **** 						if (/*ReadEEP(EEP_TP2824_STD0+((i+1)*3)+2)*/ VideoSave[i] != _TRUE)
2415:TP2824/TP2802.c **** 						{
2416:TP2824/TP2802.c **** 							WriteEEP(EEP_TP2824_STD0 + ((i + 1) * 3), std[i]);
2417:TP2824/TP2802.c **** 							WriteEEP(EEP_TP2824_STD0 + ((i + 1) * 3) + 1, mode[i]);
2418:TP2824/TP2802.c **** 							WriteEEP(EEP_TP2824_STD0 + ((i + 1) * 3) + 2, 1);
2419:TP2824/TP2802.c **** 							VideoSave[i] = _TRUE;
2420:TP2824/TP2802.c **** 
2421:TP2824/TP2802.c **** #if (_DEBUG_MESSAGE_TP2824 == ON)
2422:TP2824/TP2802.c **** 							GraphicsPrint(RED, "(WriteModeDataToEEPROM ch=%02x std=%02x mode=%02x)\r\n", (WORD)i + 1, (W
2423:TP2824/TP2802.c **** #endif
2424:TP2824/TP2802.c **** 						}
2425:TP2824/TP2802.c **** 					}
2426:TP2824/TP2802.c **** 					else
2427:TP2824/TP2802.c **** 					{
2428:TP2824/TP2802.c **** 						if (/*ReadEEP(EEP_TP2824_STD0+(i*3)+2)*/ VideoSave[i] != _TRUE)
2429:TP2824/TP2802.c **** 						{
2430:TP2824/TP2802.c **** 							WriteEEP(EEP_TP2824_STD0 + (i * 3), std[i]);
2431:TP2824/TP2802.c **** 							WriteEEP(EEP_TP2824_STD0 + (i * 3) + 1, mode[i]);
2432:TP2824/TP2802.c **** 							WriteEEP(EEP_TP2824_STD0 + (i * 3) + 2, 1);
2433:TP2824/TP2802.c **** 							VideoSave[i] = _TRUE;
2434:TP2824/TP2802.c **** 
2435:TP2824/TP2802.c **** #if (_DEBUG_MESSAGE_TP2824 == ON)
2436:TP2824/TP2802.c **** 							GraphicsPrint(RED, "(WriteModeDataToEEPROM ch=%02x std=%02x mode=%02x)\r\n", (WORD)i, (WORD)
2437:TP2824/TP2802.c **** #endif
2438:TP2824/TP2802.c **** 						}
2439:TP2824/TP2802.c **** 					}
2440:TP2824/TP2802.c **** 
ARM GAS  C:\Users\ryanc.HS\AppData\Local\Temp\ccAQ3CYh.s 			page 129


2441:TP2824/TP2802.c **** #endif
2442:TP2824/TP2802.c **** 					//          printf("VS4210_SetInModeOutMode(),i=%d,newInRes=%d,OuputModeflg=%d\r\n",(int)i ,(i
2443:TP2824/TP2802.c **** 
2444:TP2824/TP2802.c **** 					//                    tp28xx_byte_write(0xF6,0x00);
2445:TP2824/TP2802.c **** 					//
2446:TP2824/TP2802.c **** 					//                    tmpval = tp28xx_byte_read(0x40);
2447:TP2824/TP2802.c **** 					//                    printf("0x40=0x%02x\r\n",tmpval ) ;
2448:TP2824/TP2802.c **** 					//                    tmpval = tp28xx_byte_read(0x4d);
2449:TP2824/TP2802.c **** 					//                    printf("0x4D=0x%02x\r\n",tmpval ) ;
2450:TP2824/TP2802.c **** 					//                    tmpval = tp28xx_byte_read(0x4E);
2451:TP2824/TP2802.c **** 					//                    printf("0x4E=0x%02x\r\n",tmpval ) ;
2452:TP2824/TP2802.c **** 					//
2453:TP2824/TP2802.c **** 					//                    tmpval = tp28xx_byte_read(0x50);
2454:TP2824/TP2802.c **** 					//                    printf("0x50=0x%02x\r\n",tmpval ) ;
2455:TP2824/TP2802.c **** 					//                    tmpval = tp28xx_byte_read(0x51);
2456:TP2824/TP2802.c **** 					//                    printf("0x51=0x%02x\r\n",tmpval ) ;
2457:TP2824/TP2802.c **** 					//                    tmpval = tp28xx_byte_read(0x52);
2458:TP2824/TP2802.c **** 					//                    printf("0x52=0x%02x\r\n",tmpval ) ;
2459:TP2824/TP2802.c **** 					//                    tmpval = tp28xx_byte_read(0x53);
2460:TP2824/TP2802.c **** 					//                    printf("0x53=0x%02x\r\n",tmpval ) ;
2461:TP2824/TP2802.c **** 					//
2462:TP2824/TP2802.c **** 					//
2463:TP2824/TP2802.c **** 					//                    tmpval = tp28xx_byte_read(0xF6);
2464:TP2824/TP2802.c **** 					//                    printf("0xF6=0x%02x\r\n",tmpval ) ;
2465:TP2824/TP2802.c **** 					//                    tmpval = tp28xx_byte_read(0xF7);
2466:TP2824/TP2802.c **** 					//                    printf("0xF7=0x%02x\r\n",tmpval ) ;
2467:TP2824/TP2802.c **** 					//                    tmpval = tp28xx_byte_read(0xF8);
2468:TP2824/TP2802.c **** 					//                    printf("0xF8=0x%02x\r\n",tmpval ) ;
2469:TP2824/TP2802.c **** 					//                    tmpval = tp28xx_byte_read(0xF9);
2470:TP2824/TP2802.c **** 					//                    printf("0xF9=0x%02x\r\n",tmpval ) ;
2471:TP2824/TP2802.c **** 					//
2472:TP2824/TP2802.c **** 					//                    tmpval = tp28xx_byte_read(0xFA);
2473:TP2824/TP2802.c **** 					//                    printf("0xFA=0x%02x\r\n",tmpval ) ;
2474:TP2824/TP2802.c **** 					//
2475:TP2824/TP2802.c **** 					//                    tmpval = tp28xx_byte_read(0xFB);
2476:TP2824/TP2802.c **** 					//                    printf("0xFB=0x%02x\r\n",tmpval ) ;
2477:TP2824/TP2802.c **** 				}
2478:TP2824/TP2802.c **** 
2479:TP2824/TP2802.c **** 				if (TVI != std[i])
2480:TP2824/TP2802.c **** 				{
2481:TP2824/TP2802.c **** 					// mask by ryan@20211213 jEQ  tp28xx_byte_write(0x07, 0x80|(gain>>2));  // ma
2482:TP2824/TP2802.c **** 					if (std[i] == HDA)
2483:TP2824/TP2802.c **** 					{
2484:TP2824/TP2802.c **** 						printf("AHD Mode\r\n");
2485:TP2824/TP2802.c **** 					}
2486:TP2824/TP2802.c **** 					else
2487:TP2824/TP2802.c **** 					{
2488:TP2824/TP2802.c **** 						printf("CVI Mode\r\n");
2489:TP2824/TP2802.c **** 					}
2490:TP2824/TP2802.c **** 				}
2491:TP2824/TP2802.c **** 				else // TVI
2492:TP2824/TP2802.c **** 				{
2493:TP2824/TP2802.c **** 					if (TP2833 == chip || TP2834 == chip)
2494:TP2824/TP2802.c **** 					{
2495:TP2824/TP2802.c **** 						if (mode[i] & FLAG_MEGA_MODE)
2496:TP2824/TP2802.c **** 						{
2497:TP2824/TP2802.c **** 							tp28xx_byte_write(0x07, 0x80 | (gain / 3)); // manual mode
ARM GAS  C:\Users\ryanc.HS\AppData\Local\Temp\ccAQ3CYh.s 			page 130


2498:TP2824/TP2802.c **** 						}
2499:TP2824/TP2802.c **** 					}
2500:TP2824/TP2802.c **** 					if (mode[i] == NTSC) // 20200408 cvbs night no burst
2501:TP2824/TP2802.c **** 						printf("CVBS NTSC   mode\r\n");
2502:TP2824/TP2802.c **** 					else if (mode[i] == PAL) // 20200408 cvbs night no burst
2503:TP2824/TP2802.c **** 						printf("CVBS PAL   mode\r\n");
2504:TP2824/TP2802.c **** 					else
2505:TP2824/TP2802.c **** 						printf("LINE=%d,TVI Mode\r\n", __LINE__);
2506:TP2824/TP2802.c **** 					// gRxLoopFlg = 0 ;
2507:TP2824/TP2802.c **** 				}
2508:TP2824/TP2802.c **** 			}
2509:TP2824/TP2802.c **** 			else if (EQ_COUNT + 1 == count[i])
 3848              		.loc 1 2509 9 is_stmt 1 view .LVU1104
 3849              		.loc 1 2509 12 is_stmt 0 view .LVU1105
 3850 0646 152B     		cmp	r3, #21
 3851 0648 00F08B82 		beq	.L327
2510:TP2824/TP2802.c **** 			{
2511:TP2824/TP2802.c **** 				if (TVI != std[i])
2512:TP2824/TP2802.c **** 				{
2513:TP2824/TP2802.c **** 					ManualAGC(i);
2514:TP2824/TP2802.c **** 					SetCGain(0x0c);
2515:TP2824/TP2802.c **** 				}
2516:TP2824/TP2802.c **** 				else // TVI
2517:TP2824/TP2802.c **** 				{
2518:TP2824/TP2802.c **** 					if (TP2833 == chip || TP2834 == chip)
2519:TP2824/TP2802.c **** 					{
2520:TP2824/TP2802.c **** 						if (mode[i] & FLAG_MEGA_MODE)
2521:TP2824/TP2802.c **** 						{
2522:TP2824/TP2802.c **** 							SetCGain(0x16);
2523:TP2824/TP2802.c **** 						}
2524:TP2824/TP2802.c **** 					}
2525:TP2824/TP2802.c **** 				}
2526:TP2824/TP2802.c **** 			}
2527:TP2824/TP2802.c **** 			else if (EQ_COUNT + 2 == count[i]) // cocrx
 3852              		.loc 1 2527 9 is_stmt 1 view .LVU1106
 3853              		.loc 1 2527 12 is_stmt 0 view .LVU1107
 3854 064c 162B     		cmp	r3, #22
 3855 064e 7FF42CAD 		bne	.L200
2528:TP2824/TP2802.c **** 			{
2529:TP2824/TP2802.c **** 				if (state[i] == VIDEO_LOCKED)
 3856              		.loc 1 2529 5 is_stmt 1 view .LVU1108
 3857              	.LBB4:
2530:TP2824/TP2802.c **** 				{
2531:TP2824/TP2802.c **** 					tcByte *ptr_TP2824C;
 3858              		.loc 1 2531 6 view .LVU1109
2532:TP2824/TP2802.c **** 					if (TVI == std[i])
 3859              		.loc 1 2532 6 view .LVU1110
 3860              		.loc 1 2532 20 is_stmt 0 view .LVU1111
 3861 0652 BF4B     		ldr	r3, .L356
 3862 0654 9B5D     		ldrb	r3, [r3, r6]	@ zero_extendqisi2
 3863              		.loc 1 2532 9 view .LVU1112
 3864 0656 002B     		cmp	r3, #0
 3865 0658 36D1     		bne	.L270
2533:TP2824/TP2802.c **** 					{
2534:TP2824/TP2802.c **** 						if (mode[i] == NTSC || mode[i] == PAL)
 3866              		.loc 1 2534 7 is_stmt 1 view .LVU1113
 3867              		.loc 1 2534 15 is_stmt 0 view .LVU1114
ARM GAS  C:\Users\ryanc.HS\AppData\Local\Temp\ccAQ3CYh.s 			page 131


 3868 065a BE4B     		ldr	r3, .L356+4
 3869 065c 9B5D     		ldrb	r3, [r3, r6]	@ zero_extendqisi2
 3870              		.loc 1 2534 27 view .LVU1115
 3871 065e 083B     		subs	r3, r3, #8
 3872 0660 DBB2     		uxtb	r3, r3
 3873              		.loc 1 2534 10 view .LVU1116
 3874 0662 012B     		cmp	r3, #1
 3875 0664 40F29A82 		bls	.L328
2535:TP2824/TP2802.c **** 						{
2536:TP2824/TP2802.c **** 							ptr_TP2824C = TP2824C_CVBS_PTZ_DataSet;
2537:TP2824/TP2802.c **** #if (_DEBUG_MESSAGE_TP2824 == ON)
2538:TP2824/TP2802.c **** 							Printf("(TP2824C_CVBS_PTZ_DataSet)");
2539:TP2824/TP2802.c **** #endif
2540:TP2824/TP2802.c **** 
2541:TP2824/TP2802.c **** 							// SetGarbberLinerMode(bytGarbberLinerMode);
2542:TP2824/TP2802.c **** 						}
2543:TP2824/TP2802.c **** 						else
2544:TP2824/TP2802.c **** 						{
2545:TP2824/TP2802.c **** 							ptr_TP2824C = TP2824C_TVI_FHD_PTZ_DataSet;
 3876              		.loc 1 2545 8 is_stmt 1 view .LVU1117
2546:TP2824/TP2802.c **** #if (_DEBUG_MESSAGE_TP2824 == ON)
2547:TP2824/TP2802.c **** 							Printf("(TP2824C_TVI_FHD_PTZ_DataSet)");
 3877              		.loc 1 2547 8 view .LVU1118
 3878 0668 BB48     		ldr	r0, .L356+8
 3879 066a FFF7FEFF 		bl	Printf
 3880              	.LVL403:
2545:TP2824/TP2802.c **** #if (_DEBUG_MESSAGE_TP2824 == ON)
 3881              		.loc 1 2545 20 is_stmt 0 view .LVU1119
 3882 066e BB48     		ldr	r0, .L356+12
 3883              	.L272:
 3884              	.LVL404:
2548:TP2824/TP2802.c **** #endif
2549:TP2824/TP2802.c **** 							// SetGarbberLinerMode(bytGarbberLinerMode);
2550:TP2824/TP2802.c **** 						}
2551:TP2824/TP2802.c **** 
2552:TP2824/TP2802.c **** 						I2CDeviceSet1(ptr_TP2824C);
 3885              		.loc 1 2552 7 is_stmt 1 view .LVU1120
 3886 0670 FFF7FEFF 		bl	I2CDeviceSet1
 3887              	.LVL405:
2553:TP2824/TP2802.c **** 
2554:TP2824/TP2802.c **** 						if (mode[i] == R1080P30 || mode[i] == R1080P25)
 3888              		.loc 1 2554 7 view .LVU1121
 3889              		.loc 1 2554 15 is_stmt 0 view .LVU1122
 3890 0674 B74B     		ldr	r3, .L356+4
 3891 0676 9B5D     		ldrb	r3, [r3, r6]	@ zero_extendqisi2
 3892              		.loc 1 2554 31 view .LVU1123
 3893 0678 023B     		subs	r3, r3, #2
 3894 067a DBB2     		uxtb	r3, r3
 3895              		.loc 1 2554 10 view .LVU1124
 3896 067c 012B     		cmp	r3, #1
 3897 067e 40F29282 		bls	.L329
 3898              	.L273:
2555:TP2824/TP2802.c **** 						{
2556:TP2824/TP2802.c **** 							tp28xx_byte_write(0xc6, 0x19);
2557:TP2824/TP2802.c **** 						}
2558:TP2824/TP2802.c **** 
2559:TP2824/TP2802.c **** 						tp28xx_byte_write(0x40, i);
ARM GAS  C:\Users\ryanc.HS\AppData\Local\Temp\ccAQ3CYh.s 			page 132


 3899              		.loc 1 2559 7 is_stmt 1 view .LVU1125
 3900 0682 2146     		mov	r1, r4
 3901 0684 4020     		movs	r0, #64
 3902 0686 FFF7FEFF 		bl	tp28xx_byte_write
 3903              	.LVL406:
2560:TP2824/TP2802.c **** 
2561:TP2824/TP2802.c **** 						tp28xx_byte_write(0xbe, 0x80);
 3904              		.loc 1 2561 7 view .LVU1126
 3905 068a 8021     		movs	r1, #128
 3906 068c BE20     		movs	r0, #190
 3907 068e FFF7FEFF 		bl	tp28xx_byte_write
 3908              	.LVL407:
2562:TP2824/TP2802.c **** 						tp28xx_byte_read(0xB6);
 3909              		.loc 1 2562 7 view .LVU1127
 3910 0692 B620     		movs	r0, #182
 3911 0694 FFF7FEFF 		bl	tp28xx_byte_read
 3912              	.LVL408:
2563:TP2824/TP2802.c **** 						tp28xx_byte_read(0xB5);
 3913              		.loc 1 2563 7 view .LVU1128
 3914 0698 B520     		movs	r0, #181
 3915 069a FFF7FEFF 		bl	tp28xx_byte_read
 3916              	.LVL409:
2564:TP2824/TP2802.c **** 						tp28xx_byte_read(0xB4);
 3917              		.loc 1 2564 7 view .LVU1129
 3918 069e B420     		movs	r0, #180
 3919 06a0 FFF7FEFF 		bl	tp28xx_byte_read
 3920              	.LVL410:
2565:TP2824/TP2802.c **** 
2566:TP2824/TP2802.c **** 						tp28xx_byte_write(0xa7, 0x00);
 3921              		.loc 1 2566 7 view .LVU1130
 3922 06a4 0021     		movs	r1, #0
 3923 06a6 A720     		movs	r0, #167
 3924 06a8 FFF7FEFF 		bl	tp28xx_byte_write
 3925              	.LVL411:
2567:TP2824/TP2802.c **** 						delay(1); // 5ms
 3926              		.loc 1 2567 7 view .LVU1131
 3927 06ac 0120     		movs	r0, #1
 3928 06ae FFF7FEFF 		bl	delay
 3929              	.LVL412:
2568:TP2824/TP2802.c **** 						tp28xx_byte_write(0xa7, 0x83);
 3930              		.loc 1 2568 7 view .LVU1132
 3931 06b2 8321     		movs	r1, #131
 3932 06b4 A720     		movs	r0, #167
 3933 06b6 FFF7FEFF 		bl	tp28xx_byte_write
 3934              	.LVL413:
2569:TP2824/TP2802.c **** 
2570:TP2824/TP2802.c **** 						if (mode[i] == R1080P30 || mode[i] == R1080P25)
 3935              		.loc 1 2570 7 view .LVU1133
 3936              		.loc 1 2570 15 is_stmt 0 view .LVU1134
 3937 06ba A64B     		ldr	r3, .L356+4
 3938 06bc 9B5D     		ldrb	r3, [r3, r6]	@ zero_extendqisi2
 3939              		.loc 1 2570 31 view .LVU1135
 3940 06be 023B     		subs	r3, r3, #2
 3941 06c0 DBB2     		uxtb	r3, r3
 3942              		.loc 1 2570 10 view .LVU1136
 3943 06c2 012B     		cmp	r3, #1
 3944 06c4 40F27482 		bls	.L330
ARM GAS  C:\Users\ryanc.HS\AppData\Local\Temp\ccAQ3CYh.s 			page 133


 3945              	.L270:
2571:TP2824/TP2802.c **** 						{
2572:TP2824/TP2802.c **** 							PtzTxChNum = i;
2573:TP2824/TP2802.c **** 							printf("EQdet %d\r\n", PtzTxChNum);
2574:TP2824/TP2802.c **** 						}
2575:TP2824/TP2802.c **** 					}
2576:TP2824/TP2802.c **** 
2577:TP2824/TP2802.c **** 					if (HDA == std[i])
 3946              		.loc 1 2577 6 is_stmt 1 view .LVU1137
 3947              		.loc 1 2577 20 is_stmt 0 view .LVU1138
 3948 06c8 A14B     		ldr	r3, .L356
 3949 06ca 9B5D     		ldrb	r3, [r3, r6]	@ zero_extendqisi2
 3950              		.loc 1 2577 9 view .LVU1139
 3951 06cc 012B     		cmp	r3, #1
 3952 06ce 00F07682 		beq	.L331
 3953              	.L274:
2578:TP2824/TP2802.c **** 					{
2579:TP2824/TP2802.c **** 						ptr_TP2824C = TP2824C_AHD_FHD_PTZ_DataSet;
2580:TP2824/TP2802.c **** 						I2CDeviceSet1(ptr_TP2824C);
2581:TP2824/TP2802.c **** 
2582:TP2824/TP2802.c **** 						tp28xx_byte_write(0x40, i);
2583:TP2824/TP2802.c **** 						tp28xx_byte_write(0xbe, 0x80);
2584:TP2824/TP2802.c **** 						tp28xx_byte_read(0xB6);
2585:TP2824/TP2802.c **** 						tp28xx_byte_read(0xB5);
2586:TP2824/TP2802.c **** 						tp28xx_byte_read(0xB4);
2587:TP2824/TP2802.c **** 
2588:TP2824/TP2802.c **** 						tp28xx_byte_write(0xa7, 0x24);
2589:TP2824/TP2802.c **** 						delay(1); // 5ms
2590:TP2824/TP2802.c **** 						tp28xx_byte_write(0xa7, 0xA7);
2591:TP2824/TP2802.c **** 
2592:TP2824/TP2802.c **** 						// SetGarbberLinerMode(bytGarbberLinerMode);
2593:TP2824/TP2802.c **** 					}
2594:TP2824/TP2802.c **** 
2595:TP2824/TP2802.c **** 					if (HDC == std[i])
 3954              		.loc 1 2595 6 is_stmt 1 view .LVU1140
 3955              		.loc 1 2595 20 is_stmt 0 view .LVU1141
 3956 06d2 9F4B     		ldr	r3, .L356
 3957 06d4 9B5D     		ldrb	r3, [r3, r6]	@ zero_extendqisi2
 3958              		.loc 1 2595 9 view .LVU1142
 3959 06d6 022B     		cmp	r3, #2
 3960 06d8 00F09182 		beq	.L332
 3961              	.L275:
2596:TP2824/TP2802.c **** 					{
2597:TP2824/TP2802.c **** 						ptr_TP2824C = TP2824C_CVIHD_PTZ_DataSet;
2598:TP2824/TP2802.c **** 						I2CDeviceSet1(ptr_TP2824C);
2599:TP2824/TP2802.c **** 
2600:TP2824/TP2802.c **** 						tp28xx_byte_write(0x40, i);
2601:TP2824/TP2802.c **** 						tp28xx_byte_write(0xbe, 0x80);
2602:TP2824/TP2802.c **** 						tp28xx_byte_read(0xB6);
2603:TP2824/TP2802.c **** 						tp28xx_byte_read(0xB5);
2604:TP2824/TP2802.c **** 						tp28xx_byte_read(0xB4);
2605:TP2824/TP2802.c **** 
2606:TP2824/TP2802.c **** 						tp28xx_byte_read(0xA4);
2607:TP2824/TP2802.c **** 						tp28xx_byte_read(0xA2);
2608:TP2824/TP2802.c **** 						tp28xx_byte_read(0xA3);
2609:TP2824/TP2802.c **** 
2610:TP2824/TP2802.c **** 						tp28xx_byte_write(0xa7, 0x00);
ARM GAS  C:\Users\ryanc.HS\AppData\Local\Temp\ccAQ3CYh.s 			page 134


2611:TP2824/TP2802.c **** 						delay(1); // 5ms
2612:TP2824/TP2802.c **** 						tp28xx_byte_write(0xa7, 0x83);
2613:TP2824/TP2802.c **** 
2614:TP2824/TP2802.c **** 						// SetGarbberLinerMode(bytGarbberLinerMode);
2615:TP2824/TP2802.c **** 					}
2616:TP2824/TP2802.c **** 
2617:TP2824/TP2802.c **** 					if ((std[i] == TVI) && (mode[i] != NTSC) && (mode[i] != PAL) && (state[i] == VIDEO_LOCKED))
 3962              		.loc 1 2617 6 is_stmt 1 view .LVU1143
 3963              		.loc 1 2617 14 is_stmt 0 view .LVU1144
 3964 06dc 9C4B     		ldr	r3, .L356
 3965 06de 9B5D     		ldrb	r3, [r3, r6]	@ zero_extendqisi2
 3966              		.loc 1 2617 9 view .LVU1145
 3967 06e0 002B     		cmp	r3, #0
 3968 06e2 7FF4E2AC 		bne	.L200
 3969              		.loc 1 2617 34 discriminator 1 view .LVU1146
 3970 06e6 9B4B     		ldr	r3, .L356+4
 3971 06e8 9B5D     		ldrb	r3, [r3, r6]	@ zero_extendqisi2
 3972              		.loc 1 2617 26 discriminator 1 view .LVU1147
 3973 06ea 082B     		cmp	r3, #8
 3974 06ec 3FF4DDAC 		beq	.L200
 3975              		.loc 1 2617 47 discriminator 2 view .LVU1148
 3976 06f0 092B     		cmp	r3, #9
 3977 06f2 3FF4DAAC 		beq	.L200
 3978              		.loc 1 2617 76 discriminator 3 view .LVU1149
 3979 06f6 9A4B     		ldr	r3, .L356+16
 3980 06f8 9B5D     		ldrb	r3, [r3, r6]	@ zero_extendqisi2
 3981              		.loc 1 2617 67 discriminator 3 view .LVU1150
 3982 06fa 022B     		cmp	r3, #2
 3983 06fc 7FF4D5AC 		bne	.L200
2618:TP2824/TP2802.c **** 					{
2619:TP2824/TP2802.c **** 
2620:TP2824/TP2802.c **** 						/*
2621:TP2824/TP2802.c **** 
2622:TP2824/TP2802.c **** 						SetCOCCom(_COCOSD_BOX_Sel,i);
2623:TP2824/TP2802.c **** 						SetCOCCom(_COCOSD_BOXONLINE,0);
2624:TP2824/TP2802.c **** 						 Get_2824cIrq();
2625:TP2824/TP2802.c **** 
2626:TP2824/TP2802.c **** 						 msleep(50);
2627:TP2824/TP2802.c **** 
2628:TP2824/TP2802.c **** 						 SetCOCCom(_COCOSD_BOX_Channel_Sel,5);
2629:TP2824/TP2802.c **** 						// COCSelectModeType=5;
2630:TP2824/TP2802.c **** 						 Get_2824cIrq();
2631:TP2824/TP2802.c **** 						msleep(50);
2632:TP2824/TP2802.c **** 			*/
2633:TP2824/TP2802.c **** 
2634:TP2824/TP2802.c **** 						BOX_ISSUE = 0;
 3984              		.loc 1 2634 7 is_stmt 1 view .LVU1151
 3985              		.loc 1 2634 17 is_stmt 0 view .LVU1152
 3986 0700 984B     		ldr	r3, .L356+20
 3987 0702 0022     		movs	r2, #0
 3988 0704 1A70     		strb	r2, [r3]
2635:TP2824/TP2802.c **** 
2636:TP2824/TP2802.c **** 						MCUTimerCancelTimerEvent(_SYSTEM_TIMER_EVENT_TVI_BOX_Set);
 3989              		.loc 1 2636 7 is_stmt 1 view .LVU1153
 3990 0706 4920     		movs	r0, #73
 3991 0708 FFF7FEFF 		bl	MCUTimerCancelTimerEvent
 3992              	.LVL414:
ARM GAS  C:\Users\ryanc.HS\AppData\Local\Temp\ccAQ3CYh.s 			page 135


2637:TP2824/TP2802.c **** 						MCUTimerActiveTimerEvent(SEC(0.5), _SYSTEM_TIMER_EVENT_TVI_BOX_Set);
 3993              		.loc 1 2637 7 view .LVU1154
 3994 070c 4921     		movs	r1, #73
 3995 070e 4FF4FA70 		mov	r0, #500
 3996 0712 FFF7FEFF 		bl	MCUTimerActiveTimerEvent
 3997              	.LVL415:
 3998 0716 C8E4     		b	.L200
 3999              	.L321:
 4000              	.LBE4:
2237:TP2824/TP2802.c **** 				{
 4001              		.loc 1 2237 5 view .LVU1155
2237:TP2824/TP2802.c **** 				{
 4002              		.loc 1 2237 14 is_stmt 0 view .LVU1156
 4003 0718 934B     		ldr	r3, .L356+24
 4004 071a 1B78     		ldrb	r3, [r3]	@ zero_extendqisi2
2237:TP2824/TP2802.c **** 				{
 4005              		.loc 1 2237 8 view .LVU1157
 4006 071c 232B     		cmp	r3, #35
 4007 071e 7FF6C4AC 		bls	.L200
2239:TP2824/TP2802.c **** 					printf("Reg01 %02x\r\n", (tWord)tmp);
 4008              		.loc 1 2239 6 is_stmt 1 view .LVU1158
2239:TP2824/TP2802.c **** 					printf("Reg01 %02x\r\n", (tWord)tmp);
 4009              		.loc 1 2239 12 is_stmt 0 view .LVU1159
 4010 0722 0120     		movs	r0, #1
 4011 0724 FFF7FEFF 		bl	tp28xx_byte_read
 4012              	.LVL416:
 4013 0728 0546     		mov	r5, r0
 4014              	.LVL417:
2240:TP2824/TP2802.c **** 					if (mode[i] == NTSC || mode[i] == PAL)
 4015              		.loc 1 2240 6 is_stmt 1 view .LVU1160
 4016 072a 0146     		mov	r1, r0
 4017 072c 8F48     		ldr	r0, .L356+28
 4018              	.LVL418:
2240:TP2824/TP2802.c **** 					if (mode[i] == NTSC || mode[i] == PAL)
 4019              		.loc 1 2240 6 is_stmt 0 view .LVU1161
 4020 072e FFF7FEFF 		bl	printf
 4021              	.LVL419:
2241:TP2824/TP2802.c **** 						printf("CVBS  mode:%d\r\n", (tWord)mode[i]);
 4022              		.loc 1 2241 6 is_stmt 1 view .LVU1162
2241:TP2824/TP2802.c **** 						printf("CVBS  mode:%d\r\n", (tWord)mode[i]);
 4023              		.loc 1 2241 14 is_stmt 0 view .LVU1163
 4024 0732 884B     		ldr	r3, .L356+4
 4025 0734 995D     		ldrb	r1, [r3, r6]	@ zero_extendqisi2
2241:TP2824/TP2802.c **** 						printf("CVBS  mode:%d\r\n", (tWord)mode[i]);
 4026              		.loc 1 2241 26 view .LVU1164
 4027 0736 A1F10803 		sub	r3, r1, #8
 4028 073a DBB2     		uxtb	r3, r3
2241:TP2824/TP2802.c **** 						printf("CVBS  mode:%d\r\n", (tWord)mode[i]);
 4029              		.loc 1 2241 9 view .LVU1165
 4030 073c 012B     		cmp	r3, #1
 4031 073e 2CD9     		bls	.L333
2244:TP2824/TP2802.c **** 							 (mode[i] != R720P30 && mode[i] != R720P25 && mode[i] != R720P30V2 && mode[i] != R720P25V2 &
 4032              		.loc 1 2244 11 is_stmt 1 view .LVU1166
2244:TP2824/TP2802.c **** 							 (mode[i] != R720P30 && mode[i] != R720P25 && mode[i] != R720P30V2 && mode[i] != R720P25V2 &
 4033              		.loc 1 2244 21 is_stmt 0 view .LVU1167
 4034 0740 05F06405 		and	r5, r5, #100
2244:TP2824/TP2802.c **** 							 (mode[i] != R720P30 && mode[i] != R720P25 && mode[i] != R720P30V2 && mode[i] != R720P25V2 &
ARM GAS  C:\Users\ryanc.HS\AppData\Local\Temp\ccAQ3CYh.s 			page 136


 4035              		.loc 1 2244 14 view .LVU1168
 4036 0744 602D     		cmp	r5, #96
 4037 0746 7FF4B0AC 		bne	.L200
2245:TP2824/TP2802.c **** 					{
 4038              		.loc 1 2245 29 discriminator 1 view .LVU1169
 4039 074a 0B1F     		subs	r3, r1, #4
 4040 074c DBB2     		uxtb	r3, r3
2244:TP2824/TP2802.c **** 							 (mode[i] != R720P30 && mode[i] != R720P25 && mode[i] != R720P30V2 && mode[i] != R720P25V2 &
 4041              		.loc 1 2244 38 discriminator 1 view .LVU1170
 4042 074e 012B     		cmp	r3, #1
 4043 0750 7FF6ABAC 		bls	.L200
2245:TP2824/TP2802.c **** 					{
 4044              		.loc 1 2245 51 view .LVU1171
 4045 0754 0C29     		cmp	r1, #12
 4046 0756 3FF4A8AC 		beq	.L200
2245:TP2824/TP2802.c **** 					{
 4047              		.loc 1 2245 75 discriminator 1 view .LVU1172
 4048 075a 0D29     		cmp	r1, #13
 4049 075c 3FF4A5AC 		beq	.L200
2245:TP2824/TP2802.c **** 					{
 4050              		.loc 1 2245 99 discriminator 2 view .LVU1173
 4051 0760 0029     		cmp	r1, #0
 4052 0762 3FF4A2AC 		beq	.L200
2245:TP2824/TP2802.c **** 					{
 4053              		.loc 1 2245 121 discriminator 3 view .LVU1174
 4054 0766 0129     		cmp	r1, #1
 4055 0768 3FF49FAC 		beq	.L200
2248:TP2824/TP2802.c **** 						{
 4056              		.loc 1 2248 7 is_stmt 1 view .LVU1175
2248:TP2824/TP2802.c **** 						{
 4057              		.loc 1 2248 11 is_stmt 0 view .LVU1176
 4058 076c 2046     		mov	r0, r4
 4059 076e FFF7FEFF 		bl	Set_HDC
 4060              	.LVL420:
2248:TP2824/TP2802.c **** 						{
 4061              		.loc 1 2248 10 view .LVU1177
 4062 0772 0028     		cmp	r0, #0
 4063 0774 3FF499AC 		beq	.L200
2250:TP2824/TP2802.c **** 							printf("turn to C ch%02x\r\n", (tWord)i);
 4064              		.loc 1 2250 8 is_stmt 1 view .LVU1178
2250:TP2824/TP2802.c **** 							printf("turn to C ch%02x\r\n", (tWord)i);
 4065              		.loc 1 2250 15 is_stmt 0 view .LVU1179
 4066 0778 754D     		ldr	r5, .L356
 4067 077a 0223     		movs	r3, #2
 4068 077c AB55     		strb	r3, [r5, r6]
2251:TP2824/TP2802.c **** 
 4069              		.loc 1 2251 8 is_stmt 1 view .LVU1180
 4070 077e 3146     		mov	r1, r6
 4071 0780 7B48     		ldr	r0, .L356+32
 4072 0782 FFF7FEFF 		bl	printf
 4073              	.LVL421:
2253:TP2824/TP2802.c **** 							std[i] = HDA; // ryan@20211125
 4074              		.loc 1 2253 8 view .LVU1181
 4075 0786 2046     		mov	r0, r4
 4076 0788 FFF7FEFF 		bl	Set_HDA
 4077              	.LVL422:
2254:TP2824/TP2802.c **** 							printf("(turn to AHD ch%02x)\r\n", (tWord)i);
ARM GAS  C:\Users\ryanc.HS\AppData\Local\Temp\ccAQ3CYh.s 			page 137


 4078              		.loc 1 2254 8 view .LVU1182
2254:TP2824/TP2802.c **** 							printf("(turn to AHD ch%02x)\r\n", (tWord)i);
 4079              		.loc 1 2254 15 is_stmt 0 view .LVU1183
 4080 078c 0123     		movs	r3, #1
 4081 078e AB55     		strb	r3, [r5, r6]
2255:TP2824/TP2802.c **** 						}
 4082              		.loc 1 2255 8 is_stmt 1 view .LVU1184
 4083 0790 3146     		mov	r1, r6
 4084 0792 7848     		ldr	r0, .L356+36
 4085 0794 FFF7FEFF 		bl	printf
 4086              	.LVL423:
 4087 0798 87E4     		b	.L200
 4088              	.L333:
2242:TP2824/TP2802.c **** 					//                 if( 0x60 == (0x64 & tmp))
 4089              		.loc 1 2242 7 view .LVU1185
 4090 079a 7748     		ldr	r0, .L356+40
 4091 079c FFF7FEFF 		bl	printf
 4092              	.LVL424:
 4093 07a0 83E4     		b	.L200
 4094              	.L322:
2262:TP2824/TP2802.c **** 				{
 4095              		.loc 1 2262 5 view .LVU1186
2262:TP2824/TP2802.c **** 				{
 4096              		.loc 1 2262 14 is_stmt 0 view .LVU1187
 4097 07a2 714B     		ldr	r3, .L356+24
 4098 07a4 1B78     		ldrb	r3, [r3]	@ zero_extendqisi2
2262:TP2824/TP2802.c **** 				{
 4099              		.loc 1 2262 8 view .LVU1188
 4100 07a6 232B     		cmp	r3, #35
 4101 07a8 7FF67FAC 		bls	.L200
2264:TP2824/TP2802.c **** 					printf("Reg01 %02x\r\n", (tWord)tmp);
 4102              		.loc 1 2264 6 is_stmt 1 view .LVU1189
2264:TP2824/TP2802.c **** 					printf("Reg01 %02x\r\n", (tWord)tmp);
 4103              		.loc 1 2264 12 is_stmt 0 view .LVU1190
 4104 07ac 0120     		movs	r0, #1
 4105 07ae FFF7FEFF 		bl	tp28xx_byte_read
 4106              	.LVL425:
 4107 07b2 0546     		mov	r5, r0
 4108              	.LVL426:
2265:TP2824/TP2802.c **** 					if (mode[i] == NTSC || mode[i] == PAL)
 4109              		.loc 1 2265 6 is_stmt 1 view .LVU1191
 4110 07b4 0146     		mov	r1, r0
 4111 07b6 6D48     		ldr	r0, .L356+28
 4112              	.LVL427:
2265:TP2824/TP2802.c **** 					if (mode[i] == NTSC || mode[i] == PAL)
 4113              		.loc 1 2265 6 is_stmt 0 view .LVU1192
 4114 07b8 FFF7FEFF 		bl	printf
 4115              	.LVL428:
2266:TP2824/TP2802.c **** 						printf("CVBS  mode:%d\r\n", (tWord)mode[i]);
 4116              		.loc 1 2266 6 is_stmt 1 view .LVU1193
2266:TP2824/TP2802.c **** 						printf("CVBS  mode:%d\r\n", (tWord)mode[i]);
 4117              		.loc 1 2266 14 is_stmt 0 view .LVU1194
 4118 07bc 654B     		ldr	r3, .L356+4
 4119 07be 995D     		ldrb	r1, [r3, r6]	@ zero_extendqisi2
2266:TP2824/TP2802.c **** 						printf("CVBS  mode:%d\r\n", (tWord)mode[i]);
 4120              		.loc 1 2266 26 view .LVU1195
 4121 07c0 A1F10803 		sub	r3, r1, #8
ARM GAS  C:\Users\ryanc.HS\AppData\Local\Temp\ccAQ3CYh.s 			page 138


 4122 07c4 DBB2     		uxtb	r3, r3
2266:TP2824/TP2802.c **** 						printf("CVBS  mode:%d\r\n", (tWord)mode[i]);
 4123              		.loc 1 2266 9 view .LVU1196
 4124 07c6 012B     		cmp	r3, #1
 4125 07c8 25D9     		bls	.L334
2269:TP2824/TP2802.c **** 							 (0x00 == (0x04 & tmp) &&
 4126              		.loc 1 2269 11 is_stmt 1 view .LVU1197
2269:TP2824/TP2802.c **** 							 (0x00 == (0x04 & tmp) &&
 4127              		.loc 1 2269 21 is_stmt 0 view .LVU1198
 4128 07ca 05F01103 		and	r3, r5, #17
2269:TP2824/TP2802.c **** 							 (0x00 == (0x04 & tmp) &&
 4129              		.loc 1 2269 14 view .LVU1199
 4130 07ce 102B     		cmp	r3, #16
 4131 07d0 03D0     		beq	.L242
2269:TP2824/TP2802.c **** 							 (0x00 == (0x04 & tmp) &&
 4132              		.loc 1 2269 50 discriminator 1 view .LVU1200
 4133 07d2 5F4B     		ldr	r3, .L356
 4134 07d4 9B5D     		ldrb	r3, [r3, r6]	@ zero_extendqisi2
2269:TP2824/TP2802.c **** 							 (0x00 == (0x04 & tmp) &&
 4135              		.loc 1 2269 37 discriminator 1 view .LVU1201
 4136 07d6 022B     		cmp	r3, #2
 4137 07d8 0FD0     		beq	.L243
 4138              	.L242:
2269:TP2824/TP2802.c **** 							 (0x00 == (0x04 & tmp) &&
 4139              		.loc 1 2269 55 discriminator 3 view .LVU1202
 4140 07da 15F0040F 		tst	r5, #4
 4141 07de 7FF464AC 		bne	.L200
2271:TP2824/TP2802.c **** 					{
 4142              		.loc 1 2271 30 view .LVU1203
 4143 07e2 0B1F     		subs	r3, r1, #4
 4144 07e4 DBB2     		uxtb	r3, r3
2270:TP2824/TP2802.c **** 							  (mode[i] == R720P30 || mode[i] == R720P25 || mode[i] == R720P30V2 || mode[i] == R720P25V2 
 4145              		.loc 1 2270 31 view .LVU1204
 4146 07e6 012B     		cmp	r3, #1
 4147 07e8 07D9     		bls	.L243
2271:TP2824/TP2802.c **** 					{
 4148              		.loc 1 2271 52 view .LVU1205
 4149 07ea 0C29     		cmp	r1, #12
 4150 07ec 05D0     		beq	.L243
2271:TP2824/TP2802.c **** 					{
 4151              		.loc 1 2271 76 discriminator 1 view .LVU1206
 4152 07ee 0D29     		cmp	r1, #13
 4153 07f0 03D0     		beq	.L243
2271:TP2824/TP2802.c **** 					{
 4154              		.loc 1 2271 100 discriminator 2 view .LVU1207
 4155 07f2 11B1     		cbz	r1, .L243
2271:TP2824/TP2802.c **** 					{
 4156              		.loc 1 2271 122 discriminator 3 view .LVU1208
 4157 07f4 0129     		cmp	r1, #1
 4158 07f6 7FF458AC 		bne	.L200
 4159              	.L243:
2273:TP2824/TP2802.c **** 						{
 4160              		.loc 1 2273 7 is_stmt 1 view .LVU1209
2273:TP2824/TP2802.c **** 						{
 4161              		.loc 1 2273 11 is_stmt 0 view .LVU1210
 4162 07fa 2046     		mov	r0, r4
 4163 07fc FFF7FEFF 		bl	Set_HDA
ARM GAS  C:\Users\ryanc.HS\AppData\Local\Temp\ccAQ3CYh.s 			page 139


 4164              	.LVL429:
2273:TP2824/TP2802.c **** 						{
 4165              		.loc 1 2273 10 view .LVU1211
 4166 0800 0028     		cmp	r0, #0
 4167 0802 3FF452AC 		beq	.L200
2275:TP2824/TP2802.c **** 							printf("turn to A ch%02x\r\n", (tWord)i);
 4168              		.loc 1 2275 8 is_stmt 1 view .LVU1212
2275:TP2824/TP2802.c **** 							printf("turn to A ch%02x\r\n", (tWord)i);
 4169              		.loc 1 2275 15 is_stmt 0 view .LVU1213
 4170 0806 524B     		ldr	r3, .L356
 4171 0808 0122     		movs	r2, #1
 4172 080a 9A55     		strb	r2, [r3, r6]
2276:TP2824/TP2802.c **** 						}
 4173              		.loc 1 2276 8 is_stmt 1 view .LVU1214
 4174 080c 3146     		mov	r1, r6
 4175 080e 5B48     		ldr	r0, .L356+44
 4176 0810 FFF7FEFF 		bl	printf
 4177              	.LVL430:
 4178 0814 49E4     		b	.L200
 4179              	.L334:
2267:TP2824/TP2802.c **** 					//                 if( 0x10 != (0x11 & tmp) && HDC == std[i])
 4180              		.loc 1 2267 7 view .LVU1215
 4181 0816 5848     		ldr	r0, .L356+40
 4182 0818 FFF7FEFF 		bl	printf
 4183              	.LVL431:
 4184 081c 45E4     		b	.L200
 4185              	.L323:
2283:TP2824/TP2802.c **** 				{
 4186              		.loc 1 2283 5 view .LVU1216
2283:TP2824/TP2802.c **** 				{
 4187              		.loc 1 2283 14 is_stmt 0 view .LVU1217
 4188 081e 524B     		ldr	r3, .L356+24
 4189 0820 1B78     		ldrb	r3, [r3]	@ zero_extendqisi2
2283:TP2824/TP2802.c **** 				{
 4190              		.loc 1 2283 8 view .LVU1218
 4191 0822 232B     		cmp	r3, #35
 4192 0824 7FF641AC 		bls	.L200
2285:TP2824/TP2802.c **** 					printf("Reg01 %02x\r\n", (tWord)tmp);
 4193              		.loc 1 2285 6 is_stmt 1 view .LVU1219
2285:TP2824/TP2802.c **** 					printf("Reg01 %02x\r\n", (tWord)tmp);
 4194              		.loc 1 2285 12 is_stmt 0 view .LVU1220
 4195 0828 0120     		movs	r0, #1
 4196 082a FFF7FEFF 		bl	tp28xx_byte_read
 4197              	.LVL432:
 4198 082e 0546     		mov	r5, r0
 4199              	.LVL433:
2286:TP2824/TP2802.c **** 
 4200              		.loc 1 2286 6 is_stmt 1 view .LVU1221
 4201 0830 0146     		mov	r1, r0
 4202 0832 4E48     		ldr	r0, .L356+28
 4203              	.LVL434:
2286:TP2824/TP2802.c **** 
 4204              		.loc 1 2286 6 is_stmt 0 view .LVU1222
 4205 0834 FFF7FEFF 		bl	printf
 4206              	.LVL435:
2288:TP2824/TP2802.c **** 						printf("AHD 1080P30/P25  mode:%d\r\n", (tWord)mode[i]);
 4207              		.loc 1 2288 6 is_stmt 1 view .LVU1223
ARM GAS  C:\Users\ryanc.HS\AppData\Local\Temp\ccAQ3CYh.s 			page 140


2288:TP2824/TP2802.c **** 						printf("AHD 1080P30/P25  mode:%d\r\n", (tWord)mode[i]);
 4208              		.loc 1 2288 15 is_stmt 0 view .LVU1224
 4209 0838 464B     		ldr	r3, .L356+4
 4210 083a 995D     		ldrb	r1, [r3, r6]	@ zero_extendqisi2
2288:TP2824/TP2802.c **** 						printf("AHD 1080P30/P25  mode:%d\r\n", (tWord)mode[i]);
 4211              		.loc 1 2288 31 view .LVU1225
 4212 083c 8B1E     		subs	r3, r1, #2
 4213 083e DBB2     		uxtb	r3, r3
2288:TP2824/TP2802.c **** 						printf("AHD 1080P30/P25  mode:%d\r\n", (tWord)mode[i]);
 4214              		.loc 1 2288 9 view .LVU1226
 4215 0840 012B     		cmp	r3, #1
 4216 0842 31D9     		bls	.L335
 4217              	.L245:
2290:TP2824/TP2802.c **** 						printf("TVI 1080P30/P25   mode:%d\r\n", (tWord)mode[i]);
 4218              		.loc 1 2290 11 is_stmt 1 view .LVU1227
2290:TP2824/TP2802.c **** 						printf("TVI 1080P30/P25   mode:%d\r\n", (tWord)mode[i]);
 4219              		.loc 1 2290 14 is_stmt 0 view .LVU1228
 4220 0844 012B     		cmp	r3, #1
 4221 0846 37D9     		bls	.L336
 4222              	.L246:
2292:TP2824/TP2802.c **** 							 0x00 == (0x04 & tmp) && std[i] == HDA)
 4223              		.loc 1 2292 11 is_stmt 1 view .LVU1229
2292:TP2824/TP2802.c **** 							 0x00 == (0x04 & tmp) && std[i] == HDA)
 4224              		.loc 1 2292 35 is_stmt 0 view .LVU1230
 4225 0848 0B1F     		subs	r3, r1, #4
 4226 084a DBB2     		uxtb	r3, r3
2292:TP2824/TP2802.c **** 							 0x00 == (0x04 & tmp) && std[i] == HDA)
 4227              		.loc 1 2292 14 view .LVU1231
 4228 084c 012B     		cmp	r3, #1
 4229 084e 06D9     		bls	.L247
2292:TP2824/TP2802.c **** 							 0x00 == (0x04 & tmp) && std[i] == HDA)
 4230              		.loc 1 2292 57 discriminator 2 view .LVU1232
 4231 0850 0C29     		cmp	r1, #12
 4232 0852 04D0     		beq	.L247
2292:TP2824/TP2802.c **** 							 0x00 == (0x04 & tmp) && std[i] == HDA)
 4233              		.loc 1 2292 81 discriminator 4 view .LVU1233
 4234 0854 0D29     		cmp	r1, #13
 4235 0856 02D0     		beq	.L247
2292:TP2824/TP2802.c **** 							 0x00 == (0x04 & tmp) && std[i] == HDA)
 4236              		.loc 1 2292 105 discriminator 6 view .LVU1234
 4237 0858 09B1     		cbz	r1, .L247
2292:TP2824/TP2802.c **** 							 0x00 == (0x04 & tmp) && std[i] == HDA)
 4238              		.loc 1 2292 127 discriminator 8 view .LVU1235
 4239 085a 0129     		cmp	r1, #1
 4240 085c 06D1     		bne	.L248
 4241              	.L247:
2292:TP2824/TP2802.c **** 							 0x00 == (0x04 & tmp) && std[i] == HDA)
 4242              		.loc 1 2292 150 discriminator 9 view .LVU1236
 4243 085e 15F0040F 		tst	r5, #4
 4244 0862 03D1     		bne	.L248
2293:TP2824/TP2802.c **** 						printf("AHD 720P30/P25/P60/P50   mode:%d\r\n", (tWord)mode[i]);
 4245              		.loc 1 2293 36 view .LVU1237
 4246 0864 3A4B     		ldr	r3, .L356
 4247 0866 9B5D     		ldrb	r3, [r3, r6]	@ zero_extendqisi2
2293:TP2824/TP2802.c **** 						printf("AHD 720P30/P25/P60/P50   mode:%d\r\n", (tWord)mode[i]);
 4248              		.loc 1 2293 30 view .LVU1238
 4249 0868 012B     		cmp	r3, #1
ARM GAS  C:\Users\ryanc.HS\AppData\Local\Temp\ccAQ3CYh.s 			page 141


 4250 086a 31D0     		beq	.L337
 4251              	.L248:
2295:TP2824/TP2802.c **** 						printf("CVBS    mode:%d\r\n", (tWord)mode[i]);
 4252              		.loc 1 2295 11 is_stmt 1 view .LVU1239
2295:TP2824/TP2802.c **** 						printf("CVBS    mode:%d\r\n", (tWord)mode[i]);
 4253              		.loc 1 2295 31 is_stmt 0 view .LVU1240
 4254 086c A1F10803 		sub	r3, r1, #8
 4255 0870 DBB2     		uxtb	r3, r3
2295:TP2824/TP2802.c **** 						printf("CVBS    mode:%d\r\n", (tWord)mode[i]);
 4256              		.loc 1 2295 14 view .LVU1241
 4257 0872 012B     		cmp	r3, #1
 4258 0874 31D9     		bls	.L338
2298:TP2824/TP2802.c **** 					{
 4259              		.loc 1 2298 11 is_stmt 1 view .LVU1242
2298:TP2824/TP2802.c **** 					{
 4260              		.loc 1 2298 14 is_stmt 0 view .LVU1243
 4261 0876 15F0010F 		tst	r5, #1
 4262 087a 3FF416AC 		beq	.L200
2302:TP2824/TP2802.c **** 						state[i] = VIDEO_UNPLUG;
 4263              		.loc 1 2302 7 is_stmt 1 view .LVU1244
 4264 087e 3146     		mov	r1, r6
 4265 0880 3F48     		ldr	r0, .L356+48
 4266 0882 FFF7FEFF 		bl	printf
 4267              	.LVL436:
2303:TP2824/TP2802.c **** 						count[i] = 0;
 4268              		.loc 1 2303 7 view .LVU1245
2303:TP2824/TP2802.c **** 						count[i] = 0;
 4269              		.loc 1 2303 16 is_stmt 0 view .LVU1246
 4270 0886 0023     		movs	r3, #0
 4271 0888 354A     		ldr	r2, .L356+16
 4272 088a 9355     		strb	r3, [r2, r6]
2304:TP2824/TP2802.c **** 						VideoSave[i] = 0;
 4273              		.loc 1 2304 7 is_stmt 1 view .LVU1247
2304:TP2824/TP2802.c **** 						VideoSave[i] = 0;
 4274              		.loc 1 2304 16 is_stmt 0 view .LVU1248
 4275 088c 3D4A     		ldr	r2, .L356+52
 4276 088e 9355     		strb	r3, [r2, r6]
2305:TP2824/TP2802.c **** 						mode[i] = NoDet;
 4277              		.loc 1 2305 7 is_stmt 1 view .LVU1249
2305:TP2824/TP2802.c **** 						mode[i] = NoDet;
 4278              		.loc 1 2305 20 is_stmt 0 view .LVU1250
 4279 0890 3D4A     		ldr	r2, .L356+56
 4280 0892 9355     		strb	r3, [r2, r6]
2306:TP2824/TP2802.c **** 						Set_VidRes(i);
 4281              		.loc 1 2306 7 is_stmt 1 view .LVU1251
2306:TP2824/TP2802.c **** 						Set_VidRes(i);
 4282              		.loc 1 2306 15 is_stmt 0 view .LVU1252
 4283 0894 2F4B     		ldr	r3, .L356+4
 4284 0896 0722     		movs	r2, #7
 4285 0898 9A55     		strb	r2, [r3, r6]
2307:TP2824/TP2802.c **** 						VS4210_Rx_NoSignal(i); // chunyu
 4286              		.loc 1 2307 7 is_stmt 1 view .LVU1253
 4287 089a 2046     		mov	r0, r4
 4288 089c FFF7FEFF 		bl	Set_VidRes
 4289              	.LVL437:
2308:TP2824/TP2802.c **** 					}
 4290              		.loc 1 2308 7 view .LVU1254
ARM GAS  C:\Users\ryanc.HS\AppData\Local\Temp\ccAQ3CYh.s 			page 142


 4291 08a0 2046     		mov	r0, r4
 4292 08a2 FFF7FEFF 		bl	VS4210_Rx_NoSignal
 4293              	.LVL438:
 4294 08a6 00E4     		b	.L200
 4295              	.L335:
2288:TP2824/TP2802.c **** 						printf("AHD 1080P30/P25  mode:%d\r\n", (tWord)mode[i]);
 4296              		.loc 1 2288 55 is_stmt 0 discriminator 1 view .LVU1255
 4297 08a8 15F0040F 		tst	r5, #4
 4298 08ac CAD1     		bne	.L245
2289:TP2824/TP2802.c **** 					else if ((mode[i] == R1080P30 || mode[i] == R1080P25) && 0x04 == (0x04 & tmp) && std[i] == TVI
 4299              		.loc 1 2289 7 is_stmt 1 view .LVU1256
 4300 08ae 3748     		ldr	r0, .L356+60
 4301 08b0 FFF7FEFF 		bl	printf
 4302              	.LVL439:
 4303 08b4 FFF7F9BB 		b	.L200
 4304              	.L336:
2290:TP2824/TP2802.c **** 						printf("TVI 1080P30/P25   mode:%d\r\n", (tWord)mode[i]);
 4305              		.loc 1 2290 60 is_stmt 0 discriminator 1 view .LVU1257
 4306 08b8 15F0040F 		tst	r5, #4
 4307 08bc C4D0     		beq	.L246
2290:TP2824/TP2802.c **** 						printf("TVI 1080P30/P25   mode:%d\r\n", (tWord)mode[i]);
 4308              		.loc 1 2290 90 discriminator 2 view .LVU1258
 4309 08be 244B     		ldr	r3, .L356
 4310 08c0 9B5D     		ldrb	r3, [r3, r6]	@ zero_extendqisi2
2290:TP2824/TP2802.c **** 						printf("TVI 1080P30/P25   mode:%d\r\n", (tWord)mode[i]);
 4311              		.loc 1 2290 84 discriminator 2 view .LVU1259
 4312 08c2 002B     		cmp	r3, #0
 4313 08c4 C0D1     		bne	.L246
2291:TP2824/TP2802.c **** 					else if ((mode[i] == R720P30 || mode[i] == R720P25 || mode[i] == R720P30V2 || mode[i] == R720P
 4314              		.loc 1 2291 7 is_stmt 1 view .LVU1260
 4315 08c6 3248     		ldr	r0, .L356+64
 4316 08c8 FFF7FEFF 		bl	printf
 4317              	.LVL440:
 4318 08cc FFF7EDBB 		b	.L200
 4319              	.L337:
2294:TP2824/TP2802.c **** 					else if (mode[i] == NTSC || mode[i] == PAL)
 4320              		.loc 1 2294 7 view .LVU1261
 4321 08d0 3048     		ldr	r0, .L356+68
 4322 08d2 FFF7FEFF 		bl	printf
 4323              	.LVL441:
 4324 08d6 FFF7E8BB 		b	.L200
 4325              	.L338:
2296:TP2824/TP2802.c **** 					//		      if( 0x00 != (0x01 & tmp))
 4326              		.loc 1 2296 7 view .LVU1262
 4327 08da 2F48     		ldr	r0, .L356+72
 4328 08dc FFF7FEFF 		bl	printf
 4329              	.LVL442:
 4330 08e0 FFF7E3BB 		b	.L200
 4331              	.L324:
2314:TP2824/TP2802.c **** 				egain[i][2] = egain[i][1];
 4332              		.loc 1 2314 5 view .LVU1263
2314:TP2824/TP2802.c **** 				egain[i][2] = egain[i][1];
 4333              		.loc 1 2314 27 is_stmt 0 view .LVU1264
 4334 08e4 2D4D     		ldr	r5, .L356+76
 4335 08e6 05EB8603 		add	r3, r5, r6, lsl #2
 4336 08ea 9A78     		ldrb	r2, [r3, #2]	@ zero_extendqisi2
2314:TP2824/TP2802.c **** 				egain[i][2] = egain[i][1];
ARM GAS  C:\Users\ryanc.HS\AppData\Local\Temp\ccAQ3CYh.s 			page 143


 4337              		.loc 1 2314 17 view .LVU1265
 4338 08ec DA70     		strb	r2, [r3, #3]
2315:TP2824/TP2802.c **** 				egain[i][1] = egain[i][0];
 4339              		.loc 1 2315 5 is_stmt 1 view .LVU1266
2315:TP2824/TP2802.c **** 				egain[i][1] = egain[i][0];
 4340              		.loc 1 2315 27 is_stmt 0 view .LVU1267
 4341 08ee 5A78     		ldrb	r2, [r3, #1]	@ zero_extendqisi2
2315:TP2824/TP2802.c **** 				egain[i][1] = egain[i][0];
 4342              		.loc 1 2315 17 view .LVU1268
 4343 08f0 9A70     		strb	r2, [r3, #2]
2316:TP2824/TP2802.c **** 
 4344              		.loc 1 2316 5 is_stmt 1 view .LVU1269
2316:TP2824/TP2802.c **** 
 4345              		.loc 1 2316 27 is_stmt 0 view .LVU1270
 4346 08f2 15F82620 		ldrb	r2, [r5, r6, lsl #2]	@ zero_extendqisi2
2316:TP2824/TP2802.c **** 
 4347              		.loc 1 2316 17 view .LVU1271
 4348 08f6 5A70     		strb	r2, [r3, #1]
2318:TP2824/TP2802.c **** 				egain[i][0] = gain;
 4349              		.loc 1 2318 5 is_stmt 1 view .LVU1272
2318:TP2824/TP2802.c **** 				egain[i][0] = gain;
 4350              		.loc 1 2318 12 is_stmt 0 view .LVU1273
 4351 08f8 FFF7FEFF 		bl	ReadGain
 4352              	.LVL443:
2319:TP2824/TP2802.c **** 			}
 4353              		.loc 1 2319 5 is_stmt 1 view .LVU1274
2319:TP2824/TP2802.c **** 			}
 4354              		.loc 1 2319 17 is_stmt 0 view .LVU1275
 4355 08fc 05F82600 		strb	r0, [r5, r6, lsl #2]
 4356 0900 FFF7D3BB 		b	.L200
 4357              	.LVL444:
 4358              	.L325:
2323:TP2824/TP2802.c **** 				egain[i][2] = egain[i][1];
 4359              		.loc 1 2323 5 is_stmt 1 view .LVU1276
2323:TP2824/TP2802.c **** 				egain[i][2] = egain[i][1];
 4360              		.loc 1 2323 27 is_stmt 0 view .LVU1277
 4361 0904 254F     		ldr	r7, .L356+76
 4362 0906 07EB8605 		add	r5, r7, r6, lsl #2
 4363 090a AB78     		ldrb	r3, [r5, #2]	@ zero_extendqisi2
2323:TP2824/TP2802.c **** 				egain[i][2] = egain[i][1];
 4364              		.loc 1 2323 17 view .LVU1278
 4365 090c EB70     		strb	r3, [r5, #3]
2324:TP2824/TP2802.c **** 				egain[i][1] = egain[i][0];
 4366              		.loc 1 2324 5 is_stmt 1 view .LVU1279
2324:TP2824/TP2802.c **** 				egain[i][1] = egain[i][0];
 4367              		.loc 1 2324 27 is_stmt 0 view .LVU1280
 4368 090e 6B78     		ldrb	r3, [r5, #1]	@ zero_extendqisi2
2324:TP2824/TP2802.c **** 				egain[i][1] = egain[i][0];
 4369              		.loc 1 2324 17 view .LVU1281
 4370 0910 AB70     		strb	r3, [r5, #2]
2325:TP2824/TP2802.c **** 
 4371              		.loc 1 2325 5 is_stmt 1 view .LVU1282
2325:TP2824/TP2802.c **** 
 4372              		.loc 1 2325 27 is_stmt 0 view .LVU1283
 4373 0912 17F82630 		ldrb	r3, [r7, r6, lsl #2]	@ zero_extendqisi2
2325:TP2824/TP2802.c **** 
 4374              		.loc 1 2325 17 view .LVU1284
ARM GAS  C:\Users\ryanc.HS\AppData\Local\Temp\ccAQ3CYh.s 			page 144


 4375 0916 6B70     		strb	r3, [r5, #1]
2327:TP2824/TP2802.c **** 				egain[i][0] = gain;
 4376              		.loc 1 2327 5 is_stmt 1 view .LVU1285
2327:TP2824/TP2802.c **** 				egain[i][0] = gain;
 4377              		.loc 1 2327 12 is_stmt 0 view .LVU1286
 4378 0918 FFF7FEFF 		bl	ReadGain
 4379              	.LVL445:
2328:TP2824/TP2802.c **** 
 4380              		.loc 1 2328 5 is_stmt 1 view .LVU1287
2328:TP2824/TP2802.c **** 
 4381              		.loc 1 2328 17 is_stmt 0 view .LVU1288
 4382 091c 07F82600 		strb	r0, [r7, r6, lsl #2]
2330:TP2824/TP2802.c **** 				{
 4383              		.loc 1 2330 5 is_stmt 1 view .LVU1289
2330:TP2824/TP2802.c **** 				{
 4384              		.loc 1 2330 21 is_stmt 0 view .LVU1290
 4385 0920 EB78     		ldrb	r3, [r5, #3]	@ zero_extendqisi2
2330:TP2824/TP2802.c **** 				{
 4386              		.loc 1 2330 25 view .LVU1291
 4387 0922 1B1A     		subs	r3, r3, r0
2330:TP2824/TP2802.c **** 				{
 4388              		.loc 1 2330 40 view .LVU1292
 4389 0924 0133     		adds	r3, r3, #1
2330:TP2824/TP2802.c **** 				{
 4390              		.loc 1 2330 8 view .LVU1293
 4391 0926 022B     		cmp	r3, #2
 4392 0928 3FF6BFAB 		bhi	.L200
2330:TP2824/TP2802.c **** 				{
 4393              		.loc 1 2330 65 discriminator 1 view .LVU1294
 4394 092c AB78     		ldrb	r3, [r5, #2]	@ zero_extendqisi2
2330:TP2824/TP2802.c **** 				{
 4395              		.loc 1 2330 69 discriminator 1 view .LVU1295
 4396 092e 1B1A     		subs	r3, r3, r0
2330:TP2824/TP2802.c **** 				{
 4397              		.loc 1 2330 84 discriminator 1 view .LVU1296
 4398 0930 0133     		adds	r3, r3, #1
2330:TP2824/TP2802.c **** 				{
 4399              		.loc 1 2330 50 discriminator 1 view .LVU1297
 4400 0932 022B     		cmp	r3, #2
 4401 0934 3FF6B9AB 		bhi	.L200
2330:TP2824/TP2802.c **** 				{
 4402              		.loc 1 2330 109 discriminator 2 view .LVU1298
 4403 0938 6B78     		ldrb	r3, [r5, #1]	@ zero_extendqisi2
2330:TP2824/TP2802.c **** 				{
 4404              		.loc 1 2330 113 discriminator 2 view .LVU1299
 4405 093a 1B1A     		subs	r3, r3, r0
2330:TP2824/TP2802.c **** 				{
 4406              		.loc 1 2330 128 discriminator 2 view .LVU1300
 4407 093c 0133     		adds	r3, r3, #1
2330:TP2824/TP2802.c **** 				{
 4408              		.loc 1 2330 94 discriminator 2 view .LVU1301
 4409 093e 022B     		cmp	r3, #2
 4410 0940 3FF6B3AB 		bhi	.L200
2332:TP2824/TP2802.c **** 				}
 4411              		.loc 1 2332 6 is_stmt 1 view .LVU1302
2332:TP2824/TP2802.c **** 				}
 4412              		.loc 1 2332 15 is_stmt 0 view .LVU1303
ARM GAS  C:\Users\ryanc.HS\AppData\Local\Temp\ccAQ3CYh.s 			page 145


 4413 0944 0F4B     		ldr	r3, .L356+52
 4414 0946 1322     		movs	r2, #19
 4415 0948 9A55     		strb	r2, [r3, r6]
 4416 094a FFF7AEBB 		b	.L200
 4417              	.L357:
 4418 094e 00BF     		.align	2
 4419              	.L356:
 4420 0950 00000000 		.word	std
 4421 0954 00000000 		.word	mode
 4422 0958 A4020000 		.word	.LC56
 4423 095c 00000000 		.word	.LANCHOR16
 4424 0960 00000000 		.word	state
 4425 0964 00000000 		.word	BOX_ISSUE
 4426 0968 00000000 		.word	chip
 4427 096c EC000000 		.word	.LC38
 4428 0970 0C010000 		.word	.LC40
 4429 0974 20010000 		.word	.LC41
 4430 0978 FC000000 		.word	.LC39
 4431 097c 38010000 		.word	.LC42
 4432 0980 BC010000 		.word	.LC47
 4433 0984 00000000 		.word	count
 4434 0988 00000000 		.word	VideoSave
 4435 098c 4C010000 		.word	.LC43
 4436 0990 68010000 		.word	.LC44
 4437 0994 84010000 		.word	.LC45
 4438 0998 A8010000 		.word	.LC46
 4439 099c 00000000 		.word	egain
 4440              	.LVL446:
 4441              	.L326:
2337:TP2824/TP2802.c **** 				printf("Egain=0x%02x ch%02x,std=%d,mode=0x%02X\r\n", (tWord)gain, (tWord)i, (tWord)std[i], (tWo
 4442              		.loc 1 2337 5 is_stmt 1 view .LVU1304
2337:TP2824/TP2802.c **** 				printf("Egain=0x%02x ch%02x,std=%d,mode=0x%02X\r\n", (tWord)gain, (tWord)i, (tWord)std[i], (tWo
 4443              		.loc 1 2337 12 is_stmt 0 view .LVU1305
 4444 09a0 FFF7FEFF 		bl	ReadGain
 4445              	.LVL447:
 4446 09a4 0546     		mov	r5, r0
 4447              	.LVL448:
2338:TP2824/TP2802.c **** 
 4448              		.loc 1 2338 5 is_stmt 1 view .LVU1306
2338:TP2824/TP2802.c **** 
 4449              		.loc 1 2338 107 is_stmt 0 view .LVU1307
 4450 09a6 AC4F     		ldr	r7, .L358
 4451 09a8 BB5D     		ldrb	r3, [r7, r6]	@ zero_extendqisi2
2338:TP2824/TP2802.c **** 
 4452              		.loc 1 2338 5 view .LVU1308
 4453 09aa 0093     		str	r3, [sp]
 4454 09ac AB4B     		ldr	r3, .L358+4
 4455 09ae 9B5D     		ldrb	r3, [r3, r6]	@ zero_extendqisi2
 4456 09b0 3246     		mov	r2, r6
 4457 09b2 0146     		mov	r1, r0
 4458 09b4 AA48     		ldr	r0, .L358+8
 4459              	.LVL449:
2338:TP2824/TP2802.c **** 
 4460              		.loc 1 2338 5 view .LVU1309
 4461 09b6 FFF7FEFF 		bl	printf
 4462              	.LVL450:
2340:TP2824/TP2802.c **** 				{
ARM GAS  C:\Users\ryanc.HS\AppData\Local\Temp\ccAQ3CYh.s 			page 146


 4463              		.loc 1 2340 5 is_stmt 1 view .LVU1310
2340:TP2824/TP2802.c **** 				{
 4464              		.loc 1 2340 14 is_stmt 0 view .LVU1311
 4465 09ba BA5D     		ldrb	r2, [r7, r6]	@ zero_extendqisi2
2340:TP2824/TP2802.c **** 				{
 4466              		.loc 1 2340 31 view .LVU1312
 4467 09bc 931E     		subs	r3, r2, #2
 4468 09be DBB2     		uxtb	r3, r3
2340:TP2824/TP2802.c **** 				{
 4469              		.loc 1 2340 8 view .LVU1313
 4470 09c0 012B     		cmp	r3, #1
 4471 09c2 12D9     		bls	.L339
2344:TP2824/TP2802.c **** 				{
 4472              		.loc 1 2344 10 is_stmt 1 view .LVU1314
2344:TP2824/TP2802.c **** 				{
 4473              		.loc 1 2344 13 is_stmt 0 view .LVU1315
 4474 09c4 012A     		cmp	r2, #1
 4475 09c6 37D9     		bls	.L340
2348:TP2824/TP2802.c **** 				{
 4476              		.loc 1 2348 10 is_stmt 1 view .LVU1316
2348:TP2824/TP2802.c **** 				{
 4477              		.loc 1 2348 35 is_stmt 0 view .LVU1317
 4478 09c8 131F     		subs	r3, r2, #4
 4479 09ca DBB2     		uxtb	r3, r3
2348:TP2824/TP2802.c **** 				{
 4480              		.loc 1 2348 13 view .LVU1318
 4481 09cc 012B     		cmp	r3, #1
 4482 09ce 37D9     		bls	.L341
2352:TP2824/TP2802.c **** 				{
 4483              		.loc 1 2352 10 is_stmt 1 view .LVU1319
2352:TP2824/TP2802.c **** 				{
 4484              		.loc 1 2352 37 is_stmt 0 view .LVU1320
 4485 09d0 A2F10C03 		sub	r3, r2, #12
 4486 09d4 DBB2     		uxtb	r3, r3
2352:TP2824/TP2802.c **** 				{
 4487              		.loc 1 2352 13 view .LVU1321
 4488 09d6 012B     		cmp	r3, #1
 4489 09d8 36D9     		bls	.L342
2356:TP2824/TP2802.c **** 				{
 4490              		.loc 1 2356 10 is_stmt 1 view .LVU1322
2356:TP2824/TP2802.c **** 				{
 4491              		.loc 1 2356 13 is_stmt 0 view .LVU1323
 4492 09da 082A     		cmp	r2, #8
 4493 09dc 38D0     		beq	.L343
2360:TP2824/TP2802.c **** 				{
 4494              		.loc 1 2360 10 is_stmt 1 view .LVU1324
2360:TP2824/TP2802.c **** 				{
 4495              		.loc 1 2360 13 is_stmt 0 view .LVU1325
 4496 09de 092A     		cmp	r2, #9
 4497 09e0 3AD0     		beq	.L344
2366:TP2824/TP2802.c **** 				}
 4498              		.loc 1 2366 6 is_stmt 1 view .LVU1326
2366:TP2824/TP2802.c **** 				}
 4499              		.loc 1 2366 18 is_stmt 0 view .LVU1327
 4500 09e2 A04B     		ldr	r3, .L358+12
 4501 09e4 0722     		movs	r2, #7
 4502 09e6 9A55     		strb	r2, [r3, r6]
ARM GAS  C:\Users\ryanc.HS\AppData\Local\Temp\ccAQ3CYh.s 			page 147


 4503 09e8 02E0     		b	.L254
 4504              	.L339:
2342:TP2824/TP2802.c **** 				}
 4505              		.loc 1 2342 6 is_stmt 1 view .LVU1328
2342:TP2824/TP2802.c **** 				}
 4506              		.loc 1 2342 18 is_stmt 0 view .LVU1329
 4507 09ea 9E4B     		ldr	r3, .L358+12
 4508 09ec 0622     		movs	r2, #6
 4509 09ee 9A55     		strb	r2, [r3, r6]
 4510              	.L254:
2369:TP2824/TP2802.c **** 				{
 4511              		.loc 1 2369 5 is_stmt 1 view .LVU1330
2369:TP2824/TP2802.c **** 				{
 4512              		.loc 1 2369 17 is_stmt 0 view .LVU1331
 4513 09f0 9C4B     		ldr	r3, .L358+12
 4514 09f2 995D     		ldrb	r1, [r3, r6]	@ zero_extendqisi2
2369:TP2824/TP2802.c **** 				{
 4515              		.loc 1 2369 40 view .LVU1332
 4516 09f4 9C4B     		ldr	r3, .L358+16
 4517 09f6 9B5D     		ldrb	r3, [r3, r6]	@ zero_extendqisi2
2369:TP2824/TP2802.c **** 				{
 4518              		.loc 1 2369 8 view .LVU1333
 4519 09f8 9942     		cmp	r1, r3
 4520 09fa 12D0     		beq	.L260
2372:TP2824/TP2802.c **** 						VideoChangeFlag = 1;
 4521              		.loc 1 2372 6 is_stmt 1 view .LVU1334
2372:TP2824/TP2802.c **** 						VideoChangeFlag = 1;
 4522              		.loc 1 2372 27 is_stmt 0 view .LVU1335
 4523 09fc 9B4B     		ldr	r3, .L358+20
 4524 09fe 1B78     		ldrb	r3, [r3]	@ zero_extendqisi2
2372:TP2824/TP2802.c **** 						VideoChangeFlag = 1;
 4525              		.loc 1 2372 9 view .LVU1336
 4526 0a00 13B9     		cbnz	r3, .L261
2373:TP2824/TP2802.c **** 
 4527              		.loc 1 2373 7 is_stmt 1 view .LVU1337
2373:TP2824/TP2802.c **** 
 4528              		.loc 1 2373 23 is_stmt 0 view .LVU1338
 4529 0a02 9B4B     		ldr	r3, .L358+24
 4530 0a04 0122     		movs	r2, #1
 4531 0a06 1A70     		strb	r2, [r3]
 4532              	.L261:
2375:TP2824/TP2802.c **** 
 4533              		.loc 1 2375 6 is_stmt 1 view .LVU1339
 4534 0a08 9A4B     		ldr	r3, .L358+28
 4535 0a0a 1A78     		ldrb	r2, [r3]	@ zero_extendqisi2
 4536 0a0c 2046     		mov	r0, r4
 4537 0a0e FFF7FEFF 		bl	VS4210_SetInModeOutMode
 4538              	.LVL451:
2411:TP2824/TP2802.c **** 					{
 4539              		.loc 1 2411 6 view .LVU1340
2411:TP2824/TP2802.c **** 					{
 4540              		.loc 1 2411 26 is_stmt 0 view .LVU1341
 4541 0a12 994B     		ldr	r3, .L358+32
 4542 0a14 1B78     		ldrb	r3, [r3]	@ zero_extendqisi2
2411:TP2824/TP2802.c **** 					{
 4543              		.loc 1 2411 9 view .LVU1342
 4544 0a16 042B     		cmp	r3, #4
ARM GAS  C:\Users\ryanc.HS\AppData\Local\Temp\ccAQ3CYh.s 			page 148


 4545 0a18 22D0     		beq	.L345
 4546              	.L262:
2428:TP2824/TP2802.c **** 						{
 4547              		.loc 1 2428 7 is_stmt 1 view .LVU1343
2428:TP2824/TP2802.c **** 						{
 4548              		.loc 1 2428 57 is_stmt 0 view .LVU1344
 4549 0a1a 984B     		ldr	r3, .L358+36
 4550 0a1c 9B5D     		ldrb	r3, [r3, r6]	@ zero_extendqisi2
2428:TP2824/TP2802.c **** 						{
 4551              		.loc 1 2428 10 view .LVU1345
 4552 0a1e 012B     		cmp	r3, #1
 4553 0a20 49D1     		bne	.L346
 4554              	.L260:
2479:TP2824/TP2802.c **** 				{
 4555              		.loc 1 2479 5 is_stmt 1 view .LVU1346
2479:TP2824/TP2802.c **** 				{
 4556              		.loc 1 2479 19 is_stmt 0 view .LVU1347
 4557 0a22 8E4B     		ldr	r3, .L358+4
 4558 0a24 9B5D     		ldrb	r3, [r3, r6]	@ zero_extendqisi2
2479:TP2824/TP2802.c **** 				{
 4559              		.loc 1 2479 8 view .LVU1348
 4560 0a26 002B     		cmp	r3, #0
 4561 0a28 6ED0     		beq	.L263
2482:TP2824/TP2802.c **** 					{
 4562              		.loc 1 2482 6 is_stmt 1 view .LVU1349
2482:TP2824/TP2802.c **** 					{
 4563              		.loc 1 2482 9 is_stmt 0 view .LVU1350
 4564 0a2a 012B     		cmp	r3, #1
 4565 0a2c 67D0     		beq	.L347
2488:TP2824/TP2802.c **** 					}
 4566              		.loc 1 2488 7 is_stmt 1 view .LVU1351
 4567 0a2e 9448     		ldr	r0, .L358+40
 4568 0a30 FFF7FEFF 		bl	puts
 4569              	.LVL452:
 4570 0a34 FFF739BB 		b	.L200
 4571              	.L340:
2346:TP2824/TP2802.c **** 				}
 4572              		.loc 1 2346 6 view .LVU1352
2346:TP2824/TP2802.c **** 				}
 4573              		.loc 1 2346 18 is_stmt 0 view .LVU1353
 4574 0a38 8A4B     		ldr	r3, .L358+12
 4575 0a3a 0522     		movs	r2, #5
 4576 0a3c 9A55     		strb	r2, [r3, r6]
 4577 0a3e D7E7     		b	.L254
 4578              	.L341:
2350:TP2824/TP2802.c **** 				}
 4579              		.loc 1 2350 6 is_stmt 1 view .LVU1354
2350:TP2824/TP2802.c **** 				}
 4580              		.loc 1 2350 18 is_stmt 0 view .LVU1355
 4581 0a40 884B     		ldr	r3, .L358+12
 4582 0a42 0522     		movs	r2, #5
 4583 0a44 9A55     		strb	r2, [r3, r6]
 4584 0a46 D3E7     		b	.L254
 4585              	.L342:
2354:TP2824/TP2802.c **** 				}
 4586              		.loc 1 2354 6 is_stmt 1 view .LVU1356
2354:TP2824/TP2802.c **** 				}
ARM GAS  C:\Users\ryanc.HS\AppData\Local\Temp\ccAQ3CYh.s 			page 149


 4587              		.loc 1 2354 18 is_stmt 0 view .LVU1357
 4588 0a48 864B     		ldr	r3, .L358+12
 4589 0a4a 0522     		movs	r2, #5
 4590 0a4c 9A55     		strb	r2, [r3, r6]
 4591 0a4e CFE7     		b	.L254
 4592              	.L343:
2358:TP2824/TP2802.c **** 				}
 4593              		.loc 1 2358 6 is_stmt 1 view .LVU1358
2358:TP2824/TP2802.c **** 				}
 4594              		.loc 1 2358 18 is_stmt 0 view .LVU1359
 4595 0a50 844B     		ldr	r3, .L358+12
 4596 0a52 0022     		movs	r2, #0
 4597 0a54 9A55     		strb	r2, [r3, r6]
 4598 0a56 CBE7     		b	.L254
 4599              	.L344:
2362:TP2824/TP2802.c **** 				}
 4600              		.loc 1 2362 6 is_stmt 1 view .LVU1360
2362:TP2824/TP2802.c **** 				}
 4601              		.loc 1 2362 18 is_stmt 0 view .LVU1361
 4602 0a58 824B     		ldr	r3, .L358+12
 4603 0a5a 0122     		movs	r2, #1
 4604 0a5c 9A55     		strb	r2, [r3, r6]
 4605 0a5e C7E7     		b	.L254
 4606              	.L345:
2411:TP2824/TP2802.c **** 					{
 4607              		.loc 1 2411 44 discriminator 1 view .LVU1362
 4608 0a60 032C     		cmp	r4, #3
 4609 0a62 DAD1     		bne	.L262
2414:TP2824/TP2802.c **** 						{
 4610              		.loc 1 2414 7 is_stmt 1 view .LVU1363
2414:TP2824/TP2802.c **** 						{
 4611              		.loc 1 2414 61 is_stmt 0 view .LVU1364
 4612 0a64 854B     		ldr	r3, .L358+36
 4613 0a66 9B5D     		ldrb	r3, [r3, r6]	@ zero_extendqisi2
2414:TP2824/TP2802.c **** 						{
 4614              		.loc 1 2414 10 view .LVU1365
 4615 0a68 012B     		cmp	r3, #1
 4616 0a6a DAD0     		beq	.L260
2416:TP2824/TP2802.c **** 							WriteEEP(EEP_TP2824_STD0 + ((i + 1) * 3) + 1, mode[i]);
 4617              		.loc 1 2416 8 is_stmt 1 view .LVU1366
2416:TP2824/TP2802.c **** 							WriteEEP(EEP_TP2824_STD0 + ((i + 1) * 3) + 1, mode[i]);
 4618              		.loc 1 2416 39 is_stmt 0 view .LVU1367
 4619 0a6c 771C     		adds	r7, r6, #1
2416:TP2824/TP2802.c **** 							WriteEEP(EEP_TP2824_STD0 + ((i + 1) * 3) + 1, mode[i]);
 4620              		.loc 1 2416 44 view .LVU1368
 4621 0a6e 07EB4707 		add	r7, r7, r7, lsl #1
2416:TP2824/TP2802.c **** 							WriteEEP(EEP_TP2824_STD0 + ((i + 1) * 3) + 1, mode[i]);
 4622              		.loc 1 2416 8 view .LVU1369
 4623 0a72 DFF8E881 		ldr	r8, .L358+4
 4624 0a76 18F80610 		ldrb	r1, [r8, r6]	@ zero_extendqisi2
 4625 0a7a 07F1C700 		add	r0, r7, #199
 4626 0a7e FFF7FEFF 		bl	WriteEEP
 4627              	.LVL453:
2417:TP2824/TP2802.c **** 							WriteEEP(EEP_TP2824_STD0 + ((i + 1) * 3) + 2, 1);
 4628              		.loc 1 2417 8 is_stmt 1 view .LVU1370
 4629 0a82 DFF8D491 		ldr	r9, .L358
 4630 0a86 19F80610 		ldrb	r1, [r9, r6]	@ zero_extendqisi2
ARM GAS  C:\Users\ryanc.HS\AppData\Local\Temp\ccAQ3CYh.s 			page 150


 4631 0a8a 07F1C800 		add	r0, r7, #200
 4632 0a8e FFF7FEFF 		bl	WriteEEP
 4633              	.LVL454:
2418:TP2824/TP2802.c **** 							VideoSave[i] = _TRUE;
 4634              		.loc 1 2418 8 view .LVU1371
 4635 0a92 0121     		movs	r1, #1
 4636 0a94 07F1C900 		add	r0, r7, #201
 4637 0a98 FFF7FEFF 		bl	WriteEEP
 4638              	.LVL455:
2419:TP2824/TP2802.c **** 
 4639              		.loc 1 2419 8 view .LVU1372
2419:TP2824/TP2802.c **** 
 4640              		.loc 1 2419 21 is_stmt 0 view .LVU1373
 4641 0a9c 0120     		movs	r0, #1
 4642 0a9e 774B     		ldr	r3, .L358+36
 4643 0aa0 9855     		strb	r0, [r3, r6]
2422:TP2824/TP2802.c **** #endif
 4644              		.loc 1 2422 8 is_stmt 1 view .LVU1374
2422:TP2824/TP2802.c **** #endif
 4645              		.loc 1 2422 122 is_stmt 0 view .LVU1375
 4646 0aa2 19F80630 		ldrb	r3, [r9, r6]	@ zero_extendqisi2
2422:TP2824/TP2802.c **** #endif
 4647              		.loc 1 2422 8 view .LVU1376
 4648 0aa6 0093     		str	r3, [sp]
 4649 0aa8 18F80630 		ldrb	r3, [r8, r6]	@ zero_extendqisi2
 4650 0aac 2218     		adds	r2, r4, r0
 4651 0aae 7549     		ldr	r1, .L358+44
 4652 0ab0 FFF7FEFF 		bl	GraphicsPrint
 4653              	.LVL456:
 4654 0ab4 B5E7     		b	.L260
 4655              	.L346:
2430:TP2824/TP2802.c **** 							WriteEEP(EEP_TP2824_STD0 + (i * 3) + 1, mode[i]);
 4656              		.loc 1 2430 8 is_stmt 1 view .LVU1377
2430:TP2824/TP2802.c **** 							WriteEEP(EEP_TP2824_STD0 + (i * 3) + 1, mode[i]);
 4657              		.loc 1 2430 38 is_stmt 0 view .LVU1378
 4658 0ab6 06EB4607 		add	r7, r6, r6, lsl #1
2430:TP2824/TP2802.c **** 							WriteEEP(EEP_TP2824_STD0 + (i * 3) + 1, mode[i]);
 4659              		.loc 1 2430 8 view .LVU1379
 4660 0aba DFF8A081 		ldr	r8, .L358+4
 4661 0abe 18F80610 		ldrb	r1, [r8, r6]	@ zero_extendqisi2
 4662 0ac2 07F1C700 		add	r0, r7, #199
 4663 0ac6 FFF7FEFF 		bl	WriteEEP
 4664              	.LVL457:
2431:TP2824/TP2802.c **** 							WriteEEP(EEP_TP2824_STD0 + (i * 3) + 2, 1);
 4665              		.loc 1 2431 8 is_stmt 1 view .LVU1380
 4666 0aca DFF88C91 		ldr	r9, .L358
 4667 0ace 19F80610 		ldrb	r1, [r9, r6]	@ zero_extendqisi2
 4668 0ad2 07F1C800 		add	r0, r7, #200
 4669 0ad6 FFF7FEFF 		bl	WriteEEP
 4670              	.LVL458:
2432:TP2824/TP2802.c **** 							VideoSave[i] = _TRUE;
 4671              		.loc 1 2432 8 view .LVU1381
 4672 0ada 0121     		movs	r1, #1
 4673 0adc 07F1C900 		add	r0, r7, #201
 4674 0ae0 FFF7FEFF 		bl	WriteEEP
 4675              	.LVL459:
2433:TP2824/TP2802.c **** 
ARM GAS  C:\Users\ryanc.HS\AppData\Local\Temp\ccAQ3CYh.s 			page 151


 4676              		.loc 1 2433 8 view .LVU1382
2433:TP2824/TP2802.c **** 
 4677              		.loc 1 2433 21 is_stmt 0 view .LVU1383
 4678 0ae4 0120     		movs	r0, #1
 4679 0ae6 654B     		ldr	r3, .L358+36
 4680 0ae8 9855     		strb	r0, [r3, r6]
2436:TP2824/TP2802.c **** #endif
 4681              		.loc 1 2436 8 is_stmt 1 view .LVU1384
2436:TP2824/TP2802.c **** #endif
 4682              		.loc 1 2436 118 is_stmt 0 view .LVU1385
 4683 0aea 19F80630 		ldrb	r3, [r9, r6]	@ zero_extendqisi2
2436:TP2824/TP2802.c **** #endif
 4684              		.loc 1 2436 8 view .LVU1386
 4685 0aee 0093     		str	r3, [sp]
 4686 0af0 18F80630 		ldrb	r3, [r8, r6]	@ zero_extendqisi2
 4687 0af4 2246     		mov	r2, r4
 4688 0af6 6349     		ldr	r1, .L358+44
 4689 0af8 FFF7FEFF 		bl	GraphicsPrint
 4690              	.LVL460:
 4691 0afc 91E7     		b	.L260
 4692              	.L347:
2484:TP2824/TP2802.c **** 					}
 4693              		.loc 1 2484 7 is_stmt 1 view .LVU1387
 4694 0afe 6248     		ldr	r0, .L358+48
 4695 0b00 FFF7FEFF 		bl	puts
 4696              	.LVL461:
 4697 0b04 FFF7D1BA 		b	.L200
 4698              	.L263:
2493:TP2824/TP2802.c **** 					{
 4699              		.loc 1 2493 6 view .LVU1388
2493:TP2824/TP2802.c **** 					{
 4700              		.loc 1 2493 25 is_stmt 0 view .LVU1389
 4701 0b08 604B     		ldr	r3, .L358+52
 4702 0b0a 1B78     		ldrb	r3, [r3]	@ zero_extendqisi2
 4703 0b0c 243B     		subs	r3, r3, #36
 4704 0b0e DBB2     		uxtb	r3, r3
2493:TP2824/TP2802.c **** 					{
 4705              		.loc 1 2493 9 view .LVU1390
 4706 0b10 012B     		cmp	r3, #1
 4707 0b12 0CD9     		bls	.L348
 4708              	.L265:
2500:TP2824/TP2802.c **** 						printf("CVBS NTSC   mode\r\n");
 4709              		.loc 1 2500 6 is_stmt 1 view .LVU1391
2500:TP2824/TP2802.c **** 						printf("CVBS NTSC   mode\r\n");
 4710              		.loc 1 2500 14 is_stmt 0 view .LVU1392
 4711 0b14 504B     		ldr	r3, .L358
 4712 0b16 9B5D     		ldrb	r3, [r3, r6]	@ zero_extendqisi2
2500:TP2824/TP2802.c **** 						printf("CVBS NTSC   mode\r\n");
 4713              		.loc 1 2500 9 view .LVU1393
 4714 0b18 082B     		cmp	r3, #8
 4715 0b1a 18D0     		beq	.L349
2502:TP2824/TP2802.c **** 						printf("CVBS PAL   mode\r\n");
 4716              		.loc 1 2502 11 is_stmt 1 view .LVU1394
2502:TP2824/TP2802.c **** 						printf("CVBS PAL   mode\r\n");
 4717              		.loc 1 2502 14 is_stmt 0 view .LVU1395
 4718 0b1c 092B     		cmp	r3, #9
 4719 0b1e 1BD0     		beq	.L350
ARM GAS  C:\Users\ryanc.HS\AppData\Local\Temp\ccAQ3CYh.s 			page 152


2505:TP2824/TP2802.c **** 					// gRxLoopFlg = 0 ;
 4720              		.loc 1 2505 7 is_stmt 1 view .LVU1396
 4721 0b20 40F6C911 		movw	r1, #2505
 4722 0b24 5A48     		ldr	r0, .L358+56
 4723 0b26 FFF7FEFF 		bl	printf
 4724              	.LVL462:
 4725 0b2a FFF7BEBA 		b	.L200
 4726              	.L348:
2495:TP2824/TP2802.c **** 						{
 4727              		.loc 1 2495 7 view .LVU1397
2495:TP2824/TP2802.c **** 						{
 4728              		.loc 1 2495 15 is_stmt 0 view .LVU1398
 4729 0b2e 4A4B     		ldr	r3, .L358
 4730 0b30 9B5D     		ldrb	r3, [r3, r6]	@ zero_extendqisi2
2495:TP2824/TP2802.c **** 						{
 4731              		.loc 1 2495 10 view .LVU1399
 4732 0b32 13F0200F 		tst	r3, #32
 4733 0b36 EDD0     		beq	.L265
2497:TP2824/TP2802.c **** 						}
 4734              		.loc 1 2497 8 is_stmt 1 view .LVU1400
 4735 0b38 5649     		ldr	r1, .L358+60
 4736 0b3a A1FB0531 		umull	r3, r1, r1, r5
 4737 0b3e 4908     		lsrs	r1, r1, #1
 4738 0b40 61F07F01 		orn	r1, r1, #127
 4739 0b44 C9B2     		uxtb	r1, r1
 4740 0b46 0720     		movs	r0, #7
 4741 0b48 FFF7FEFF 		bl	tp28xx_byte_write
 4742              	.LVL463:
 4743 0b4c E2E7     		b	.L265
 4744              	.L349:
2501:TP2824/TP2802.c **** 					else if (mode[i] == PAL) // 20200408 cvbs night no burst
 4745              		.loc 1 2501 7 view .LVU1401
 4746 0b4e 5248     		ldr	r0, .L358+64
 4747 0b50 FFF7FEFF 		bl	puts
 4748              	.LVL464:
 4749 0b54 FFF7A9BA 		b	.L200
 4750              	.L350:
2503:TP2824/TP2802.c **** 					else
 4751              		.loc 1 2503 7 view .LVU1402
 4752 0b58 5048     		ldr	r0, .L358+68
 4753 0b5a FFF7FEFF 		bl	puts
 4754              	.LVL465:
 4755 0b5e FFF7A4BA 		b	.L200
 4756              	.L327:
2511:TP2824/TP2802.c **** 				{
 4757              		.loc 1 2511 5 view .LVU1403
2511:TP2824/TP2802.c **** 				{
 4758              		.loc 1 2511 19 is_stmt 0 view .LVU1404
 4759 0b62 3E4B     		ldr	r3, .L358+4
 4760 0b64 9B5D     		ldrb	r3, [r3, r6]	@ zero_extendqisi2
2511:TP2824/TP2802.c **** 				{
 4761              		.loc 1 2511 8 view .LVU1405
 4762 0b66 8BB9     		cbnz	r3, .L351
2518:TP2824/TP2802.c **** 					{
 4763              		.loc 1 2518 6 is_stmt 1 view .LVU1406
2518:TP2824/TP2802.c **** 					{
 4764              		.loc 1 2518 25 is_stmt 0 view .LVU1407
ARM GAS  C:\Users\ryanc.HS\AppData\Local\Temp\ccAQ3CYh.s 			page 153


 4765 0b68 484B     		ldr	r3, .L358+52
 4766 0b6a 1B78     		ldrb	r3, [r3]	@ zero_extendqisi2
 4767 0b6c 243B     		subs	r3, r3, #36
 4768 0b6e DBB2     		uxtb	r3, r3
2518:TP2824/TP2802.c **** 					{
 4769              		.loc 1 2518 9 view .LVU1408
 4770 0b70 012B     		cmp	r3, #1
 4771 0b72 3FF69AAA 		bhi	.L200
2520:TP2824/TP2802.c **** 						{
 4772              		.loc 1 2520 7 is_stmt 1 view .LVU1409
2520:TP2824/TP2802.c **** 						{
 4773              		.loc 1 2520 15 is_stmt 0 view .LVU1410
 4774 0b76 384B     		ldr	r3, .L358
 4775 0b78 9B5D     		ldrb	r3, [r3, r6]	@ zero_extendqisi2
2520:TP2824/TP2802.c **** 						{
 4776              		.loc 1 2520 10 view .LVU1411
 4777 0b7a 13F0200F 		tst	r3, #32
 4778 0b7e 3FF494AA 		beq	.L200
2522:TP2824/TP2802.c **** 						}
 4779              		.loc 1 2522 8 is_stmt 1 view .LVU1412
 4780 0b82 1620     		movs	r0, #22
 4781 0b84 FFF7FEFF 		bl	SetCGain
 4782              	.LVL466:
 4783 0b88 FFF78FBA 		b	.L200
 4784              	.L351:
2513:TP2824/TP2802.c **** 					SetCGain(0x0c);
 4785              		.loc 1 2513 6 view .LVU1413
 4786 0b8c 2046     		mov	r0, r4
 4787 0b8e FFF7FEFF 		bl	ManualAGC
 4788              	.LVL467:
2514:TP2824/TP2802.c **** 				}
 4789              		.loc 1 2514 6 view .LVU1414
 4790 0b92 0C20     		movs	r0, #12
 4791 0b94 FFF7FEFF 		bl	SetCGain
 4792              	.LVL468:
 4793 0b98 FFF787BA 		b	.L200
 4794              	.L328:
 4795              	.LBB5:
2536:TP2824/TP2802.c **** #if (_DEBUG_MESSAGE_TP2824 == ON)
 4796              		.loc 1 2536 8 view .LVU1415
2538:TP2824/TP2802.c **** #endif
 4797              		.loc 1 2538 8 view .LVU1416
 4798 0b9c 4048     		ldr	r0, .L358+72
 4799 0b9e FFF7FEFF 		bl	Printf
 4800              	.LVL469:
2536:TP2824/TP2802.c **** #if (_DEBUG_MESSAGE_TP2824 == ON)
 4801              		.loc 1 2536 20 is_stmt 0 view .LVU1417
 4802 0ba2 4048     		ldr	r0, .L358+76
 4803 0ba4 64E5     		b	.L272
 4804              	.L329:
2556:TP2824/TP2802.c **** 						}
 4805              		.loc 1 2556 8 is_stmt 1 view .LVU1418
 4806 0ba6 1921     		movs	r1, #25
 4807 0ba8 C620     		movs	r0, #198
 4808 0baa FFF7FEFF 		bl	tp28xx_byte_write
 4809              	.LVL470:
 4810 0bae 68E5     		b	.L273
ARM GAS  C:\Users\ryanc.HS\AppData\Local\Temp\ccAQ3CYh.s 			page 154


 4811              	.L330:
2572:TP2824/TP2802.c **** 							printf("EQdet %d\r\n", PtzTxChNum);
 4812              		.loc 1 2572 8 view .LVU1419
2572:TP2824/TP2802.c **** 							printf("EQdet %d\r\n", PtzTxChNum);
 4813              		.loc 1 2572 19 is_stmt 0 view .LVU1420
 4814 0bb0 3D4B     		ldr	r3, .L358+80
 4815 0bb2 1C70     		strb	r4, [r3]
2573:TP2824/TP2802.c **** 						}
 4816              		.loc 1 2573 8 is_stmt 1 view .LVU1421
 4817 0bb4 3146     		mov	r1, r6
 4818 0bb6 3D48     		ldr	r0, .L358+84
 4819 0bb8 FFF7FEFF 		bl	printf
 4820              	.LVL471:
 4821 0bbc 84E5     		b	.L270
 4822              	.L331:
2579:TP2824/TP2802.c **** 						I2CDeviceSet1(ptr_TP2824C);
 4823              		.loc 1 2579 7 view .LVU1422
2580:TP2824/TP2802.c **** 
 4824              		.loc 1 2580 7 view .LVU1423
 4825 0bbe 3C48     		ldr	r0, .L358+88
 4826 0bc0 FFF7FEFF 		bl	I2CDeviceSet1
 4827              	.LVL472:
2582:TP2824/TP2802.c **** 						tp28xx_byte_write(0xbe, 0x80);
 4828              		.loc 1 2582 7 view .LVU1424
 4829 0bc4 2146     		mov	r1, r4
 4830 0bc6 4020     		movs	r0, #64
 4831 0bc8 FFF7FEFF 		bl	tp28xx_byte_write
 4832              	.LVL473:
2583:TP2824/TP2802.c **** 						tp28xx_byte_read(0xB6);
 4833              		.loc 1 2583 7 view .LVU1425
 4834 0bcc 8021     		movs	r1, #128
 4835 0bce BE20     		movs	r0, #190
 4836 0bd0 FFF7FEFF 		bl	tp28xx_byte_write
 4837              	.LVL474:
2584:TP2824/TP2802.c **** 						tp28xx_byte_read(0xB5);
 4838              		.loc 1 2584 7 view .LVU1426
 4839 0bd4 B620     		movs	r0, #182
 4840 0bd6 FFF7FEFF 		bl	tp28xx_byte_read
 4841              	.LVL475:
2585:TP2824/TP2802.c **** 						tp28xx_byte_read(0xB4);
 4842              		.loc 1 2585 7 view .LVU1427
 4843 0bda B520     		movs	r0, #181
 4844 0bdc FFF7FEFF 		bl	tp28xx_byte_read
 4845              	.LVL476:
2586:TP2824/TP2802.c **** 
 4846              		.loc 1 2586 7 view .LVU1428
 4847 0be0 B420     		movs	r0, #180
 4848 0be2 FFF7FEFF 		bl	tp28xx_byte_read
 4849              	.LVL477:
2588:TP2824/TP2802.c **** 						delay(1); // 5ms
 4850              		.loc 1 2588 7 view .LVU1429
 4851 0be6 2421     		movs	r1, #36
 4852 0be8 A720     		movs	r0, #167
 4853 0bea FFF7FEFF 		bl	tp28xx_byte_write
 4854              	.LVL478:
2589:TP2824/TP2802.c **** 						tp28xx_byte_write(0xa7, 0xA7);
 4855              		.loc 1 2589 7 view .LVU1430
ARM GAS  C:\Users\ryanc.HS\AppData\Local\Temp\ccAQ3CYh.s 			page 155


 4856 0bee 0120     		movs	r0, #1
 4857 0bf0 FFF7FEFF 		bl	delay
 4858              	.LVL479:
2590:TP2824/TP2802.c **** 
 4859              		.loc 1 2590 7 view .LVU1431
 4860 0bf4 A721     		movs	r1, #167
 4861 0bf6 0846     		mov	r0, r1
 4862 0bf8 FFF7FEFF 		bl	tp28xx_byte_write
 4863              	.LVL480:
 4864 0bfc 69E5     		b	.L274
 4865              	.L332:
2597:TP2824/TP2802.c **** 						I2CDeviceSet1(ptr_TP2824C);
 4866              		.loc 1 2597 7 view .LVU1432
2598:TP2824/TP2802.c **** 
 4867              		.loc 1 2598 7 view .LVU1433
 4868 0bfe 2D48     		ldr	r0, .L358+92
 4869 0c00 FFF7FEFF 		bl	I2CDeviceSet1
 4870              	.LVL481:
2600:TP2824/TP2802.c **** 						tp28xx_byte_write(0xbe, 0x80);
 4871              		.loc 1 2600 7 view .LVU1434
 4872 0c04 2146     		mov	r1, r4
 4873 0c06 4020     		movs	r0, #64
 4874 0c08 FFF7FEFF 		bl	tp28xx_byte_write
 4875              	.LVL482:
2601:TP2824/TP2802.c **** 						tp28xx_byte_read(0xB6);
 4876              		.loc 1 2601 7 view .LVU1435
 4877 0c0c 8021     		movs	r1, #128
 4878 0c0e BE20     		movs	r0, #190
 4879 0c10 FFF7FEFF 		bl	tp28xx_byte_write
 4880              	.LVL483:
2602:TP2824/TP2802.c **** 						tp28xx_byte_read(0xB5);
 4881              		.loc 1 2602 7 view .LVU1436
 4882 0c14 B620     		movs	r0, #182
 4883 0c16 FFF7FEFF 		bl	tp28xx_byte_read
 4884              	.LVL484:
2603:TP2824/TP2802.c **** 						tp28xx_byte_read(0xB4);
 4885              		.loc 1 2603 7 view .LVU1437
 4886 0c1a B520     		movs	r0, #181
 4887 0c1c FFF7FEFF 		bl	tp28xx_byte_read
 4888              	.LVL485:
2604:TP2824/TP2802.c **** 
 4889              		.loc 1 2604 7 view .LVU1438
 4890 0c20 B420     		movs	r0, #180
 4891 0c22 FFF7FEFF 		bl	tp28xx_byte_read
 4892              	.LVL486:
2606:TP2824/TP2802.c **** 						tp28xx_byte_read(0xA2);
 4893              		.loc 1 2606 7 view .LVU1439
 4894 0c26 A420     		movs	r0, #164
 4895 0c28 FFF7FEFF 		bl	tp28xx_byte_read
 4896              	.LVL487:
2607:TP2824/TP2802.c **** 						tp28xx_byte_read(0xA3);
 4897              		.loc 1 2607 7 view .LVU1440
 4898 0c2c A220     		movs	r0, #162
 4899 0c2e FFF7FEFF 		bl	tp28xx_byte_read
 4900              	.LVL488:
2608:TP2824/TP2802.c **** 
 4901              		.loc 1 2608 7 view .LVU1441
ARM GAS  C:\Users\ryanc.HS\AppData\Local\Temp\ccAQ3CYh.s 			page 156


 4902 0c32 A320     		movs	r0, #163
 4903 0c34 FFF7FEFF 		bl	tp28xx_byte_read
 4904              	.LVL489:
2610:TP2824/TP2802.c **** 						delay(1); // 5ms
 4905              		.loc 1 2610 7 view .LVU1442
 4906 0c38 0021     		movs	r1, #0
 4907 0c3a A720     		movs	r0, #167
 4908 0c3c FFF7FEFF 		bl	tp28xx_byte_write
 4909              	.LVL490:
2611:TP2824/TP2802.c **** 						tp28xx_byte_write(0xa7, 0x83);
 4910              		.loc 1 2611 7 view .LVU1443
 4911 0c40 0120     		movs	r0, #1
 4912 0c42 FFF7FEFF 		bl	delay
 4913              	.LVL491:
2612:TP2824/TP2802.c **** 
 4914              		.loc 1 2612 7 view .LVU1444
 4915 0c46 8321     		movs	r1, #131
 4916 0c48 A720     		movs	r0, #167
 4917 0c4a FFF7FEFF 		bl	tp28xx_byte_write
 4918              	.LVL492:
 4919 0c4e 45E5     		b	.L275
 4920              	.L293:
2612:TP2824/TP2802.c **** 
 4921              		.loc 1 2612 7 is_stmt 0 view .LVU1445
 4922              	.LBE5:
2638:TP2824/TP2802.c **** 					}
2639:TP2824/TP2802.c **** 				}
2640:TP2824/TP2802.c **** 			}
2641:TP2824/TP2802.c **** 		}
2642:TP2824/TP2802.c **** 	}
2643:TP2824/TP2802.c **** }
 4923              		.loc 1 2643 1 view .LVU1446
 4924 0c50 03B0     		add	sp, sp, #12
 4925              	.LCFI20:
 4926              		.cfi_def_cfa_offset 28
 4927              		@ sp needed
 4928 0c52 BDE8F083 		pop	{r4, r5, r6, r7, r8, r9, pc}
 4929              	.LVL493:
 4930              	.L359:
 4931              		.loc 1 2643 1 view .LVU1447
 4932 0c56 00BF     		.align	2
 4933              	.L358:
 4934 0c58 00000000 		.word	mode
 4935 0c5c 00000000 		.word	std
 4936 0c60 D0010000 		.word	.LC48
 4937 0c64 00000000 		.word	.LANCHOR21
 4938 0c68 00000000 		.word	gbVXIS_InputMode
 4939 0c6c 00000000 		.word	bytResetOSDValue
 4940 0c70 00000000 		.word	.LANCHOR22
 4941 0c74 00000000 		.word	gbVXIS_OuputModeflg
 4942 0c78 00000000 		.word	bytSelectCAMRD
 4943 0c7c 00000000 		.word	VideoSave
 4944 0c80 40020000 		.word	.LC51
 4945 0c84 FC010000 		.word	.LC49
 4946 0c88 34020000 		.word	.LC50
 4947 0c8c 00000000 		.word	chip
 4948 0c90 74020000 		.word	.LC54
ARM GAS  C:\Users\ryanc.HS\AppData\Local\Temp\ccAQ3CYh.s 			page 157


 4949 0c94 ABAAAAAA 		.word	-1431655765
 4950 0c98 4C020000 		.word	.LC52
 4951 0c9c 60020000 		.word	.LC53
 4952 0ca0 88020000 		.word	.LC55
 4953 0ca4 00000000 		.word	.LANCHOR15
 4954 0ca8 00000000 		.word	PtzTxChNum
 4955 0cac C4020000 		.word	.LC57
 4956 0cb0 00000000 		.word	.LANCHOR23
 4957 0cb4 00000000 		.word	.LANCHOR24
 4958              		.cfi_endproc
 4959              	.LFE22:
 4961              		.section	.text.Det_HLock,"ax",%progbits
 4962              		.align	1
 4963              		.global	Det_HLock
 4964              		.syntax unified
 4965              		.thumb
 4966              		.thumb_func
 4967              		.fpu softvfp
 4969              	Det_HLock:
 4970              	.LFB24:
2644:TP2824/TP2802.c **** 
2645:TP2824/TP2802.c **** void TVI_BOX_Set(void)
2646:TP2824/TP2802.c **** {
2647:TP2824/TP2802.c **** 	BYTE i, ch[4] = {0, 3, 1, 2};
2648:TP2824/TP2802.c **** 
2649:TP2824/TP2802.c **** 	// TriggerHandler(CheckTrigger());
2650:TP2824/TP2802.c **** 
2651:TP2824/TP2802.c **** #if 1
2652:TP2824/TP2802.c **** 	for (i = 0; i < 4; i++)
2653:TP2824/TP2802.c **** 	{
2654:TP2824/TP2802.c **** 
2655:TP2824/TP2802.c **** 		if ((std[i] == TVI) && (mode[i] != NTSC) && (mode[i] != PAL) && (state[i] == VIDEO_LOCKED))
2656:TP2824/TP2802.c **** 		{
2657:TP2824/TP2802.c **** #if (_DEBUG_MESSAGE_Get_2824cIrq == ON)
2658:TP2824/TP2802.c **** 			Printf("(*TVI_BOX_Set=%d)", (WORD)i);
2659:TP2824/TP2802.c **** #endif
2660:TP2824/TP2802.c **** 			SetCOCCom(_COCOSD_BOX_Sel, ch[i]);
2661:TP2824/TP2802.c **** 			SetCOCCom(_COCOSD_BOXONLINE, ch[i]);
2662:TP2824/TP2802.c **** 			Get_2824cIrq();
2663:TP2824/TP2802.c **** 
2664:TP2824/TP2802.c **** 			SetCOCCom(_COCOSD_BOX_Channel_Sel, 5);
2665:TP2824/TP2802.c **** 			COCSelectModeType[SelectModeType] = 5;
2666:TP2824/TP2802.c **** 			Get_2824cIrq();
2667:TP2824/TP2802.c **** 		}
2668:TP2824/TP2802.c **** 	}
2669:TP2824/TP2802.c **** 
2670:TP2824/TP2802.c **** #else
2671:TP2824/TP2802.c **** 	for (i = 0; i < 4; i++)
2672:TP2824/TP2802.c **** 	{
2673:TP2824/TP2802.c **** 
2674:TP2824/TP2802.c **** 		if ((std[i] == TVI) && (mode[i] != NTSC) && (mode[i] != PAL) && (state[i] == VIDEO_LOCKED))
2675:TP2824/TP2802.c **** 		{
2676:TP2824/TP2802.c **** 
2677:TP2824/TP2802.c **** 			SetCOCCom(_COCOSD_BOX_Sel, i);
2678:TP2824/TP2802.c **** 			SetCOCCom(_COCOSD_BOXONLINE, 0);
2679:TP2824/TP2802.c **** 			Get_2824cIrq();
2680:TP2824/TP2802.c **** 
ARM GAS  C:\Users\ryanc.HS\AppData\Local\Temp\ccAQ3CYh.s 			page 158


2681:TP2824/TP2802.c **** 			SetCOCCom(_COCOSD_BOX_Channel_Sel, 5);
2682:TP2824/TP2802.c **** 			COCSelectModeType[SelectModeType] = 5;
2683:TP2824/TP2802.c **** 			Get_2824cIrq();
2684:TP2824/TP2802.c **** 		}
2685:TP2824/TP2802.c **** 	}
2686:TP2824/TP2802.c **** #endif
2687:TP2824/TP2802.c **** }
2688:TP2824/TP2802.c **** 
2689:TP2824/TP2802.c **** tByte Det_HLock()
2690:TP2824/TP2802.c **** {
 4971              		.loc 1 2690 1 is_stmt 1 view -0
 4972              		.cfi_startproc
 4973              		@ args = 0, pretend = 0, frame = 0
 4974              		@ frame_needed = 0, uses_anonymous_args = 0
 4975 0000 08B5     		push	{r3, lr}
 4976              	.LCFI21:
 4977              		.cfi_def_cfa_offset 8
 4978              		.cfi_offset 3, -8
 4979              		.cfi_offset 14, -4
2691:TP2824/TP2802.c **** 	tByte Reg01;
 4980              		.loc 1 2691 2 view .LVU1449
2692:TP2824/TP2802.c **** 	tByte HLOCK;
 4981              		.loc 1 2692 2 view .LVU1450
2693:TP2824/TP2802.c **** 
2694:TP2824/TP2802.c **** 	Reg01 = tp28xx_byte_read(0x01);
 4982              		.loc 1 2694 2 view .LVU1451
 4983              		.loc 1 2694 10 is_stmt 0 view .LVU1452
 4984 0002 0120     		movs	r0, #1
 4985 0004 FFF7FEFF 		bl	tp28xx_byte_read
 4986              	.LVL494:
 4987 0008 0346     		mov	r3, r0
 4988              	.LVL495:
2695:TP2824/TP2802.c **** 	HLOCK = (Reg01 >> 5) & 0x01;
 4989              		.loc 1 2695 2 is_stmt 1 view .LVU1453
 4990              		.loc 1 2695 8 is_stmt 0 view .LVU1454
 4991 000a C0F34010 		ubfx	r0, r0, #5, #1
 4992              	.LVL496:
2696:TP2824/TP2802.c **** 
2697:TP2824/TP2802.c **** 	if (HLOCK == 1)
 4993              		.loc 1 2697 2 is_stmt 1 view .LVU1455
 4994              		.loc 1 2697 5 is_stmt 0 view .LVU1456
 4995 000e 13F0200F 		tst	r3, #32
 4996 0012 00D0     		beq	.L361
2698:TP2824/TP2802.c **** 		return TRUE;
 4997              		.loc 1 2698 10 view .LVU1457
 4998 0014 0120     		movs	r0, #1
 4999              	.LVL497:
 5000              	.L361:
2699:TP2824/TP2802.c **** 	else
2700:TP2824/TP2802.c **** 		return FALSE;
2701:TP2824/TP2802.c **** }
 5001              		.loc 1 2701 1 view .LVU1458
 5002 0016 08BD     		pop	{r3, pc}
 5003              		.loc 1 2701 1 view .LVU1459
 5004              		.cfi_endproc
 5005              	.LFE24:
 5007              		.section	.rodata.Set_ResWithAutoDet.str1.4,"aMS",%progbits,1
ARM GAS  C:\Users\ryanc.HS\AppData\Local\Temp\ccAQ3CYh.s 			page 159


 5008              		.align	2
 5009              	.LC58:
 5010 0000 482F5620 		.ascii	"H/V is not locked\015\000"
 5010      6973206E 
 5010      6F74206C 
 5010      6F636B65 
 5010      640D00
 5011              		.section	.text.Set_ResWithAutoDet,"ax",%progbits
 5012              		.align	1
 5013              		.global	Set_ResWithAutoDet
 5014              		.syntax unified
 5015              		.thumb
 5016              		.thumb_func
 5017              		.fpu softvfp
 5019              	Set_ResWithAutoDet:
 5020              	.LVL498:
 5021              	.LFB25:
2702:TP2824/TP2802.c **** 
2703:TP2824/TP2802.c **** tByte Set_ResWithAutoDet(tByte ch)
2704:TP2824/TP2802.c **** {
 5022              		.loc 1 2704 1 is_stmt 1 view -0
 5023              		.cfi_startproc
 5024              		@ args = 0, pretend = 0, frame = 0
 5025              		@ frame_needed = 0, uses_anonymous_args = 0
 5026              		.loc 1 2704 1 is_stmt 0 view .LVU1461
 5027 0000 70B5     		push	{r4, r5, r6, lr}
 5028              	.LCFI22:
 5029              		.cfi_def_cfa_offset 16
 5030              		.cfi_offset 4, -16
 5031              		.cfi_offset 5, -12
 5032              		.cfi_offset 6, -8
 5033              		.cfi_offset 14, -4
 5034 0002 0646     		mov	r6, r0
2705:TP2824/TP2802.c **** 	tByte VidRes = R1080P30;
 5035              		.loc 1 2705 2 is_stmt 1 view .LVU1462
 5036              	.LVL499:
2706:TP2824/TP2802.c **** 	tByte cnt = 5;
 5037              		.loc 1 2706 2 view .LVU1463
2707:TP2824/TP2802.c **** 	SetRegPage(ch);
 5038              		.loc 1 2707 2 view .LVU1464
 5039 0004 FFF7FEFF 		bl	SetRegPage
 5040              	.LVL500:
2708:TP2824/TP2802.c **** 	//	printf("\r\nReg40=%02x, Reg01=%02x",(tWord)tp28xx_byte_read(TVII2CAddress,0x40),(tWord)tp28xx_b
2709:TP2824/TP2802.c **** 	while (cnt--)
 5041              		.loc 1 2709 2 view .LVU1465
2706:TP2824/TP2802.c **** 	SetRegPage(ch);
 5042              		.loc 1 2706 8 is_stmt 0 view .LVU1466
 5043 0008 0524     		movs	r4, #5
 5044              		.loc 1 2709 8 view .LVU1467
 5045 000a 00E0     		b	.L364
 5046              	.LVL501:
 5047              	.L365:
2704:TP2824/TP2802.c **** 	tByte VidRes = R1080P30;
 5048              		.loc 1 2704 1 view .LVU1468
 5049 000c 2C46     		mov	r4, r5
 5050              	.LVL502:
 5051              	.L364:
ARM GAS  C:\Users\ryanc.HS\AppData\Local\Temp\ccAQ3CYh.s 			page 160


 5052              		.loc 1 2709 8 is_stmt 1 view .LVU1469
 5053              		.loc 1 2709 12 is_stmt 0 view .LVU1470
 5054 000e 631E     		subs	r3, r4, #1
 5055 0010 DDB2     		uxtb	r5, r3
 5056              	.LVL503:
 5057              		.loc 1 2709 8 view .LVU1471
 5058 0012 8CB1     		cbz	r4, .L369
2710:TP2824/TP2802.c **** 	{
2711:TP2824/TP2802.c **** 		if (!Det_VideoLoss(ch))
 5059              		.loc 1 2711 3 is_stmt 1 view .LVU1472
 5060              		.loc 1 2711 8 is_stmt 0 view .LVU1473
 5061 0014 3046     		mov	r0, r6
 5062 0016 FFF7FEFF 		bl	Det_VideoLoss
 5063              	.LVL504:
 5064              		.loc 1 2711 6 view .LVU1474
 5065 001a 0028     		cmp	r0, #0
 5066 001c F6D1     		bne	.L365
2712:TP2824/TP2802.c **** 		{
2713:TP2824/TP2802.c **** 			// for(VidRes=R720P60; VidRes<=R720P25; VidRes++)
2714:TP2824/TP2802.c **** 			//{
2715:TP2824/TP2802.c **** 			Set_VidRes(ch);
 5067              		.loc 1 2715 4 is_stmt 1 view .LVU1475
 5068 001e 3046     		mov	r0, r6
 5069 0020 FFF7FEFF 		bl	Set_VidRes
 5070              	.LVL505:
2716:TP2824/TP2802.c **** 			// printf("\r\nVidRes=%02x, Reg01=%02x, Reg03=%02x",(tWord)VidRes,(tWord)tp28xx_byte_read(TVII2C
2717:TP2824/TP2802.c **** 			if ((Det_HLock() == TRUE) && (Det_VidRes() == VidRes))
 5071              		.loc 1 2717 4 view .LVU1476
 5072              		.loc 1 2717 9 is_stmt 0 view .LVU1477
 5073 0024 FFF7FEFF 		bl	Det_HLock
 5074              	.LVL506:
 5075 0028 0446     		mov	r4, r0
 5076              		.loc 1 2717 7 view .LVU1478
 5077 002a 0128     		cmp	r0, #1
 5078 002c EED1     		bne	.L365
 5079              		.loc 1 2717 34 discriminator 1 view .LVU1479
 5080 002e FFF7FEFF 		bl	Det_VidRes
 5081              	.LVL507:
 5082              		.loc 1 2717 30 discriminator 1 view .LVU1480
 5083 0032 0228     		cmp	r0, #2
 5084 0034 EAD1     		bne	.L365
 5085 0036 02E0     		b	.L366
 5086              	.L369:
2718:TP2824/TP2802.c **** 				return TRUE;
2719:TP2824/TP2802.c **** 			//}
2720:TP2824/TP2802.c **** 		}
2721:TP2824/TP2802.c **** 	}
2722:TP2824/TP2802.c **** 	printf("H/V is not locked\r\n");
 5087              		.loc 1 2722 2 is_stmt 1 view .LVU1481
 5088 0038 0248     		ldr	r0, .L370
 5089 003a FFF7FEFF 		bl	puts
 5090              	.LVL508:
2723:TP2824/TP2802.c **** 	return FALSE;
 5091              		.loc 1 2723 2 view .LVU1482
 5092              	.L366:
2724:TP2824/TP2802.c **** }
 5093              		.loc 1 2724 1 is_stmt 0 view .LVU1483
ARM GAS  C:\Users\ryanc.HS\AppData\Local\Temp\ccAQ3CYh.s 			page 161


 5094 003e 2046     		mov	r0, r4
 5095 0040 70BD     		pop	{r4, r5, r6, pc}
 5096              	.LVL509:
 5097              	.L371:
 5098              		.loc 1 2724 1 view .LVU1484
 5099 0042 00BF     		.align	2
 5100              	.L370:
 5101 0044 00000000 		.word	.LC58
 5102              		.cfi_endproc
 5103              	.LFE25:
 5105              		.section	.text.Scan_Channels,"ax",%progbits
 5106              		.align	1
 5107              		.global	Scan_Channels
 5108              		.syntax unified
 5109              		.thumb
 5110              		.thumb_func
 5111              		.fpu softvfp
 5113              	Scan_Channels:
 5114              	.LFB26:
2725:TP2824/TP2802.c **** 
2726:TP2824/TP2802.c **** tByte Scan_Channels()
2727:TP2824/TP2802.c **** {
 5115              		.loc 1 2727 1 is_stmt 1 view -0
 5116              		.cfi_startproc
 5117              		@ args = 0, pretend = 0, frame = 0
 5118              		@ frame_needed = 0, uses_anonymous_args = 0
 5119 0000 70B5     		push	{r4, r5, r6, lr}
 5120              	.LCFI23:
 5121              		.cfi_def_cfa_offset 16
 5122              		.cfi_offset 4, -16
 5123              		.cfi_offset 5, -12
 5124              		.cfi_offset 6, -8
 5125              		.cfi_offset 14, -4
2728:TP2824/TP2802.c **** 	tByte ch;
 5126              		.loc 1 2728 2 view .LVU1486
2729:TP2824/TP2802.c **** 	tByte Det_ch = 0;
 5127              		.loc 1 2729 2 view .LVU1487
 5128              	.LVL510:
2730:TP2824/TP2802.c **** 	tByte Sel_ch = 0xff;
 5129              		.loc 1 2730 2 view .LVU1488
2731:TP2824/TP2802.c **** 
2732:TP2824/TP2802.c **** 	for (ch = CH1; ch <= CH4; ch++)
 5130              		.loc 1 2732 2 view .LVU1489
2730:TP2824/TP2802.c **** 	tByte Sel_ch = 0xff;
 5131              		.loc 1 2730 8 is_stmt 0 view .LVU1490
 5132 0002 FF26     		movs	r6, #255
2729:TP2824/TP2802.c **** 	tByte Sel_ch = 0xff;
 5133              		.loc 1 2729 8 view .LVU1491
 5134 0004 0025     		movs	r5, #0
 5135              		.loc 1 2732 10 view .LVU1492
 5136 0006 2C46     		mov	r4, r5
 5137              		.loc 1 2732 2 view .LVU1493
 5138 0008 01E0     		b	.L373
 5139              	.LVL511:
 5140              	.L374:
 5141              		.loc 1 2732 28 is_stmt 1 discriminator 2 view .LVU1494
 5142              		.loc 1 2732 30 is_stmt 0 discriminator 2 view .LVU1495
ARM GAS  C:\Users\ryanc.HS\AppData\Local\Temp\ccAQ3CYh.s 			page 162


 5143 000a 0134     		adds	r4, r4, #1
 5144              	.LVL512:
 5145              		.loc 1 2732 30 discriminator 2 view .LVU1496
 5146 000c E4B2     		uxtb	r4, r4
 5147              	.LVL513:
 5148              	.L373:
 5149              		.loc 1 2732 17 is_stmt 1 discriminator 1 view .LVU1497
 5150              		.loc 1 2732 2 is_stmt 0 discriminator 1 view .LVU1498
 5151 000e 032C     		cmp	r4, #3
 5152 0010 09D8     		bhi	.L378
2733:TP2824/TP2802.c **** 	{
2734:TP2824/TP2802.c **** 		if (Set_ResWithAutoDet(ch) && !Det_ch)
 5153              		.loc 1 2734 3 is_stmt 1 view .LVU1499
 5154              		.loc 1 2734 7 is_stmt 0 view .LVU1500
 5155 0012 2046     		mov	r0, r4
 5156 0014 FFF7FEFF 		bl	Set_ResWithAutoDet
 5157              	.LVL514:
 5158              		.loc 1 2734 6 view .LVU1501
 5159 0018 0028     		cmp	r0, #0
 5160 001a F6D0     		beq	.L374
 5161              		.loc 1 2734 30 discriminator 1 view .LVU1502
 5162 001c 002D     		cmp	r5, #0
 5163 001e F4D1     		bne	.L374
2735:TP2824/TP2802.c **** 		{
2736:TP2824/TP2802.c **** 			// Sel_VD_Out(ch);
2737:TP2824/TP2802.c **** 			Sel_ch = ch;
 5164              		.loc 1 2737 11 view .LVU1503
 5165 0020 2646     		mov	r6, r4
 5166              	.LVL515:
2738:TP2824/TP2802.c **** 			Det_ch = 1;
 5167              		.loc 1 2738 11 view .LVU1504
 5168 0022 0125     		movs	r5, #1
 5169              	.LVL516:
 5170              		.loc 1 2738 11 view .LVU1505
 5171 0024 F1E7     		b	.L374
 5172              	.LVL517:
 5173              	.L378:
2739:TP2824/TP2802.c **** 		}
2740:TP2824/TP2802.c **** 	}
2741:TP2824/TP2802.c **** 
2742:TP2824/TP2802.c **** 	return Sel_ch;
 5174              		.loc 1 2742 2 is_stmt 1 view .LVU1506
2743:TP2824/TP2802.c **** }
 5175              		.loc 1 2743 1 is_stmt 0 view .LVU1507
 5176 0026 3046     		mov	r0, r6
 5177 0028 70BD     		pop	{r4, r5, r6, pc}
 5178              		.loc 1 2743 1 view .LVU1508
 5179              		.cfi_endproc
 5180              	.LFE26:
 5182              		.section	.text.Set_PLL_StartUp,"ax",%progbits
 5183              		.align	1
 5184              		.global	Set_PLL_StartUp
 5185              		.syntax unified
 5186              		.thumb
 5187              		.thumb_func
 5188              		.fpu softvfp
 5190              	Set_PLL_StartUp:
ARM GAS  C:\Users\ryanc.HS\AppData\Local\Temp\ccAQ3CYh.s 			page 163


 5191              	.LFB27:
2744:TP2824/TP2802.c **** 
2745:TP2824/TP2802.c **** void Set_PLL_StartUp()
2746:TP2824/TP2802.c **** {
 5192              		.loc 1 2746 1 is_stmt 1 view -0
 5193              		.cfi_startproc
 5194              		@ args = 0, pretend = 0, frame = 0
 5195              		@ frame_needed = 0, uses_anonymous_args = 0
 5196 0000 10B5     		push	{r4, lr}
 5197              	.LCFI24:
 5198              		.cfi_def_cfa_offset 8
 5199              		.cfi_offset 4, -8
 5200              		.cfi_offset 14, -4
2747:TP2824/TP2802.c **** 	tByte PLL_con;
 5201              		.loc 1 2747 2 view .LVU1510
2748:TP2824/TP2802.c **** 	PLL_con = tp28xx_byte_read(0x44);
 5202              		.loc 1 2748 2 view .LVU1511
 5203              		.loc 1 2748 12 is_stmt 0 view .LVU1512
 5204 0002 4420     		movs	r0, #68
 5205 0004 FFF7FEFF 		bl	tp28xx_byte_read
 5206              	.LVL518:
 5207 0008 0446     		mov	r4, r0
 5208              	.LVL519:
2749:TP2824/TP2802.c **** 	tp28xx_byte_write(0x44, (PLL_con | 0x40));
 5209              		.loc 1 2749 2 is_stmt 1 view .LVU1513
 5210 000a 40F04001 		orr	r1, r0, #64
 5211 000e C9B2     		uxtb	r1, r1
 5212 0010 4420     		movs	r0, #68
 5213              	.LVL520:
 5214              		.loc 1 2749 2 is_stmt 0 view .LVU1514
 5215 0012 FFF7FEFF 		bl	tp28xx_byte_write
 5216              	.LVL521:
2750:TP2824/TP2802.c **** 	tp28xx_byte_write(0x44, (PLL_con & 0xbf));
 5217              		.loc 1 2750 2 is_stmt 1 view .LVU1515
 5218 0016 04F0BF01 		and	r1, r4, #191
 5219 001a 4420     		movs	r0, #68
 5220 001c FFF7FEFF 		bl	tp28xx_byte_write
 5221              	.LVL522:
2751:TP2824/TP2802.c **** }
 5222              		.loc 1 2751 1 is_stmt 0 view .LVU1516
 5223 0020 10BD     		pop	{r4, pc}
 5224              		.cfi_endproc
 5225              	.LFE27:
 5227              		.section	.rodata.Init_TP280x_CHx_RegSet.str1.4,"aMS",%progbits,1
 5228              		.align	2
 5229              	.LC59:
 5230 0000 28547032 		.ascii	"(Tp2802_Boot_Set_std)\015\012\000"
 5230      3830325F 
 5230      426F6F74 
 5230      5F536574 
 5230      5F737464 
 5231              		.align	2
 5232              	.LC60:
 5233 0018 28547032 		.ascii	"(Tp2802_Boot_Set_output)\015\012\000"
 5233      3830325F 
 5233      426F6F74 
 5233      5F536574 
ARM GAS  C:\Users\ryanc.HS\AppData\Local\Temp\ccAQ3CYh.s 			page 164


 5233      5F6F7574 
 5234 0033 00       		.align	2
 5235              	.LC61:
 5236 0034 28547032 		.ascii	"(Tp2802_Boot_Set_COC)\015\012\000"
 5236      3830325F 
 5236      426F6F74 
 5236      5F536574 
 5236      5F434F43 
 5237              		.align	2
 5238              	.LC62:
 5239 004c 496E6974 		.ascii	"Init_TP280x_CHx_RegSet in ch%02x (Action=%02x)\015\012"
 5239      5F545032 
 5239      3830785F 
 5239      4348785F 
 5239      52656753 
 5240 007c 00       		.ascii	"\000"
 5241 007d 000000   		.align	2
 5242              	.LC63:
 5243 0080 28545649 		.ascii	"(TVIA)\000"
 5243      412900
 5244 0087 00       		.align	2
 5245              	.LC64:
 5246 0088 28536574 		.ascii	"(Set_HDC)\000"
 5246      5F484443 
 5246      2900
 5247 0092 0000     		.align	2
 5248              	.LC65:
 5249 0094 28536574 		.ascii	"(Set_HDA)\000"
 5249      5F484441 
 5249      2900
 5250 009e 0000     		.align	2
 5251              	.LC66:
 5252 00a0 28322E54 		.ascii	"(2.TP2824C_CVBS_PTZ_DataSet)\000"
 5252      50323832 
 5252      34435F43 
 5252      5642535F 
 5252      50545A5F 
 5253 00bd 000000   		.align	2
 5254              	.LC67:
 5255 00c0 28322E54 		.ascii	"(2.TP2824C_TVI_FHD_PTZ_DataSet)\000"
 5255      50323832 
 5255      34435F54 
 5255      56495F46 
 5255      48445F50 
 5256              		.section	.text.Init_TP280x_CHx_RegSet,"ax",%progbits
 5257              		.align	1
 5258              		.global	Init_TP280x_CHx_RegSet
 5259              		.syntax unified
 5260              		.thumb
 5261              		.thumb_func
 5262              		.fpu softvfp
 5264              	Init_TP280x_CHx_RegSet:
 5265              	.LVL523:
 5266              	.LFB30:
2752:TP2824/TP2802.c **** void Boot_Trigger_Function(BYTE ch)
2753:TP2824/TP2802.c **** {
2754:TP2824/TP2802.c **** 
ARM GAS  C:\Users\ryanc.HS\AppData\Local\Temp\ccAQ3CYh.s 			page 165


2755:TP2824/TP2802.c **** 	if (VideoSave[ch /*(TriggerStatus-1)*/] == _TRUE)
2756:TP2824/TP2802.c **** 	{
2757:TP2824/TP2802.c **** 		Init_TP280x_CHx_RegSet(Tp2802_Boot_Set_std, ch);
2758:TP2824/TP2802.c **** 		Init_TP280x_CHx_RegSet(Tp2802_Boot_Set_output, ch);
2759:TP2824/TP2802.c **** 		//	Init_TP280x_CHx_RegSet(Tp2802_Boot_Set_COC,ch);
2760:TP2824/TP2802.c **** 
2761:TP2824/TP2802.c **** 		// delay(100);//5ms
2762:TP2824/TP2802.c **** 
2763:TP2824/TP2802.c **** 		//			count[ch]=23;
2764:TP2824/TP2802.c **** 
2765:TP2824/TP2802.c **** 		//NTSCv|GD
2766:TP2824/TP2802.c **** 		if (((mode[ch] == 8) || (mode[ch] == 9)) && (ch == 3) && (SelectModeType <= 4))
2767:TP2824/TP2802.c **** 		{
2768:TP2824/TP2802.c **** 			Init_TP280x_CHx_RegSet(Tp2802_Boot_Set_COC, ch);
2769:TP2824/TP2802.c **** 			msleep(800);
2770:TP2824/TP2802.c **** 			count[ch] = 23;
2771:TP2824/TP2802.c **** 		}
2772:TP2824/TP2802.c **** 		else
2773:TP2824/TP2802.c **** 		{
2774:TP2824/TP2802.c **** 			count[ch] = 20;
2775:TP2824/TP2802.c **** 		}
2776:TP2824/TP2802.c **** 	}
2777:TP2824/TP2802.c **** 	//	SetCOCCom(_COCOSD_BOX_Sel,ch);
2778:TP2824/TP2802.c **** 	//	SetCOCCom(_COCOSD_BOXONLINE,0);
2779:TP2824/TP2802.c **** 	//	 Get_2824cIrq();
2780:TP2824/TP2802.c **** }
2781:TP2824/TP2802.c **** 
2782:TP2824/TP2802.c **** void Init_TP280x_RegSet()
2783:TP2824/TP2802.c **** {
2784:TP2824/TP2802.c **** 
2785:TP2824/TP2802.c **** 	tcByte *ptr_TP2802;
2786:TP2824/TP2802.c **** 	tByte i, val;
2787:TP2824/TP2802.c **** 	//    tByte ch[4]={0,2,3,1};
2788:TP2824/TP2802.c **** 	//     tByte ch[4]={1,3,2,0};  ///this is ok
2789:TP2824/TP2802.c **** 	//	tByte ch[4]={3,2,0,1};	//0=A,1=R,2=B,3=C
2790:TP2824/TP2802.c **** 	tByte ch[4] = {0, 2, 3, 1}; // 0=A,1=R,2=B,3=C
2791:TP2824/TP2802.c **** 	//	tByte ch[4]={2,3,1,0};	//0=A,1=R,2=B,3=C
2792:TP2824/TP2802.c **** 	//	tByte ch[4]={1,3,2,0};	//0=A,1=R,2=B,3=C
2793:TP2824/TP2802.c **** 
2794:TP2824/TP2802.c **** 	TVII2CAddress = 0x88;
2795:TP2824/TP2802.c **** 	// TVII2CAddress = 0x8A;
2796:TP2824/TP2802.c **** 	// TVII2CAddress = 0x8C;
2797:TP2824/TP2802.c **** 	// TVII2CAddress = 0x8E;
2798:TP2824/TP2802.c **** 
2799:TP2824/TP2802.c **** 	for (i = 0; i < 4; i++)
2800:TP2824/TP2802.c **** 	{
2801:TP2824/TP2802.c **** 		if (0x28 == tp28xx_byte_read(0xfe))
2802:TP2824/TP2802.c **** 			break;
2803:TP2824/TP2802.c **** 		TVII2CAddress++;
2804:TP2824/TP2802.c **** 		TVII2CAddress++;
2805:TP2824/TP2802.c **** 	}
2806:TP2824/TP2802.c **** 
2807:TP2824/TP2802.c **** 	chip = tp28xx_byte_read(0xff);
2808:TP2824/TP2802.c **** 
2809:TP2824/TP2802.c **** 	revision = tp28xx_byte_read(0xfd);
2810:TP2824/TP2802.c **** 	revision &= 0x07;
2811:TP2824/TP2802.c **** 
ARM GAS  C:\Users\ryanc.HS\AppData\Local\Temp\ccAQ3CYh.s 			page 166


2812:TP2824/TP2802.c **** 	printf("\r\nchip %02x revision %02x\r\n", (tWord)chip, (tWord)revision);
2813:TP2824/TP2802.c **** 	flag_CVBS = 0;
2814:TP2824/TP2802.c **** 	flag_AUDIO = 0;
2815:TP2824/TP2802.c **** 	flag_MEGA = 0;
2816:TP2824/TP2802.c **** 	ptr_TP2802 = TP2824C_DataSet; // def  chunyu
2817:TP2824/TP2802.c **** 	switch (chip)
2818:TP2824/TP2802.c **** 	{
2819:TP2824/TP2802.c **** 
2820:TP2824/TP2802.c **** 	case TP2802C:
2821:TP2824/TP2802.c **** 	case TP2804:
2822:TP2824/TP2802.c **** 	case TP2822:
2823:TP2824/TP2802.c **** 		printf("EOL ID\r\n");
2824:TP2824/TP2802.c **** 		break;
2825:TP2824/TP2802.c **** 
2826:TP2824/TP2802.c **** 	case TP2823:
2827:TP2824/TP2802.c **** 		flag_CVBS = 1;
2828:TP2824/TP2802.c **** 		flag_AUDIO = 1;
2829:TP2824/TP2802.c **** 		if (0x01 == revision)
2830:TP2824/TP2802.c **** 		{
2831:TP2824/TP2802.c **** 			chip = TP2833;
2832:TP2824/TP2802.c **** 			ptr_TP2802 = TP2833_DataSet;
2833:TP2824/TP2802.c **** 		}
2834:TP2824/TP2802.c **** 		else
2835:TP2824/TP2802.c **** 		{
2836:TP2824/TP2802.c **** 			ptr_TP2802 = TP2823_DataSet;
2837:TP2824/TP2802.c **** 		}
2838:TP2824/TP2802.c **** 		break;
2839:TP2824/TP2802.c **** 
2840:TP2824/TP2802.c **** 	case TP2834:
2841:TP2824/TP2802.c **** 		flag_CVBS = 1;
2842:TP2824/TP2802.c **** 		flag_AUDIO = 1;
2843:TP2824/TP2802.c **** 		ptr_TP2802 = TP2834_DataSet;
2844:TP2824/TP2802.c **** 		break;
2845:TP2824/TP2802.c **** 
2846:TP2824/TP2802.c **** 	case TP2853C:
2847:TP2824/TP2802.c **** 		flag_CVBS = 1;
2848:TP2824/TP2802.c **** 		flag_AUDIO = 1;
2849:TP2824/TP2802.c **** 
2850:TP2824/TP2802.c **** 		if (0x01 == revision)
2851:TP2824/TP2802.c **** 		{
2852:TP2824/TP2802.c **** 			chip = TP2826;
2853:TP2824/TP2802.c **** 			// flag_MEGA = 1;
2854:TP2824/TP2802.c **** 			flag_MEGA = 0; // chunyu
2855:TP2824/TP2802.c **** 			ptr_TP2802 = TP2826_DataSet;
2856:TP2824/TP2802.c **** 		}
2857:TP2824/TP2802.c **** 		else if (0x00 == revision)
2858:TP2824/TP2802.c **** 		{
2859:TP2824/TP2802.c **** 			flag_MEGA = 1;
2860:TP2824/TP2802.c **** 			ptr_TP2802 = TP2853C_DataSet;
2861:TP2824/TP2802.c **** 		}
2862:TP2824/TP2802.c **** 		else
2863:TP2824/TP2802.c **** 		{
2864:TP2824/TP2802.c **** 			ptr_TP2802 = TP2853C_DataSet;
2865:TP2824/TP2802.c **** 		}
2866:TP2824/TP2802.c **** 		break;
2867:TP2824/TP2802.c **** 
2868:TP2824/TP2802.c **** 	case TP2824C:
ARM GAS  C:\Users\ryanc.HS\AppData\Local\Temp\ccAQ3CYh.s 			page 167


2869:TP2824/TP2802.c **** 		flag_CVBS = 1;
2870:TP2824/TP2802.c **** 		flag_AUDIO = 1;
2871:TP2824/TP2802.c **** 
2872:TP2824/TP2802.c **** 		if (0x04 == revision)
2873:TP2824/TP2802.c **** 		{
2874:TP2824/TP2802.c **** 			// flag_MEGA = 1;
2875:TP2824/TP2802.c **** 			flag_MEGA = 0; // chunyu
2876:TP2824/TP2802.c **** 			ptr_TP2802 = TP2824C_DataSet;
2877:TP2824/TP2802.c **** 			printf("TP2824C test\r\n");
2878:TP2824/TP2802.c **** 		}
2879:TP2824/TP2802.c **** 		break;
2880:TP2824/TP2802.c **** 
2881:TP2824/TP2802.c **** 	default:
2882:TP2824/TP2802.c **** 		printf("unknown ID\r\n");
2883:TP2824/TP2802.c **** 		break;
2884:TP2824/TP2802.c **** 	}
2885:TP2824/TP2802.c **** 
2886:TP2824/TP2802.c **** 	Set_PLL_StartUp();
2887:TP2824/TP2802.c **** 
2888:TP2824/TP2802.c **** 	I2CDeviceSet1(ptr_TP2802);
2889:TP2824/TP2802.c **** 
2890:TP2824/TP2802.c **** 	if (flag_AUDIO)
2891:TP2824/TP2802.c **** 		I2CDeviceSet1(TP2834_Audio_DataSet);
2892:TP2824/TP2802.c **** 		/*
2893:TP2824/TP2802.c **** 			mode[CH1]= R1080P25;	//chunyu
2894:TP2824/TP2802.c **** 			mode[CH2]= R1080P25;
2895:TP2824/TP2802.c **** 			mode[CH3]= R1080P25;
2896:TP2824/TP2802.c **** 			mode[CH4]= R1080P25;
2897:TP2824/TP2802.c **** 
2898:TP2824/TP2802.c **** 
2899:TP2824/TP2802.c **** 			//mode[CH1]= R720P25;
2900:TP2824/TP2802.c **** 			//mode[CH1]= R1080P25;
2901:TP2824/TP2802.c **** 		   Set_VidRes(CH1);
2902:TP2824/TP2802.c **** 		*/
2903:TP2824/TP2802.c **** 		//    Set_VidRes(CH2);
2904:TP2824/TP2802.c **** 		//    Set_VidRes(CH3);
2905:TP2824/TP2802.c **** 		//    Set_VidRes(CH4);
2906:TP2824/TP2802.c **** 		//	mode[CH3]= NoDet;	//chunyu
2907:TP2824/TP2802.c **** 		//	Set_VidRes(CH3);
2908:TP2824/TP2802.c **** 		// msleep(2000);//ryan@20200622
2909:TP2824/TP2802.c **** 
2910:TP2824/TP2802.c **** 		// CurRes=RES1920X1080;
2911:TP2824/TP2802.c **** 		// CurRes=RES1280X720;
2912:TP2824/TP2802.c **** 		/*
2913:TP2824/TP2802.c **** 		if((VideoSave[0] == _TRUE)&&(CURRENT_CH==VS4210_LOOP_MODE1))
2914:TP2824/TP2802.c **** 		{
2915:TP2824/TP2802.c **** 				ch[0]=0;
2916:TP2824/TP2802.c **** 				ch[1]=2;
2917:TP2824/TP2802.c **** 				ch[2]=3;
2918:TP2824/TP2802.c **** 				ch[3]=1;
2919:TP2824/TP2802.c **** 		}
2920:TP2824/TP2802.c **** 		*/
2921:TP2824/TP2802.c **** 
2922:TP2824/TP2802.c **** #if 1
2923:TP2824/TP2802.c **** 
2924:TP2824/TP2802.c **** 	CurRes = RES1920X1080;
2925:TP2824/TP2802.c **** 
ARM GAS  C:\Users\ryanc.HS\AppData\Local\Temp\ccAQ3CYh.s 			page 168


2926:TP2824/TP2802.c **** 	val = CheckTrigger();
2927:TP2824/TP2802.c **** 
2928:TP2824/TP2802.c **** 	if (val)
2929:TP2824/TP2802.c **** 	{
2930:TP2824/TP2802.c **** 		TriggerHandler(CheckTrigger());
2931:TP2824/TP2802.c **** 
2932:TP2824/TP2802.c **** 		// if((VideoSave[(TriggerStatus-1)] ==_TRUE))
2933:TP2824/TP2802.c **** 		//	{
2934:TP2824/TP2802.c **** 		Boot_Trigger_Function((TriggerStatus - 1));
2935:TP2824/TP2802.c **** 		/*
2936:TP2824/TP2802.c **** 		if(Flisheye_CAM[(TriggerStatus-1)]==TRUE)
2937:TP2824/TP2802.c **** 		{
2938:TP2824/TP2802.c **** 		TriggerMode=0;
2939:TP2824/TP2802.c **** 		TriggerHandler(CheckTrigger());
2940:TP2824/TP2802.c **** 		}
2941:TP2824/TP2802.c **** 		*/
2942:TP2824/TP2802.c **** //}
2943:TP2824/TP2802.c **** // if(PowerFlag==ON)///power on
2944:TP2824/TP2802.c **** #if (StartPowerBlackScreen == OFF)
2945:TP2824/TP2802.c **** 		BackLightON();
2946:TP2824/TP2802.c **** #endif
2947:TP2824/TP2802.c **** 	}
2948:TP2824/TP2802.c **** 
2949:TP2824/TP2802.c **** #if 0 ///y
2950:TP2824/TP2802.c **** 
2951:TP2824/TP2802.c ****   for( i = 0; i < CH_PER_CHIP; i++)
2952:TP2824/TP2802.c **** {
2953:TP2824/TP2802.c **** 
2954:TP2824/TP2802.c **** 	  if(INPUT_VIDEO_CHECK(ch[i])||(TriggerStatus==(ch[i]+1)))
2955:TP2824/TP2802.c **** 	  {
2956:TP2824/TP2802.c **** 		  continue;
2957:TP2824/TP2802.c **** 	  }
2958:TP2824/TP2802.c **** 
2959:TP2824/TP2802.c **** 	
2960:TP2824/TP2802.c ****   if( VideoSave[ch[i]] ==_TRUE)
2961:TP2824/TP2802.c ****   {   
2962:TP2824/TP2802.c **** 	Init_TP280x_CHx_RegSet(Tp2802_Boot_Set_std,ch[i]);
2963:TP2824/TP2802.c **** //	Init_TP280x_CHx_RegSet(Tp2802_Boot_Set_output,ch[i]);
2964:TP2824/TP2802.c **** 
2965:TP2824/TP2802.c ****    //  Init_TP280x_CHx_RegSet(Tp2802_Boot_Set_COC,i);	   
2966:TP2824/TP2802.c **** 	  //  count[i]=23;
2967:TP2824/TP2802.c **** 	  }
2968:TP2824/TP2802.c ****   else
2969:TP2824/TP2802.c **** 	  { 	  
2970:TP2824/TP2802.c **** 	  count[ch[i]] = 0;
2971:TP2824/TP2802.c **** 	  state[ch[i]] = VIDEO_UNPLUG;
2972:TP2824/TP2802.c **** 	  std[ch[i]] = TVI;
2973:TP2824/TP2802.c **** 	  mode[ch[i]] = NoDet;///R1080P30/*NoDet*/;
2974:TP2824/TP2802.c **** 	  }
2975:TP2824/TP2802.c **** 				  
2976:TP2824/TP2802.c **** }
2977:TP2824/TP2802.c **** 
2978:TP2824/TP2802.c ****   for( i = 0; i < CH_PER_CHIP; i++)
2979:TP2824/TP2802.c **** {
2980:TP2824/TP2802.c **** 
2981:TP2824/TP2802.c **** 	  if(INPUT_VIDEO_CHECK(ch[i])||(TriggerStatus==(ch[i]+1)))
2982:TP2824/TP2802.c **** 	  {
ARM GAS  C:\Users\ryanc.HS\AppData\Local\Temp\ccAQ3CYh.s 			page 169


2983:TP2824/TP2802.c **** 		  continue;
2984:TP2824/TP2802.c **** 	  }
2985:TP2824/TP2802.c **** 
2986:TP2824/TP2802.c **** 	
2987:TP2824/TP2802.c ****   if( VideoSave[ch[i]] ==_TRUE)
2988:TP2824/TP2802.c ****   {   
2989:TP2824/TP2802.c **** 	//Init_TP280x_CHx_RegSet(Tp2802_Boot_Set_std,ch[i]);
2990:TP2824/TP2802.c **** 	Init_TP280x_CHx_RegSet(Tp2802_Boot_Set_output,ch[i]);
2991:TP2824/TP2802.c **** 
2992:TP2824/TP2802.c ****    //  Init_TP280x_CHx_RegSet(Tp2802_Boot_Set_COC,i);	   
2993:TP2824/TP2802.c **** 	  //  count[i]=23;
2994:TP2824/TP2802.c **** 	  }
2995:TP2824/TP2802.c ****   else
2996:TP2824/TP2802.c **** 	  { 	  
2997:TP2824/TP2802.c **** 	  count[ch[i]] = 0;
2998:TP2824/TP2802.c **** 	  state[ch[i]] = VIDEO_UNPLUG;
2999:TP2824/TP2802.c **** 	  std[ch[i]] = TVI;
3000:TP2824/TP2802.c **** 	  mode[ch[i]] = NoDet;///R1080P30/*NoDet*/;
3001:TP2824/TP2802.c **** 	  }
3002:TP2824/TP2802.c **** 				  
3003:TP2824/TP2802.c **** }
3004:TP2824/TP2802.c **** 
3005:TP2824/TP2802.c **** #else
3006:TP2824/TP2802.c **** 	for (i = 0; i < CH_PER_CHIP; i++)
3007:TP2824/TP2802.c **** 	{
3008:TP2824/TP2802.c **** 
3009:TP2824/TP2802.c **** 		if (INPUT_VIDEO_CHECK(ch[i]) || (TriggerStatus == (ch[i] + 1)))
3010:TP2824/TP2802.c **** 		{
3011:TP2824/TP2802.c **** 			continue;
3012:TP2824/TP2802.c **** 		}
3013:TP2824/TP2802.c **** 
3014:TP2824/TP2802.c **** 		if (VideoSave[ch[i]] == _TRUE)
3015:TP2824/TP2802.c **** 		{
3016:TP2824/TP2802.c **** 			Init_TP280x_CHx_RegSet(Tp2802_Boot_Set_std, ch[i]);
3017:TP2824/TP2802.c **** 			Init_TP280x_CHx_RegSet(Tp2802_Boot_Set_output, ch[i]);
3018:TP2824/TP2802.c **** 
3019:TP2824/TP2802.c **** 			//  Init_TP280x_CHx_RegSet(Tp2802_Boot_Set_COC,i);
3020:TP2824/TP2802.c **** 			//	count[i]=23;
3021:TP2824/TP2802.c **** 		}
3022:TP2824/TP2802.c **** 		else
3023:TP2824/TP2802.c **** 		{
3024:TP2824/TP2802.c **** 			count[ch[i]] = 0;
3025:TP2824/TP2802.c **** 			state[ch[i]] = VIDEO_UNPLUG;
3026:TP2824/TP2802.c **** 			std[ch[i]] = TVI;
3027:TP2824/TP2802.c **** 			mode[ch[i]] = NoDet; /// R1080P30/*NoDet*/;
3028:TP2824/TP2802.c **** 		}
3029:TP2824/TP2802.c **** 	}
3030:TP2824/TP2802.c **** #endif
3031:TP2824/TP2802.c **** 
3032:TP2824/TP2802.c **** #if 0 ///y
3033:TP2824/TP2802.c ****  for( i = 0; i <CH_PER_CHIP; i++)
3034:TP2824/TP2802.c ****   {
3035:TP2824/TP2802.c **** 
3036:TP2824/TP2802.c ****   		if((INPUT_VIDEO_CHECK(ch[i])==0))
3037:TP2824/TP2802.c **** 		{
3038:TP2824/TP2802.c ****         	continue;
3039:TP2824/TP2802.c **** 		}
ARM GAS  C:\Users\ryanc.HS\AppData\Local\Temp\ccAQ3CYh.s 			page 170


3040:TP2824/TP2802.c ****   
3041:TP2824/TP2802.c **** 	if( VideoSave[ch[i]] ==_TRUE)
3042:TP2824/TP2802.c **** 	{
3043:TP2824/TP2802.c **** 	  Init_TP280x_CHx_RegSet(Tp2802_Boot_Set_std,ch[i]);
3044:TP2824/TP2802.c **** 	// Init_TP280x_CHx_RegSet(Tp2802_Boot_Set_output,ch[i]);
3045:TP2824/TP2802.c **** 	 
3046:TP2824/TP2802.c **** 
3047:TP2824/TP2802.c ****   		}
3048:TP2824/TP2802.c **** 	else
3049:TP2824/TP2802.c **** 		{		
3050:TP2824/TP2802.c **** 		count[ch[i]] = 0;
3051:TP2824/TP2802.c **** 		state[ch[i]] = VIDEO_UNPLUG;
3052:TP2824/TP2802.c **** 		std[ch[i]] = TVI;
3053:TP2824/TP2802.c **** 		mode[ch[i]] = NoDet;///R1080P30/*NoDet*/;
3054:TP2824/TP2802.c **** 		}
3055:TP2824/TP2802.c ****   }
3056:TP2824/TP2802.c **** 
3057:TP2824/TP2802.c **** for( i = 0; i <CH_PER_CHIP; i++)
3058:TP2824/TP2802.c ****  {
3059:TP2824/TP2802.c **** 
3060:TP2824/TP2802.c **** 	   if((INPUT_VIDEO_CHECK(ch[i])==0))
3061:TP2824/TP2802.c **** 	   {
3062:TP2824/TP2802.c **** 		   continue;
3063:TP2824/TP2802.c **** 	   }
3064:TP2824/TP2802.c ****  
3065:TP2824/TP2802.c ****    if( VideoSave[ch[i]] ==_TRUE)
3066:TP2824/TP2802.c ****    {
3067:TP2824/TP2802.c **** //	 Init_TP280x_CHx_RegSet(Tp2802_Boot_Set_std,ch[i]);
3068:TP2824/TP2802.c **** 	Init_TP280x_CHx_RegSet(Tp2802_Boot_Set_output,ch[i]);
3069:TP2824/TP2802.c **** 	
3070:TP2824/TP2802.c **** 
3071:TP2824/TP2802.c **** 	   }
3072:TP2824/TP2802.c ****    else
3073:TP2824/TP2802.c **** 	   {	   
3074:TP2824/TP2802.c **** 	   count[ch[i]] = 0;
3075:TP2824/TP2802.c **** 	   state[ch[i]] = VIDEO_UNPLUG;
3076:TP2824/TP2802.c **** 	   std[ch[i]] = TVI;
3077:TP2824/TP2802.c **** 	   mode[ch[i]] = NoDet;///R1080P30/*NoDet*/;
3078:TP2824/TP2802.c **** 	   }
3079:TP2824/TP2802.c ****  }
3080:TP2824/TP2802.c **** 
3081:TP2824/TP2802.c **** #else
3082:TP2824/TP2802.c **** 	for (i = 0; i < CH_PER_CHIP; i++)
3083:TP2824/TP2802.c **** 	{
3084:TP2824/TP2802.c **** 
3085:TP2824/TP2802.c **** 		if ((INPUT_VIDEO_CHECK(ch[i]) == 0))
3086:TP2824/TP2802.c **** 		{
3087:TP2824/TP2802.c **** 			continue;
3088:TP2824/TP2802.c **** 		}
3089:TP2824/TP2802.c **** 
3090:TP2824/TP2802.c **** 		if (VideoSave[ch[i]] == _TRUE)
3091:TP2824/TP2802.c **** 		{
3092:TP2824/TP2802.c **** 			/*
3093:TP2824/TP2802.c **** 			  count[i] =0;
3094:TP2824/TP2802.c **** 			  state[i] =VIDEO_IN;//VIDEO_IN;//VIDEO_IN;//VIDEO_LOCKED;
3095:TP2824/TP2802.c **** 		//	  std[i] = 0x02;///ReadEEP(EEP_TP2824_STD0+(i*2));
3096:TP2824/TP2802.c **** 		//	  mode[i] = NTSC;///ReadEEP(EEP_TP2824_STD0+(i*2)+1);
ARM GAS  C:\Users\ryanc.HS\AppData\Local\Temp\ccAQ3CYh.s 			page 171


3097:TP2824/TP2802.c **** 			  std[i] = ReadEEP(EEP_TP2824_STD0+(i*3));
3098:TP2824/TP2802.c **** 			  mode[i] = ReadEEP(EEP_TP2824_STD0+(i*3)+1);
3099:TP2824/TP2802.c **** 			  */
3100:TP2824/TP2802.c **** 			Init_TP280x_CHx_RegSet(Tp2802_Boot_Set_std, ch[i]);
3101:TP2824/TP2802.c **** 			Init_TP280x_CHx_RegSet(Tp2802_Boot_Set_output, ch[i]);
3102:TP2824/TP2802.c **** 
3103:TP2824/TP2802.c **** 			// Init_TP280x_CHx_RegSet(Tp2802_Boot_Set_COC,i);
3104:TP2824/TP2802.c **** 			//  count[i]=23;
3105:TP2824/TP2802.c **** 			/*
3106:TP2824/TP2802.c **** 				if(std[i]==HDC)
3107:TP2824/TP2802.c **** 					{
3108:TP2824/TP2802.c **** 					Set_HDC(i);
3109:TP2824/TP2802.c **** 					printf("(Set_HDC)");
3110:TP2824/TP2802.c **** 					}
3111:TP2824/TP2802.c **** 				 if(std[i]==HDA)
3112:TP2824/TP2802.c **** 					{
3113:TP2824/TP2802.c **** 					Set_HDA(i);
3114:TP2824/TP2802.c **** 					printf("(Set_HDA)");
3115:TP2824/TP2802.c **** 					}
3116:TP2824/TP2802.c **** 			*/
3117:TP2824/TP2802.c **** 			// SetRegPage(i);
3118:TP2824/TP2802.c **** 			//  Set_VidRes(i);
3119:TP2824/TP2802.c **** 		}
3120:TP2824/TP2802.c **** 		else
3121:TP2824/TP2802.c **** 		{
3122:TP2824/TP2802.c **** 			count[ch[i]] = 0;
3123:TP2824/TP2802.c **** 			state[ch[i]] = VIDEO_UNPLUG;
3124:TP2824/TP2802.c **** 			std[ch[i]] = TVI;
3125:TP2824/TP2802.c **** 			mode[ch[i]] = NoDet; /// R1080P30/*NoDet*/;
3126:TP2824/TP2802.c **** 								 // Set_VidRes(i);
3127:TP2824/TP2802.c **** 								 //  TP28xx_reset_default(chip, i);
3128:TP2824/TP2802.c **** 		}
3129:TP2824/TP2802.c **** 		// newInRes[i] = _OSD_720X480P60 ;
3130:TP2824/TP2802.c **** 	}
3131:TP2824/TP2802.c **** 
3132:TP2824/TP2802.c **** #if (StartPowerBlackScreen == ON)
3133:TP2824/TP2802.c **** 	if (val)
3134:TP2824/TP2802.c **** 	{
3135:TP2824/TP2802.c **** 		user_pwm_setvalue(GetBackLightLevel());
3136:TP2824/TP2802.c **** 		BackLightON();
3137:TP2824/TP2802.c **** 	}
3138:TP2824/TP2802.c **** #endif
3139:TP2824/TP2802.c **** 
3140:TP2824/TP2802.c **** #endif
3141:TP2824/TP2802.c **** 	/*
3142:TP2824/TP2802.c **** 	   for( i = 0; i <CH_PER_CHIP; i++)
3143:TP2824/TP2802.c **** 	  {
3144:TP2824/TP2802.c **** 		if( VideoSave[i] ==_TRUE)
3145:TP2824/TP2802.c **** 		{
3146:TP2824/TP2802.c **** 		Init_TP280x_CHx_RegSet(Tp2802_Boot_Set_output,i);
3147:TP2824/TP2802.c **** 		}
3148:TP2824/TP2802.c **** 
3149:TP2824/TP2802.c **** 	   }
3150:TP2824/TP2802.c **** 	   */
3151:TP2824/TP2802.c **** 
3152:TP2824/TP2802.c **** #else
3153:TP2824/TP2802.c **** 
ARM GAS  C:\Users\ryanc.HS\AppData\Local\Temp\ccAQ3CYh.s 			page 172


3154:TP2824/TP2802.c **** 	mode[CH1] = R1080P25; // chunyu
3155:TP2824/TP2802.c **** 	mode[CH2] = R1080P25;
3156:TP2824/TP2802.c **** 	mode[CH3] = R1080P25;
3157:TP2824/TP2802.c **** 	mode[CH4] = R1080P25;
3158:TP2824/TP2802.c **** 
3159:TP2824/TP2802.c **** 	// mode[CH1]= R720P25;
3160:TP2824/TP2802.c **** 	// mode[CH1]= R1080P25;
3161:TP2824/TP2802.c **** 	Set_VidRes(CH1);
3162:TP2824/TP2802.c **** 
3163:TP2824/TP2802.c **** 	//	  Set_VidRes(CH2);
3164:TP2824/TP2802.c **** 	//	  Set_VidRes(CH3);
3165:TP2824/TP2802.c **** 	//	  Set_VidRes(CH4);
3166:TP2824/TP2802.c **** 
3167:TP2824/TP2802.c **** 	// msleep(2000);//ryan@20200622
3168:TP2824/TP2802.c **** 
3169:TP2824/TP2802.c **** 	CurRes = RES1920X1080;
3170:TP2824/TP2802.c **** 	// CurRes=RES1280X720;
3171:TP2824/TP2802.c **** 
3172:TP2824/TP2802.c **** 	for (i = 0; i < CH_PER_CHIP; i++)
3173:TP2824/TP2802.c **** 	{
3174:TP2824/TP2802.c **** 		count[i] = 0;
3175:TP2824/TP2802.c **** 		state[i] = VIDEO_UNPLUG;
3176:TP2824/TP2802.c **** 		std[i] = TVI;
3177:TP2824/TP2802.c **** 		mode[i] = NoDet;
3178:TP2824/TP2802.c **** 	}
3179:TP2824/TP2802.c **** 
3180:TP2824/TP2802.c **** #endif
3181:TP2824/TP2802.c **** }
3182:TP2824/TP2802.c **** 
3183:TP2824/TP2802.c **** void Init_TP280x_CHx_RegSet(BYTE Action, BYTE index)
3184:TP2824/TP2802.c **** {
 5267              		.loc 1 3184 1 is_stmt 1 view -0
 5268              		.cfi_startproc
 5269              		@ args = 0, pretend = 0, frame = 0
 5270              		@ frame_needed = 0, uses_anonymous_args = 0
 5271              		.loc 1 3184 1 is_stmt 0 view .LVU1518
 5272 0000 F0B5     		push	{r4, r5, r6, r7, lr}
 5273              	.LCFI25:
 5274              		.cfi_def_cfa_offset 20
 5275              		.cfi_offset 4, -20
 5276              		.cfi_offset 5, -16
 5277              		.cfi_offset 6, -12
 5278              		.cfi_offset 7, -8
 5279              		.cfi_offset 14, -4
 5280 0002 83B0     		sub	sp, sp, #12
 5281              	.LCFI26:
 5282              		.cfi_def_cfa_offset 32
 5283 0004 0C46     		mov	r4, r1
3185:TP2824/TP2802.c **** 
3186:TP2824/TP2802.c **** 	tByte /*cvstd,status,*/ i = index, CAMD = 0;
 5284              		.loc 1 3186 2 is_stmt 1 view .LVU1519
 5285              	.LVL524:
3187:TP2824/TP2802.c **** 	tByte gain, tmp, /*fmt,*/ tmpab;
 5286              		.loc 1 3187 2 view .LVU1520
3188:TP2824/TP2802.c **** 
3189:TP2824/TP2802.c **** 	count[i] = 20;
 5287              		.loc 1 3189 2 view .LVU1521
ARM GAS  C:\Users\ryanc.HS\AppData\Local\Temp\ccAQ3CYh.s 			page 173


 5288              		.loc 1 3189 11 is_stmt 0 view .LVU1522
 5289 0006 C04B     		ldr	r3, .L484
 5290 0008 1422     		movs	r2, #20
 5291 000a 5A54     		strb	r2, [r3, r1]
3190:TP2824/TP2802.c **** 	state[i] = VIDEO_LOCKED; // VIDEO_IN;//VIDEO_IN;//VIDEO_LOCKED;
 5292              		.loc 1 3190 2 is_stmt 1 view .LVU1523
 5293              		.loc 1 3190 11 is_stmt 0 view .LVU1524
 5294 000c BF4B     		ldr	r3, .L484+4
 5295 000e 0222     		movs	r2, #2
 5296 0010 5A54     		strb	r2, [r3, r1]
3191:TP2824/TP2802.c **** 	//	  std[i] = 0x02;///ReadEEP(EEP_TP2824_STD0+(i*2));
3192:TP2824/TP2802.c **** 	//	  mode[i] = NTSC;///ReadEEP(EEP_TP2824_STD0+(i*2)+1);
3193:TP2824/TP2802.c **** 
3194:TP2824/TP2802.c **** 	//#if(   _DEBUG_MESSAGE_Source_Change==ON)
3195:TP2824/TP2802.c **** 	if (Action == Tp2802_Boot_Set_std)
 5297              		.loc 1 3195 2 is_stmt 1 view .LVU1525
 5298              		.loc 1 3195 5 is_stmt 0 view .LVU1526
 5299 0012 0546     		mov	r5, r0
 5300 0014 50B3     		cbz	r0, .L439
3196:TP2824/TP2802.c **** 		GraphicsPrint(RED, "(Tp2802_Boot_Set_std)\r\n");
3197:TP2824/TP2802.c **** 	else if (Action == Tp2802_Boot_Set_output)
 5301              		.loc 1 3197 7 is_stmt 1 view .LVU1527
 5302              		.loc 1 3197 10 is_stmt 0 view .LVU1528
 5303 0016 0128     		cmp	r0, #1
 5304 0018 2DD0     		beq	.L440
3198:TP2824/TP2802.c **** 		GraphicsPrint(GREEN, "(Tp2802_Boot_Set_output)\r\n");
3199:TP2824/TP2802.c **** 	else if (Action == Tp2802_Boot_Set_COC)
 5305              		.loc 1 3199 7 is_stmt 1 view .LVU1529
 5306              		.loc 1 3199 10 is_stmt 0 view .LVU1530
 5307 001a 0328     		cmp	r0, #3
 5308 001c 30D0     		beq	.L441
 5309              	.LVL525:
 5310              	.L383:
3200:TP2824/TP2802.c **** 		GraphicsPrint(BLUE, "(Tp2802_Boot_Set_COC)\r\n");
3201:TP2824/TP2802.c **** 		//	#endif
3202:TP2824/TP2802.c **** 
3203:TP2824/TP2802.c **** // if((SelectModeType==SelectCameraD)&&(NowModeState==SelectMode))
3204:TP2824/TP2802.c **** //	CAMD=1;
3205:TP2824/TP2802.c **** // bytSelectCAMRD
3206:TP2824/TP2802.c **** #if 0
3207:TP2824/TP2802.c **** if(i==2)
3208:TP2824/TP2802.c **** {
3209:TP2824/TP2802.c **** 		//if(bytSelectCAMRD==SelectCameraD) 
3210:TP2824/TP2802.c **** 		  std[i] = ReadEEP(EEP_TP2824_STD4);
3211:TP2824/TP2802.c **** 		  mode[i] = ReadEEP(EEP_TP2824_MODE4);
3212:TP2824/TP2802.c **** 		  
3213:TP2824/TP2802.c **** 		  printf("Init_TP280x_CHx_RegSet in ch%02x (Action=%02x)\r\n", (tWord)(i),(tWord)Action);
3214:TP2824/TP2802.c **** }
3215:TP2824/TP2802.c **** else
3216:TP2824/TP2802.c **** {
3217:TP2824/TP2802.c **** 	std[i] = ReadEEP(EEP_TP2824_STD2);
3218:TP2824/TP2802.c **** 	mode[i] = ReadEEP(EEP_TP2824_MODE2);
3219:TP2824/TP2802.c **** 
3220:TP2824/TP2802.c **** }
3221:TP2824/TP2802.c **** 
3222:TP2824/TP2802.c **** #else
3223:TP2824/TP2802.c **** 	if (i == 3)
ARM GAS  C:\Users\ryanc.HS\AppData\Local\Temp\ccAQ3CYh.s 			page 174


 5311              		.loc 1 3223 2 is_stmt 1 view .LVU1531
 5312              		.loc 1 3223 5 is_stmt 0 view .LVU1532
 5313 001e 032C     		cmp	r4, #3
 5314 0020 35D1     		bne	.L385
3224:TP2824/TP2802.c **** 	{
3225:TP2824/TP2802.c **** 		if (bytSelectCAMRD == SelectCameraD)
 5315              		.loc 1 3225 3 is_stmt 1 view .LVU1533
 5316              		.loc 1 3225 22 is_stmt 0 view .LVU1534
 5317 0022 BB4B     		ldr	r3, .L484+8
 5318 0024 1B78     		ldrb	r3, [r3]	@ zero_extendqisi2
 5319              		.loc 1 3225 6 view .LVU1535
 5320 0026 042B     		cmp	r3, #4
 5321 0028 2FD0     		beq	.L437
3186:TP2824/TP2802.c **** 	tByte gain, tmp, /*fmt,*/ tmpab;
 5322              		.loc 1 3186 37 view .LVU1536
 5323 002a 0027     		movs	r7, #0
 5324              	.L386:
 5325              	.LVL526:
3226:TP2824/TP2802.c **** 			CAMD = 1;
3227:TP2824/TP2802.c **** 
3228:TP2824/TP2802.c **** 		std[i] = ReadEEP(EEP_TP2824_STD0 + ((i + CAMD) * 3));
 5326              		.loc 1 3228 3 is_stmt 1 view .LVU1537
 5327              		.loc 1 3228 42 is_stmt 0 view .LVU1538
 5328 002c 3E19     		adds	r6, r7, r4
 5329              		.loc 1 3228 50 view .LVU1539
 5330 002e 06EB4606 		add	r6, r6, r6, lsl #1
 5331              		.loc 1 3228 12 view .LVU1540
 5332 0032 06F1C700 		add	r0, r6, #199
 5333 0036 FFF7FEFF 		bl	ReadEEP
 5334              	.LVL527:
 5335              		.loc 1 3228 10 view .LVU1541
 5336 003a B64B     		ldr	r3, .L484+12
 5337 003c 1855     		strb	r0, [r3, r4]
3229:TP2824/TP2802.c **** 		mode[i] = ReadEEP(EEP_TP2824_STD0 + ((i + CAMD) * 3) + 1);
 5338              		.loc 1 3229 3 is_stmt 1 view .LVU1542
 5339              		.loc 1 3229 13 is_stmt 0 view .LVU1543
 5340 003e 06F1C800 		add	r0, r6, #200
 5341 0042 FFF7FEFF 		bl	ReadEEP
 5342              	.LVL528:
 5343              		.loc 1 3229 11 view .LVU1544
 5344 0046 B44B     		ldr	r3, .L484+16
 5345 0048 1855     		strb	r0, [r3, r4]
3230:TP2824/TP2802.c **** 
3231:TP2824/TP2802.c **** 		printf("Init_TP280x_CHx_RegSet in ch%02x (Action=%02x)\r\n", (tWord)(i + CAMD), (tWord)Action);
 5346              		.loc 1 3231 3 is_stmt 1 view .LVU1545
 5347 004a 2A46     		mov	r2, r5
 5348 004c E119     		adds	r1, r4, r7
 5349 004e B348     		ldr	r0, .L484+20
 5350 0050 FFF7FEFF 		bl	printf
 5351              	.LVL529:
 5352              	.L387:
3232:TP2824/TP2802.c **** 	}
3233:TP2824/TP2802.c **** 	else
3234:TP2824/TP2802.c **** 	{
3235:TP2824/TP2802.c **** 		std[i] = ReadEEP(EEP_TP2824_STD0 + ((i)*3));
3236:TP2824/TP2802.c **** 		mode[i] = ReadEEP(EEP_TP2824_STD0 + ((i)*3) + 1);
3237:TP2824/TP2802.c **** 	}
ARM GAS  C:\Users\ryanc.HS\AppData\Local\Temp\ccAQ3CYh.s 			page 175


3238:TP2824/TP2802.c **** #endif
3239:TP2824/TP2802.c **** 
3240:TP2824/TP2802.c **** 	SetRegPage(i);
 5353              		.loc 1 3240 2 view .LVU1546
 5354 0054 2046     		mov	r0, r4
 5355 0056 FFF7FEFF 		bl	SetRegPage
 5356              	.LVL530:
3241:TP2824/TP2802.c **** 
3242:TP2824/TP2802.c **** 	// Set_VidRes(i);
3243:TP2824/TP2802.c **** 
3244:TP2824/TP2802.c **** 	// msleep(200) ;
3245:TP2824/TP2802.c **** 	switch (Action)
 5357              		.loc 1 3245 2 view .LVU1547
 5358 005a 012D     		cmp	r5, #1
 5359 005c 00F04082 		beq	.L388
 5360 0060 032D     		cmp	r5, #3
 5361 0062 00F0D382 		beq	.L389
 5362 0066 0DB3     		cbz	r5, .L442
 5363              	.L381:
3246:TP2824/TP2802.c **** 	{
3247:TP2824/TP2802.c **** 	case Tp2802_Boot_Set_std:
3248:TP2824/TP2802.c **** 		if (std[i] == TVI)
3249:TP2824/TP2802.c **** 		{
3250:TP2824/TP2802.c **** 			Set_VidRes(i);
3251:TP2824/TP2802.c **** 			// if((mode[i]==NTSC)||(mode[i]==PAL))
3252:TP2824/TP2802.c **** 			// msleep(300) ;
3253:TP2824/TP2802.c **** 			// std[i] = TVI;
3254:TP2824/TP2802.c **** 			CurCH = i;
3255:TP2824/TP2802.c **** 			if ((R720P30V2 == mode[i]) || (R720P25V2 == mode[i]))
3256:TP2824/TP2802.c **** 			{
3257:TP2824/TP2802.c **** 				if (0x00 == (0x08 & tp28xx_byte_read(0x03)))
3258:TP2824/TP2802.c **** 				{
3259:TP2824/TP2802.c **** 					mode[i] &= 0xf7;
3260:TP2824/TP2802.c **** 					Set_VidRes(i);
3261:TP2824/TP2802.c **** 					printf("(TVIA)");
3262:TP2824/TP2802.c **** 					// printf("TVI_Set_VidRes\r\n");
3263:TP2824/TP2802.c **** 				}
3264:TP2824/TP2802.c **** 			}
3265:TP2824/TP2802.c **** 
3266:TP2824/TP2802.c **** 			// tp28xx_byte_write(0xf6  , REG_F6[i]);
3267:TP2824/TP2802.c **** 			tp28xx_byte_write(0xf6 + i, REG_F6[i]); // chunyu
3268:TP2824/TP2802.c **** 
3269:TP2824/TP2802.c **** #if (OUTPUT == Bits16out)
3270:TP2824/TP2802.c **** 			if (TP2826 == chip)
3271:TP2824/TP2802.c **** 			{
3272:TP2824/TP2802.c **** 				tp28xx_byte_write(0xf8, REG_F7[i]);
3273:TP2824/TP2802.c **** 				tp28xx_byte_write(0xfa, REG_FA[i]);
3274:TP2824/TP2802.c **** 				tp28xx_byte_write(0xfb, REG_FA[i]);
3275:TP2824/TP2802.c **** 			}
3276:TP2824/TP2802.c **** 			else
3277:TP2824/TP2802.c **** 			{
3278:TP2824/TP2802.c **** 				tp28xx_byte_write(0xf7, REG_F7[i]);
3279:TP2824/TP2802.c **** 				tp28xx_byte_write(0xfa, REG_FA[i]);
3280:TP2824/TP2802.c **** 				// printf("set output ch%02x \r\n", (tWord)CH[i]);
3281:TP2824/TP2802.c **** 			}
3282:TP2824/TP2802.c **** #else // BT656
3283:TP2824/TP2802.c **** 
ARM GAS  C:\Users\ryanc.HS\AppData\Local\Temp\ccAQ3CYh.s 			page 176


3284:TP2824/TP2802.c **** 			tmp = tp28xx_byte_read(0xf5);
3285:TP2824/TP2802.c **** 			if (tmp &= SYS_MODE[i])
3286:TP2824/TP2802.c **** 			{
3287:TP2824/TP2802.c **** 				printf("//75.25M output\r\n");
3288:TP2824/TP2802.c **** 
3289:TP2824/TP2802.c **** 				if (i == 0)
3290:TP2824/TP2802.c **** 				{
3291:TP2824/TP2802.c **** 					tmpab = tp28xx_byte_read(0xfa);
3292:TP2824/TP2802.c **** 					tmpab = (tmpab & 0xF0) | 0x0A;
3293:TP2824/TP2802.c **** 					tp28xx_byte_write(0xfa, tmpab);
3294:TP2824/TP2802.c **** 				}
3295:TP2824/TP2802.c **** 				else if (i == 1)
3296:TP2824/TP2802.c **** 				{
3297:TP2824/TP2802.c **** 					tmpab = tp28xx_byte_read(0xfa);
3298:TP2824/TP2802.c **** 					tmpab = (tmpab & 0x0F) | 0xA0;
3299:TP2824/TP2802.c **** 					tp28xx_byte_write(0xfa, tmpab);
3300:TP2824/TP2802.c **** 				}
3301:TP2824/TP2802.c **** 
3302:TP2824/TP2802.c **** 				if (i == 2)
3303:TP2824/TP2802.c **** 				{
3304:TP2824/TP2802.c **** 					tmpab = tp28xx_byte_read(0xfb);
3305:TP2824/TP2802.c **** 					tmpab = (tmpab & 0xF0) | 0x0A;
3306:TP2824/TP2802.c **** 					tp28xx_byte_write(0xfb, tmpab);
3307:TP2824/TP2802.c **** 				}
3308:TP2824/TP2802.c **** 				else if (i == 3)
3309:TP2824/TP2802.c **** 				{
3310:TP2824/TP2802.c **** 					tmpab = tp28xx_byte_read(0xfb);
3311:TP2824/TP2802.c **** 					tmpab = (tmpab & 0x0F) | 0xA0;
3312:TP2824/TP2802.c **** 					tp28xx_byte_write(0xfb, tmpab);
3313:TP2824/TP2802.c **** 				}
3314:TP2824/TP2802.c **** 			}
3315:TP2824/TP2802.c **** 			else
3316:TP2824/TP2802.c **** 			{
3317:TP2824/TP2802.c **** 				extern tByte half_scaler;
3318:TP2824/TP2802.c **** 				if (half_scaler) // down scaler output
3319:TP2824/TP2802.c **** 				{
3320:TP2824/TP2802.c **** 					tmp = tp28xx_byte_read(0x35);
3321:TP2824/TP2802.c **** 					tmp |= 0x40;
3322:TP2824/TP2802.c **** 					tp28xx_byte_write(0x35, tmp);
3323:TP2824/TP2802.c **** 
3324:TP2824/TP2802.c **** 					if (i == 0)
3325:TP2824/TP2802.c **** 					{
3326:TP2824/TP2802.c **** 						tmpab = tp28xx_byte_read(0xfa);
3327:TP2824/TP2802.c **** 						tmpab = (tmpab & 0xF0) | 0x0A;
3328:TP2824/TP2802.c **** 						tp28xx_byte_write(0xfa, tmpab);
3329:TP2824/TP2802.c **** 					}
3330:TP2824/TP2802.c **** 					else if (i == 1)
3331:TP2824/TP2802.c **** 					{
3332:TP2824/TP2802.c **** 						tmpab = tp28xx_byte_read(0xfa);
3333:TP2824/TP2802.c **** 						tmpab = (tmpab & 0x0F) | 0xA0;
3334:TP2824/TP2802.c **** 						tp28xx_byte_write(0xfa, tmpab);
3335:TP2824/TP2802.c **** 					}
3336:TP2824/TP2802.c **** 
3337:TP2824/TP2802.c **** 					if (i == 2)
3338:TP2824/TP2802.c **** 					{
3339:TP2824/TP2802.c **** 						tmpab = tp28xx_byte_read(0xfb);
3340:TP2824/TP2802.c **** 						tmpab = (tmpab & 0xF0) | 0x0A;
ARM GAS  C:\Users\ryanc.HS\AppData\Local\Temp\ccAQ3CYh.s 			page 177


3341:TP2824/TP2802.c **** 						tp28xx_byte_write(0xfb, tmpab);
3342:TP2824/TP2802.c **** 					}
3343:TP2824/TP2802.c **** 					else if (i == 3)
3344:TP2824/TP2802.c **** 					{
3345:TP2824/TP2802.c **** 						tmpab = tp28xx_byte_read(0xfb);
3346:TP2824/TP2802.c **** 						tmpab = (tmpab & 0x0F) | 0xA0;
3347:TP2824/TP2802.c **** 						tp28xx_byte_write(0xfb, tmpab);
3348:TP2824/TP2802.c **** 					}
3349:TP2824/TP2802.c **** 				}
3350:TP2824/TP2802.c **** 				else
3351:TP2824/TP2802.c **** 				{
3352:TP2824/TP2802.c **** 					tmp = tp28xx_byte_read(0x35);
3353:TP2824/TP2802.c **** 					tmp &= 0xbf;
3354:TP2824/TP2802.c **** 					tp28xx_byte_write(0x35, tmp);
3355:TP2824/TP2802.c **** 
3356:TP2824/TP2802.c **** 					if (i == 0)
3357:TP2824/TP2802.c **** 					{
3358:TP2824/TP2802.c **** 						tmpab = tp28xx_byte_read(0xfa);
3359:TP2824/TP2802.c **** 						tmpab = (tmpab & 0xF0) | 0x08;
3360:TP2824/TP2802.c **** 						tp28xx_byte_write(0xfa, tmpab);
3361:TP2824/TP2802.c **** 					}
3362:TP2824/TP2802.c **** 					else if (i == 1)
3363:TP2824/TP2802.c **** 					{
3364:TP2824/TP2802.c **** 						tmpab = tp28xx_byte_read(0xfa);
3365:TP2824/TP2802.c **** 						tmpab = (tmpab & 0x0F) | 0x80;
3366:TP2824/TP2802.c **** 						tp28xx_byte_write(0xfa, tmpab);
3367:TP2824/TP2802.c **** 					}
3368:TP2824/TP2802.c **** 
3369:TP2824/TP2802.c **** 					if (i == 2)
3370:TP2824/TP2802.c **** 					{
3371:TP2824/TP2802.c **** 						tmpab = tp28xx_byte_read(0xfb);
3372:TP2824/TP2802.c **** 						tmpab = (tmpab & 0xF0) | 0x08;
3373:TP2824/TP2802.c **** 						tp28xx_byte_write(0xfb, tmpab);
3374:TP2824/TP2802.c **** 					}
3375:TP2824/TP2802.c **** 					else if (i == 3)
3376:TP2824/TP2802.c **** 					{
3377:TP2824/TP2802.c **** 						tmpab = tp28xx_byte_read(0xfb);
3378:TP2824/TP2802.c **** 						tmpab = (tmpab & 0x0F) | 0x80;
3379:TP2824/TP2802.c **** 						tp28xx_byte_write(0xfb, tmpab);
3380:TP2824/TP2802.c **** 					}
3381:TP2824/TP2802.c **** 				}
3382:TP2824/TP2802.c **** 			}
3383:TP2824/TP2802.c **** #endif
3384:TP2824/TP2802.c **** 
3385:TP2824/TP2802.c **** 			if (CurRes != ManVidResRx)
3386:TP2824/TP2802.c **** 			{
3387:TP2824/TP2802.c **** 				CurRes = ManVidResRx;
3388:TP2824/TP2802.c **** 				// CreateMDIN340VideoInstance();  //chunyu
3389:TP2824/TP2802.c **** 				printf("ManVidResRx=0x%02x\r\n", ManVidResRx);
3390:TP2824/TP2802.c **** 			}
3391:TP2824/TP2802.c **** 		}
3392:TP2824/TP2802.c **** 		else if (std[i] == HDC)
3393:TP2824/TP2802.c **** 		{
3394:TP2824/TP2802.c **** 			Set_HDC(i);
3395:TP2824/TP2802.c **** 			printf("(Set_HDC)");
3396:TP2824/TP2802.c **** 		}
3397:TP2824/TP2802.c **** 		else if (std[i] == HDA)
ARM GAS  C:\Users\ryanc.HS\AppData\Local\Temp\ccAQ3CYh.s 			page 178


3398:TP2824/TP2802.c **** 		{
3399:TP2824/TP2802.c **** 			Set_HDA(i);
3400:TP2824/TP2802.c **** 			printf("(Set_HDA)");
3401:TP2824/TP2802.c **** /*
3402:TP2824/TP2802.c **** 							CurCH = i;
3403:TP2824/TP2802.c **** 							if( (R720P30V2 == mode[i]) || (R720P25V2 == mode[i]) )
3404:TP2824/TP2802.c **** 							{
3405:TP2824/TP2802.c **** 								if( 0x00 == (0x08 & tp28xx_byte_read(0x03)))
3406:TP2824/TP2802.c **** 								{
3407:TP2824/TP2802.c **** 									mode[i] &= 0xf7;
3408:TP2824/TP2802.c **** 									Set_VidRes(i);
3409:TP2824/TP2802.c **** 									printf("(TVIA)");
3410:TP2824/TP2802.c **** 									//printf("TVI_Set_VidRes\r\n");
3411:TP2824/TP2802.c **** 								}
3412:TP2824/TP2802.c **** 							}
3413:TP2824/TP2802.c **** 
3414:TP2824/TP2802.c **** 							//tp28xx_byte_write(0xf6  , REG_F6[i]);
3415:TP2824/TP2802.c **** 							tp28xx_byte_write(0xf6 +i  , REG_F6[i]);  //chunyu
3416:TP2824/TP2802.c **** 					*/
3417:TP2824/TP2802.c **** #if (OUTPUT == Bits16out)
3418:TP2824/TP2802.c **** 			if (TP2826 == chip)
3419:TP2824/TP2802.c **** 			{
3420:TP2824/TP2802.c **** 				tp28xx_byte_write(0xf8, REG_F7[i]);
3421:TP2824/TP2802.c **** 				tp28xx_byte_write(0xfa, REG_FA[i]);
3422:TP2824/TP2802.c **** 				tp28xx_byte_write(0xfb, REG_FA[i]);
3423:TP2824/TP2802.c **** 			}
3424:TP2824/TP2802.c **** 			else
3425:TP2824/TP2802.c **** 			{
3426:TP2824/TP2802.c **** 				tp28xx_byte_write(0xf7, REG_F7[i]);
3427:TP2824/TP2802.c **** 				tp28xx_byte_write(0xfa, REG_FA[i]);
3428:TP2824/TP2802.c **** 				// printf("set output ch%02x \r\n", (tWord)CH[i]);
3429:TP2824/TP2802.c **** 			}
3430:TP2824/TP2802.c **** #else // BT656
3431:TP2824/TP2802.c **** 
3432:TP2824/TP2802.c **** 			tmp = tp28xx_byte_read(0xf5);
3433:TP2824/TP2802.c **** 			if (tmp &= SYS_MODE[i])
3434:TP2824/TP2802.c **** 			{
3435:TP2824/TP2802.c **** 				printf("//75.25M output\r\n");
3436:TP2824/TP2802.c **** 
3437:TP2824/TP2802.c **** 				if (i == 0)
3438:TP2824/TP2802.c **** 				{
3439:TP2824/TP2802.c **** 					tmpab = tp28xx_byte_read(0xfa);
3440:TP2824/TP2802.c **** 					tmpab = (tmpab & 0xF0) | 0x0A;
3441:TP2824/TP2802.c **** 					tp28xx_byte_write(0xfa, tmpab);
3442:TP2824/TP2802.c **** 				}
3443:TP2824/TP2802.c **** 				else if (i == 1)
3444:TP2824/TP2802.c **** 				{
3445:TP2824/TP2802.c **** 					tmpab = tp28xx_byte_read(0xfa);
3446:TP2824/TP2802.c **** 					tmpab = (tmpab & 0x0F) | 0xA0;
3447:TP2824/TP2802.c **** 					tp28xx_byte_write(0xfa, tmpab);
3448:TP2824/TP2802.c **** 				}
3449:TP2824/TP2802.c **** 
3450:TP2824/TP2802.c **** 				if (i == 2)
3451:TP2824/TP2802.c **** 				{
3452:TP2824/TP2802.c **** 					tmpab = tp28xx_byte_read(0xfb);
3453:TP2824/TP2802.c **** 					tmpab = (tmpab & 0xF0) | 0x0A;
3454:TP2824/TP2802.c **** 					tp28xx_byte_write(0xfb, tmpab);
ARM GAS  C:\Users\ryanc.HS\AppData\Local\Temp\ccAQ3CYh.s 			page 179


3455:TP2824/TP2802.c **** 				}
3456:TP2824/TP2802.c **** 				else if (i == 3)
3457:TP2824/TP2802.c **** 				{
3458:TP2824/TP2802.c **** 					tmpab = tp28xx_byte_read(0xfb);
3459:TP2824/TP2802.c **** 					tmpab = (tmpab & 0x0F) | 0xA0;
3460:TP2824/TP2802.c **** 					tp28xx_byte_write(0xfb, tmpab);
3461:TP2824/TP2802.c **** 				}
3462:TP2824/TP2802.c **** 			}
3463:TP2824/TP2802.c **** 			else
3464:TP2824/TP2802.c **** 			{
3465:TP2824/TP2802.c **** 				extern tByte half_scaler;
3466:TP2824/TP2802.c **** 				if (half_scaler) // down scaler output
3467:TP2824/TP2802.c **** 				{
3468:TP2824/TP2802.c **** 					tmp = tp28xx_byte_read(0x35);
3469:TP2824/TP2802.c **** 					tmp |= 0x40;
3470:TP2824/TP2802.c **** 					tp28xx_byte_write(0x35, tmp);
3471:TP2824/TP2802.c **** 
3472:TP2824/TP2802.c **** 					if (i == 0)
3473:TP2824/TP2802.c **** 					{
3474:TP2824/TP2802.c **** 						tmpab = tp28xx_byte_read(0xfa);
3475:TP2824/TP2802.c **** 						tmpab = (tmpab & 0xF0) | 0x0A;
3476:TP2824/TP2802.c **** 						tp28xx_byte_write(0xfa, tmpab);
3477:TP2824/TP2802.c **** 					}
3478:TP2824/TP2802.c **** 					else if (i == 1)
3479:TP2824/TP2802.c **** 					{
3480:TP2824/TP2802.c **** 						tmpab = tp28xx_byte_read(0xfa);
3481:TP2824/TP2802.c **** 						tmpab = (tmpab & 0x0F) | 0xA0;
3482:TP2824/TP2802.c **** 						tp28xx_byte_write(0xfa, tmpab);
3483:TP2824/TP2802.c **** 					}
3484:TP2824/TP2802.c **** 
3485:TP2824/TP2802.c **** 					if (i == 2)
3486:TP2824/TP2802.c **** 					{
3487:TP2824/TP2802.c **** 						tmpab = tp28xx_byte_read(0xfb);
3488:TP2824/TP2802.c **** 						tmpab = (tmpab & 0xF0) | 0x0A;
3489:TP2824/TP2802.c **** 						tp28xx_byte_write(0xfb, tmpab);
3490:TP2824/TP2802.c **** 					}
3491:TP2824/TP2802.c **** 					else if (i == 3)
3492:TP2824/TP2802.c **** 					{
3493:TP2824/TP2802.c **** 						tmpab = tp28xx_byte_read(0xfb);
3494:TP2824/TP2802.c **** 						tmpab = (tmpab & 0x0F) | 0xA0;
3495:TP2824/TP2802.c **** 						tp28xx_byte_write(0xfb, tmpab);
3496:TP2824/TP2802.c **** 					}
3497:TP2824/TP2802.c **** 				}
3498:TP2824/TP2802.c **** 				else
3499:TP2824/TP2802.c **** 				{
3500:TP2824/TP2802.c **** 					tmp = tp28xx_byte_read(0x35);
3501:TP2824/TP2802.c **** 					tmp &= 0xbf;
3502:TP2824/TP2802.c **** 					tp28xx_byte_write(0x35, tmp);
3503:TP2824/TP2802.c **** 
3504:TP2824/TP2802.c **** 					if (i == 0)
3505:TP2824/TP2802.c **** 					{
3506:TP2824/TP2802.c **** 						tmpab = tp28xx_byte_read(0xfa);
3507:TP2824/TP2802.c **** 						tmpab = (tmpab & 0xF0) | 0x08;
3508:TP2824/TP2802.c **** 						tp28xx_byte_write(0xfa, tmpab);
3509:TP2824/TP2802.c **** 					}
3510:TP2824/TP2802.c **** 					else if (i == 1)
3511:TP2824/TP2802.c **** 					{
ARM GAS  C:\Users\ryanc.HS\AppData\Local\Temp\ccAQ3CYh.s 			page 180


3512:TP2824/TP2802.c **** 						tmpab = tp28xx_byte_read(0xfa);
3513:TP2824/TP2802.c **** 						tmpab = (tmpab & 0x0F) | 0x80;
3514:TP2824/TP2802.c **** 						tp28xx_byte_write(0xfa, tmpab);
3515:TP2824/TP2802.c **** 					}
3516:TP2824/TP2802.c **** 
3517:TP2824/TP2802.c **** 					if (i == 2)
3518:TP2824/TP2802.c **** 					{
3519:TP2824/TP2802.c **** 						tmpab = tp28xx_byte_read(0xfb);
3520:TP2824/TP2802.c **** 						tmpab = (tmpab & 0xF0) | 0x08;
3521:TP2824/TP2802.c **** 						tp28xx_byte_write(0xfb, tmpab);
3522:TP2824/TP2802.c **** 					}
3523:TP2824/TP2802.c **** 					else if (i == 3)
3524:TP2824/TP2802.c **** 					{
3525:TP2824/TP2802.c **** 						tmpab = tp28xx_byte_read(0xfb);
3526:TP2824/TP2802.c **** 						tmpab = (tmpab & 0x0F) | 0x80;
3527:TP2824/TP2802.c **** 						tp28xx_byte_write(0xfb, tmpab);
3528:TP2824/TP2802.c **** 					}
3529:TP2824/TP2802.c **** 				}
3530:TP2824/TP2802.c **** 			}
3531:TP2824/TP2802.c **** #endif
3532:TP2824/TP2802.c **** 
3533:TP2824/TP2802.c **** 			if (CurRes != ManVidResRx)
3534:TP2824/TP2802.c **** 			{
3535:TP2824/TP2802.c **** 				CurRes = ManVidResRx;
3536:TP2824/TP2802.c **** 				// CreateMDIN340VideoInstance();  //chunyu
3537:TP2824/TP2802.c **** 				printf("ManVidResRx=0x%02x\r\n", ManVidResRx);
3538:TP2824/TP2802.c **** 			}
3539:TP2824/TP2802.c **** 		}
3540:TP2824/TP2802.c **** 		break;
3541:TP2824/TP2802.c **** 	case Tp2802_Boot_Set_output:
3542:TP2824/TP2802.c **** 		//{
3543:TP2824/TP2802.c **** 		gain = ReadGain();
3544:TP2824/TP2802.c **** 		printf("Egain=0x%02x ch%02x,std=%d,mode=0x%02X\r\n", (tWord)gain, (tWord)i, (tWord)std[i], (tWord
3545:TP2824/TP2802.c **** 
3546:TP2824/TP2802.c **** 		if ((mode[i] == R1080P30) || (mode[i] == R1080P25))
3547:TP2824/TP2802.c **** 		{
3548:TP2824/TP2802.c **** 			newInRes[i] = _OSD_1920X1080P;
3549:TP2824/TP2802.c **** 		}
3550:TP2824/TP2802.c **** 		else if ((mode[i] == R720P50) || (mode[i] == R720P60))
3551:TP2824/TP2802.c **** 		{
3552:TP2824/TP2802.c **** 			newInRes[i] = _OSD_1280X720P;
3553:TP2824/TP2802.c **** 		}
3554:TP2824/TP2802.c **** 		else if ((mode[i] == R720P25) || (mode[i] == R720P30))
3555:TP2824/TP2802.c **** 		{
3556:TP2824/TP2802.c **** 			newInRes[i] = _OSD_1280X720P;
3557:TP2824/TP2802.c **** 		}
3558:TP2824/TP2802.c **** 		else if ((mode[i] == R720P30V2) || (mode[i] == R720P25V2))
3559:TP2824/TP2802.c **** 		{
3560:TP2824/TP2802.c **** 			newInRes[i] = _OSD_1280X720P;
3561:TP2824/TP2802.c **** 		}
3562:TP2824/TP2802.c **** 		else if (mode[i] == NTSC)
3563:TP2824/TP2802.c **** 		{
3564:TP2824/TP2802.c **** 			newInRes[i] = _OSD_720X480I60;
3565:TP2824/TP2802.c **** 		}
3566:TP2824/TP2802.c **** 		else if (mode[i] == PAL)
3567:TP2824/TP2802.c **** 		{
3568:TP2824/TP2802.c **** 			newInRes[i] = _OSD_720X576I50;
ARM GAS  C:\Users\ryanc.HS\AppData\Local\Temp\ccAQ3CYh.s 			page 181


3569:TP2824/TP2802.c **** 		}
3570:TP2824/TP2802.c **** 		else
3571:TP2824/TP2802.c **** 		{
3572:TP2824/TP2802.c **** 			newInRes[i] = _OSD_No_Signal;
3573:TP2824/TP2802.c **** 		}
3574:TP2824/TP2802.c **** 
3575:TP2824/TP2802.c **** 		//  if (newInRes[i] != gbVXIS_InputMode[i] )
3576:TP2824/TP2802.c **** 		{
3577:TP2824/TP2802.c **** 			VS4210_SetInModeOutMode(i, newInRes[i], gbVXIS_OuputModeflg);
3578:TP2824/TP2802.c **** 
3579:TP2824/TP2802.c **** 			// save tp2824 data
3580:TP2824/TP2802.c **** 			/*
3581:TP2824/TP2802.c **** 				if( ReadEEP(EEP_TP2824_STD0+(i*3)+2)==0)
3582:TP2824/TP2802.c **** 				{
3583:TP2824/TP2802.c **** 				 WriteEEP(EEP_TP2824_STD0+(i*3),std[i]);
3584:TP2824/TP2802.c **** 				 WriteEEP(EEP_TP2824_STD0+(i*3)+1,mode[i]);
3585:TP2824/TP2802.c **** 					  WriteEEP(EEP_TP2824_STD0+(i*3)+2,1);
3586:TP2824/TP2802.c **** 				  VideoSave[i]=1;
3587:TP2824/TP2802.c **** 
3588:TP2824/TP2802.c **** 				 printf("\r\n(WriteModeDataToEEPROM ch=%02x)",(WORD)i) ;
3589:TP2824/TP2802.c **** 				}
3590:TP2824/TP2802.c **** 				*/
3591:TP2824/TP2802.c **** 		}
3592:TP2824/TP2802.c **** 
3593:TP2824/TP2802.c **** 		if (TVI != std[i])
3594:TP2824/TP2802.c **** 		{
3595:TP2824/TP2802.c **** 			// mask by ryan@20211213 jEQ  tp28xx_byte_write(0x07, 0x80|(gain>>2));  // manu
3596:TP2824/TP2802.c **** 			if (std[i] == HDA)
3597:TP2824/TP2802.c **** 			{
3598:TP2824/TP2802.c **** 				printf("AHD Mode\r\n");
3599:TP2824/TP2802.c **** 			}
3600:TP2824/TP2802.c **** 			else
3601:TP2824/TP2802.c **** 			{
3602:TP2824/TP2802.c **** 				printf("CVI Mode\r\n");
3603:TP2824/TP2802.c **** 			}
3604:TP2824/TP2802.c **** 		}
3605:TP2824/TP2802.c **** 		else // TVI
3606:TP2824/TP2802.c **** 		{
3607:TP2824/TP2802.c **** 			if (TP2833 == chip || TP2834 == chip)
3608:TP2824/TP2802.c **** 			{
3609:TP2824/TP2802.c **** 				if (mode[i] & FLAG_MEGA_MODE)
3610:TP2824/TP2802.c **** 				{
3611:TP2824/TP2802.c **** 					tp28xx_byte_write(0x07, 0x80 | (gain / 3)); // manual mode
3612:TP2824/TP2802.c **** 				}
3613:TP2824/TP2802.c **** 			}
3614:TP2824/TP2802.c **** 			if (mode[i] == NTSC) // 20200408 cvbs night no burst
3615:TP2824/TP2802.c **** 				printf("CVBS NTSC   mode\r\n");
3616:TP2824/TP2802.c **** 			else if (mode[i] == PAL) // 20200408 cvbs night no burst
3617:TP2824/TP2802.c **** 				printf("CVBS PAL   mode\r\n");
3618:TP2824/TP2802.c **** 			else
3619:TP2824/TP2802.c **** 				printf("LINE=%d,TVI Mode\r\n", __LINE__);
3620:TP2824/TP2802.c **** 			// gRxLoopFlg = 0 ;
3621:TP2824/TP2802.c **** 		}
3622:TP2824/TP2802.c **** 		// }
3623:TP2824/TP2802.c **** 		break;
3624:TP2824/TP2802.c **** 	case Tp2802_Boot_Set_COC:
3625:TP2824/TP2802.c **** 		//	{
ARM GAS  C:\Users\ryanc.HS\AppData\Local\Temp\ccAQ3CYh.s 			page 182


3626:TP2824/TP2802.c **** 		if (TVI != std[i])
3627:TP2824/TP2802.c **** 		{
3628:TP2824/TP2802.c **** 			ManualAGC(i);
3629:TP2824/TP2802.c **** 			SetCGain(0x0c);
3630:TP2824/TP2802.c **** 		}
3631:TP2824/TP2802.c **** 		else // TVI
3632:TP2824/TP2802.c **** 		{
3633:TP2824/TP2802.c **** 			if (TP2833 == chip || TP2834 == chip)
3634:TP2824/TP2802.c **** 			{
3635:TP2824/TP2802.c **** 				if (mode[i] & FLAG_MEGA_MODE)
3636:TP2824/TP2802.c **** 				{
3637:TP2824/TP2802.c **** 					SetCGain(0x16);
3638:TP2824/TP2802.c **** 				}
3639:TP2824/TP2802.c **** 			}
3640:TP2824/TP2802.c **** 		}
3641:TP2824/TP2802.c **** 		//}
3642:TP2824/TP2802.c **** 		if (state[i] == VIDEO_LOCKED)
3643:TP2824/TP2802.c **** 		{
3644:TP2824/TP2802.c **** 			tcByte *ptr_TP2824C;
3645:TP2824/TP2802.c **** 			if (TVI == std[i])
3646:TP2824/TP2802.c **** 			{
3647:TP2824/TP2802.c **** 				if (mode[i] == NTSC || mode[i] == PAL)
3648:TP2824/TP2802.c **** 				{
3649:TP2824/TP2802.c **** 					ptr_TP2824C = TP2824C_CVBS_PTZ_DataSet;
3650:TP2824/TP2802.c **** #if (_DEBUG_MESSAGE_TP2824 == ON)
3651:TP2824/TP2802.c **** 					Printf("(2.TP2824C_CVBS_PTZ_DataSet)");
3652:TP2824/TP2802.c **** #endif
3653:TP2824/TP2802.c **** 				}
3654:TP2824/TP2802.c **** 				else
3655:TP2824/TP2802.c **** 				{
3656:TP2824/TP2802.c **** 					ptr_TP2824C = TP2824C_TVI_FHD_PTZ_DataSet;
3657:TP2824/TP2802.c **** #if (_DEBUG_MESSAGE_TP2824 == ON)
3658:TP2824/TP2802.c **** 					Printf("(2.TP2824C_TVI_FHD_PTZ_DataSet)");
3659:TP2824/TP2802.c **** #endif
3660:TP2824/TP2802.c **** 				}
3661:TP2824/TP2802.c **** 
3662:TP2824/TP2802.c **** 				I2CDeviceSet1(ptr_TP2824C);
3663:TP2824/TP2802.c **** 
3664:TP2824/TP2802.c **** 				if (mode[i] == R1080P30 || mode[i] == R1080P25)
3665:TP2824/TP2802.c **** 				{
3666:TP2824/TP2802.c **** 					tp28xx_byte_write(0xc6, 0x19);
3667:TP2824/TP2802.c **** 				}
3668:TP2824/TP2802.c **** 
3669:TP2824/TP2802.c **** 				tp28xx_byte_write(0x40, i);
3670:TP2824/TP2802.c **** 
3671:TP2824/TP2802.c **** 				tp28xx_byte_write(0xbe, 0x80);
3672:TP2824/TP2802.c **** 				tp28xx_byte_read(0xB6);
3673:TP2824/TP2802.c **** 				tp28xx_byte_read(0xB5);
3674:TP2824/TP2802.c **** 				tp28xx_byte_read(0xB4);
3675:TP2824/TP2802.c **** 
3676:TP2824/TP2802.c **** 				tp28xx_byte_write(0xa7, 0x00);
3677:TP2824/TP2802.c **** 				delay(1); // 5ms
3678:TP2824/TP2802.c **** 				tp28xx_byte_write(0xa7, 0x83);
3679:TP2824/TP2802.c **** 
3680:TP2824/TP2802.c **** 				if (mode[i] == R1080P30 || mode[i] == R1080P25)
3681:TP2824/TP2802.c **** 				{
3682:TP2824/TP2802.c **** 					PtzTxChNum = i;
ARM GAS  C:\Users\ryanc.HS\AppData\Local\Temp\ccAQ3CYh.s 			page 183


3683:TP2824/TP2802.c **** 					printf("EQdet %d\r\n", PtzTxChNum);
3684:TP2824/TP2802.c **** 				}
3685:TP2824/TP2802.c **** 			}
3686:TP2824/TP2802.c **** 
3687:TP2824/TP2802.c **** 			if (HDA == std[i])
3688:TP2824/TP2802.c **** 			{
3689:TP2824/TP2802.c **** 				ptr_TP2824C = TP2824C_AHD_FHD_PTZ_DataSet;
3690:TP2824/TP2802.c **** 				I2CDeviceSet1(ptr_TP2824C);
3691:TP2824/TP2802.c **** 
3692:TP2824/TP2802.c **** 				tp28xx_byte_write(0x40, i);
3693:TP2824/TP2802.c **** 				tp28xx_byte_write(0xbe, 0x80);
3694:TP2824/TP2802.c **** 				tp28xx_byte_read(0xB6);
3695:TP2824/TP2802.c **** 				tp28xx_byte_read(0xB5);
3696:TP2824/TP2802.c **** 				tp28xx_byte_read(0xB4);
3697:TP2824/TP2802.c **** 
3698:TP2824/TP2802.c **** 				tp28xx_byte_write(0xa7, 0x24);
3699:TP2824/TP2802.c **** 				delay(1); // 5ms
3700:TP2824/TP2802.c **** 				tp28xx_byte_write(0xa7, 0xA7);
3701:TP2824/TP2802.c **** 			}
3702:TP2824/TP2802.c **** 
3703:TP2824/TP2802.c **** 			if (HDC == std[i])
3704:TP2824/TP2802.c **** 			{
3705:TP2824/TP2802.c **** 				ptr_TP2824C = TP2824C_CVIHD_PTZ_DataSet;
3706:TP2824/TP2802.c **** 				I2CDeviceSet1(ptr_TP2824C);
3707:TP2824/TP2802.c **** 
3708:TP2824/TP2802.c **** 				tp28xx_byte_write(0x40, i);
3709:TP2824/TP2802.c **** 				tp28xx_byte_write(0xbe, 0x80);
3710:TP2824/TP2802.c **** 				tp28xx_byte_read(0xB6);
3711:TP2824/TP2802.c **** 				tp28xx_byte_read(0xB5);
3712:TP2824/TP2802.c **** 				tp28xx_byte_read(0xB4);
3713:TP2824/TP2802.c **** 
3714:TP2824/TP2802.c **** 				tp28xx_byte_read(0xA4);
3715:TP2824/TP2802.c **** 				tp28xx_byte_read(0xA2);
3716:TP2824/TP2802.c **** 				tp28xx_byte_read(0xA3);
3717:TP2824/TP2802.c **** 
3718:TP2824/TP2802.c **** 				tp28xx_byte_write(0xa7, 0x00);
3719:TP2824/TP2802.c **** 				delay(1); // 5ms
3720:TP2824/TP2802.c **** 				tp28xx_byte_write(0xa7, 0x83);
3721:TP2824/TP2802.c **** 			}
3722:TP2824/TP2802.c **** 		}
3723:TP2824/TP2802.c **** 		break;
3724:TP2824/TP2802.c **** 	}
3725:TP2824/TP2802.c **** }
 5364              		.loc 1 3725 1 is_stmt 0 view .LVU1548
 5365 0068 03B0     		add	sp, sp, #12
 5366              	.LCFI27:
 5367              		.cfi_remember_state
 5368              		.cfi_def_cfa_offset 20
 5369              		@ sp needed
 5370 006a F0BD     		pop	{r4, r5, r6, r7, pc}
 5371              	.LVL531:
 5372              	.L439:
 5373              	.LCFI28:
 5374              		.cfi_restore_state
3196:TP2824/TP2802.c **** 	else if (Action == Tp2802_Boot_Set_output)
 5375              		.loc 1 3196 3 is_stmt 1 view .LVU1549
 5376 006c AC49     		ldr	r1, .L484+24
ARM GAS  C:\Users\ryanc.HS\AppData\Local\Temp\ccAQ3CYh.s 			page 184


 5377              	.LVL532:
3196:TP2824/TP2802.c **** 	else if (Action == Tp2802_Boot_Set_output)
 5378              		.loc 1 3196 3 is_stmt 0 view .LVU1550
 5379 006e 0120     		movs	r0, #1
 5380              	.LVL533:
3196:TP2824/TP2802.c **** 	else if (Action == Tp2802_Boot_Set_output)
 5381              		.loc 1 3196 3 view .LVU1551
 5382 0070 FFF7FEFF 		bl	GraphicsPrint
 5383              	.LVL534:
 5384 0074 D3E7     		b	.L383
 5385              	.LVL535:
 5386              	.L440:
3198:TP2824/TP2802.c **** 	else if (Action == Tp2802_Boot_Set_COC)
 5387              		.loc 1 3198 3 is_stmt 1 view .LVU1552
 5388 0076 AB49     		ldr	r1, .L484+28
 5389              	.LVL536:
3198:TP2824/TP2802.c **** 	else if (Action == Tp2802_Boot_Set_COC)
 5390              		.loc 1 3198 3 is_stmt 0 view .LVU1553
 5391 0078 0220     		movs	r0, #2
 5392              	.LVL537:
3198:TP2824/TP2802.c **** 	else if (Action == Tp2802_Boot_Set_COC)
 5393              		.loc 1 3198 3 view .LVU1554
 5394 007a FFF7FEFF 		bl	GraphicsPrint
 5395              	.LVL538:
 5396 007e CEE7     		b	.L383
 5397              	.LVL539:
 5398              	.L441:
3200:TP2824/TP2802.c **** 		//	#endif
 5399              		.loc 1 3200 3 is_stmt 1 view .LVU1555
 5400 0080 A949     		ldr	r1, .L484+32
 5401              	.LVL540:
3200:TP2824/TP2802.c **** 		//	#endif
 5402              		.loc 1 3200 3 is_stmt 0 view .LVU1556
 5403 0082 0420     		movs	r0, #4
 5404              	.LVL541:
3200:TP2824/TP2802.c **** 		//	#endif
 5405              		.loc 1 3200 3 view .LVU1557
 5406 0084 FFF7FEFF 		bl	GraphicsPrint
 5407              	.LVL542:
 5408 0088 C9E7     		b	.L383
 5409              	.L437:
3226:TP2824/TP2802.c **** 
 5410              		.loc 1 3226 9 view .LVU1558
 5411 008a 0127     		movs	r7, #1
 5412 008c CEE7     		b	.L386
 5413              	.L385:
3235:TP2824/TP2802.c **** 		mode[i] = ReadEEP(EEP_TP2824_STD0 + ((i)*3) + 1);
 5414              		.loc 1 3235 3 is_stmt 1 view .LVU1559
3235:TP2824/TP2802.c **** 		mode[i] = ReadEEP(EEP_TP2824_STD0 + ((i)*3) + 1);
 5415              		.loc 1 3235 42 is_stmt 0 view .LVU1560
 5416 008e 04EB4406 		add	r6, r4, r4, lsl #1
3235:TP2824/TP2802.c **** 		mode[i] = ReadEEP(EEP_TP2824_STD0 + ((i)*3) + 1);
 5417              		.loc 1 3235 12 view .LVU1561
 5418 0092 06F1C700 		add	r0, r6, #199
 5419 0096 FFF7FEFF 		bl	ReadEEP
 5420              	.LVL543:
3235:TP2824/TP2802.c **** 		mode[i] = ReadEEP(EEP_TP2824_STD0 + ((i)*3) + 1);
ARM GAS  C:\Users\ryanc.HS\AppData\Local\Temp\ccAQ3CYh.s 			page 185


 5421              		.loc 1 3235 10 view .LVU1562
 5422 009a 9E4B     		ldr	r3, .L484+12
 5423 009c 1855     		strb	r0, [r3, r4]
3236:TP2824/TP2802.c **** 	}
 5424              		.loc 1 3236 3 is_stmt 1 view .LVU1563
3236:TP2824/TP2802.c **** 	}
 5425              		.loc 1 3236 13 is_stmt 0 view .LVU1564
 5426 009e 06F1C800 		add	r0, r6, #200
 5427 00a2 FFF7FEFF 		bl	ReadEEP
 5428              	.LVL544:
3236:TP2824/TP2802.c **** 	}
 5429              		.loc 1 3236 11 view .LVU1565
 5430 00a6 9C4B     		ldr	r3, .L484+16
 5431 00a8 1855     		strb	r0, [r3, r4]
 5432 00aa D3E7     		b	.L387
 5433              	.LVL545:
 5434              	.L442:
3248:TP2824/TP2802.c **** 		{
 5435              		.loc 1 3248 3 is_stmt 1 view .LVU1566
3248:TP2824/TP2802.c **** 		{
 5436              		.loc 1 3248 10 is_stmt 0 view .LVU1567
 5437 00ac 994B     		ldr	r3, .L484+12
 5438 00ae 1B5D     		ldrb	r3, [r3, r4]	@ zero_extendqisi2
3248:TP2824/TP2802.c **** 		{
 5439              		.loc 1 3248 6 view .LVU1568
 5440 00b0 002B     		cmp	r3, #0
 5441 00b2 38D0     		beq	.L443
3392:TP2824/TP2802.c **** 		{
 5442              		.loc 1 3392 8 is_stmt 1 view .LVU1569
3392:TP2824/TP2802.c **** 		{
 5443              		.loc 1 3392 11 is_stmt 0 view .LVU1570
 5444 00b4 022B     		cmp	r3, #2
 5445 00b6 00F05B81 		beq	.L444
3397:TP2824/TP2802.c **** 		{
 5446              		.loc 1 3397 8 is_stmt 1 view .LVU1571
3397:TP2824/TP2802.c **** 		{
 5447              		.loc 1 3397 11 is_stmt 0 view .LVU1572
 5448 00ba 012B     		cmp	r3, #1
 5449 00bc D4D1     		bne	.L381
3399:TP2824/TP2802.c **** 			printf("(Set_HDA)");
 5450              		.loc 1 3399 4 is_stmt 1 view .LVU1573
 5451 00be 2046     		mov	r0, r4
 5452 00c0 FFF7FEFF 		bl	Set_HDA
 5453              	.LVL546:
3400:TP2824/TP2802.c **** /*
 5454              		.loc 1 3400 4 view .LVU1574
 5455 00c4 9948     		ldr	r0, .L484+36
 5456 00c6 FFF7FEFF 		bl	printf
 5457              	.LVL547:
3432:TP2824/TP2802.c **** 			if (tmp &= SYS_MODE[i])
 5458              		.loc 1 3432 4 view .LVU1575
3432:TP2824/TP2802.c **** 			if (tmp &= SYS_MODE[i])
 5459              		.loc 1 3432 10 is_stmt 0 view .LVU1576
 5460 00ca F520     		movs	r0, #245
 5461 00cc FFF7FEFF 		bl	tp28xx_byte_read
 5462              	.LVL548:
3433:TP2824/TP2802.c **** 			{
ARM GAS  C:\Users\ryanc.HS\AppData\Local\Temp\ccAQ3CYh.s 			page 186


 5463              		.loc 1 3433 4 is_stmt 1 view .LVU1577
3433:TP2824/TP2802.c **** 			{
 5464              		.loc 1 3433 23 is_stmt 0 view .LVU1578
 5465 00d0 974B     		ldr	r3, .L484+40
 5466 00d2 1B5D     		ldrb	r3, [r3, r4]	@ zero_extendqisi2
 5467              	.LVL549:
3433:TP2824/TP2802.c **** 			{
 5468              		.loc 1 3433 7 view .LVU1579
 5469 00d4 0342     		tst	r3, r0
 5470 00d6 40F05281 		bne	.L445
 5471              	.LBB6:
3465:TP2824/TP2802.c **** 				if (half_scaler) // down scaler output
 5472              		.loc 1 3465 5 is_stmt 1 view .LVU1580
3466:TP2824/TP2802.c **** 				{
 5473              		.loc 1 3466 5 view .LVU1581
3466:TP2824/TP2802.c **** 				{
 5474              		.loc 1 3466 9 is_stmt 0 view .LVU1582
 5475 00da 964B     		ldr	r3, .L484+44
 5476              	.LVL550:
3466:TP2824/TP2802.c **** 				{
 5477              		.loc 1 3466 9 view .LVU1583
 5478 00dc 1B78     		ldrb	r3, [r3]	@ zero_extendqisi2
3466:TP2824/TP2802.c **** 				{
 5479              		.loc 1 3466 8 view .LVU1584
 5480 00de 002B     		cmp	r3, #0
 5481 00e0 00F0BC81 		beq	.L411
3468:TP2824/TP2802.c **** 					tmp |= 0x40;
 5482              		.loc 1 3468 6 is_stmt 1 view .LVU1585
3468:TP2824/TP2802.c **** 					tmp |= 0x40;
 5483              		.loc 1 3468 12 is_stmt 0 view .LVU1586
 5484 00e4 3520     		movs	r0, #53
 5485              	.LVL551:
3468:TP2824/TP2802.c **** 					tmp |= 0x40;
 5486              		.loc 1 3468 12 view .LVU1587
 5487 00e6 FFF7FEFF 		bl	tp28xx_byte_read
 5488              	.LVL552:
3469:TP2824/TP2802.c **** 					tp28xx_byte_write(0x35, tmp);
 5489              		.loc 1 3469 6 is_stmt 1 view .LVU1588
3469:TP2824/TP2802.c **** 					tp28xx_byte_write(0x35, tmp);
 5490              		.loc 1 3469 10 is_stmt 0 view .LVU1589
 5491 00ea 40F04001 		orr	r1, r0, #64
 5492              	.LVL553:
3470:TP2824/TP2802.c **** 
 5493              		.loc 1 3470 6 is_stmt 1 view .LVU1590
 5494 00ee C9B2     		uxtb	r1, r1
3470:TP2824/TP2802.c **** 
 5495              		.loc 1 3470 6 is_stmt 0 view .LVU1591
 5496 00f0 3520     		movs	r0, #53
 5497 00f2 FFF7FEFF 		bl	tp28xx_byte_write
 5498              	.LVL554:
3472:TP2824/TP2802.c **** 					{
 5499              		.loc 1 3472 6 is_stmt 1 view .LVU1592
3472:TP2824/TP2802.c **** 					{
 5500              		.loc 1 3472 9 is_stmt 0 view .LVU1593
 5501 00f6 002C     		cmp	r4, #0
 5502 00f8 00F07E81 		beq	.L446
3478:TP2824/TP2802.c **** 					{
ARM GAS  C:\Users\ryanc.HS\AppData\Local\Temp\ccAQ3CYh.s 			page 187


 5503              		.loc 1 3478 11 is_stmt 1 view .LVU1594
3478:TP2824/TP2802.c **** 					{
 5504              		.loc 1 3478 14 is_stmt 0 view .LVU1595
 5505 00fc 012C     		cmp	r4, #1
 5506 00fe 00F08981 		beq	.L447
 5507              	.L413:
3485:TP2824/TP2802.c **** 					{
 5508              		.loc 1 3485 6 is_stmt 1 view .LVU1596
3485:TP2824/TP2802.c **** 					{
 5509              		.loc 1 3485 9 is_stmt 0 view .LVU1597
 5510 0102 022C     		cmp	r4, #2
 5511 0104 00F09181 		beq	.L448
3491:TP2824/TP2802.c **** 					{
 5512              		.loc 1 3491 11 is_stmt 1 view .LVU1598
3491:TP2824/TP2802.c **** 					{
 5513              		.loc 1 3491 14 is_stmt 0 view .LVU1599
 5514 0108 032C     		cmp	r4, #3
 5515 010a 00F09C81 		beq	.L449
 5516              	.L410:
3491:TP2824/TP2802.c **** 					{
 5517              		.loc 1 3491 14 view .LVU1600
 5518              	.LBE6:
3533:TP2824/TP2802.c **** 			{
 5519              		.loc 1 3533 4 is_stmt 1 view .LVU1601
3533:TP2824/TP2802.c **** 			{
 5520              		.loc 1 3533 15 is_stmt 0 view .LVU1602
 5521 010e 8A4B     		ldr	r3, .L484+48
 5522 0110 1B78     		ldrb	r3, [r3]	@ zero_extendqisi2
 5523 0112 8A4A     		ldr	r2, .L484+52
 5524 0114 1178     		ldrb	r1, [r2]	@ zero_extendqisi2
3533:TP2824/TP2802.c **** 			{
 5525              		.loc 1 3533 7 view .LVU1603
 5526 0116 8B42     		cmp	r3, r1
 5527 0118 A6D0     		beq	.L381
3535:TP2824/TP2802.c **** 				// CreateMDIN340VideoInstance();  //chunyu
 5528              		.loc 1 3535 5 is_stmt 1 view .LVU1604
3535:TP2824/TP2802.c **** 				// CreateMDIN340VideoInstance();  //chunyu
 5529              		.loc 1 3535 12 is_stmt 0 view .LVU1605
 5530 011a 874B     		ldr	r3, .L484+48
 5531 011c 1970     		strb	r1, [r3]
3537:TP2824/TP2802.c **** 			}
 5532              		.loc 1 3537 5 is_stmt 1 view .LVU1606
 5533 011e 8848     		ldr	r0, .L484+56
 5534 0120 FFF7FEFF 		bl	printf
 5535              	.LVL555:
 5536 0124 A0E7     		b	.L381
 5537              	.L443:
3250:TP2824/TP2802.c **** 			// if((mode[i]==NTSC)||(mode[i]==PAL))
 5538              		.loc 1 3250 4 view .LVU1607
 5539 0126 2046     		mov	r0, r4
 5540 0128 FFF7FEFF 		bl	Set_VidRes
 5541              	.LVL556:
3254:TP2824/TP2802.c **** 			if ((R720P30V2 == mode[i]) || (R720P25V2 == mode[i]))
 5542              		.loc 1 3254 4 view .LVU1608
3254:TP2824/TP2802.c **** 			if ((R720P30V2 == mode[i]) || (R720P25V2 == mode[i]))
 5543              		.loc 1 3254 10 is_stmt 0 view .LVU1609
 5544 012c 854B     		ldr	r3, .L484+60
ARM GAS  C:\Users\ryanc.HS\AppData\Local\Temp\ccAQ3CYh.s 			page 188


 5545 012e 1C70     		strb	r4, [r3]
3255:TP2824/TP2802.c **** 			{
 5546              		.loc 1 3255 4 is_stmt 1 view .LVU1610
3255:TP2824/TP2802.c **** 			{
 5547              		.loc 1 3255 26 is_stmt 0 view .LVU1611
 5548 0130 794B     		ldr	r3, .L484+16
 5549 0132 1B5D     		ldrb	r3, [r3, r4]	@ zero_extendqisi2
3255:TP2824/TP2802.c **** 			{
 5550              		.loc 1 3255 31 view .LVU1612
 5551 0134 0C3B     		subs	r3, r3, #12
 5552 0136 DBB2     		uxtb	r3, r3
3255:TP2824/TP2802.c **** 			{
 5553              		.loc 1 3255 7 view .LVU1613
 5554 0138 012B     		cmp	r3, #1
 5555 013a 31D9     		bls	.L450
 5556              	.L392:
3267:TP2824/TP2802.c **** 
 5557              		.loc 1 3267 4 is_stmt 1 view .LVU1614
 5558 013c A4F10A00 		sub	r0, r4, #10
 5559 0140 814B     		ldr	r3, .L484+64
 5560 0142 195D     		ldrb	r1, [r3, r4]	@ zero_extendqisi2
 5561 0144 C0B2     		uxtb	r0, r0
 5562 0146 FFF7FEFF 		bl	tp28xx_byte_write
 5563              	.LVL557:
3284:TP2824/TP2802.c **** 			if (tmp &= SYS_MODE[i])
 5564              		.loc 1 3284 4 view .LVU1615
3284:TP2824/TP2802.c **** 			if (tmp &= SYS_MODE[i])
 5565              		.loc 1 3284 10 is_stmt 0 view .LVU1616
 5566 014a F520     		movs	r0, #245
 5567 014c FFF7FEFF 		bl	tp28xx_byte_read
 5568              	.LVL558:
3285:TP2824/TP2802.c **** 			{
 5569              		.loc 1 3285 4 is_stmt 1 view .LVU1617
3285:TP2824/TP2802.c **** 			{
 5570              		.loc 1 3285 23 is_stmt 0 view .LVU1618
 5571 0150 774B     		ldr	r3, .L484+40
 5572 0152 1B5D     		ldrb	r3, [r3, r4]	@ zero_extendqisi2
 5573              	.LVL559:
3285:TP2824/TP2802.c **** 			{
 5574              		.loc 1 3285 7 view .LVU1619
 5575 0154 0342     		tst	r3, r0
 5576 0156 35D1     		bne	.L451
 5577              	.LBB7:
3317:TP2824/TP2802.c **** 				if (half_scaler) // down scaler output
 5578              		.loc 1 3317 5 is_stmt 1 view .LVU1620
3318:TP2824/TP2802.c **** 				{
 5579              		.loc 1 3318 5 view .LVU1621
3318:TP2824/TP2802.c **** 				{
 5580              		.loc 1 3318 9 is_stmt 0 view .LVU1622
 5581 0158 764B     		ldr	r3, .L484+44
 5582              	.LVL560:
3318:TP2824/TP2802.c **** 				{
 5583              		.loc 1 3318 9 view .LVU1623
 5584 015a 1B78     		ldrb	r3, [r3]	@ zero_extendqisi2
3318:TP2824/TP2802.c **** 				{
 5585              		.loc 1 3318 8 view .LVU1624
 5586 015c 002B     		cmp	r3, #0
ARM GAS  C:\Users\ryanc.HS\AppData\Local\Temp\ccAQ3CYh.s 			page 189


 5587 015e 00F09F80 		beq	.L398
3320:TP2824/TP2802.c **** 					tmp |= 0x40;
 5588              		.loc 1 3320 6 is_stmt 1 view .LVU1625
3320:TP2824/TP2802.c **** 					tmp |= 0x40;
 5589              		.loc 1 3320 12 is_stmt 0 view .LVU1626
 5590 0162 3520     		movs	r0, #53
 5591              	.LVL561:
3320:TP2824/TP2802.c **** 					tmp |= 0x40;
 5592              		.loc 1 3320 12 view .LVU1627
 5593 0164 FFF7FEFF 		bl	tp28xx_byte_read
 5594              	.LVL562:
3321:TP2824/TP2802.c **** 					tp28xx_byte_write(0x35, tmp);
 5595              		.loc 1 3321 6 is_stmt 1 view .LVU1628
3321:TP2824/TP2802.c **** 					tp28xx_byte_write(0x35, tmp);
 5596              		.loc 1 3321 10 is_stmt 0 view .LVU1629
 5597 0168 40F04001 		orr	r1, r0, #64
 5598              	.LVL563:
3322:TP2824/TP2802.c **** 
 5599              		.loc 1 3322 6 is_stmt 1 view .LVU1630
 5600 016c C9B2     		uxtb	r1, r1
3322:TP2824/TP2802.c **** 
 5601              		.loc 1 3322 6 is_stmt 0 view .LVU1631
 5602 016e 3520     		movs	r0, #53
 5603 0170 FFF7FEFF 		bl	tp28xx_byte_write
 5604              	.LVL564:
3324:TP2824/TP2802.c **** 					{
 5605              		.loc 1 3324 6 is_stmt 1 view .LVU1632
3324:TP2824/TP2802.c **** 					{
 5606              		.loc 1 3324 9 is_stmt 0 view .LVU1633
 5607 0174 002C     		cmp	r4, #0
 5608 0176 61D0     		beq	.L452
3330:TP2824/TP2802.c **** 					{
 5609              		.loc 1 3330 11 is_stmt 1 view .LVU1634
3330:TP2824/TP2802.c **** 					{
 5610              		.loc 1 3330 14 is_stmt 0 view .LVU1635
 5611 0178 012C     		cmp	r4, #1
 5612 017a 6DD0     		beq	.L453
 5613              	.L400:
3337:TP2824/TP2802.c **** 					{
 5614              		.loc 1 3337 6 is_stmt 1 view .LVU1636
3337:TP2824/TP2802.c **** 					{
 5615              		.loc 1 3337 9 is_stmt 0 view .LVU1637
 5616 017c 022C     		cmp	r4, #2
 5617 017e 76D0     		beq	.L454
3343:TP2824/TP2802.c **** 					{
 5618              		.loc 1 3343 11 is_stmt 1 view .LVU1638
3343:TP2824/TP2802.c **** 					{
 5619              		.loc 1 3343 14 is_stmt 0 view .LVU1639
 5620 0180 032C     		cmp	r4, #3
 5621 0182 00F08280 		beq	.L455
 5622              	.L397:
3343:TP2824/TP2802.c **** 					{
 5623              		.loc 1 3343 14 view .LVU1640
 5624              	.LBE7:
3385:TP2824/TP2802.c **** 			{
 5625              		.loc 1 3385 4 is_stmt 1 view .LVU1641
3385:TP2824/TP2802.c **** 			{
ARM GAS  C:\Users\ryanc.HS\AppData\Local\Temp\ccAQ3CYh.s 			page 190


 5626              		.loc 1 3385 15 is_stmt 0 view .LVU1642
 5627 0186 6C4B     		ldr	r3, .L484+48
 5628 0188 1B78     		ldrb	r3, [r3]	@ zero_extendqisi2
 5629 018a 6C4A     		ldr	r2, .L484+52
 5630 018c 1178     		ldrb	r1, [r2]	@ zero_extendqisi2
3385:TP2824/TP2802.c **** 			{
 5631              		.loc 1 3385 7 view .LVU1643
 5632 018e 8B42     		cmp	r3, r1
 5633 0190 3FF46AAF 		beq	.L381
3387:TP2824/TP2802.c **** 				// CreateMDIN340VideoInstance();  //chunyu
 5634              		.loc 1 3387 5 is_stmt 1 view .LVU1644
3387:TP2824/TP2802.c **** 				// CreateMDIN340VideoInstance();  //chunyu
 5635              		.loc 1 3387 12 is_stmt 0 view .LVU1645
 5636 0194 684B     		ldr	r3, .L484+48
 5637 0196 1970     		strb	r1, [r3]
3389:TP2824/TP2802.c **** 			}
 5638              		.loc 1 3389 5 is_stmt 1 view .LVU1646
 5639 0198 6948     		ldr	r0, .L484+56
 5640 019a FFF7FEFF 		bl	printf
 5641              	.LVL565:
 5642 019e 63E7     		b	.L381
 5643              	.L450:
3257:TP2824/TP2802.c **** 				{
 5644              		.loc 1 3257 5 view .LVU1647
3257:TP2824/TP2802.c **** 				{
 5645              		.loc 1 3257 25 is_stmt 0 view .LVU1648
 5646 01a0 0320     		movs	r0, #3
 5647 01a2 FFF7FEFF 		bl	tp28xx_byte_read
 5648              	.LVL566:
3257:TP2824/TP2802.c **** 				{
 5649              		.loc 1 3257 8 view .LVU1649
 5650 01a6 10F0080F 		tst	r0, #8
 5651 01aa C7D1     		bne	.L392
3259:TP2824/TP2802.c **** 					Set_VidRes(i);
 5652              		.loc 1 3259 6 is_stmt 1 view .LVU1650
3259:TP2824/TP2802.c **** 					Set_VidRes(i);
 5653              		.loc 1 3259 14 is_stmt 0 view .LVU1651
 5654 01ac 5A4A     		ldr	r2, .L484+16
 5655 01ae 135D     		ldrb	r3, [r2, r4]	@ zero_extendqisi2
 5656 01b0 23F00803 		bic	r3, r3, #8
 5657 01b4 1355     		strb	r3, [r2, r4]
3260:TP2824/TP2802.c **** 					printf("(TVIA)");
 5658              		.loc 1 3260 6 is_stmt 1 view .LVU1652
 5659 01b6 2046     		mov	r0, r4
 5660 01b8 FFF7FEFF 		bl	Set_VidRes
 5661              	.LVL567:
3261:TP2824/TP2802.c **** 					// printf("TVI_Set_VidRes\r\n");
 5662              		.loc 1 3261 6 view .LVU1653
 5663 01bc 6348     		ldr	r0, .L484+68
 5664 01be FFF7FEFF 		bl	printf
 5665              	.LVL568:
 5666 01c2 BBE7     		b	.L392
 5667              	.LVL569:
 5668              	.L451:
3287:TP2824/TP2802.c **** 
 5669              		.loc 1 3287 5 view .LVU1654
 5670 01c4 6248     		ldr	r0, .L484+72
ARM GAS  C:\Users\ryanc.HS\AppData\Local\Temp\ccAQ3CYh.s 			page 191


 5671              	.LVL570:
3287:TP2824/TP2802.c **** 
 5672              		.loc 1 3287 5 is_stmt 0 view .LVU1655
 5673 01c6 FFF7FEFF 		bl	puts
 5674              	.LVL571:
3289:TP2824/TP2802.c **** 				{
 5675              		.loc 1 3289 5 is_stmt 1 view .LVU1656
3289:TP2824/TP2802.c **** 				{
 5676              		.loc 1 3289 8 is_stmt 0 view .LVU1657
 5677 01ca 84B1     		cbz	r4, .L456
3295:TP2824/TP2802.c **** 				{
 5678              		.loc 1 3295 10 is_stmt 1 view .LVU1658
3295:TP2824/TP2802.c **** 				{
 5679              		.loc 1 3295 13 is_stmt 0 view .LVU1659
 5680 01cc 012C     		cmp	r4, #1
 5681 01ce 1CD0     		beq	.L457
 5682              	.L395:
3302:TP2824/TP2802.c **** 				{
 5683              		.loc 1 3302 5 is_stmt 1 view .LVU1660
3302:TP2824/TP2802.c **** 				{
 5684              		.loc 1 3302 8 is_stmt 0 view .LVU1661
 5685 01d0 022C     		cmp	r4, #2
 5686 01d2 25D0     		beq	.L458
3308:TP2824/TP2802.c **** 				{
 5687              		.loc 1 3308 10 is_stmt 1 view .LVU1662
3308:TP2824/TP2802.c **** 				{
 5688              		.loc 1 3308 13 is_stmt 0 view .LVU1663
 5689 01d4 032C     		cmp	r4, #3
 5690 01d6 D6D1     		bne	.L397
3310:TP2824/TP2802.c **** 					tmpab = (tmpab & 0x0F) | 0xA0;
 5691              		.loc 1 3310 6 is_stmt 1 view .LVU1664
3310:TP2824/TP2802.c **** 					tmpab = (tmpab & 0x0F) | 0xA0;
 5692              		.loc 1 3310 14 is_stmt 0 view .LVU1665
 5693 01d8 FB20     		movs	r0, #251
 5694 01da FFF7FEFF 		bl	tp28xx_byte_read
 5695              	.LVL572:
3311:TP2824/TP2802.c **** 					tp28xx_byte_write(0xfb, tmpab);
 5696              		.loc 1 3311 6 is_stmt 1 view .LVU1666
3311:TP2824/TP2802.c **** 					tp28xx_byte_write(0xfb, tmpab);
 5697              		.loc 1 3311 21 is_stmt 0 view .LVU1667
 5698 01de 00F00F01 		and	r1, r0, #15
 5699              	.LVL573:
3312:TP2824/TP2802.c **** 				}
 5700              		.loc 1 3312 6 is_stmt 1 view .LVU1668
 5701 01e2 41F0A001 		orr	r1, r1, #160
 5702              	.LVL574:
3312:TP2824/TP2802.c **** 				}
 5703              		.loc 1 3312 6 is_stmt 0 view .LVU1669
 5704 01e6 FB20     		movs	r0, #251
 5705              	.LVL575:
3312:TP2824/TP2802.c **** 				}
 5706              		.loc 1 3312 6 view .LVU1670
 5707 01e8 FFF7FEFF 		bl	tp28xx_byte_write
 5708              	.LVL576:
 5709 01ec CBE7     		b	.L397
 5710              	.L456:
3291:TP2824/TP2802.c **** 					tmpab = (tmpab & 0xF0) | 0x0A;
ARM GAS  C:\Users\ryanc.HS\AppData\Local\Temp\ccAQ3CYh.s 			page 192


 5711              		.loc 1 3291 6 is_stmt 1 view .LVU1671
3291:TP2824/TP2802.c **** 					tmpab = (tmpab & 0xF0) | 0x0A;
 5712              		.loc 1 3291 14 is_stmt 0 view .LVU1672
 5713 01ee FA20     		movs	r0, #250
 5714 01f0 FFF7FEFF 		bl	tp28xx_byte_read
 5715              	.LVL577:
3292:TP2824/TP2802.c **** 					tp28xx_byte_write(0xfa, tmpab);
 5716              		.loc 1 3292 6 is_stmt 1 view .LVU1673
3292:TP2824/TP2802.c **** 					tp28xx_byte_write(0xfa, tmpab);
 5717              		.loc 1 3292 21 is_stmt 0 view .LVU1674
 5718 01f4 20F00F01 		bic	r1, r0, #15
 5719 01f8 49B2     		sxtb	r1, r1
3292:TP2824/TP2802.c **** 					tp28xx_byte_write(0xfa, tmpab);
 5720              		.loc 1 3292 29 view .LVU1675
 5721 01fa 41F00A01 		orr	r1, r1, #10
 5722              	.LVL578:
3293:TP2824/TP2802.c **** 				}
 5723              		.loc 1 3293 6 is_stmt 1 view .LVU1676
 5724 01fe 01F0FA01 		and	r1, r1, #250
 5725              	.LVL579:
3293:TP2824/TP2802.c **** 				}
 5726              		.loc 1 3293 6 is_stmt 0 view .LVU1677
 5727 0202 FA20     		movs	r0, #250
 5728              	.LVL580:
3293:TP2824/TP2802.c **** 				}
 5729              		.loc 1 3293 6 view .LVU1678
 5730 0204 FFF7FEFF 		bl	tp28xx_byte_write
 5731              	.LVL581:
 5732 0208 E2E7     		b	.L395
 5733              	.L457:
3297:TP2824/TP2802.c **** 					tmpab = (tmpab & 0x0F) | 0xA0;
 5734              		.loc 1 3297 6 is_stmt 1 view .LVU1679
3297:TP2824/TP2802.c **** 					tmpab = (tmpab & 0x0F) | 0xA0;
 5735              		.loc 1 3297 14 is_stmt 0 view .LVU1680
 5736 020a FA20     		movs	r0, #250
 5737 020c FFF7FEFF 		bl	tp28xx_byte_read
 5738              	.LVL582:
3298:TP2824/TP2802.c **** 					tp28xx_byte_write(0xfa, tmpab);
 5739              		.loc 1 3298 6 is_stmt 1 view .LVU1681
3298:TP2824/TP2802.c **** 					tp28xx_byte_write(0xfa, tmpab);
 5740              		.loc 1 3298 21 is_stmt 0 view .LVU1682
 5741 0210 00F00F01 		and	r1, r0, #15
 5742              	.LVL583:
3299:TP2824/TP2802.c **** 				}
 5743              		.loc 1 3299 6 is_stmt 1 view .LVU1683
 5744 0214 41F0A001 		orr	r1, r1, #160
 5745              	.LVL584:
3299:TP2824/TP2802.c **** 				}
 5746              		.loc 1 3299 6 is_stmt 0 view .LVU1684
 5747 0218 FA20     		movs	r0, #250
 5748              	.LVL585:
3299:TP2824/TP2802.c **** 				}
 5749              		.loc 1 3299 6 view .LVU1685
 5750 021a FFF7FEFF 		bl	tp28xx_byte_write
 5751              	.LVL586:
 5752 021e D7E7     		b	.L395
 5753              	.L458:
ARM GAS  C:\Users\ryanc.HS\AppData\Local\Temp\ccAQ3CYh.s 			page 193


3304:TP2824/TP2802.c **** 					tmpab = (tmpab & 0xF0) | 0x0A;
 5754              		.loc 1 3304 6 is_stmt 1 view .LVU1686
3304:TP2824/TP2802.c **** 					tmpab = (tmpab & 0xF0) | 0x0A;
 5755              		.loc 1 3304 14 is_stmt 0 view .LVU1687
 5756 0220 FB20     		movs	r0, #251
 5757 0222 FFF7FEFF 		bl	tp28xx_byte_read
 5758              	.LVL587:
3305:TP2824/TP2802.c **** 					tp28xx_byte_write(0xfb, tmpab);
 5759              		.loc 1 3305 6 is_stmt 1 view .LVU1688
3305:TP2824/TP2802.c **** 					tp28xx_byte_write(0xfb, tmpab);
 5760              		.loc 1 3305 21 is_stmt 0 view .LVU1689
 5761 0226 20F00F01 		bic	r1, r0, #15
 5762 022a 49B2     		sxtb	r1, r1
3305:TP2824/TP2802.c **** 					tp28xx_byte_write(0xfb, tmpab);
 5763              		.loc 1 3305 29 view .LVU1690
 5764 022c 41F00A01 		orr	r1, r1, #10
 5765              	.LVL588:
3306:TP2824/TP2802.c **** 				}
 5766              		.loc 1 3306 6 is_stmt 1 view .LVU1691
 5767 0230 01F0FA01 		and	r1, r1, #250
 5768              	.LVL589:
3306:TP2824/TP2802.c **** 				}
 5769              		.loc 1 3306 6 is_stmt 0 view .LVU1692
 5770 0234 FB20     		movs	r0, #251
 5771              	.LVL590:
3306:TP2824/TP2802.c **** 				}
 5772              		.loc 1 3306 6 view .LVU1693
 5773 0236 FFF7FEFF 		bl	tp28xx_byte_write
 5774              	.LVL591:
 5775 023a A4E7     		b	.L397
 5776              	.L452:
 5777              	.LBB8:
3326:TP2824/TP2802.c **** 						tmpab = (tmpab & 0xF0) | 0x0A;
 5778              		.loc 1 3326 7 is_stmt 1 view .LVU1694
3326:TP2824/TP2802.c **** 						tmpab = (tmpab & 0xF0) | 0x0A;
 5779              		.loc 1 3326 15 is_stmt 0 view .LVU1695
 5780 023c FA20     		movs	r0, #250
 5781 023e FFF7FEFF 		bl	tp28xx_byte_read
 5782              	.LVL592:
3327:TP2824/TP2802.c **** 						tp28xx_byte_write(0xfa, tmpab);
 5783              		.loc 1 3327 7 is_stmt 1 view .LVU1696
3327:TP2824/TP2802.c **** 						tp28xx_byte_write(0xfa, tmpab);
 5784              		.loc 1 3327 22 is_stmt 0 view .LVU1697
 5785 0242 20F00F01 		bic	r1, r0, #15
 5786 0246 49B2     		sxtb	r1, r1
3327:TP2824/TP2802.c **** 						tp28xx_byte_write(0xfa, tmpab);
 5787              		.loc 1 3327 30 view .LVU1698
 5788 0248 41F00A01 		orr	r1, r1, #10
 5789              	.LVL593:
3328:TP2824/TP2802.c **** 					}
 5790              		.loc 1 3328 7 is_stmt 1 view .LVU1699
 5791 024c 01F0FA01 		and	r1, r1, #250
 5792              	.LVL594:
3328:TP2824/TP2802.c **** 					}
 5793              		.loc 1 3328 7 is_stmt 0 view .LVU1700
 5794 0250 FA20     		movs	r0, #250
 5795              	.LVL595:
ARM GAS  C:\Users\ryanc.HS\AppData\Local\Temp\ccAQ3CYh.s 			page 194


3328:TP2824/TP2802.c **** 					}
 5796              		.loc 1 3328 7 view .LVU1701
 5797 0252 FFF7FEFF 		bl	tp28xx_byte_write
 5798              	.LVL596:
 5799 0256 91E7     		b	.L400
 5800              	.L453:
3332:TP2824/TP2802.c **** 						tmpab = (tmpab & 0x0F) | 0xA0;
 5801              		.loc 1 3332 7 is_stmt 1 view .LVU1702
3332:TP2824/TP2802.c **** 						tmpab = (tmpab & 0x0F) | 0xA0;
 5802              		.loc 1 3332 15 is_stmt 0 view .LVU1703
 5803 0258 FA20     		movs	r0, #250
 5804 025a FFF7FEFF 		bl	tp28xx_byte_read
 5805              	.LVL597:
3333:TP2824/TP2802.c **** 						tp28xx_byte_write(0xfa, tmpab);
 5806              		.loc 1 3333 7 is_stmt 1 view .LVU1704
3333:TP2824/TP2802.c **** 						tp28xx_byte_write(0xfa, tmpab);
 5807              		.loc 1 3333 22 is_stmt 0 view .LVU1705
 5808 025e 00F00F01 		and	r1, r0, #15
 5809              	.LVL598:
3334:TP2824/TP2802.c **** 					}
 5810              		.loc 1 3334 7 is_stmt 1 view .LVU1706
 5811 0262 41F0A001 		orr	r1, r1, #160
 5812              	.LVL599:
3334:TP2824/TP2802.c **** 					}
 5813              		.loc 1 3334 7 is_stmt 0 view .LVU1707
 5814 0266 FA20     		movs	r0, #250
 5815              	.LVL600:
3334:TP2824/TP2802.c **** 					}
 5816              		.loc 1 3334 7 view .LVU1708
 5817 0268 FFF7FEFF 		bl	tp28xx_byte_write
 5818              	.LVL601:
 5819 026c 86E7     		b	.L400
 5820              	.L454:
3339:TP2824/TP2802.c **** 						tmpab = (tmpab & 0xF0) | 0x0A;
 5821              		.loc 1 3339 7 is_stmt 1 view .LVU1709
3339:TP2824/TP2802.c **** 						tmpab = (tmpab & 0xF0) | 0x0A;
 5822              		.loc 1 3339 15 is_stmt 0 view .LVU1710
 5823 026e FB20     		movs	r0, #251
 5824 0270 FFF7FEFF 		bl	tp28xx_byte_read
 5825              	.LVL602:
3340:TP2824/TP2802.c **** 						tp28xx_byte_write(0xfb, tmpab);
 5826              		.loc 1 3340 7 is_stmt 1 view .LVU1711
3340:TP2824/TP2802.c **** 						tp28xx_byte_write(0xfb, tmpab);
 5827              		.loc 1 3340 22 is_stmt 0 view .LVU1712
 5828 0274 20F00F01 		bic	r1, r0, #15
 5829 0278 49B2     		sxtb	r1, r1
3340:TP2824/TP2802.c **** 						tp28xx_byte_write(0xfb, tmpab);
 5830              		.loc 1 3340 30 view .LVU1713
 5831 027a 41F00A01 		orr	r1, r1, #10
 5832              	.LVL603:
3341:TP2824/TP2802.c **** 					}
 5833              		.loc 1 3341 7 is_stmt 1 view .LVU1714
 5834 027e 01F0FA01 		and	r1, r1, #250
 5835              	.LVL604:
3341:TP2824/TP2802.c **** 					}
 5836              		.loc 1 3341 7 is_stmt 0 view .LVU1715
 5837 0282 FB20     		movs	r0, #251
ARM GAS  C:\Users\ryanc.HS\AppData\Local\Temp\ccAQ3CYh.s 			page 195


 5838              	.LVL605:
3341:TP2824/TP2802.c **** 					}
 5839              		.loc 1 3341 7 view .LVU1716
 5840 0284 FFF7FEFF 		bl	tp28xx_byte_write
 5841              	.LVL606:
 5842 0288 7DE7     		b	.L397
 5843              	.L455:
3345:TP2824/TP2802.c **** 						tmpab = (tmpab & 0x0F) | 0xA0;
 5844              		.loc 1 3345 7 is_stmt 1 view .LVU1717
3345:TP2824/TP2802.c **** 						tmpab = (tmpab & 0x0F) | 0xA0;
 5845              		.loc 1 3345 15 is_stmt 0 view .LVU1718
 5846 028a FB20     		movs	r0, #251
 5847 028c FFF7FEFF 		bl	tp28xx_byte_read
 5848              	.LVL607:
3346:TP2824/TP2802.c **** 						tp28xx_byte_write(0xfb, tmpab);
 5849              		.loc 1 3346 7 is_stmt 1 view .LVU1719
3346:TP2824/TP2802.c **** 						tp28xx_byte_write(0xfb, tmpab);
 5850              		.loc 1 3346 22 is_stmt 0 view .LVU1720
 5851 0290 00F00F01 		and	r1, r0, #15
 5852              	.LVL608:
3347:TP2824/TP2802.c **** 					}
 5853              		.loc 1 3347 7 is_stmt 1 view .LVU1721
 5854 0294 41F0A001 		orr	r1, r1, #160
 5855              	.LVL609:
3347:TP2824/TP2802.c **** 					}
 5856              		.loc 1 3347 7 is_stmt 0 view .LVU1722
 5857 0298 FB20     		movs	r0, #251
 5858              	.LVL610:
3347:TP2824/TP2802.c **** 					}
 5859              		.loc 1 3347 7 view .LVU1723
 5860 029a FFF7FEFF 		bl	tp28xx_byte_write
 5861              	.LVL611:
 5862 029e 72E7     		b	.L397
 5863              	.LVL612:
 5864              	.L398:
3352:TP2824/TP2802.c **** 					tmp &= 0xbf;
 5865              		.loc 1 3352 6 is_stmt 1 view .LVU1724
3352:TP2824/TP2802.c **** 					tmp &= 0xbf;
 5866              		.loc 1 3352 12 is_stmt 0 view .LVU1725
 5867 02a0 3520     		movs	r0, #53
 5868              	.LVL613:
3352:TP2824/TP2802.c **** 					tmp &= 0xbf;
 5869              		.loc 1 3352 12 view .LVU1726
 5870 02a2 FFF7FEFF 		bl	tp28xx_byte_read
 5871              	.LVL614:
3353:TP2824/TP2802.c **** 					tp28xx_byte_write(0x35, tmp);
 5872              		.loc 1 3353 6 is_stmt 1 view .LVU1727
3354:TP2824/TP2802.c **** 
 5873              		.loc 1 3354 6 view .LVU1728
 5874 02a6 00F0BF01 		and	r1, r0, #191
 5875 02aa 3520     		movs	r0, #53
 5876              	.LVL615:
3354:TP2824/TP2802.c **** 
 5877              		.loc 1 3354 6 is_stmt 0 view .LVU1729
 5878 02ac FFF7FEFF 		bl	tp28xx_byte_write
 5879              	.LVL616:
3356:TP2824/TP2802.c **** 					{
ARM GAS  C:\Users\ryanc.HS\AppData\Local\Temp\ccAQ3CYh.s 			page 196


 5880              		.loc 1 3356 6 is_stmt 1 view .LVU1730
3356:TP2824/TP2802.c **** 					{
 5881              		.loc 1 3356 9 is_stmt 0 view .LVU1731
 5882 02b0 8CB1     		cbz	r4, .L459
3362:TP2824/TP2802.c **** 					{
 5883              		.loc 1 3362 11 is_stmt 1 view .LVU1732
3362:TP2824/TP2802.c **** 					{
 5884              		.loc 1 3362 14 is_stmt 0 view .LVU1733
 5885 02b2 012C     		cmp	r4, #1
 5886 02b4 1DD0     		beq	.L460
 5887              	.L403:
3369:TP2824/TP2802.c **** 					{
 5888              		.loc 1 3369 6 is_stmt 1 view .LVU1734
3369:TP2824/TP2802.c **** 					{
 5889              		.loc 1 3369 9 is_stmt 0 view .LVU1735
 5890 02b6 022C     		cmp	r4, #2
 5891 02b8 4CD0     		beq	.L461
3375:TP2824/TP2802.c **** 					{
 5892              		.loc 1 3375 11 is_stmt 1 view .LVU1736
3375:TP2824/TP2802.c **** 					{
 5893              		.loc 1 3375 14 is_stmt 0 view .LVU1737
 5894 02ba 032C     		cmp	r4, #3
 5895 02bc 7FF463AF 		bne	.L397
3377:TP2824/TP2802.c **** 						tmpab = (tmpab & 0x0F) | 0x80;
 5896              		.loc 1 3377 7 is_stmt 1 view .LVU1738
3377:TP2824/TP2802.c **** 						tmpab = (tmpab & 0x0F) | 0x80;
 5897              		.loc 1 3377 15 is_stmt 0 view .LVU1739
 5898 02c0 FB20     		movs	r0, #251
 5899 02c2 FFF7FEFF 		bl	tp28xx_byte_read
 5900              	.LVL617:
3378:TP2824/TP2802.c **** 						tp28xx_byte_write(0xfb, tmpab);
 5901              		.loc 1 3378 7 is_stmt 1 view .LVU1740
3378:TP2824/TP2802.c **** 						tp28xx_byte_write(0xfb, tmpab);
 5902              		.loc 1 3378 22 is_stmt 0 view .LVU1741
 5903 02c6 00F00F01 		and	r1, r0, #15
 5904              	.LVL618:
3379:TP2824/TP2802.c **** 					}
 5905              		.loc 1 3379 7 is_stmt 1 view .LVU1742
 5906 02ca 41F08001 		orr	r1, r1, #128
 5907              	.LVL619:
3379:TP2824/TP2802.c **** 					}
 5908              		.loc 1 3379 7 is_stmt 0 view .LVU1743
 5909 02ce FB20     		movs	r0, #251
 5910              	.LVL620:
3379:TP2824/TP2802.c **** 					}
 5911              		.loc 1 3379 7 view .LVU1744
 5912 02d0 FFF7FEFF 		bl	tp28xx_byte_write
 5913              	.LVL621:
 5914 02d4 57E7     		b	.L397
 5915              	.L459:
3358:TP2824/TP2802.c **** 						tmpab = (tmpab & 0xF0) | 0x08;
 5916              		.loc 1 3358 7 is_stmt 1 view .LVU1745
3358:TP2824/TP2802.c **** 						tmpab = (tmpab & 0xF0) | 0x08;
 5917              		.loc 1 3358 15 is_stmt 0 view .LVU1746
 5918 02d6 FA20     		movs	r0, #250
 5919 02d8 FFF7FEFF 		bl	tp28xx_byte_read
 5920              	.LVL622:
ARM GAS  C:\Users\ryanc.HS\AppData\Local\Temp\ccAQ3CYh.s 			page 197


3359:TP2824/TP2802.c **** 						tp28xx_byte_write(0xfa, tmpab);
 5921              		.loc 1 3359 7 is_stmt 1 view .LVU1747
3359:TP2824/TP2802.c **** 						tp28xx_byte_write(0xfa, tmpab);
 5922              		.loc 1 3359 22 is_stmt 0 view .LVU1748
 5923 02dc 20F00F01 		bic	r1, r0, #15
 5924 02e0 49B2     		sxtb	r1, r1
3359:TP2824/TP2802.c **** 						tp28xx_byte_write(0xfa, tmpab);
 5925              		.loc 1 3359 30 view .LVU1749
 5926 02e2 41F00801 		orr	r1, r1, #8
 5927              	.LVL623:
3360:TP2824/TP2802.c **** 					}
 5928              		.loc 1 3360 7 is_stmt 1 view .LVU1750
 5929 02e6 01F0F801 		and	r1, r1, #248
 5930              	.LVL624:
3360:TP2824/TP2802.c **** 					}
 5931              		.loc 1 3360 7 is_stmt 0 view .LVU1751
 5932 02ea FA20     		movs	r0, #250
 5933              	.LVL625:
3360:TP2824/TP2802.c **** 					}
 5934              		.loc 1 3360 7 view .LVU1752
 5935 02ec FFF7FEFF 		bl	tp28xx_byte_write
 5936              	.LVL626:
 5937 02f0 E1E7     		b	.L403
 5938              	.L460:
3364:TP2824/TP2802.c **** 						tmpab = (tmpab & 0x0F) | 0x80;
 5939              		.loc 1 3364 7 is_stmt 1 view .LVU1753
3364:TP2824/TP2802.c **** 						tmpab = (tmpab & 0x0F) | 0x80;
 5940              		.loc 1 3364 15 is_stmt 0 view .LVU1754
 5941 02f2 FA20     		movs	r0, #250
 5942 02f4 FFF7FEFF 		bl	tp28xx_byte_read
 5943              	.LVL627:
3365:TP2824/TP2802.c **** 						tp28xx_byte_write(0xfa, tmpab);
 5944              		.loc 1 3365 7 is_stmt 1 view .LVU1755
3365:TP2824/TP2802.c **** 						tp28xx_byte_write(0xfa, tmpab);
 5945              		.loc 1 3365 22 is_stmt 0 view .LVU1756
 5946 02f8 00F00F01 		and	r1, r0, #15
 5947              	.LVL628:
3366:TP2824/TP2802.c **** 					}
 5948              		.loc 1 3366 7 is_stmt 1 view .LVU1757
 5949 02fc 41F08001 		orr	r1, r1, #128
 5950              	.LVL629:
3366:TP2824/TP2802.c **** 					}
 5951              		.loc 1 3366 7 is_stmt 0 view .LVU1758
 5952 0300 FA20     		movs	r0, #250
 5953              	.LVL630:
3366:TP2824/TP2802.c **** 					}
 5954              		.loc 1 3366 7 view .LVU1759
 5955 0302 FFF7FEFF 		bl	tp28xx_byte_write
 5956              	.LVL631:
 5957 0306 D6E7     		b	.L403
 5958              	.L485:
 5959              		.align	2
 5960              	.L484:
 5961 0308 00000000 		.word	count
 5962 030c 00000000 		.word	state
 5963 0310 00000000 		.word	bytSelectCAMRD
 5964 0314 00000000 		.word	std
ARM GAS  C:\Users\ryanc.HS\AppData\Local\Temp\ccAQ3CYh.s 			page 198


 5965 0318 00000000 		.word	mode
 5966 031c 4C000000 		.word	.LC62
 5967 0320 00000000 		.word	.LC59
 5968 0324 18000000 		.word	.LC60
 5969 0328 34000000 		.word	.LC61
 5970 032c 94000000 		.word	.LC65
 5971 0330 00000000 		.word	.LANCHOR1
 5972 0334 00000000 		.word	half_scaler
 5973 0338 00000000 		.word	CurRes
 5974 033c 00000000 		.word	ManVidResRx
 5975 0340 D4000000 		.word	.LC37
 5976 0344 00000000 		.word	CurCH
 5977 0348 00000000 		.word	.LANCHOR20
 5978 034c 80000000 		.word	.LC63
 5979 0350 C0000000 		.word	.LC36
 5980              	.L461:
3371:TP2824/TP2802.c **** 						tmpab = (tmpab & 0xF0) | 0x08;
 5981              		.loc 1 3371 7 is_stmt 1 view .LVU1760
3371:TP2824/TP2802.c **** 						tmpab = (tmpab & 0xF0) | 0x08;
 5982              		.loc 1 3371 15 is_stmt 0 view .LVU1761
 5983 0354 FB20     		movs	r0, #251
 5984 0356 FFF7FEFF 		bl	tp28xx_byte_read
 5985              	.LVL632:
3372:TP2824/TP2802.c **** 						tp28xx_byte_write(0xfb, tmpab);
 5986              		.loc 1 3372 7 is_stmt 1 view .LVU1762
3372:TP2824/TP2802.c **** 						tp28xx_byte_write(0xfb, tmpab);
 5987              		.loc 1 3372 22 is_stmt 0 view .LVU1763
 5988 035a 20F00F01 		bic	r1, r0, #15
 5989 035e 49B2     		sxtb	r1, r1
3372:TP2824/TP2802.c **** 						tp28xx_byte_write(0xfb, tmpab);
 5990              		.loc 1 3372 30 view .LVU1764
 5991 0360 41F00801 		orr	r1, r1, #8
 5992              	.LVL633:
3373:TP2824/TP2802.c **** 					}
 5993              		.loc 1 3373 7 is_stmt 1 view .LVU1765
 5994 0364 01F0F801 		and	r1, r1, #248
 5995              	.LVL634:
3373:TP2824/TP2802.c **** 					}
 5996              		.loc 1 3373 7 is_stmt 0 view .LVU1766
 5997 0368 FB20     		movs	r0, #251
 5998              	.LVL635:
3373:TP2824/TP2802.c **** 					}
 5999              		.loc 1 3373 7 view .LVU1767
 6000 036a FFF7FEFF 		bl	tp28xx_byte_write
 6001              	.LVL636:
 6002 036e 0AE7     		b	.L397
 6003              	.L444:
3373:TP2824/TP2802.c **** 					}
 6004              		.loc 1 3373 7 view .LVU1768
 6005              	.LBE8:
3394:TP2824/TP2802.c **** 			printf("(Set_HDC)");
 6006              		.loc 1 3394 4 is_stmt 1 view .LVU1769
 6007 0370 2046     		mov	r0, r4
 6008 0372 FFF7FEFF 		bl	Set_HDC
 6009              	.LVL637:
3395:TP2824/TP2802.c **** 		}
 6010              		.loc 1 3395 4 view .LVU1770
ARM GAS  C:\Users\ryanc.HS\AppData\Local\Temp\ccAQ3CYh.s 			page 199


 6011 0376 9748     		ldr	r0, .L486
 6012 0378 FFF7FEFF 		bl	printf
 6013              	.LVL638:
 6014 037c 74E6     		b	.L381
 6015              	.LVL639:
 6016              	.L445:
3435:TP2824/TP2802.c **** 
 6017              		.loc 1 3435 5 view .LVU1771
 6018 037e 9648     		ldr	r0, .L486+4
 6019              	.LVL640:
3435:TP2824/TP2802.c **** 
 6020              		.loc 1 3435 5 is_stmt 0 view .LVU1772
 6021 0380 FFF7FEFF 		bl	puts
 6022              	.LVL641:
3437:TP2824/TP2802.c **** 				{
 6023              		.loc 1 3437 5 is_stmt 1 view .LVU1773
3437:TP2824/TP2802.c **** 				{
 6024              		.loc 1 3437 8 is_stmt 0 view .LVU1774
 6025 0384 8CB1     		cbz	r4, .L462
3443:TP2824/TP2802.c **** 				{
 6026              		.loc 1 3443 10 is_stmt 1 view .LVU1775
3443:TP2824/TP2802.c **** 				{
 6027              		.loc 1 3443 13 is_stmt 0 view .LVU1776
 6028 0386 012C     		cmp	r4, #1
 6029 0388 1DD0     		beq	.L463
 6030              	.L408:
3450:TP2824/TP2802.c **** 				{
 6031              		.loc 1 3450 5 is_stmt 1 view .LVU1777
3450:TP2824/TP2802.c **** 				{
 6032              		.loc 1 3450 8 is_stmt 0 view .LVU1778
 6033 038a 022C     		cmp	r4, #2
 6034 038c 26D0     		beq	.L464
3456:TP2824/TP2802.c **** 				{
 6035              		.loc 1 3456 10 is_stmt 1 view .LVU1779
3456:TP2824/TP2802.c **** 				{
 6036              		.loc 1 3456 13 is_stmt 0 view .LVU1780
 6037 038e 032C     		cmp	r4, #3
 6038 0390 7FF4BDAE 		bne	.L410
3458:TP2824/TP2802.c **** 					tmpab = (tmpab & 0x0F) | 0xA0;
 6039              		.loc 1 3458 6 is_stmt 1 view .LVU1781
3458:TP2824/TP2802.c **** 					tmpab = (tmpab & 0x0F) | 0xA0;
 6040              		.loc 1 3458 14 is_stmt 0 view .LVU1782
 6041 0394 FB20     		movs	r0, #251
 6042 0396 FFF7FEFF 		bl	tp28xx_byte_read
 6043              	.LVL642:
3459:TP2824/TP2802.c **** 					tp28xx_byte_write(0xfb, tmpab);
 6044              		.loc 1 3459 6 is_stmt 1 view .LVU1783
3459:TP2824/TP2802.c **** 					tp28xx_byte_write(0xfb, tmpab);
 6045              		.loc 1 3459 21 is_stmt 0 view .LVU1784
 6046 039a 00F00F01 		and	r1, r0, #15
 6047              	.LVL643:
3460:TP2824/TP2802.c **** 				}
 6048              		.loc 1 3460 6 is_stmt 1 view .LVU1785
 6049 039e 41F0A001 		orr	r1, r1, #160
 6050              	.LVL644:
3460:TP2824/TP2802.c **** 				}
 6051              		.loc 1 3460 6 is_stmt 0 view .LVU1786
ARM GAS  C:\Users\ryanc.HS\AppData\Local\Temp\ccAQ3CYh.s 			page 200


 6052 03a2 FB20     		movs	r0, #251
 6053              	.LVL645:
3460:TP2824/TP2802.c **** 				}
 6054              		.loc 1 3460 6 view .LVU1787
 6055 03a4 FFF7FEFF 		bl	tp28xx_byte_write
 6056              	.LVL646:
 6057 03a8 B1E6     		b	.L410
 6058              	.L462:
3439:TP2824/TP2802.c **** 					tmpab = (tmpab & 0xF0) | 0x0A;
 6059              		.loc 1 3439 6 is_stmt 1 view .LVU1788
3439:TP2824/TP2802.c **** 					tmpab = (tmpab & 0xF0) | 0x0A;
 6060              		.loc 1 3439 14 is_stmt 0 view .LVU1789
 6061 03aa FA20     		movs	r0, #250
 6062 03ac FFF7FEFF 		bl	tp28xx_byte_read
 6063              	.LVL647:
3440:TP2824/TP2802.c **** 					tp28xx_byte_write(0xfa, tmpab);
 6064              		.loc 1 3440 6 is_stmt 1 view .LVU1790
3440:TP2824/TP2802.c **** 					tp28xx_byte_write(0xfa, tmpab);
 6065              		.loc 1 3440 21 is_stmt 0 view .LVU1791
 6066 03b0 20F00F01 		bic	r1, r0, #15
 6067 03b4 49B2     		sxtb	r1, r1
3440:TP2824/TP2802.c **** 					tp28xx_byte_write(0xfa, tmpab);
 6068              		.loc 1 3440 29 view .LVU1792
 6069 03b6 41F00A01 		orr	r1, r1, #10
 6070              	.LVL648:
3441:TP2824/TP2802.c **** 				}
 6071              		.loc 1 3441 6 is_stmt 1 view .LVU1793
 6072 03ba 01F0FA01 		and	r1, r1, #250
 6073              	.LVL649:
3441:TP2824/TP2802.c **** 				}
 6074              		.loc 1 3441 6 is_stmt 0 view .LVU1794
 6075 03be FA20     		movs	r0, #250
 6076              	.LVL650:
3441:TP2824/TP2802.c **** 				}
 6077              		.loc 1 3441 6 view .LVU1795
 6078 03c0 FFF7FEFF 		bl	tp28xx_byte_write
 6079              	.LVL651:
 6080 03c4 E1E7     		b	.L408
 6081              	.L463:
3445:TP2824/TP2802.c **** 					tmpab = (tmpab & 0x0F) | 0xA0;
 6082              		.loc 1 3445 6 is_stmt 1 view .LVU1796
3445:TP2824/TP2802.c **** 					tmpab = (tmpab & 0x0F) | 0xA0;
 6083              		.loc 1 3445 14 is_stmt 0 view .LVU1797
 6084 03c6 FA20     		movs	r0, #250
 6085 03c8 FFF7FEFF 		bl	tp28xx_byte_read
 6086              	.LVL652:
3446:TP2824/TP2802.c **** 					tp28xx_byte_write(0xfa, tmpab);
 6087              		.loc 1 3446 6 is_stmt 1 view .LVU1798
3446:TP2824/TP2802.c **** 					tp28xx_byte_write(0xfa, tmpab);
 6088              		.loc 1 3446 21 is_stmt 0 view .LVU1799
 6089 03cc 00F00F01 		and	r1, r0, #15
 6090              	.LVL653:
3447:TP2824/TP2802.c **** 				}
 6091              		.loc 1 3447 6 is_stmt 1 view .LVU1800
 6092 03d0 41F0A001 		orr	r1, r1, #160
 6093              	.LVL654:
3447:TP2824/TP2802.c **** 				}
ARM GAS  C:\Users\ryanc.HS\AppData\Local\Temp\ccAQ3CYh.s 			page 201


 6094              		.loc 1 3447 6 is_stmt 0 view .LVU1801
 6095 03d4 FA20     		movs	r0, #250
 6096              	.LVL655:
3447:TP2824/TP2802.c **** 				}
 6097              		.loc 1 3447 6 view .LVU1802
 6098 03d6 FFF7FEFF 		bl	tp28xx_byte_write
 6099              	.LVL656:
 6100 03da D6E7     		b	.L408
 6101              	.L464:
3452:TP2824/TP2802.c **** 					tmpab = (tmpab & 0xF0) | 0x0A;
 6102              		.loc 1 3452 6 is_stmt 1 view .LVU1803
3452:TP2824/TP2802.c **** 					tmpab = (tmpab & 0xF0) | 0x0A;
 6103              		.loc 1 3452 14 is_stmt 0 view .LVU1804
 6104 03dc FB20     		movs	r0, #251
 6105 03de FFF7FEFF 		bl	tp28xx_byte_read
 6106              	.LVL657:
3453:TP2824/TP2802.c **** 					tp28xx_byte_write(0xfb, tmpab);
 6107              		.loc 1 3453 6 is_stmt 1 view .LVU1805
3453:TP2824/TP2802.c **** 					tp28xx_byte_write(0xfb, tmpab);
 6108              		.loc 1 3453 21 is_stmt 0 view .LVU1806
 6109 03e2 20F00F01 		bic	r1, r0, #15
 6110 03e6 49B2     		sxtb	r1, r1
3453:TP2824/TP2802.c **** 					tp28xx_byte_write(0xfb, tmpab);
 6111              		.loc 1 3453 29 view .LVU1807
 6112 03e8 41F00A01 		orr	r1, r1, #10
 6113              	.LVL658:
3454:TP2824/TP2802.c **** 				}
 6114              		.loc 1 3454 6 is_stmt 1 view .LVU1808
 6115 03ec 01F0FA01 		and	r1, r1, #250
 6116              	.LVL659:
3454:TP2824/TP2802.c **** 				}
 6117              		.loc 1 3454 6 is_stmt 0 view .LVU1809
 6118 03f0 FB20     		movs	r0, #251
 6119              	.LVL660:
3454:TP2824/TP2802.c **** 				}
 6120              		.loc 1 3454 6 view .LVU1810
 6121 03f2 FFF7FEFF 		bl	tp28xx_byte_write
 6122              	.LVL661:
 6123 03f6 8AE6     		b	.L410
 6124              	.L446:
 6125              	.LBB9:
3474:TP2824/TP2802.c **** 						tmpab = (tmpab & 0xF0) | 0x0A;
 6126              		.loc 1 3474 7 is_stmt 1 view .LVU1811
3474:TP2824/TP2802.c **** 						tmpab = (tmpab & 0xF0) | 0x0A;
 6127              		.loc 1 3474 15 is_stmt 0 view .LVU1812
 6128 03f8 FA20     		movs	r0, #250
 6129 03fa FFF7FEFF 		bl	tp28xx_byte_read
 6130              	.LVL662:
3475:TP2824/TP2802.c **** 						tp28xx_byte_write(0xfa, tmpab);
 6131              		.loc 1 3475 7 is_stmt 1 view .LVU1813
3475:TP2824/TP2802.c **** 						tp28xx_byte_write(0xfa, tmpab);
 6132              		.loc 1 3475 22 is_stmt 0 view .LVU1814
 6133 03fe 20F00F01 		bic	r1, r0, #15
 6134 0402 49B2     		sxtb	r1, r1
3475:TP2824/TP2802.c **** 						tp28xx_byte_write(0xfa, tmpab);
 6135              		.loc 1 3475 30 view .LVU1815
 6136 0404 41F00A01 		orr	r1, r1, #10
ARM GAS  C:\Users\ryanc.HS\AppData\Local\Temp\ccAQ3CYh.s 			page 202


 6137              	.LVL663:
3476:TP2824/TP2802.c **** 					}
 6138              		.loc 1 3476 7 is_stmt 1 view .LVU1816
 6139 0408 01F0FA01 		and	r1, r1, #250
 6140              	.LVL664:
3476:TP2824/TP2802.c **** 					}
 6141              		.loc 1 3476 7 is_stmt 0 view .LVU1817
 6142 040c FA20     		movs	r0, #250
 6143              	.LVL665:
3476:TP2824/TP2802.c **** 					}
 6144              		.loc 1 3476 7 view .LVU1818
 6145 040e FFF7FEFF 		bl	tp28xx_byte_write
 6146              	.LVL666:
 6147 0412 76E6     		b	.L413
 6148              	.L447:
3480:TP2824/TP2802.c **** 						tmpab = (tmpab & 0x0F) | 0xA0;
 6149              		.loc 1 3480 7 is_stmt 1 view .LVU1819
3480:TP2824/TP2802.c **** 						tmpab = (tmpab & 0x0F) | 0xA0;
 6150              		.loc 1 3480 15 is_stmt 0 view .LVU1820
 6151 0414 FA20     		movs	r0, #250
 6152 0416 FFF7FEFF 		bl	tp28xx_byte_read
 6153              	.LVL667:
3481:TP2824/TP2802.c **** 						tp28xx_byte_write(0xfa, tmpab);
 6154              		.loc 1 3481 7 is_stmt 1 view .LVU1821
3481:TP2824/TP2802.c **** 						tp28xx_byte_write(0xfa, tmpab);
 6155              		.loc 1 3481 22 is_stmt 0 view .LVU1822
 6156 041a 00F00F01 		and	r1, r0, #15
 6157              	.LVL668:
3482:TP2824/TP2802.c **** 					}
 6158              		.loc 1 3482 7 is_stmt 1 view .LVU1823
 6159 041e 41F0A001 		orr	r1, r1, #160
 6160              	.LVL669:
3482:TP2824/TP2802.c **** 					}
 6161              		.loc 1 3482 7 is_stmt 0 view .LVU1824
 6162 0422 FA20     		movs	r0, #250
 6163              	.LVL670:
3482:TP2824/TP2802.c **** 					}
 6164              		.loc 1 3482 7 view .LVU1825
 6165 0424 FFF7FEFF 		bl	tp28xx_byte_write
 6166              	.LVL671:
 6167 0428 6BE6     		b	.L413
 6168              	.L448:
3487:TP2824/TP2802.c **** 						tmpab = (tmpab & 0xF0) | 0x0A;
 6169              		.loc 1 3487 7 is_stmt 1 view .LVU1826
3487:TP2824/TP2802.c **** 						tmpab = (tmpab & 0xF0) | 0x0A;
 6170              		.loc 1 3487 15 is_stmt 0 view .LVU1827
 6171 042a FB20     		movs	r0, #251
 6172 042c FFF7FEFF 		bl	tp28xx_byte_read
 6173              	.LVL672:
3488:TP2824/TP2802.c **** 						tp28xx_byte_write(0xfb, tmpab);
 6174              		.loc 1 3488 7 is_stmt 1 view .LVU1828
3488:TP2824/TP2802.c **** 						tp28xx_byte_write(0xfb, tmpab);
 6175              		.loc 1 3488 22 is_stmt 0 view .LVU1829
 6176 0430 20F00F01 		bic	r1, r0, #15
 6177 0434 49B2     		sxtb	r1, r1
3488:TP2824/TP2802.c **** 						tp28xx_byte_write(0xfb, tmpab);
 6178              		.loc 1 3488 30 view .LVU1830
ARM GAS  C:\Users\ryanc.HS\AppData\Local\Temp\ccAQ3CYh.s 			page 203


 6179 0436 41F00A01 		orr	r1, r1, #10
 6180              	.LVL673:
3489:TP2824/TP2802.c **** 					}
 6181              		.loc 1 3489 7 is_stmt 1 view .LVU1831
 6182 043a 01F0FA01 		and	r1, r1, #250
 6183              	.LVL674:
3489:TP2824/TP2802.c **** 					}
 6184              		.loc 1 3489 7 is_stmt 0 view .LVU1832
 6185 043e FB20     		movs	r0, #251
 6186              	.LVL675:
3489:TP2824/TP2802.c **** 					}
 6187              		.loc 1 3489 7 view .LVU1833
 6188 0440 FFF7FEFF 		bl	tp28xx_byte_write
 6189              	.LVL676:
 6190 0444 63E6     		b	.L410
 6191              	.L449:
3493:TP2824/TP2802.c **** 						tmpab = (tmpab & 0x0F) | 0xA0;
 6192              		.loc 1 3493 7 is_stmt 1 view .LVU1834
3493:TP2824/TP2802.c **** 						tmpab = (tmpab & 0x0F) | 0xA0;
 6193              		.loc 1 3493 15 is_stmt 0 view .LVU1835
 6194 0446 FB20     		movs	r0, #251
 6195 0448 FFF7FEFF 		bl	tp28xx_byte_read
 6196              	.LVL677:
3494:TP2824/TP2802.c **** 						tp28xx_byte_write(0xfb, tmpab);
 6197              		.loc 1 3494 7 is_stmt 1 view .LVU1836
3494:TP2824/TP2802.c **** 						tp28xx_byte_write(0xfb, tmpab);
 6198              		.loc 1 3494 22 is_stmt 0 view .LVU1837
 6199 044c 00F00F01 		and	r1, r0, #15
 6200              	.LVL678:
3495:TP2824/TP2802.c **** 					}
 6201              		.loc 1 3495 7 is_stmt 1 view .LVU1838
 6202 0450 41F0A001 		orr	r1, r1, #160
 6203              	.LVL679:
3495:TP2824/TP2802.c **** 					}
 6204              		.loc 1 3495 7 is_stmt 0 view .LVU1839
 6205 0454 FB20     		movs	r0, #251
 6206              	.LVL680:
3495:TP2824/TP2802.c **** 					}
 6207              		.loc 1 3495 7 view .LVU1840
 6208 0456 FFF7FEFF 		bl	tp28xx_byte_write
 6209              	.LVL681:
 6210 045a 58E6     		b	.L410
 6211              	.LVL682:
 6212              	.L411:
3500:TP2824/TP2802.c **** 					tmp &= 0xbf;
 6213              		.loc 1 3500 6 is_stmt 1 view .LVU1841
3500:TP2824/TP2802.c **** 					tmp &= 0xbf;
 6214              		.loc 1 3500 12 is_stmt 0 view .LVU1842
 6215 045c 3520     		movs	r0, #53
 6216              	.LVL683:
3500:TP2824/TP2802.c **** 					tmp &= 0xbf;
 6217              		.loc 1 3500 12 view .LVU1843
 6218 045e FFF7FEFF 		bl	tp28xx_byte_read
 6219              	.LVL684:
3501:TP2824/TP2802.c **** 					tp28xx_byte_write(0x35, tmp);
 6220              		.loc 1 3501 6 is_stmt 1 view .LVU1844
3502:TP2824/TP2802.c **** 
ARM GAS  C:\Users\ryanc.HS\AppData\Local\Temp\ccAQ3CYh.s 			page 204


 6221              		.loc 1 3502 6 view .LVU1845
 6222 0462 00F0BF01 		and	r1, r0, #191
 6223 0466 3520     		movs	r0, #53
 6224              	.LVL685:
3502:TP2824/TP2802.c **** 
 6225              		.loc 1 3502 6 is_stmt 0 view .LVU1846
 6226 0468 FFF7FEFF 		bl	tp28xx_byte_write
 6227              	.LVL686:
3504:TP2824/TP2802.c **** 					{
 6228              		.loc 1 3504 6 is_stmt 1 view .LVU1847
3504:TP2824/TP2802.c **** 					{
 6229              		.loc 1 3504 9 is_stmt 0 view .LVU1848
 6230 046c 8CB1     		cbz	r4, .L465
3510:TP2824/TP2802.c **** 					{
 6231              		.loc 1 3510 11 is_stmt 1 view .LVU1849
3510:TP2824/TP2802.c **** 					{
 6232              		.loc 1 3510 14 is_stmt 0 view .LVU1850
 6233 046e 012C     		cmp	r4, #1
 6234 0470 1DD0     		beq	.L466
 6235              	.L416:
3517:TP2824/TP2802.c **** 					{
 6236              		.loc 1 3517 6 is_stmt 1 view .LVU1851
3517:TP2824/TP2802.c **** 					{
 6237              		.loc 1 3517 9 is_stmt 0 view .LVU1852
 6238 0472 022C     		cmp	r4, #2
 6239 0474 26D0     		beq	.L467
3523:TP2824/TP2802.c **** 					{
 6240              		.loc 1 3523 11 is_stmt 1 view .LVU1853
3523:TP2824/TP2802.c **** 					{
 6241              		.loc 1 3523 14 is_stmt 0 view .LVU1854
 6242 0476 032C     		cmp	r4, #3
 6243 0478 7FF449AE 		bne	.L410
3525:TP2824/TP2802.c **** 						tmpab = (tmpab & 0x0F) | 0x80;
 6244              		.loc 1 3525 7 is_stmt 1 view .LVU1855
3525:TP2824/TP2802.c **** 						tmpab = (tmpab & 0x0F) | 0x80;
 6245              		.loc 1 3525 15 is_stmt 0 view .LVU1856
 6246 047c FB20     		movs	r0, #251
 6247 047e FFF7FEFF 		bl	tp28xx_byte_read
 6248              	.LVL687:
3526:TP2824/TP2802.c **** 						tp28xx_byte_write(0xfb, tmpab);
 6249              		.loc 1 3526 7 is_stmt 1 view .LVU1857
3526:TP2824/TP2802.c **** 						tp28xx_byte_write(0xfb, tmpab);
 6250              		.loc 1 3526 22 is_stmt 0 view .LVU1858
 6251 0482 00F00F01 		and	r1, r0, #15
 6252              	.LVL688:
3527:TP2824/TP2802.c **** 					}
 6253              		.loc 1 3527 7 is_stmt 1 view .LVU1859
 6254 0486 41F08001 		orr	r1, r1, #128
 6255              	.LVL689:
3527:TP2824/TP2802.c **** 					}
 6256              		.loc 1 3527 7 is_stmt 0 view .LVU1860
 6257 048a FB20     		movs	r0, #251
 6258              	.LVL690:
3527:TP2824/TP2802.c **** 					}
 6259              		.loc 1 3527 7 view .LVU1861
 6260 048c FFF7FEFF 		bl	tp28xx_byte_write
 6261              	.LVL691:
ARM GAS  C:\Users\ryanc.HS\AppData\Local\Temp\ccAQ3CYh.s 			page 205


 6262 0490 3DE6     		b	.L410
 6263              	.L465:
3506:TP2824/TP2802.c **** 						tmpab = (tmpab & 0xF0) | 0x08;
 6264              		.loc 1 3506 7 is_stmt 1 view .LVU1862
3506:TP2824/TP2802.c **** 						tmpab = (tmpab & 0xF0) | 0x08;
 6265              		.loc 1 3506 15 is_stmt 0 view .LVU1863
 6266 0492 FA20     		movs	r0, #250
 6267 0494 FFF7FEFF 		bl	tp28xx_byte_read
 6268              	.LVL692:
3507:TP2824/TP2802.c **** 						tp28xx_byte_write(0xfa, tmpab);
 6269              		.loc 1 3507 7 is_stmt 1 view .LVU1864
3507:TP2824/TP2802.c **** 						tp28xx_byte_write(0xfa, tmpab);
 6270              		.loc 1 3507 22 is_stmt 0 view .LVU1865
 6271 0498 20F00F01 		bic	r1, r0, #15
 6272 049c 49B2     		sxtb	r1, r1
3507:TP2824/TP2802.c **** 						tp28xx_byte_write(0xfa, tmpab);
 6273              		.loc 1 3507 30 view .LVU1866
 6274 049e 41F00801 		orr	r1, r1, #8
 6275              	.LVL693:
3508:TP2824/TP2802.c **** 					}
 6276              		.loc 1 3508 7 is_stmt 1 view .LVU1867
 6277 04a2 01F0F801 		and	r1, r1, #248
 6278              	.LVL694:
3508:TP2824/TP2802.c **** 					}
 6279              		.loc 1 3508 7 is_stmt 0 view .LVU1868
 6280 04a6 FA20     		movs	r0, #250
 6281              	.LVL695:
3508:TP2824/TP2802.c **** 					}
 6282              		.loc 1 3508 7 view .LVU1869
 6283 04a8 FFF7FEFF 		bl	tp28xx_byte_write
 6284              	.LVL696:
 6285 04ac E1E7     		b	.L416
 6286              	.L466:
3512:TP2824/TP2802.c **** 						tmpab = (tmpab & 0x0F) | 0x80;
 6287              		.loc 1 3512 7 is_stmt 1 view .LVU1870
3512:TP2824/TP2802.c **** 						tmpab = (tmpab & 0x0F) | 0x80;
 6288              		.loc 1 3512 15 is_stmt 0 view .LVU1871
 6289 04ae FA20     		movs	r0, #250
 6290 04b0 FFF7FEFF 		bl	tp28xx_byte_read
 6291              	.LVL697:
3513:TP2824/TP2802.c **** 						tp28xx_byte_write(0xfa, tmpab);
 6292              		.loc 1 3513 7 is_stmt 1 view .LVU1872
3513:TP2824/TP2802.c **** 						tp28xx_byte_write(0xfa, tmpab);
 6293              		.loc 1 3513 22 is_stmt 0 view .LVU1873
 6294 04b4 00F00F01 		and	r1, r0, #15
 6295              	.LVL698:
3514:TP2824/TP2802.c **** 					}
 6296              		.loc 1 3514 7 is_stmt 1 view .LVU1874
 6297 04b8 41F08001 		orr	r1, r1, #128
 6298              	.LVL699:
3514:TP2824/TP2802.c **** 					}
 6299              		.loc 1 3514 7 is_stmt 0 view .LVU1875
 6300 04bc FA20     		movs	r0, #250
 6301              	.LVL700:
3514:TP2824/TP2802.c **** 					}
 6302              		.loc 1 3514 7 view .LVU1876
 6303 04be FFF7FEFF 		bl	tp28xx_byte_write
ARM GAS  C:\Users\ryanc.HS\AppData\Local\Temp\ccAQ3CYh.s 			page 206


 6304              	.LVL701:
 6305 04c2 D6E7     		b	.L416
 6306              	.L467:
3519:TP2824/TP2802.c **** 						tmpab = (tmpab & 0xF0) | 0x08;
 6307              		.loc 1 3519 7 is_stmt 1 view .LVU1877
3519:TP2824/TP2802.c **** 						tmpab = (tmpab & 0xF0) | 0x08;
 6308              		.loc 1 3519 15 is_stmt 0 view .LVU1878
 6309 04c4 FB20     		movs	r0, #251
 6310 04c6 FFF7FEFF 		bl	tp28xx_byte_read
 6311              	.LVL702:
3520:TP2824/TP2802.c **** 						tp28xx_byte_write(0xfb, tmpab);
 6312              		.loc 1 3520 7 is_stmt 1 view .LVU1879
3520:TP2824/TP2802.c **** 						tp28xx_byte_write(0xfb, tmpab);
 6313              		.loc 1 3520 22 is_stmt 0 view .LVU1880
 6314 04ca 20F00F01 		bic	r1, r0, #15
 6315 04ce 49B2     		sxtb	r1, r1
3520:TP2824/TP2802.c **** 						tp28xx_byte_write(0xfb, tmpab);
 6316              		.loc 1 3520 30 view .LVU1881
 6317 04d0 41F00801 		orr	r1, r1, #8
 6318              	.LVL703:
3521:TP2824/TP2802.c **** 					}
 6319              		.loc 1 3521 7 is_stmt 1 view .LVU1882
 6320 04d4 01F0F801 		and	r1, r1, #248
 6321              	.LVL704:
3521:TP2824/TP2802.c **** 					}
 6322              		.loc 1 3521 7 is_stmt 0 view .LVU1883
 6323 04d8 FB20     		movs	r0, #251
 6324              	.LVL705:
3521:TP2824/TP2802.c **** 					}
 6325              		.loc 1 3521 7 view .LVU1884
 6326 04da FFF7FEFF 		bl	tp28xx_byte_write
 6327              	.LVL706:
 6328 04de 16E6     		b	.L410
 6329              	.L388:
3521:TP2824/TP2802.c **** 					}
 6330              		.loc 1 3521 7 view .LVU1885
 6331              	.LBE9:
3543:TP2824/TP2802.c **** 		printf("Egain=0x%02x ch%02x,std=%d,mode=0x%02X\r\n", (tWord)gain, (tWord)i, (tWord)std[i], (tWord
 6332              		.loc 1 3543 3 is_stmt 1 view .LVU1886
3543:TP2824/TP2802.c **** 		printf("Egain=0x%02x ch%02x,std=%d,mode=0x%02X\r\n", (tWord)gain, (tWord)i, (tWord)std[i], (tWord
 6333              		.loc 1 3543 10 is_stmt 0 view .LVU1887
 6334 04e0 FFF7FEFF 		bl	ReadGain
 6335              	.LVL707:
 6336 04e4 0546     		mov	r5, r0
 6337              	.LVL708:
3544:TP2824/TP2802.c **** 
 6338              		.loc 1 3544 3 is_stmt 1 view .LVU1888
3544:TP2824/TP2802.c **** 
 6339              		.loc 1 3544 105 is_stmt 0 view .LVU1889
 6340 04e6 3D4E     		ldr	r6, .L486+8
 6341 04e8 335D     		ldrb	r3, [r6, r4]	@ zero_extendqisi2
3544:TP2824/TP2802.c **** 
 6342              		.loc 1 3544 3 view .LVU1890
 6343 04ea 0093     		str	r3, [sp]
 6344 04ec 3C4B     		ldr	r3, .L486+12
 6345 04ee 1B5D     		ldrb	r3, [r3, r4]	@ zero_extendqisi2
 6346 04f0 2246     		mov	r2, r4
ARM GAS  C:\Users\ryanc.HS\AppData\Local\Temp\ccAQ3CYh.s 			page 207


 6347 04f2 0146     		mov	r1, r0
 6348 04f4 3B48     		ldr	r0, .L486+16
 6349              	.LVL709:
3544:TP2824/TP2802.c **** 
 6350              		.loc 1 3544 3 view .LVU1891
 6351 04f6 FFF7FEFF 		bl	printf
 6352              	.LVL710:
3546:TP2824/TP2802.c **** 		{
 6353              		.loc 1 3546 3 is_stmt 1 view .LVU1892
3546:TP2824/TP2802.c **** 		{
 6354              		.loc 1 3546 12 is_stmt 0 view .LVU1893
 6355 04fa 325D     		ldrb	r2, [r6, r4]	@ zero_extendqisi2
3546:TP2824/TP2802.c **** 		{
 6356              		.loc 1 3546 29 view .LVU1894
 6357 04fc 931E     		subs	r3, r2, #2
 6358 04fe DBB2     		uxtb	r3, r3
3546:TP2824/TP2802.c **** 		{
 6359              		.loc 1 3546 6 view .LVU1895
 6360 0500 012B     		cmp	r3, #1
 6361 0502 12D9     		bls	.L468
3550:TP2824/TP2802.c **** 		{
 6362              		.loc 1 3550 8 is_stmt 1 view .LVU1896
3550:TP2824/TP2802.c **** 		{
 6363              		.loc 1 3550 11 is_stmt 0 view .LVU1897
 6364 0504 012A     		cmp	r2, #1
 6365 0506 23D9     		bls	.L469
3554:TP2824/TP2802.c **** 		{
 6366              		.loc 1 3554 8 is_stmt 1 view .LVU1898
3554:TP2824/TP2802.c **** 		{
 6367              		.loc 1 3554 33 is_stmt 0 view .LVU1899
 6368 0508 131F     		subs	r3, r2, #4
 6369 050a DBB2     		uxtb	r3, r3
3554:TP2824/TP2802.c **** 		{
 6370              		.loc 1 3554 11 view .LVU1900
 6371 050c 012B     		cmp	r3, #1
 6372 050e 23D9     		bls	.L470
3558:TP2824/TP2802.c **** 		{
 6373              		.loc 1 3558 8 is_stmt 1 view .LVU1901
3558:TP2824/TP2802.c **** 		{
 6374              		.loc 1 3558 35 is_stmt 0 view .LVU1902
 6375 0510 A2F10C03 		sub	r3, r2, #12
 6376 0514 DBB2     		uxtb	r3, r3
3558:TP2824/TP2802.c **** 		{
 6377              		.loc 1 3558 11 view .LVU1903
 6378 0516 012B     		cmp	r3, #1
 6379 0518 22D9     		bls	.L471
3562:TP2824/TP2802.c **** 		{
 6380              		.loc 1 3562 8 is_stmt 1 view .LVU1904
3562:TP2824/TP2802.c **** 		{
 6381              		.loc 1 3562 11 is_stmt 0 view .LVU1905
 6382 051a 082A     		cmp	r2, #8
 6383 051c 24D0     		beq	.L472
3566:TP2824/TP2802.c **** 		{
 6384              		.loc 1 3566 8 is_stmt 1 view .LVU1906
3566:TP2824/TP2802.c **** 		{
 6385              		.loc 1 3566 11 is_stmt 0 view .LVU1907
 6386 051e 092A     		cmp	r2, #9
ARM GAS  C:\Users\ryanc.HS\AppData\Local\Temp\ccAQ3CYh.s 			page 208


 6387 0520 26D0     		beq	.L473
3572:TP2824/TP2802.c **** 		}
 6388              		.loc 1 3572 4 is_stmt 1 view .LVU1908
3572:TP2824/TP2802.c **** 		}
 6389              		.loc 1 3572 16 is_stmt 0 view .LVU1909
 6390 0522 314B     		ldr	r3, .L486+20
 6391 0524 0722     		movs	r2, #7
 6392 0526 1A55     		strb	r2, [r3, r4]
 6393 0528 02E0     		b	.L419
 6394              	.L468:
3548:TP2824/TP2802.c **** 		}
 6395              		.loc 1 3548 4 is_stmt 1 view .LVU1910
3548:TP2824/TP2802.c **** 		}
 6396              		.loc 1 3548 16 is_stmt 0 view .LVU1911
 6397 052a 2F4B     		ldr	r3, .L486+20
 6398 052c 0622     		movs	r2, #6
 6399 052e 1A55     		strb	r2, [r3, r4]
 6400              	.L419:
3577:TP2824/TP2802.c **** 
 6401              		.loc 1 3577 4 is_stmt 1 view .LVU1912
 6402 0530 2E4B     		ldr	r3, .L486+24
 6403 0532 1A78     		ldrb	r2, [r3]	@ zero_extendqisi2
 6404 0534 2C4B     		ldr	r3, .L486+20
 6405 0536 195D     		ldrb	r1, [r3, r4]	@ zero_extendqisi2
 6406 0538 2046     		mov	r0, r4
 6407 053a FFF7FEFF 		bl	VS4210_SetInModeOutMode
 6408              	.LVL711:
3593:TP2824/TP2802.c **** 		{
 6409              		.loc 1 3593 3 view .LVU1913
3593:TP2824/TP2802.c **** 		{
 6410              		.loc 1 3593 17 is_stmt 0 view .LVU1914
 6411 053e 284B     		ldr	r3, .L486+12
 6412 0540 1B5D     		ldrb	r3, [r3, r4]	@ zero_extendqisi2
3593:TP2824/TP2802.c **** 		{
 6413              		.loc 1 3593 6 view .LVU1915
 6414 0542 EBB1     		cbz	r3, .L425
3596:TP2824/TP2802.c **** 			{
 6415              		.loc 1 3596 4 is_stmt 1 view .LVU1916
3596:TP2824/TP2802.c **** 			{
 6416              		.loc 1 3596 7 is_stmt 0 view .LVU1917
 6417 0544 012B     		cmp	r3, #1
 6418 0546 17D0     		beq	.L474
3602:TP2824/TP2802.c **** 			}
 6419              		.loc 1 3602 5 is_stmt 1 view .LVU1918
 6420 0548 2948     		ldr	r0, .L486+28
 6421 054a FFF7FEFF 		bl	puts
 6422              	.LVL712:
 6423 054e 8BE5     		b	.L381
 6424              	.L469:
3552:TP2824/TP2802.c **** 		}
 6425              		.loc 1 3552 4 view .LVU1919
3552:TP2824/TP2802.c **** 		}
 6426              		.loc 1 3552 16 is_stmt 0 view .LVU1920
 6427 0550 254B     		ldr	r3, .L486+20
 6428 0552 0522     		movs	r2, #5
 6429 0554 1A55     		strb	r2, [r3, r4]
 6430 0556 EBE7     		b	.L419
ARM GAS  C:\Users\ryanc.HS\AppData\Local\Temp\ccAQ3CYh.s 			page 209


 6431              	.L470:
3556:TP2824/TP2802.c **** 		}
 6432              		.loc 1 3556 4 is_stmt 1 view .LVU1921
3556:TP2824/TP2802.c **** 		}
 6433              		.loc 1 3556 16 is_stmt 0 view .LVU1922
 6434 0558 234B     		ldr	r3, .L486+20
 6435 055a 0522     		movs	r2, #5
 6436 055c 1A55     		strb	r2, [r3, r4]
 6437 055e E7E7     		b	.L419
 6438              	.L471:
3560:TP2824/TP2802.c **** 		}
 6439              		.loc 1 3560 4 is_stmt 1 view .LVU1923
3560:TP2824/TP2802.c **** 		}
 6440              		.loc 1 3560 16 is_stmt 0 view .LVU1924
 6441 0560 214B     		ldr	r3, .L486+20
 6442 0562 0522     		movs	r2, #5
 6443 0564 1A55     		strb	r2, [r3, r4]
 6444 0566 E3E7     		b	.L419
 6445              	.L472:
3564:TP2824/TP2802.c **** 		}
 6446              		.loc 1 3564 4 is_stmt 1 view .LVU1925
3564:TP2824/TP2802.c **** 		}
 6447              		.loc 1 3564 16 is_stmt 0 view .LVU1926
 6448 0568 1F4B     		ldr	r3, .L486+20
 6449 056a 0022     		movs	r2, #0
 6450 056c 1A55     		strb	r2, [r3, r4]
 6451 056e DFE7     		b	.L419
 6452              	.L473:
3568:TP2824/TP2802.c **** 		}
 6453              		.loc 1 3568 4 is_stmt 1 view .LVU1927
3568:TP2824/TP2802.c **** 		}
 6454              		.loc 1 3568 16 is_stmt 0 view .LVU1928
 6455 0570 1D4B     		ldr	r3, .L486+20
 6456 0572 0122     		movs	r2, #1
 6457 0574 1A55     		strb	r2, [r3, r4]
 6458 0576 DBE7     		b	.L419
 6459              	.L474:
3598:TP2824/TP2802.c **** 			}
 6460              		.loc 1 3598 5 is_stmt 1 view .LVU1929
 6461 0578 1E48     		ldr	r0, .L486+32
 6462 057a FFF7FEFF 		bl	puts
 6463              	.LVL713:
 6464 057e 73E5     		b	.L381
 6465              	.L425:
3607:TP2824/TP2802.c **** 			{
 6466              		.loc 1 3607 4 view .LVU1930
3607:TP2824/TP2802.c **** 			{
 6467              		.loc 1 3607 23 is_stmt 0 view .LVU1931
 6468 0580 1D4B     		ldr	r3, .L486+36
 6469 0582 1B78     		ldrb	r3, [r3]	@ zero_extendqisi2
 6470 0584 243B     		subs	r3, r3, #36
 6471 0586 DBB2     		uxtb	r3, r3
3607:TP2824/TP2802.c **** 			{
 6472              		.loc 1 3607 7 view .LVU1932
 6473 0588 012B     		cmp	r3, #1
 6474 058a 0BD9     		bls	.L475
 6475              	.L427:
ARM GAS  C:\Users\ryanc.HS\AppData\Local\Temp\ccAQ3CYh.s 			page 210


3614:TP2824/TP2802.c **** 				printf("CVBS NTSC   mode\r\n");
 6476              		.loc 1 3614 4 is_stmt 1 view .LVU1933
3614:TP2824/TP2802.c **** 				printf("CVBS NTSC   mode\r\n");
 6477              		.loc 1 3614 12 is_stmt 0 view .LVU1934
 6478 058c 134B     		ldr	r3, .L486+8
 6479 058e 1B5D     		ldrb	r3, [r3, r4]	@ zero_extendqisi2
3614:TP2824/TP2802.c **** 				printf("CVBS NTSC   mode\r\n");
 6480              		.loc 1 3614 7 view .LVU1935
 6481 0590 082B     		cmp	r3, #8
 6482 0592 17D0     		beq	.L476
3616:TP2824/TP2802.c **** 				printf("CVBS PAL   mode\r\n");
 6483              		.loc 1 3616 9 is_stmt 1 view .LVU1936
3616:TP2824/TP2802.c **** 				printf("CVBS PAL   mode\r\n");
 6484              		.loc 1 3616 12 is_stmt 0 view .LVU1937
 6485 0594 092B     		cmp	r3, #9
 6486 0596 19D0     		beq	.L477
3619:TP2824/TP2802.c **** 			// gRxLoopFlg = 0 ;
 6487              		.loc 1 3619 5 is_stmt 1 view .LVU1938
 6488 0598 40F62361 		movw	r1, #3619
 6489 059c 1748     		ldr	r0, .L486+40
 6490 059e FFF7FEFF 		bl	printf
 6491              	.LVL714:
 6492 05a2 61E5     		b	.L381
 6493              	.L475:
3609:TP2824/TP2802.c **** 				{
 6494              		.loc 1 3609 5 view .LVU1939
3609:TP2824/TP2802.c **** 				{
 6495              		.loc 1 3609 13 is_stmt 0 view .LVU1940
 6496 05a4 0D4B     		ldr	r3, .L486+8
 6497 05a6 1B5D     		ldrb	r3, [r3, r4]	@ zero_extendqisi2
3609:TP2824/TP2802.c **** 				{
 6498              		.loc 1 3609 8 view .LVU1941
 6499 05a8 13F0200F 		tst	r3, #32
 6500 05ac EED0     		beq	.L427
3611:TP2824/TP2802.c **** 				}
 6501              		.loc 1 3611 6 is_stmt 1 view .LVU1942
 6502 05ae 1449     		ldr	r1, .L486+44
 6503 05b0 A1FB0531 		umull	r3, r1, r1, r5
 6504 05b4 4908     		lsrs	r1, r1, #1
 6505 05b6 61F07F01 		orn	r1, r1, #127
 6506 05ba C9B2     		uxtb	r1, r1
 6507 05bc 0720     		movs	r0, #7
 6508 05be FFF7FEFF 		bl	tp28xx_byte_write
 6509              	.LVL715:
 6510 05c2 E3E7     		b	.L427
 6511              	.L476:
3615:TP2824/TP2802.c **** 			else if (mode[i] == PAL) // 20200408 cvbs night no burst
 6512              		.loc 1 3615 5 view .LVU1943
 6513 05c4 0F48     		ldr	r0, .L486+48
 6514 05c6 FFF7FEFF 		bl	puts
 6515              	.LVL716:
 6516 05ca 4DE5     		b	.L381
 6517              	.L477:
3617:TP2824/TP2802.c **** 			else
 6518              		.loc 1 3617 5 view .LVU1944
 6519 05cc 0E48     		ldr	r0, .L486+52
 6520 05ce FFF7FEFF 		bl	puts
ARM GAS  C:\Users\ryanc.HS\AppData\Local\Temp\ccAQ3CYh.s 			page 211


 6521              	.LVL717:
 6522 05d2 49E5     		b	.L381
 6523              	.L487:
 6524              		.align	2
 6525              	.L486:
 6526 05d4 88000000 		.word	.LC64
 6527 05d8 C0000000 		.word	.LC36
 6528 05dc 00000000 		.word	mode
 6529 05e0 00000000 		.word	std
 6530 05e4 D0010000 		.word	.LC48
 6531 05e8 00000000 		.word	.LANCHOR21
 6532 05ec 00000000 		.word	gbVXIS_OuputModeflg
 6533 05f0 40020000 		.word	.LC51
 6534 05f4 34020000 		.word	.LC50
 6535 05f8 00000000 		.word	chip
 6536 05fc 74020000 		.word	.LC54
 6537 0600 ABAAAAAA 		.word	-1431655765
 6538 0604 4C020000 		.word	.LC52
 6539 0608 60020000 		.word	.LC53
 6540              	.L389:
3626:TP2824/TP2802.c **** 		{
 6541              		.loc 1 3626 3 view .LVU1945
3626:TP2824/TP2802.c **** 		{
 6542              		.loc 1 3626 17 is_stmt 0 view .LVU1946
 6543 060c 5C4B     		ldr	r3, .L488
 6544 060e 1B5D     		ldrb	r3, [r3, r4]	@ zero_extendqisi2
3626:TP2824/TP2802.c **** 		{
 6545              		.loc 1 3626 6 view .LVU1947
 6546 0610 002B     		cmp	r3, #0
 6547 0612 73D1     		bne	.L478
3633:TP2824/TP2802.c **** 			{
 6548              		.loc 1 3633 4 is_stmt 1 view .LVU1948
3633:TP2824/TP2802.c **** 			{
 6549              		.loc 1 3633 23 is_stmt 0 view .LVU1949
 6550 0614 5B4B     		ldr	r3, .L488+4
 6551 0616 1B78     		ldrb	r3, [r3]	@ zero_extendqisi2
 6552 0618 243B     		subs	r3, r3, #36
 6553 061a DBB2     		uxtb	r3, r3
3633:TP2824/TP2802.c **** 			{
 6554              		.loc 1 3633 7 view .LVU1950
 6555 061c 012B     		cmp	r3, #1
 6556 061e 74D9     		bls	.L479
 6557              	.L431:
3642:TP2824/TP2802.c **** 		{
 6558              		.loc 1 3642 3 is_stmt 1 view .LVU1951
3642:TP2824/TP2802.c **** 		{
 6559              		.loc 1 3642 12 is_stmt 0 view .LVU1952
 6560 0620 594B     		ldr	r3, .L488+8
 6561 0622 1B5D     		ldrb	r3, [r3, r4]	@ zero_extendqisi2
3642:TP2824/TP2802.c **** 		{
 6562              		.loc 1 3642 6 view .LVU1953
 6563 0624 022B     		cmp	r3, #2
 6564 0626 7FF41FAD 		bne	.L381
 6565              	.LBB10:
3644:TP2824/TP2802.c **** 			if (TVI == std[i])
 6566              		.loc 1 3644 4 is_stmt 1 view .LVU1954
3645:TP2824/TP2802.c **** 			{
ARM GAS  C:\Users\ryanc.HS\AppData\Local\Temp\ccAQ3CYh.s 			page 212


 6567              		.loc 1 3645 4 view .LVU1955
3645:TP2824/TP2802.c **** 			{
 6568              		.loc 1 3645 18 is_stmt 0 view .LVU1956
 6569 062a 554B     		ldr	r3, .L488
 6570 062c 1B5D     		ldrb	r3, [r3, r4]	@ zero_extendqisi2
3645:TP2824/TP2802.c **** 			{
 6571              		.loc 1 3645 7 view .LVU1957
 6572 062e 9BBB     		cbnz	r3, .L432
3647:TP2824/TP2802.c **** 				{
 6573              		.loc 1 3647 5 is_stmt 1 view .LVU1958
3647:TP2824/TP2802.c **** 				{
 6574              		.loc 1 3647 13 is_stmt 0 view .LVU1959
 6575 0630 564B     		ldr	r3, .L488+12
 6576 0632 1B5D     		ldrb	r3, [r3, r4]	@ zero_extendqisi2
3647:TP2824/TP2802.c **** 				{
 6577              		.loc 1 3647 25 view .LVU1960
 6578 0634 083B     		subs	r3, r3, #8
 6579 0636 DBB2     		uxtb	r3, r3
3647:TP2824/TP2802.c **** 				{
 6580              		.loc 1 3647 8 view .LVU1961
 6581 0638 012B     		cmp	r3, #1
 6582 063a 6FD9     		bls	.L480
3656:TP2824/TP2802.c **** #if (_DEBUG_MESSAGE_TP2824 == ON)
 6583              		.loc 1 3656 6 is_stmt 1 view .LVU1962
3658:TP2824/TP2802.c **** #endif
 6584              		.loc 1 3658 6 view .LVU1963
 6585 063c 5448     		ldr	r0, .L488+16
 6586 063e FFF7FEFF 		bl	Printf
 6587              	.LVL718:
3656:TP2824/TP2802.c **** #if (_DEBUG_MESSAGE_TP2824 == ON)
 6588              		.loc 1 3656 18 is_stmt 0 view .LVU1964
 6589 0642 5448     		ldr	r0, .L488+20
 6590              	.L434:
 6591              	.LVL719:
3662:TP2824/TP2802.c **** 
 6592              		.loc 1 3662 5 is_stmt 1 view .LVU1965
 6593 0644 FFF7FEFF 		bl	I2CDeviceSet1
 6594              	.LVL720:
3664:TP2824/TP2802.c **** 				{
 6595              		.loc 1 3664 5 view .LVU1966
3664:TP2824/TP2802.c **** 				{
 6596              		.loc 1 3664 13 is_stmt 0 view .LVU1967
 6597 0648 504B     		ldr	r3, .L488+12
 6598 064a 1B5D     		ldrb	r3, [r3, r4]	@ zero_extendqisi2
3664:TP2824/TP2802.c **** 				{
 6599              		.loc 1 3664 29 view .LVU1968
 6600 064c 023B     		subs	r3, r3, #2
 6601 064e DBB2     		uxtb	r3, r3
3664:TP2824/TP2802.c **** 				{
 6602              		.loc 1 3664 8 view .LVU1969
 6603 0650 012B     		cmp	r3, #1
 6604 0652 68D9     		bls	.L481
 6605              	.L435:
3669:TP2824/TP2802.c **** 
 6606              		.loc 1 3669 5 is_stmt 1 view .LVU1970
 6607 0654 2146     		mov	r1, r4
 6608 0656 4020     		movs	r0, #64
ARM GAS  C:\Users\ryanc.HS\AppData\Local\Temp\ccAQ3CYh.s 			page 213


 6609 0658 FFF7FEFF 		bl	tp28xx_byte_write
 6610              	.LVL721:
3671:TP2824/TP2802.c **** 				tp28xx_byte_read(0xB6);
 6611              		.loc 1 3671 5 view .LVU1971
 6612 065c 8021     		movs	r1, #128
 6613 065e BE20     		movs	r0, #190
 6614 0660 FFF7FEFF 		bl	tp28xx_byte_write
 6615              	.LVL722:
3672:TP2824/TP2802.c **** 				tp28xx_byte_read(0xB5);
 6616              		.loc 1 3672 5 view .LVU1972
 6617 0664 B620     		movs	r0, #182
 6618 0666 FFF7FEFF 		bl	tp28xx_byte_read
 6619              	.LVL723:
3673:TP2824/TP2802.c **** 				tp28xx_byte_read(0xB4);
 6620              		.loc 1 3673 5 view .LVU1973
 6621 066a B520     		movs	r0, #181
 6622 066c FFF7FEFF 		bl	tp28xx_byte_read
 6623              	.LVL724:
3674:TP2824/TP2802.c **** 
 6624              		.loc 1 3674 5 view .LVU1974
 6625 0670 B420     		movs	r0, #180
 6626 0672 FFF7FEFF 		bl	tp28xx_byte_read
 6627              	.LVL725:
3676:TP2824/TP2802.c **** 				delay(1); // 5ms
 6628              		.loc 1 3676 5 view .LVU1975
 6629 0676 0021     		movs	r1, #0
 6630 0678 A720     		movs	r0, #167
 6631 067a FFF7FEFF 		bl	tp28xx_byte_write
 6632              	.LVL726:
3677:TP2824/TP2802.c **** 				tp28xx_byte_write(0xa7, 0x83);
 6633              		.loc 1 3677 5 view .LVU1976
 6634 067e 0120     		movs	r0, #1
 6635 0680 FFF7FEFF 		bl	delay
 6636              	.LVL727:
3678:TP2824/TP2802.c **** 
 6637              		.loc 1 3678 5 view .LVU1977
 6638 0684 8321     		movs	r1, #131
 6639 0686 A720     		movs	r0, #167
 6640 0688 FFF7FEFF 		bl	tp28xx_byte_write
 6641              	.LVL728:
3680:TP2824/TP2802.c **** 				{
 6642              		.loc 1 3680 5 view .LVU1978
3680:TP2824/TP2802.c **** 				{
 6643              		.loc 1 3680 13 is_stmt 0 view .LVU1979
 6644 068c 3F4B     		ldr	r3, .L488+12
 6645 068e 1B5D     		ldrb	r3, [r3, r4]	@ zero_extendqisi2
3680:TP2824/TP2802.c **** 				{
 6646              		.loc 1 3680 29 view .LVU1980
 6647 0690 023B     		subs	r3, r3, #2
 6648 0692 DBB2     		uxtb	r3, r3
3680:TP2824/TP2802.c **** 				{
 6649              		.loc 1 3680 8 view .LVU1981
 6650 0694 012B     		cmp	r3, #1
 6651 0696 4BD9     		bls	.L482
 6652              	.L432:
3687:TP2824/TP2802.c **** 			{
 6653              		.loc 1 3687 4 is_stmt 1 view .LVU1982
ARM GAS  C:\Users\ryanc.HS\AppData\Local\Temp\ccAQ3CYh.s 			page 214


3687:TP2824/TP2802.c **** 			{
 6654              		.loc 1 3687 18 is_stmt 0 view .LVU1983
 6655 0698 394B     		ldr	r3, .L488
 6656 069a 1B5D     		ldrb	r3, [r3, r4]	@ zero_extendqisi2
3687:TP2824/TP2802.c **** 			{
 6657              		.loc 1 3687 7 view .LVU1984
 6658 069c 012B     		cmp	r3, #1
 6659 069e 4ED0     		beq	.L483
 6660              	.L436:
3703:TP2824/TP2802.c **** 			{
 6661              		.loc 1 3703 4 is_stmt 1 view .LVU1985
3703:TP2824/TP2802.c **** 			{
 6662              		.loc 1 3703 18 is_stmt 0 view .LVU1986
 6663 06a0 374B     		ldr	r3, .L488
 6664 06a2 1B5D     		ldrb	r3, [r3, r4]	@ zero_extendqisi2
3703:TP2824/TP2802.c **** 			{
 6665              		.loc 1 3703 7 view .LVU1987
 6666 06a4 022B     		cmp	r3, #2
 6667 06a6 7FF4DFAC 		bne	.L381
3705:TP2824/TP2802.c **** 				I2CDeviceSet1(ptr_TP2824C);
 6668              		.loc 1 3705 5 is_stmt 1 view .LVU1988
3706:TP2824/TP2802.c **** 
 6669              		.loc 1 3706 5 view .LVU1989
 6670 06aa 3B48     		ldr	r0, .L488+24
 6671 06ac FFF7FEFF 		bl	I2CDeviceSet1
 6672              	.LVL729:
3708:TP2824/TP2802.c **** 				tp28xx_byte_write(0xbe, 0x80);
 6673              		.loc 1 3708 5 view .LVU1990
 6674 06b0 2146     		mov	r1, r4
 6675 06b2 4020     		movs	r0, #64
 6676 06b4 FFF7FEFF 		bl	tp28xx_byte_write
 6677              	.LVL730:
3709:TP2824/TP2802.c **** 				tp28xx_byte_read(0xB6);
 6678              		.loc 1 3709 5 view .LVU1991
 6679 06b8 8021     		movs	r1, #128
 6680 06ba BE20     		movs	r0, #190
 6681 06bc FFF7FEFF 		bl	tp28xx_byte_write
 6682              	.LVL731:
3710:TP2824/TP2802.c **** 				tp28xx_byte_read(0xB5);
 6683              		.loc 1 3710 5 view .LVU1992
 6684 06c0 B620     		movs	r0, #182
 6685 06c2 FFF7FEFF 		bl	tp28xx_byte_read
 6686              	.LVL732:
3711:TP2824/TP2802.c **** 				tp28xx_byte_read(0xB4);
 6687              		.loc 1 3711 5 view .LVU1993
 6688 06c6 B520     		movs	r0, #181
 6689 06c8 FFF7FEFF 		bl	tp28xx_byte_read
 6690              	.LVL733:
3712:TP2824/TP2802.c **** 
 6691              		.loc 1 3712 5 view .LVU1994
 6692 06cc B420     		movs	r0, #180
 6693 06ce FFF7FEFF 		bl	tp28xx_byte_read
 6694              	.LVL734:
3714:TP2824/TP2802.c **** 				tp28xx_byte_read(0xA2);
 6695              		.loc 1 3714 5 view .LVU1995
 6696 06d2 A420     		movs	r0, #164
 6697 06d4 FFF7FEFF 		bl	tp28xx_byte_read
ARM GAS  C:\Users\ryanc.HS\AppData\Local\Temp\ccAQ3CYh.s 			page 215


 6698              	.LVL735:
3715:TP2824/TP2802.c **** 				tp28xx_byte_read(0xA3);
 6699              		.loc 1 3715 5 view .LVU1996
 6700 06d8 A220     		movs	r0, #162
 6701 06da FFF7FEFF 		bl	tp28xx_byte_read
 6702              	.LVL736:
3716:TP2824/TP2802.c **** 
 6703              		.loc 1 3716 5 view .LVU1997
 6704 06de A320     		movs	r0, #163
 6705 06e0 FFF7FEFF 		bl	tp28xx_byte_read
 6706              	.LVL737:
3718:TP2824/TP2802.c **** 				delay(1); // 5ms
 6707              		.loc 1 3718 5 view .LVU1998
 6708 06e4 0021     		movs	r1, #0
 6709 06e6 A720     		movs	r0, #167
 6710 06e8 FFF7FEFF 		bl	tp28xx_byte_write
 6711              	.LVL738:
3719:TP2824/TP2802.c **** 				tp28xx_byte_write(0xa7, 0x83);
 6712              		.loc 1 3719 5 view .LVU1999
 6713 06ec 0120     		movs	r0, #1
 6714 06ee FFF7FEFF 		bl	delay
 6715              	.LVL739:
3720:TP2824/TP2802.c **** 			}
 6716              		.loc 1 3720 5 view .LVU2000
 6717 06f2 8321     		movs	r1, #131
 6718 06f4 A720     		movs	r0, #167
 6719 06f6 FFF7FEFF 		bl	tp28xx_byte_write
 6720              	.LVL740:
 6721              	.LBE10:
 6722              		.loc 1 3725 1 is_stmt 0 view .LVU2001
 6723 06fa B5E4     		b	.L381
 6724              	.L478:
3628:TP2824/TP2802.c **** 			SetCGain(0x0c);
 6725              		.loc 1 3628 4 is_stmt 1 view .LVU2002
 6726 06fc 2046     		mov	r0, r4
 6727 06fe FFF7FEFF 		bl	ManualAGC
 6728              	.LVL741:
3629:TP2824/TP2802.c **** 		}
 6729              		.loc 1 3629 4 view .LVU2003
 6730 0702 0C20     		movs	r0, #12
 6731 0704 FFF7FEFF 		bl	SetCGain
 6732              	.LVL742:
 6733 0708 8AE7     		b	.L431
 6734              	.L479:
3635:TP2824/TP2802.c **** 				{
 6735              		.loc 1 3635 5 view .LVU2004
3635:TP2824/TP2802.c **** 				{
 6736              		.loc 1 3635 13 is_stmt 0 view .LVU2005
 6737 070a 204B     		ldr	r3, .L488+12
 6738 070c 1B5D     		ldrb	r3, [r3, r4]	@ zero_extendqisi2
3635:TP2824/TP2802.c **** 				{
 6739              		.loc 1 3635 8 view .LVU2006
 6740 070e 13F0200F 		tst	r3, #32
 6741 0712 85D0     		beq	.L431
3637:TP2824/TP2802.c **** 				}
 6742              		.loc 1 3637 6 is_stmt 1 view .LVU2007
 6743 0714 1620     		movs	r0, #22
ARM GAS  C:\Users\ryanc.HS\AppData\Local\Temp\ccAQ3CYh.s 			page 216


 6744 0716 FFF7FEFF 		bl	SetCGain
 6745              	.LVL743:
 6746 071a 81E7     		b	.L431
 6747              	.L480:
 6748              	.LBB11:
3649:TP2824/TP2802.c **** #if (_DEBUG_MESSAGE_TP2824 == ON)
 6749              		.loc 1 3649 6 view .LVU2008
3651:TP2824/TP2802.c **** #endif
 6750              		.loc 1 3651 6 view .LVU2009
 6751 071c 1F48     		ldr	r0, .L488+28
 6752 071e FFF7FEFF 		bl	Printf
 6753              	.LVL744:
3649:TP2824/TP2802.c **** #if (_DEBUG_MESSAGE_TP2824 == ON)
 6754              		.loc 1 3649 18 is_stmt 0 view .LVU2010
 6755 0722 1F48     		ldr	r0, .L488+32
 6756 0724 8EE7     		b	.L434
 6757              	.L481:
3666:TP2824/TP2802.c **** 				}
 6758              		.loc 1 3666 6 is_stmt 1 view .LVU2011
 6759 0726 1921     		movs	r1, #25
 6760 0728 C620     		movs	r0, #198
 6761 072a FFF7FEFF 		bl	tp28xx_byte_write
 6762              	.LVL745:
 6763 072e 91E7     		b	.L435
 6764              	.L482:
3682:TP2824/TP2802.c **** 					printf("EQdet %d\r\n", PtzTxChNum);
 6765              		.loc 1 3682 6 view .LVU2012
3682:TP2824/TP2802.c **** 					printf("EQdet %d\r\n", PtzTxChNum);
 6766              		.loc 1 3682 17 is_stmt 0 view .LVU2013
 6767 0730 1C4B     		ldr	r3, .L488+36
 6768 0732 1C70     		strb	r4, [r3]
3683:TP2824/TP2802.c **** 				}
 6769              		.loc 1 3683 6 is_stmt 1 view .LVU2014
 6770 0734 2146     		mov	r1, r4
 6771 0736 1C48     		ldr	r0, .L488+40
 6772 0738 FFF7FEFF 		bl	printf
 6773              	.LVL746:
 6774 073c ACE7     		b	.L432
 6775              	.L483:
3689:TP2824/TP2802.c **** 				I2CDeviceSet1(ptr_TP2824C);
 6776              		.loc 1 3689 5 view .LVU2015
3690:TP2824/TP2802.c **** 
 6777              		.loc 1 3690 5 view .LVU2016
 6778 073e 1B48     		ldr	r0, .L488+44
 6779 0740 FFF7FEFF 		bl	I2CDeviceSet1
 6780              	.LVL747:
3692:TP2824/TP2802.c **** 				tp28xx_byte_write(0xbe, 0x80);
 6781              		.loc 1 3692 5 view .LVU2017
 6782 0744 2146     		mov	r1, r4
 6783 0746 4020     		movs	r0, #64
 6784 0748 FFF7FEFF 		bl	tp28xx_byte_write
 6785              	.LVL748:
3693:TP2824/TP2802.c **** 				tp28xx_byte_read(0xB6);
 6786              		.loc 1 3693 5 view .LVU2018
 6787 074c 8021     		movs	r1, #128
 6788 074e BE20     		movs	r0, #190
 6789 0750 FFF7FEFF 		bl	tp28xx_byte_write
ARM GAS  C:\Users\ryanc.HS\AppData\Local\Temp\ccAQ3CYh.s 			page 217


 6790              	.LVL749:
3694:TP2824/TP2802.c **** 				tp28xx_byte_read(0xB5);
 6791              		.loc 1 3694 5 view .LVU2019
 6792 0754 B620     		movs	r0, #182
 6793 0756 FFF7FEFF 		bl	tp28xx_byte_read
 6794              	.LVL750:
3695:TP2824/TP2802.c **** 				tp28xx_byte_read(0xB4);
 6795              		.loc 1 3695 5 view .LVU2020
 6796 075a B520     		movs	r0, #181
 6797 075c FFF7FEFF 		bl	tp28xx_byte_read
 6798              	.LVL751:
3696:TP2824/TP2802.c **** 
 6799              		.loc 1 3696 5 view .LVU2021
 6800 0760 B420     		movs	r0, #180
 6801 0762 FFF7FEFF 		bl	tp28xx_byte_read
 6802              	.LVL752:
3698:TP2824/TP2802.c **** 				delay(1); // 5ms
 6803              		.loc 1 3698 5 view .LVU2022
 6804 0766 2421     		movs	r1, #36
 6805 0768 A720     		movs	r0, #167
 6806 076a FFF7FEFF 		bl	tp28xx_byte_write
 6807              	.LVL753:
3699:TP2824/TP2802.c **** 				tp28xx_byte_write(0xa7, 0xA7);
 6808              		.loc 1 3699 5 view .LVU2023
 6809 076e 0120     		movs	r0, #1
 6810 0770 FFF7FEFF 		bl	delay
 6811              	.LVL754:
3700:TP2824/TP2802.c **** 			}
 6812              		.loc 1 3700 5 view .LVU2024
 6813 0774 A721     		movs	r1, #167
 6814 0776 0846     		mov	r0, r1
 6815 0778 FFF7FEFF 		bl	tp28xx_byte_write
 6816              	.LVL755:
 6817 077c 90E7     		b	.L436
 6818              	.L489:
 6819 077e 00BF     		.align	2
 6820              	.L488:
 6821 0780 00000000 		.word	std
 6822 0784 00000000 		.word	chip
 6823 0788 00000000 		.word	state
 6824 078c 00000000 		.word	mode
 6825 0790 C0000000 		.word	.LC67
 6826 0794 00000000 		.word	.LANCHOR16
 6827 0798 00000000 		.word	.LANCHOR24
 6828 079c A0000000 		.word	.LC66
 6829 07a0 00000000 		.word	.LANCHOR15
 6830 07a4 00000000 		.word	PtzTxChNum
 6831 07a8 C4020000 		.word	.LC57
 6832 07ac 00000000 		.word	.LANCHOR23
 6833              	.LBE11:
 6834              		.cfi_endproc
 6835              	.LFE30:
 6837              		.section	.text.Boot_Trigger_Function,"ax",%progbits
 6838              		.align	1
 6839              		.global	Boot_Trigger_Function
 6840              		.syntax unified
 6841              		.thumb
ARM GAS  C:\Users\ryanc.HS\AppData\Local\Temp\ccAQ3CYh.s 			page 218


 6842              		.thumb_func
 6843              		.fpu softvfp
 6845              	Boot_Trigger_Function:
 6846              	.LVL756:
 6847              	.LFB28:
2753:TP2824/TP2802.c **** 
 6848              		.loc 1 2753 1 view -0
 6849              		.cfi_startproc
 6850              		@ args = 0, pretend = 0, frame = 0
 6851              		@ frame_needed = 0, uses_anonymous_args = 0
2755:TP2824/TP2802.c **** 	{
 6852              		.loc 1 2755 2 view .LVU2026
2755:TP2824/TP2802.c **** 	{
 6853              		.loc 1 2755 15 is_stmt 0 view .LVU2027
 6854 0000 154B     		ldr	r3, .L499
 6855 0002 1B5C     		ldrb	r3, [r3, r0]	@ zero_extendqisi2
2755:TP2824/TP2802.c **** 	{
 6856              		.loc 1 2755 5 view .LVU2028
 6857 0004 012B     		cmp	r3, #1
 6858 0006 00D0     		beq	.L497
 6859 0008 7047     		bx	lr
 6860              	.L497:
2753:TP2824/TP2802.c **** 
 6861              		.loc 1 2753 1 view .LVU2029
 6862 000a 10B5     		push	{r4, lr}
 6863              	.LCFI29:
 6864              		.cfi_def_cfa_offset 8
 6865              		.cfi_offset 4, -8
 6866              		.cfi_offset 14, -4
 6867 000c 0446     		mov	r4, r0
2757:TP2824/TP2802.c **** 		Init_TP280x_CHx_RegSet(Tp2802_Boot_Set_output, ch);
 6868              		.loc 1 2757 3 is_stmt 1 view .LVU2030
 6869 000e 0146     		mov	r1, r0
 6870 0010 0020     		movs	r0, #0
 6871              	.LVL757:
2757:TP2824/TP2802.c **** 		Init_TP280x_CHx_RegSet(Tp2802_Boot_Set_output, ch);
 6872              		.loc 1 2757 3 is_stmt 0 view .LVU2031
 6873 0012 FFF7FEFF 		bl	Init_TP280x_CHx_RegSet
 6874              	.LVL758:
2758:TP2824/TP2802.c **** 		//	Init_TP280x_CHx_RegSet(Tp2802_Boot_Set_COC,ch);
 6875              		.loc 1 2758 3 is_stmt 1 view .LVU2032
 6876 0016 2146     		mov	r1, r4
 6877 0018 0120     		movs	r0, #1
 6878 001a FFF7FEFF 		bl	Init_TP280x_CHx_RegSet
 6879              	.LVL759:
2766:TP2824/TP2802.c **** 		{
 6880              		.loc 1 2766 3 view .LVU2033
2766:TP2824/TP2802.c **** 		{
 6881              		.loc 1 2766 13 is_stmt 0 view .LVU2034
 6882 001e 0F4B     		ldr	r3, .L499+4
 6883 0020 1B5D     		ldrb	r3, [r3, r4]	@ zero_extendqisi2
2766:TP2824/TP2802.c **** 		{
 6884              		.loc 1 2766 24 view .LVU2035
 6885 0022 083B     		subs	r3, r3, #8
 6886 0024 DBB2     		uxtb	r3, r3
2766:TP2824/TP2802.c **** 		{
 6887              		.loc 1 2766 6 view .LVU2036
ARM GAS  C:\Users\ryanc.HS\AppData\Local\Temp\ccAQ3CYh.s 			page 219


 6888 0026 012B     		cmp	r3, #1
 6889 0028 03D9     		bls	.L498
 6890              	.L492:
2774:TP2824/TP2802.c **** 		}
 6891              		.loc 1 2774 4 is_stmt 1 view .LVU2037
2774:TP2824/TP2802.c **** 		}
 6892              		.loc 1 2774 14 is_stmt 0 view .LVU2038
 6893 002a 0D4B     		ldr	r3, .L499+8
 6894 002c 1422     		movs	r2, #20
 6895 002e 1A55     		strb	r2, [r3, r4]
 6896              	.L490:
2780:TP2824/TP2802.c **** 
 6897              		.loc 1 2780 1 view .LVU2039
 6898 0030 10BD     		pop	{r4, pc}
 6899              	.L498:
2766:TP2824/TP2802.c **** 		{
 6900              		.loc 1 2766 44 discriminator 1 view .LVU2040
 6901 0032 032C     		cmp	r4, #3
 6902 0034 F9D1     		bne	.L492
2766:TP2824/TP2802.c **** 		{
 6903              		.loc 1 2766 76 discriminator 2 view .LVU2041
 6904 0036 0B4B     		ldr	r3, .L499+12
 6905 0038 1B78     		ldrb	r3, [r3]	@ zero_extendqisi2
2766:TP2824/TP2802.c **** 		{
 6906              		.loc 1 2766 57 discriminator 2 view .LVU2042
 6907 003a 042B     		cmp	r3, #4
 6908 003c F5D8     		bhi	.L492
2768:TP2824/TP2802.c **** 			msleep(800);
 6909              		.loc 1 2768 4 is_stmt 1 view .LVU2043
 6910 003e 2146     		mov	r1, r4
 6911 0040 0320     		movs	r0, #3
 6912 0042 FFF7FEFF 		bl	Init_TP280x_CHx_RegSet
 6913              	.LVL760:
2769:TP2824/TP2802.c **** 			count[ch] = 23;
 6914              		.loc 1 2769 4 view .LVU2044
 6915 0046 4FF44870 		mov	r0, #800
 6916 004a FFF7FEFF 		bl	msleep
 6917              	.LVL761:
2770:TP2824/TP2802.c **** 		}
 6918              		.loc 1 2770 4 view .LVU2045
2770:TP2824/TP2802.c **** 		}
 6919              		.loc 1 2770 14 is_stmt 0 view .LVU2046
 6920 004e 044B     		ldr	r3, .L499+8
 6921 0050 1722     		movs	r2, #23
 6922 0052 1A55     		strb	r2, [r3, r4]
 6923 0054 ECE7     		b	.L490
 6924              	.L500:
 6925 0056 00BF     		.align	2
 6926              	.L499:
 6927 0058 00000000 		.word	VideoSave
 6928 005c 00000000 		.word	mode
 6929 0060 00000000 		.word	count
 6930 0064 00000000 		.word	SelectModeType
 6931              		.cfi_endproc
 6932              	.LFE28:
 6934              		.section	.rodata.Init_TP280x_RegSet.str1.4,"aMS",%progbits,1
 6935              		.align	2
ARM GAS  C:\Users\ryanc.HS\AppData\Local\Temp\ccAQ3CYh.s 			page 220


 6936              	.LC68:
 6937 0000 0D0A6368 		.ascii	"\015\012chip %02x revision %02x\015\012\000"
 6937      69702025 
 6937      30327820 
 6937      72657669 
 6937      73696F6E 
 6938              		.align	2
 6939              	.LC69:
 6940 001c 454F4C20 		.ascii	"EOL ID\015\000"
 6940      49440D00 
 6941              		.align	2
 6942              	.LC70:
 6943 0024 54503238 		.ascii	"TP2824C test\015\000"
 6943      32344320 
 6943      74657374 
 6943      0D00
 6944 0032 0000     		.align	2
 6945              	.LC71:
 6946 0034 756E6B6E 		.ascii	"unknown ID\015\000"
 6946      6F776E20 
 6946      49440D00 
 6947              		.section	.text.Init_TP280x_RegSet,"ax",%progbits
 6948              		.align	1
 6949              		.global	Init_TP280x_RegSet
 6950              		.syntax unified
 6951              		.thumb
 6952              		.thumb_func
 6953              		.fpu softvfp
 6955              	Init_TP280x_RegSet:
 6956              	.LFB29:
2783:TP2824/TP2802.c **** 
 6957              		.loc 1 2783 1 is_stmt 1 view -0
 6958              		.cfi_startproc
 6959              		@ args = 0, pretend = 0, frame = 8
 6960              		@ frame_needed = 0, uses_anonymous_args = 0
 6961 0000 70B5     		push	{r4, r5, r6, lr}
 6962              	.LCFI30:
 6963              		.cfi_def_cfa_offset 16
 6964              		.cfi_offset 4, -16
 6965              		.cfi_offset 5, -12
 6966              		.cfi_offset 6, -8
 6967              		.cfi_offset 14, -4
 6968 0002 82B0     		sub	sp, sp, #8
 6969              	.LCFI31:
 6970              		.cfi_def_cfa_offset 24
2785:TP2824/TP2802.c **** 	tByte i, val;
 6971              		.loc 1 2785 2 view .LVU2048
2786:TP2824/TP2802.c **** 	//    tByte ch[4]={0,2,3,1};
 6972              		.loc 1 2786 2 view .LVU2049
2790:TP2824/TP2802.c **** 	//	tByte ch[4]={2,3,1,0};	//0=A,1=R,2=B,3=C
 6973              		.loc 1 2790 2 view .LVU2050
2790:TP2824/TP2802.c **** 	//	tByte ch[4]={2,3,1,0};	//0=A,1=R,2=B,3=C
 6974              		.loc 1 2790 8 is_stmt 0 view .LVU2051
 6975 0004 834B     		ldr	r3, .L539
 6976 0006 0193     		str	r3, [sp, #4]
2794:TP2824/TP2802.c **** 	// TVII2CAddress = 0x8A;
 6977              		.loc 1 2794 2 is_stmt 1 view .LVU2052
ARM GAS  C:\Users\ryanc.HS\AppData\Local\Temp\ccAQ3CYh.s 			page 221


2794:TP2824/TP2802.c **** 	// TVII2CAddress = 0x8A;
 6978              		.loc 1 2794 16 is_stmt 0 view .LVU2053
 6979 0008 834B     		ldr	r3, .L539+4
 6980 000a 8822     		movs	r2, #136
 6981 000c 1A70     		strb	r2, [r3]
2799:TP2824/TP2802.c **** 	{
 6982              		.loc 1 2799 2 is_stmt 1 view .LVU2054
 6983              	.LVL762:
2799:TP2824/TP2802.c **** 	{
 6984              		.loc 1 2799 9 is_stmt 0 view .LVU2055
 6985 000e 0024     		movs	r4, #0
 6986              	.LVL763:
 6987              	.L502:
2799:TP2824/TP2802.c **** 	{
 6988              		.loc 1 2799 14 is_stmt 1 discriminator 1 view .LVU2056
2799:TP2824/TP2802.c **** 	{
 6989              		.loc 1 2799 2 is_stmt 0 discriminator 1 view .LVU2057
 6990 0010 032C     		cmp	r4, #3
 6991 0012 0DD8     		bhi	.L503
2801:TP2824/TP2802.c **** 			break;
 6992              		.loc 1 2801 3 is_stmt 1 view .LVU2058
2801:TP2824/TP2802.c **** 			break;
 6993              		.loc 1 2801 15 is_stmt 0 view .LVU2059
 6994 0014 FE20     		movs	r0, #254
 6995 0016 FFF7FEFF 		bl	tp28xx_byte_read
 6996              	.LVL764:
2801:TP2824/TP2802.c **** 			break;
 6997              		.loc 1 2801 6 view .LVU2060
 6998 001a 2828     		cmp	r0, #40
 6999 001c 08D0     		beq	.L503
2803:TP2824/TP2802.c **** 		TVII2CAddress++;
 7000              		.loc 1 2803 3 is_stmt 1 discriminator 2 view .LVU2061
2803:TP2824/TP2802.c **** 		TVII2CAddress++;
 7001              		.loc 1 2803 16 is_stmt 0 discriminator 2 view .LVU2062
 7002 001e 7E4A     		ldr	r2, .L539+4
 7003 0020 1378     		ldrb	r3, [r2]	@ zero_extendqisi2
 7004 0022 0133     		adds	r3, r3, #1
 7005 0024 DBB2     		uxtb	r3, r3
2804:TP2824/TP2802.c **** 	}
 7006              		.loc 1 2804 3 is_stmt 1 discriminator 2 view .LVU2063
2804:TP2824/TP2802.c **** 	}
 7007              		.loc 1 2804 16 is_stmt 0 discriminator 2 view .LVU2064
 7008 0026 0133     		adds	r3, r3, #1
 7009 0028 1370     		strb	r3, [r2]
2799:TP2824/TP2802.c **** 	{
 7010              		.loc 1 2799 21 is_stmt 1 discriminator 2 view .LVU2065
2799:TP2824/TP2802.c **** 	{
 7011              		.loc 1 2799 22 is_stmt 0 discriminator 2 view .LVU2066
 7012 002a 0134     		adds	r4, r4, #1
 7013              	.LVL765:
2799:TP2824/TP2802.c **** 	{
 7014              		.loc 1 2799 22 discriminator 2 view .LVU2067
 7015 002c E4B2     		uxtb	r4, r4
 7016              	.LVL766:
2799:TP2824/TP2802.c **** 	{
 7017              		.loc 1 2799 22 discriminator 2 view .LVU2068
 7018 002e EFE7     		b	.L502
ARM GAS  C:\Users\ryanc.HS\AppData\Local\Temp\ccAQ3CYh.s 			page 222


 7019              	.L503:
2807:TP2824/TP2802.c **** 
 7020              		.loc 1 2807 2 is_stmt 1 view .LVU2069
2807:TP2824/TP2802.c **** 
 7021              		.loc 1 2807 9 is_stmt 0 view .LVU2070
 7022 0030 FF20     		movs	r0, #255
 7023 0032 FFF7FEFF 		bl	tp28xx_byte_read
 7024              	.LVL767:
2807:TP2824/TP2802.c **** 
 7025              		.loc 1 2807 7 view .LVU2071
 7026 0036 794C     		ldr	r4, .L539+8
 7027              	.LVL768:
2807:TP2824/TP2802.c **** 
 7028              		.loc 1 2807 7 view .LVU2072
 7029 0038 2070     		strb	r0, [r4]
2809:TP2824/TP2802.c **** 	revision &= 0x07;
 7030              		.loc 1 2809 2 is_stmt 1 view .LVU2073
2809:TP2824/TP2802.c **** 	revision &= 0x07;
 7031              		.loc 1 2809 13 is_stmt 0 view .LVU2074
 7032 003a FD20     		movs	r0, #253
 7033 003c FFF7FEFF 		bl	tp28xx_byte_read
 7034              	.LVL769:
2810:TP2824/TP2802.c **** 
 7035              		.loc 1 2810 2 is_stmt 1 view .LVU2075
2810:TP2824/TP2802.c **** 
 7036              		.loc 1 2810 11 is_stmt 0 view .LVU2076
 7037 0040 00F00702 		and	r2, r0, #7
 7038 0044 764B     		ldr	r3, .L539+12
 7039 0046 1A70     		strb	r2, [r3]
2812:TP2824/TP2802.c **** 	flag_CVBS = 0;
 7040              		.loc 1 2812 2 is_stmt 1 view .LVU2077
 7041 0048 2178     		ldrb	r1, [r4]	@ zero_extendqisi2
 7042 004a 7648     		ldr	r0, .L539+16
 7043 004c FFF7FEFF 		bl	printf
 7044              	.LVL770:
2813:TP2824/TP2802.c **** 	flag_AUDIO = 0;
 7045              		.loc 1 2813 2 view .LVU2078
2813:TP2824/TP2802.c **** 	flag_AUDIO = 0;
 7046              		.loc 1 2813 12 is_stmt 0 view .LVU2079
 7047 0050 0023     		movs	r3, #0
 7048 0052 754A     		ldr	r2, .L539+20
 7049 0054 1360     		str	r3, [r2]
2814:TP2824/TP2802.c **** 	flag_MEGA = 0;
 7050              		.loc 1 2814 2 is_stmt 1 view .LVU2080
2814:TP2824/TP2802.c **** 	flag_MEGA = 0;
 7051              		.loc 1 2814 13 is_stmt 0 view .LVU2081
 7052 0056 754A     		ldr	r2, .L539+24
 7053 0058 1360     		str	r3, [r2]
2815:TP2824/TP2802.c **** 	ptr_TP2802 = TP2824C_DataSet; // def  chunyu
 7054              		.loc 1 2815 2 is_stmt 1 view .LVU2082
2815:TP2824/TP2802.c **** 	ptr_TP2802 = TP2824C_DataSet; // def  chunyu
 7055              		.loc 1 2815 12 is_stmt 0 view .LVU2083
 7056 005a 754A     		ldr	r2, .L539+28
 7057 005c 1360     		str	r3, [r2]
2816:TP2824/TP2802.c **** 	switch (chip)
 7058              		.loc 1 2816 2 is_stmt 1 view .LVU2084
2817:TP2824/TP2802.c **** 	{
ARM GAS  C:\Users\ryanc.HS\AppData\Local\Temp\ccAQ3CYh.s 			page 223


 7059              		.loc 1 2817 2 view .LVU2085
 7060 005e 2378     		ldrb	r3, [r4]	@ zero_extendqisi2
 7061 0060 023B     		subs	r3, r3, #2
 7062 0062 252B     		cmp	r3, #37
 7063 0064 66D8     		bhi	.L505
 7064 0066 DFE803F0 		tbb	[pc, r3]
 7065              	.L507:
 7066 006a 13       		.byte	(.L511-.L507)/2
 7067 006b 65       		.byte	(.L505-.L507)/2
 7068 006c 13       		.byte	(.L511-.L507)/2
 7069 006d 65       		.byte	(.L505-.L507)/2
 7070 006e 65       		.byte	(.L505-.L507)/2
 7071 006f 65       		.byte	(.L505-.L507)/2
 7072 0070 65       		.byte	(.L505-.L507)/2
 7073 0071 65       		.byte	(.L505-.L507)/2
 7074 0072 65       		.byte	(.L505-.L507)/2
 7075 0073 65       		.byte	(.L505-.L507)/2
 7076 0074 65       		.byte	(.L505-.L507)/2
 7077 0075 65       		.byte	(.L505-.L507)/2
 7078 0076 65       		.byte	(.L505-.L507)/2
 7079 0077 65       		.byte	(.L505-.L507)/2
 7080 0078 65       		.byte	(.L505-.L507)/2
 7081 0079 65       		.byte	(.L505-.L507)/2
 7082 007a 65       		.byte	(.L505-.L507)/2
 7083 007b 65       		.byte	(.L505-.L507)/2
 7084 007c 65       		.byte	(.L505-.L507)/2
 7085 007d 65       		.byte	(.L505-.L507)/2
 7086 007e 65       		.byte	(.L505-.L507)/2
 7087 007f 65       		.byte	(.L505-.L507)/2
 7088 0080 65       		.byte	(.L505-.L507)/2
 7089 0081 65       		.byte	(.L505-.L507)/2
 7090 0082 65       		.byte	(.L505-.L507)/2
 7091 0083 65       		.byte	(.L505-.L507)/2
 7092 0084 65       		.byte	(.L505-.L507)/2
 7093 0085 65       		.byte	(.L505-.L507)/2
 7094 0086 65       		.byte	(.L505-.L507)/2
 7095 0087 65       		.byte	(.L505-.L507)/2
 7096 0088 65       		.byte	(.L505-.L507)/2
 7097 0089 65       		.byte	(.L505-.L507)/2
 7098 008a 13       		.byte	(.L511-.L507)/2
 7099 008b 2A       		.byte	(.L510-.L507)/2
 7100 008c 3A       		.byte	(.L509-.L507)/2
 7101 008d 65       		.byte	(.L505-.L507)/2
 7102 008e 41       		.byte	(.L508-.L507)/2
 7103 008f 55       		.byte	(.L506-.L507)/2
 7104              		.p2align 1
 7105              	.L511:
2823:TP2824/TP2802.c **** 		break;
 7106              		.loc 1 2823 3 view .LVU2086
 7107 0090 6848     		ldr	r0, .L539+32
 7108 0092 FFF7FEFF 		bl	puts
 7109              	.LVL771:
2824:TP2824/TP2802.c **** 
 7110              		.loc 1 2824 3 view .LVU2087
2816:TP2824/TP2802.c **** 	switch (chip)
 7111              		.loc 1 2816 13 is_stmt 0 view .LVU2088
 7112 0096 684C     		ldr	r4, .L539+36
ARM GAS  C:\Users\ryanc.HS\AppData\Local\Temp\ccAQ3CYh.s 			page 224


 7113              	.L512:
 7114              	.LVL772:
2886:TP2824/TP2802.c **** 
 7115              		.loc 1 2886 2 is_stmt 1 view .LVU2089
 7116 0098 FFF7FEFF 		bl	Set_PLL_StartUp
 7117              	.LVL773:
2888:TP2824/TP2802.c **** 
 7118              		.loc 1 2888 2 view .LVU2090
 7119 009c 2046     		mov	r0, r4
 7120 009e FFF7FEFF 		bl	I2CDeviceSet1
 7121              	.LVL774:
2890:TP2824/TP2802.c **** 		I2CDeviceSet1(TP2834_Audio_DataSet);
 7122              		.loc 1 2890 2 view .LVU2091
2890:TP2824/TP2802.c **** 		I2CDeviceSet1(TP2834_Audio_DataSet);
 7123              		.loc 1 2890 6 is_stmt 0 view .LVU2092
 7124 00a2 624B     		ldr	r3, .L539+24
 7125 00a4 1B68     		ldr	r3, [r3]
2890:TP2824/TP2802.c **** 		I2CDeviceSet1(TP2834_Audio_DataSet);
 7126              		.loc 1 2890 5 view .LVU2093
 7127 00a6 002B     		cmp	r3, #0
 7128 00a8 4BD1     		bne	.L529
 7129              	.L514:
2924:TP2824/TP2802.c **** 
 7130              		.loc 1 2924 2 is_stmt 1 view .LVU2094
2924:TP2824/TP2802.c **** 
 7131              		.loc 1 2924 9 is_stmt 0 view .LVU2095
 7132 00aa 644B     		ldr	r3, .L539+40
 7133 00ac 0122     		movs	r2, #1
 7134 00ae 1A70     		strb	r2, [r3]
2926:TP2824/TP2802.c **** 
 7135              		.loc 1 2926 2 is_stmt 1 view .LVU2096
2926:TP2824/TP2802.c **** 
 7136              		.loc 1 2926 8 is_stmt 0 view .LVU2097
 7137 00b0 FFF7FEFF 		bl	CheckTrigger
 7138              	.LVL775:
2928:TP2824/TP2802.c **** 	{
 7139              		.loc 1 2928 2 is_stmt 1 view .LVU2098
2928:TP2824/TP2802.c **** 	{
 7140              		.loc 1 2928 5 is_stmt 0 view .LVU2099
 7141 00b4 0646     		mov	r6, r0
 7142 00b6 0028     		cmp	r0, #0
 7143 00b8 47D1     		bne	.L530
 7144              	.LVL776:
 7145              	.L515:
2816:TP2824/TP2802.c **** 	switch (chip)
 7146              		.loc 1 2816 13 discriminator 1 view .LVU2100
 7147 00ba 0025     		movs	r5, #0
 7148 00bc 59E0     		b	.L518
 7149              	.LVL777:
 7150              	.L510:
2827:TP2824/TP2802.c **** 		flag_AUDIO = 1;
 7151              		.loc 1 2827 3 is_stmt 1 view .LVU2101
2827:TP2824/TP2802.c **** 		flag_AUDIO = 1;
 7152              		.loc 1 2827 13 is_stmt 0 view .LVU2102
 7153 00be 0123     		movs	r3, #1
 7154 00c0 594A     		ldr	r2, .L539+20
 7155 00c2 1360     		str	r3, [r2]
ARM GAS  C:\Users\ryanc.HS\AppData\Local\Temp\ccAQ3CYh.s 			page 225


2828:TP2824/TP2802.c **** 		if (0x01 == revision)
 7156              		.loc 1 2828 3 is_stmt 1 view .LVU2103
2828:TP2824/TP2802.c **** 		if (0x01 == revision)
 7157              		.loc 1 2828 14 is_stmt 0 view .LVU2104
 7158 00c4 594A     		ldr	r2, .L539+24
 7159 00c6 1360     		str	r3, [r2]
2829:TP2824/TP2802.c **** 		{
 7160              		.loc 1 2829 3 is_stmt 1 view .LVU2105
2829:TP2824/TP2802.c **** 		{
 7161              		.loc 1 2829 12 is_stmt 0 view .LVU2106
 7162 00c8 554B     		ldr	r3, .L539+12
 7163 00ca 1B78     		ldrb	r3, [r3]	@ zero_extendqisi2
2829:TP2824/TP2802.c **** 		{
 7164              		.loc 1 2829 6 view .LVU2107
 7165 00cc 012B     		cmp	r3, #1
 7166 00ce 01D0     		beq	.L531
2836:TP2824/TP2802.c **** 		}
 7167              		.loc 1 2836 15 view .LVU2108
 7168 00d0 5B4C     		ldr	r4, .L539+44
 7169 00d2 E1E7     		b	.L512
 7170              	.L531:
2831:TP2824/TP2802.c **** 			ptr_TP2802 = TP2833_DataSet;
 7171              		.loc 1 2831 4 is_stmt 1 view .LVU2109
2831:TP2824/TP2802.c **** 			ptr_TP2802 = TP2833_DataSet;
 7172              		.loc 1 2831 9 is_stmt 0 view .LVU2110
 7173 00d4 514B     		ldr	r3, .L539+8
 7174 00d6 2522     		movs	r2, #37
 7175 00d8 1A70     		strb	r2, [r3]
2832:TP2824/TP2802.c **** 		}
 7176              		.loc 1 2832 4 is_stmt 1 view .LVU2111
2832:TP2824/TP2802.c **** 		}
 7177              		.loc 1 2832 15 is_stmt 0 view .LVU2112
 7178 00da 5A4C     		ldr	r4, .L539+48
 7179 00dc DCE7     		b	.L512
 7180              	.L509:
2841:TP2824/TP2802.c **** 		flag_AUDIO = 1;
 7181              		.loc 1 2841 3 is_stmt 1 view .LVU2113
2841:TP2824/TP2802.c **** 		flag_AUDIO = 1;
 7182              		.loc 1 2841 13 is_stmt 0 view .LVU2114
 7183 00de 0123     		movs	r3, #1
 7184 00e0 514A     		ldr	r2, .L539+20
 7185 00e2 1360     		str	r3, [r2]
2842:TP2824/TP2802.c **** 		ptr_TP2802 = TP2834_DataSet;
 7186              		.loc 1 2842 3 is_stmt 1 view .LVU2115
2842:TP2824/TP2802.c **** 		ptr_TP2802 = TP2834_DataSet;
 7187              		.loc 1 2842 14 is_stmt 0 view .LVU2116
 7188 00e4 514A     		ldr	r2, .L539+24
 7189 00e6 1360     		str	r3, [r2]
2843:TP2824/TP2802.c **** 		break;
 7190              		.loc 1 2843 3 is_stmt 1 view .LVU2117
2844:TP2824/TP2802.c **** 
 7191              		.loc 1 2844 3 view .LVU2118
2843:TP2824/TP2802.c **** 		break;
 7192              		.loc 1 2843 14 is_stmt 0 view .LVU2119
 7193 00e8 574C     		ldr	r4, .L539+52
2844:TP2824/TP2802.c **** 
 7194              		.loc 1 2844 3 view .LVU2120
ARM GAS  C:\Users\ryanc.HS\AppData\Local\Temp\ccAQ3CYh.s 			page 226


 7195 00ea D5E7     		b	.L512
 7196              	.L508:
2847:TP2824/TP2802.c **** 		flag_AUDIO = 1;
 7197              		.loc 1 2847 3 is_stmt 1 view .LVU2121
2847:TP2824/TP2802.c **** 		flag_AUDIO = 1;
 7198              		.loc 1 2847 13 is_stmt 0 view .LVU2122
 7199 00ec 0123     		movs	r3, #1
 7200 00ee 4E4A     		ldr	r2, .L539+20
 7201 00f0 1360     		str	r3, [r2]
2848:TP2824/TP2802.c **** 
 7202              		.loc 1 2848 3 is_stmt 1 view .LVU2123
2848:TP2824/TP2802.c **** 
 7203              		.loc 1 2848 14 is_stmt 0 view .LVU2124
 7204 00f2 4E4A     		ldr	r2, .L539+24
 7205 00f4 1360     		str	r3, [r2]
2850:TP2824/TP2802.c **** 		{
 7206              		.loc 1 2850 3 is_stmt 1 view .LVU2125
2850:TP2824/TP2802.c **** 		{
 7207              		.loc 1 2850 12 is_stmt 0 view .LVU2126
 7208 00f6 4A4B     		ldr	r3, .L539+12
 7209 00f8 1B78     		ldrb	r3, [r3]	@ zero_extendqisi2
2850:TP2824/TP2802.c **** 		{
 7210              		.loc 1 2850 6 view .LVU2127
 7211 00fa 012B     		cmp	r3, #1
 7212 00fc 05D0     		beq	.L532
2857:TP2824/TP2802.c **** 		{
 7213              		.loc 1 2857 8 is_stmt 1 view .LVU2128
2857:TP2824/TP2802.c **** 		{
 7214              		.loc 1 2857 11 is_stmt 0 view .LVU2129
 7215 00fe F3B9     		cbnz	r3, .L526
2859:TP2824/TP2802.c **** 			ptr_TP2802 = TP2853C_DataSet;
 7216              		.loc 1 2859 4 is_stmt 1 view .LVU2130
2859:TP2824/TP2802.c **** 			ptr_TP2802 = TP2853C_DataSet;
 7217              		.loc 1 2859 14 is_stmt 0 view .LVU2131
 7218 0100 4B4B     		ldr	r3, .L539+28
 7219 0102 0122     		movs	r2, #1
 7220 0104 1A60     		str	r2, [r3]
2860:TP2824/TP2802.c **** 		}
 7221              		.loc 1 2860 4 is_stmt 1 view .LVU2132
2860:TP2824/TP2802.c **** 		}
 7222              		.loc 1 2860 15 is_stmt 0 view .LVU2133
 7223 0106 514C     		ldr	r4, .L539+56
 7224 0108 C6E7     		b	.L512
 7225              	.L532:
2852:TP2824/TP2802.c **** 			// flag_MEGA = 1;
 7226              		.loc 1 2852 4 is_stmt 1 view .LVU2134
2852:TP2824/TP2802.c **** 			// flag_MEGA = 1;
 7227              		.loc 1 2852 9 is_stmt 0 view .LVU2135
 7228 010a 444B     		ldr	r3, .L539+8
 7229 010c 2F22     		movs	r2, #47
 7230 010e 1A70     		strb	r2, [r3]
2854:TP2824/TP2802.c **** 			ptr_TP2802 = TP2826_DataSet;
 7231              		.loc 1 2854 4 is_stmt 1 view .LVU2136
2855:TP2824/TP2802.c **** 		}
 7232              		.loc 1 2855 4 view .LVU2137
2855:TP2824/TP2802.c **** 		}
 7233              		.loc 1 2855 15 is_stmt 0 view .LVU2138
ARM GAS  C:\Users\ryanc.HS\AppData\Local\Temp\ccAQ3CYh.s 			page 227


 7234 0110 4F4C     		ldr	r4, .L539+60
 7235 0112 C1E7     		b	.L512
 7236              	.L506:
2869:TP2824/TP2802.c **** 		flag_AUDIO = 1;
 7237              		.loc 1 2869 3 is_stmt 1 view .LVU2139
2869:TP2824/TP2802.c **** 		flag_AUDIO = 1;
 7238              		.loc 1 2869 13 is_stmt 0 view .LVU2140
 7239 0114 0123     		movs	r3, #1
 7240 0116 444A     		ldr	r2, .L539+20
 7241 0118 1360     		str	r3, [r2]
2870:TP2824/TP2802.c **** 
 7242              		.loc 1 2870 3 is_stmt 1 view .LVU2141
2870:TP2824/TP2802.c **** 
 7243              		.loc 1 2870 14 is_stmt 0 view .LVU2142
 7244 011a 444A     		ldr	r2, .L539+24
 7245 011c 1360     		str	r3, [r2]
2872:TP2824/TP2802.c **** 		{
 7246              		.loc 1 2872 3 is_stmt 1 view .LVU2143
2872:TP2824/TP2802.c **** 		{
 7247              		.loc 1 2872 12 is_stmt 0 view .LVU2144
 7248 011e 404B     		ldr	r3, .L539+12
 7249 0120 1B78     		ldrb	r3, [r3]	@ zero_extendqisi2
2872:TP2824/TP2802.c **** 		{
 7250              		.loc 1 2872 6 view .LVU2145
 7251 0122 042B     		cmp	r3, #4
 7252 0124 01D0     		beq	.L533
2816:TP2824/TP2802.c **** 	switch (chip)
 7253              		.loc 1 2816 13 view .LVU2146
 7254 0126 444C     		ldr	r4, .L539+36
 7255 0128 B6E7     		b	.L512
 7256              	.L533:
2875:TP2824/TP2802.c **** 			ptr_TP2802 = TP2824C_DataSet;
 7257              		.loc 1 2875 4 is_stmt 1 view .LVU2147
2876:TP2824/TP2802.c **** 			printf("TP2824C test\r\n");
 7258              		.loc 1 2876 4 view .LVU2148
2877:TP2824/TP2802.c **** 		}
 7259              		.loc 1 2877 4 view .LVU2149
 7260 012a 4A48     		ldr	r0, .L539+64
 7261 012c FFF7FEFF 		bl	puts
 7262              	.LVL778:
2876:TP2824/TP2802.c **** 			printf("TP2824C test\r\n");
 7263              		.loc 1 2876 15 is_stmt 0 view .LVU2150
 7264 0130 414C     		ldr	r4, .L539+36
 7265 0132 B1E7     		b	.L512
 7266              	.L505:
2882:TP2824/TP2802.c **** 		break;
 7267              		.loc 1 2882 3 is_stmt 1 view .LVU2151
 7268 0134 4848     		ldr	r0, .L539+68
 7269 0136 FFF7FEFF 		bl	puts
 7270              	.LVL779:
2883:TP2824/TP2802.c **** 	}
 7271              		.loc 1 2883 3 view .LVU2152
2816:TP2824/TP2802.c **** 	switch (chip)
 7272              		.loc 1 2816 13 is_stmt 0 view .LVU2153
 7273 013a 3F4C     		ldr	r4, .L539+36
2883:TP2824/TP2802.c **** 	}
 7274              		.loc 1 2883 3 view .LVU2154
ARM GAS  C:\Users\ryanc.HS\AppData\Local\Temp\ccAQ3CYh.s 			page 228


 7275 013c ACE7     		b	.L512
 7276              	.L526:
2864:TP2824/TP2802.c **** 		}
 7277              		.loc 1 2864 15 view .LVU2155
 7278 013e 434C     		ldr	r4, .L539+56
 7279 0140 AAE7     		b	.L512
 7280              	.LVL780:
 7281              	.L529:
2891:TP2824/TP2802.c **** 		/*
 7282              		.loc 1 2891 3 is_stmt 1 view .LVU2156
 7283 0142 4648     		ldr	r0, .L539+72
 7284 0144 FFF7FEFF 		bl	I2CDeviceSet1
 7285              	.LVL781:
 7286 0148 AFE7     		b	.L514
 7287              	.LVL782:
 7288              	.L530:
2930:TP2824/TP2802.c **** 
 7289              		.loc 1 2930 3 view .LVU2157
 7290 014a FFF7FEFF 		bl	CheckTrigger
 7291              	.LVL783:
2930:TP2824/TP2802.c **** 
 7292              		.loc 1 2930 3 is_stmt 0 view .LVU2158
 7293 014e FFF7FEFF 		bl	TriggerHandler
 7294              	.LVL784:
2934:TP2824/TP2802.c **** 		/*
 7295              		.loc 1 2934 3 is_stmt 1 view .LVU2159
 7296 0152 434B     		ldr	r3, .L539+76
 7297 0154 1878     		ldrb	r0, [r3]	@ zero_extendqisi2
 7298 0156 0138     		subs	r0, r0, #1
 7299 0158 C0B2     		uxtb	r0, r0
 7300 015a FFF7FEFF 		bl	Boot_Trigger_Function
 7301              	.LVL785:
 7302 015e ACE7     		b	.L515
 7303              	.LVL786:
 7304              	.L535:
3016:TP2824/TP2802.c **** 			Init_TP280x_CHx_RegSet(Tp2802_Boot_Set_output, ch[i]);
 7305              		.loc 1 3016 4 view .LVU2160
 7306 0160 2146     		mov	r1, r4
 7307 0162 FFF7FEFF 		bl	Init_TP280x_CHx_RegSet
 7308              	.LVL787:
3017:TP2824/TP2802.c **** 
 7309              		.loc 1 3017 4 view .LVU2161
 7310 0166 2146     		mov	r1, r4
 7311 0168 0120     		movs	r0, #1
 7312 016a FFF7FEFF 		bl	Init_TP280x_CHx_RegSet
 7313              	.LVL788:
 7314              	.L516:
3006:TP2824/TP2802.c **** 	{
 7315              		.loc 1 3006 31 discriminator 2 view .LVU2162
3006:TP2824/TP2802.c **** 	{
 7316              		.loc 1 3006 32 is_stmt 0 discriminator 2 view .LVU2163
 7317 016e 0135     		adds	r5, r5, #1
 7318              	.LVL789:
3006:TP2824/TP2802.c **** 	{
 7319              		.loc 1 3006 32 discriminator 2 view .LVU2164
 7320 0170 EDB2     		uxtb	r5, r5
 7321              	.LVL790:
ARM GAS  C:\Users\ryanc.HS\AppData\Local\Temp\ccAQ3CYh.s 			page 229


 7322              	.L518:
3006:TP2824/TP2802.c **** 	{
 7323              		.loc 1 3006 14 is_stmt 1 discriminator 1 view .LVU2165
3006:TP2824/TP2802.c **** 	{
 7324              		.loc 1 3006 2 is_stmt 0 discriminator 1 view .LVU2166
 7325 0172 032D     		cmp	r5, #3
 7326 0174 1CD8     		bhi	.L534
3009:TP2824/TP2802.c **** 		{
 7327              		.loc 1 3009 3 is_stmt 1 view .LVU2167
3009:TP2824/TP2802.c **** 		{
 7328              		.loc 1 3009 7 is_stmt 0 view .LVU2168
 7329 0176 02AB     		add	r3, sp, #8
 7330 0178 2B44     		add	r3, r3, r5
 7331 017a 13F8044C 		ldrb	r4, [r3, #-4]	@ zero_extendqisi2
 7332 017e 2046     		mov	r0, r4
 7333 0180 FFF7FEFF 		bl	INPUT_VIDEO_CHECK
 7334              	.LVL791:
3009:TP2824/TP2802.c **** 		{
 7335              		.loc 1 3009 6 view .LVU2169
 7336 0184 0028     		cmp	r0, #0
 7337 0186 F2D1     		bne	.L516
3009:TP2824/TP2802.c **** 		{
 7338              		.loc 1 3009 50 discriminator 1 view .LVU2170
 7339 0188 354B     		ldr	r3, .L539+76
 7340 018a 1A78     		ldrb	r2, [r3]	@ zero_extendqisi2
3009:TP2824/TP2802.c **** 		{
 7341              		.loc 1 3009 60 discriminator 1 view .LVU2171
 7342 018c 631C     		adds	r3, r4, #1
3009:TP2824/TP2802.c **** 		{
 7343              		.loc 1 3009 32 discriminator 1 view .LVU2172
 7344 018e 9A42     		cmp	r2, r3
 7345 0190 EDD0     		beq	.L516
3014:TP2824/TP2802.c **** 		{
 7346              		.loc 1 3014 3 is_stmt 1 view .LVU2173
3014:TP2824/TP2802.c **** 		{
 7347              		.loc 1 3014 16 is_stmt 0 view .LVU2174
 7348 0192 344B     		ldr	r3, .L539+80
 7349 0194 1B5D     		ldrb	r3, [r3, r4]	@ zero_extendqisi2
3014:TP2824/TP2802.c **** 		{
 7350              		.loc 1 3014 6 view .LVU2175
 7351 0196 012B     		cmp	r3, #1
 7352 0198 E2D0     		beq	.L535
3024:TP2824/TP2802.c **** 			state[ch[i]] = VIDEO_UNPLUG;
 7353              		.loc 1 3024 4 is_stmt 1 view .LVU2176
3024:TP2824/TP2802.c **** 			state[ch[i]] = VIDEO_UNPLUG;
 7354              		.loc 1 3024 17 is_stmt 0 view .LVU2177
 7355 019a 0023     		movs	r3, #0
 7356 019c 324A     		ldr	r2, .L539+84
 7357 019e 1355     		strb	r3, [r2, r4]
3025:TP2824/TP2802.c **** 			std[ch[i]] = TVI;
 7358              		.loc 1 3025 4 is_stmt 1 view .LVU2178
3025:TP2824/TP2802.c **** 			std[ch[i]] = TVI;
 7359              		.loc 1 3025 17 is_stmt 0 view .LVU2179
 7360 01a0 324A     		ldr	r2, .L539+88
 7361 01a2 1355     		strb	r3, [r2, r4]
3026:TP2824/TP2802.c **** 			mode[ch[i]] = NoDet; /// R1080P30/*NoDet*/;
 7362              		.loc 1 3026 4 is_stmt 1 view .LVU2180
ARM GAS  C:\Users\ryanc.HS\AppData\Local\Temp\ccAQ3CYh.s 			page 230


3026:TP2824/TP2802.c **** 			mode[ch[i]] = NoDet; /// R1080P30/*NoDet*/;
 7363              		.loc 1 3026 15 is_stmt 0 view .LVU2181
 7364 01a4 324A     		ldr	r2, .L539+92
 7365 01a6 1355     		strb	r3, [r2, r4]
3027:TP2824/TP2802.c **** 		}
 7366              		.loc 1 3027 4 is_stmt 1 view .LVU2182
3027:TP2824/TP2802.c **** 		}
 7367              		.loc 1 3027 16 is_stmt 0 view .LVU2183
 7368 01a8 324B     		ldr	r3, .L539+96
 7369 01aa 0722     		movs	r2, #7
 7370 01ac 1A55     		strb	r2, [r3, r4]
 7371 01ae DEE7     		b	.L516
 7372              	.L534:
3082:TP2824/TP2802.c **** 	{
 7373              		.loc 1 3082 9 view .LVU2184
 7374 01b0 0024     		movs	r4, #0
 7375 01b2 09E0     		b	.L520
 7376              	.LVL792:
 7377              	.L537:
3100:TP2824/TP2802.c **** 			Init_TP280x_CHx_RegSet(Tp2802_Boot_Set_output, ch[i]);
 7378              		.loc 1 3100 4 is_stmt 1 view .LVU2185
 7379 01b4 2946     		mov	r1, r5
 7380 01b6 0020     		movs	r0, #0
 7381 01b8 FFF7FEFF 		bl	Init_TP280x_CHx_RegSet
 7382              	.LVL793:
3101:TP2824/TP2802.c **** 
 7383              		.loc 1 3101 4 view .LVU2186
 7384 01bc 2946     		mov	r1, r5
 7385 01be 0120     		movs	r0, #1
 7386 01c0 FFF7FEFF 		bl	Init_TP280x_CHx_RegSet
 7387              	.LVL794:
 7388              	.L521:
3082:TP2824/TP2802.c **** 	{
 7389              		.loc 1 3082 31 discriminator 2 view .LVU2187
3082:TP2824/TP2802.c **** 	{
 7390              		.loc 1 3082 32 is_stmt 0 discriminator 2 view .LVU2188
 7391 01c4 0134     		adds	r4, r4, #1
 7392              	.LVL795:
3082:TP2824/TP2802.c **** 	{
 7393              		.loc 1 3082 32 discriminator 2 view .LVU2189
 7394 01c6 E4B2     		uxtb	r4, r4
 7395              	.LVL796:
 7396              	.L520:
3082:TP2824/TP2802.c **** 	{
 7397              		.loc 1 3082 14 is_stmt 1 discriminator 1 view .LVU2190
3082:TP2824/TP2802.c **** 	{
 7398              		.loc 1 3082 2 is_stmt 0 discriminator 1 view .LVU2191
 7399 01c8 032C     		cmp	r4, #3
 7400 01ca 17D8     		bhi	.L536
3085:TP2824/TP2802.c **** 		{
 7401              		.loc 1 3085 3 is_stmt 1 view .LVU2192
3085:TP2824/TP2802.c **** 		{
 7402              		.loc 1 3085 8 is_stmt 0 view .LVU2193
 7403 01cc 02AB     		add	r3, sp, #8
 7404 01ce 2344     		add	r3, r3, r4
 7405 01d0 13F8045C 		ldrb	r5, [r3, #-4]	@ zero_extendqisi2
 7406 01d4 2846     		mov	r0, r5
ARM GAS  C:\Users\ryanc.HS\AppData\Local\Temp\ccAQ3CYh.s 			page 231


 7407 01d6 FFF7FEFF 		bl	INPUT_VIDEO_CHECK
 7408              	.LVL797:
3085:TP2824/TP2802.c **** 		{
 7409              		.loc 1 3085 6 view .LVU2194
 7410 01da 0028     		cmp	r0, #0
 7411 01dc F2D0     		beq	.L521
3090:TP2824/TP2802.c **** 		{
 7412              		.loc 1 3090 3 is_stmt 1 view .LVU2195
3090:TP2824/TP2802.c **** 		{
 7413              		.loc 1 3090 16 is_stmt 0 view .LVU2196
 7414 01de 214B     		ldr	r3, .L539+80
 7415 01e0 5B5D     		ldrb	r3, [r3, r5]	@ zero_extendqisi2
3090:TP2824/TP2802.c **** 		{
 7416              		.loc 1 3090 6 view .LVU2197
 7417 01e2 012B     		cmp	r3, #1
 7418 01e4 E6D0     		beq	.L537
3122:TP2824/TP2802.c **** 			state[ch[i]] = VIDEO_UNPLUG;
 7419              		.loc 1 3122 4 is_stmt 1 view .LVU2198
3122:TP2824/TP2802.c **** 			state[ch[i]] = VIDEO_UNPLUG;
 7420              		.loc 1 3122 17 is_stmt 0 view .LVU2199
 7421 01e6 0023     		movs	r3, #0
 7422 01e8 1F4A     		ldr	r2, .L539+84
 7423 01ea 5355     		strb	r3, [r2, r5]
3123:TP2824/TP2802.c **** 			std[ch[i]] = TVI;
 7424              		.loc 1 3123 4 is_stmt 1 view .LVU2200
3123:TP2824/TP2802.c **** 			std[ch[i]] = TVI;
 7425              		.loc 1 3123 17 is_stmt 0 view .LVU2201
 7426 01ec 1F4A     		ldr	r2, .L539+88
 7427 01ee 5355     		strb	r3, [r2, r5]
3124:TP2824/TP2802.c **** 			mode[ch[i]] = NoDet; /// R1080P30/*NoDet*/;
 7428              		.loc 1 3124 4 is_stmt 1 view .LVU2202
3124:TP2824/TP2802.c **** 			mode[ch[i]] = NoDet; /// R1080P30/*NoDet*/;
 7429              		.loc 1 3124 15 is_stmt 0 view .LVU2203
 7430 01f0 1F4A     		ldr	r2, .L539+92
 7431 01f2 5355     		strb	r3, [r2, r5]
3125:TP2824/TP2802.c **** 								 // Set_VidRes(i);
 7432              		.loc 1 3125 4 is_stmt 1 view .LVU2204
3125:TP2824/TP2802.c **** 								 // Set_VidRes(i);
 7433              		.loc 1 3125 16 is_stmt 0 view .LVU2205
 7434 01f4 1F4B     		ldr	r3, .L539+96
 7435 01f6 0722     		movs	r2, #7
 7436 01f8 5A55     		strb	r2, [r3, r5]
 7437 01fa E3E7     		b	.L521
 7438              	.L536:
3133:TP2824/TP2802.c **** 	{
 7439              		.loc 1 3133 2 is_stmt 1 view .LVU2206
3133:TP2824/TP2802.c **** 	{
 7440              		.loc 1 3133 5 is_stmt 0 view .LVU2207
 7441 01fc 0EB9     		cbnz	r6, .L538
 7442              	.L501:
3181:TP2824/TP2802.c **** 
 7443              		.loc 1 3181 1 view .LVU2208
 7444 01fe 02B0     		add	sp, sp, #8
 7445              	.LCFI32:
 7446              		.cfi_remember_state
 7447              		.cfi_def_cfa_offset 16
 7448              		@ sp needed
ARM GAS  C:\Users\ryanc.HS\AppData\Local\Temp\ccAQ3CYh.s 			page 232


 7449 0200 70BD     		pop	{r4, r5, r6, pc}
 7450              	.LVL798:
 7451              	.L538:
 7452              	.LCFI33:
 7453              		.cfi_restore_state
3135:TP2824/TP2802.c **** 		BackLightON();
 7454              		.loc 1 3135 3 is_stmt 1 view .LVU2209
3135:TP2824/TP2802.c **** 		BackLightON();
 7455              		.loc 1 3135 21 is_stmt 0 view .LVU2210
 7456 0202 FFF7FEFF 		bl	GetBackLightLevel
 7457              	.LVL799:
3135:TP2824/TP2802.c **** 		BackLightON();
 7458              		.loc 1 3135 3 view .LVU2211
 7459 0206 80B2     		uxth	r0, r0
 7460 0208 FFF7FEFF 		bl	user_pwm_setvalue
 7461              	.LVL800:
3136:TP2824/TP2802.c **** 	}
 7462              		.loc 1 3136 3 is_stmt 1 view .LVU2212
 7463 020c FFF7FEFF 		bl	BackLightON
 7464              	.LVL801:
3181:TP2824/TP2802.c **** 
 7465              		.loc 1 3181 1 is_stmt 0 view .LVU2213
 7466 0210 F5E7     		b	.L501
 7467              	.L540:
 7468 0212 00BF     		.align	2
 7469              	.L539:
 7470 0214 00020301 		.word	16974336
 7471 0218 00000000 		.word	TVII2CAddress
 7472 021c 00000000 		.word	chip
 7473 0220 00000000 		.word	revision
 7474 0224 00000000 		.word	.LC68
 7475 0228 00000000 		.word	flag_CVBS
 7476 022c 00000000 		.word	flag_AUDIO
 7477 0230 00000000 		.word	flag_MEGA
 7478 0234 1C000000 		.word	.LC69
 7479 0238 00000000 		.word	.LANCHOR25
 7480 023c 00000000 		.word	CurRes
 7481 0240 00000000 		.word	.LANCHOR30
 7482 0244 00000000 		.word	.LANCHOR28
 7483 0248 00000000 		.word	.LANCHOR27
 7484 024c 00000000 		.word	.LANCHOR26
 7485 0250 00000000 		.word	.LANCHOR29
 7486 0254 24000000 		.word	.LC70
 7487 0258 34000000 		.word	.LC71
 7488 025c 00000000 		.word	.LANCHOR31
 7489 0260 00000000 		.word	TriggerStatus
 7490 0264 00000000 		.word	VideoSave
 7491 0268 00000000 		.word	count
 7492 026c 00000000 		.word	state
 7493 0270 00000000 		.word	std
 7494 0274 00000000 		.word	mode
 7495              		.cfi_endproc
 7496              	.LFE29:
 7498              		.section	.text.ConvertData,"ax",%progbits
 7499              		.align	1
 7500              		.global	ConvertData
 7501              		.syntax unified
ARM GAS  C:\Users\ryanc.HS\AppData\Local\Temp\ccAQ3CYh.s 			page 233


 7502              		.thumb
 7503              		.thumb_func
 7504              		.fpu softvfp
 7506              	ConvertData:
 7507              	.LVL802:
 7508              	.LFB31:
3726:TP2824/TP2802.c **** 
3727:TP2824/TP2802.c **** void ConvertData(unsigned char dat, unsigned char buf_index)
3728:TP2824/TP2802.c **** {
 7509              		.loc 1 3728 1 is_stmt 1 view -0
 7510              		.cfi_startproc
 7511              		@ args = 0, pretend = 0, frame = 0
 7512              		@ frame_needed = 0, uses_anonymous_args = 0
 7513              		@ link register save eliminated.
 7514              		.loc 1 3728 1 is_stmt 0 view .LVU2215
 7515 0000 10B4     		push	{r4}
 7516              	.LCFI34:
 7517              		.cfi_def_cfa_offset 4
 7518              		.cfi_offset 4, -4
3729:TP2824/TP2802.c **** 	unsigned char i;
 7519              		.loc 1 3729 2 is_stmt 1 view .LVU2216
3730:TP2824/TP2802.c **** 
3731:TP2824/TP2802.c **** 	PTZ_pelco = 0;
 7520              		.loc 1 3731 2 view .LVU2217
 7521              		.loc 1 3731 12 is_stmt 0 view .LVU2218
 7522 0002 0022     		movs	r2, #0
 7523 0004 124B     		ldr	r3, .L549
 7524 0006 1A80     		strh	r2, [r3]	@ movhi
3732:TP2824/TP2802.c **** 
3733:TP2824/TP2802.c **** 	for (i = 0; i < 8; i++)
 7525              		.loc 1 3733 2 is_stmt 1 view .LVU2219
 7526              	.LVL803:
 7527              		.loc 1 3733 2 is_stmt 0 view .LVU2220
 7528 0008 07E0     		b	.L542
 7529              	.LVL804:
 7530              	.L548:
3734:TP2824/TP2802.c **** 	{
3735:TP2824/TP2802.c **** 		PTZ_pelco <<= 3;
3736:TP2824/TP2802.c **** 
3737:TP2824/TP2802.c **** 		if (0x80 & dat)
3738:TP2824/TP2802.c **** 			PTZ_pelco |= 0x06;
 7531              		.loc 1 3738 4 is_stmt 1 view .LVU2221
 7532              		.loc 1 3738 14 is_stmt 0 view .LVU2222
 7533 000a 43F00603 		orr	r3, r3, #6
 7534 000e 104C     		ldr	r4, .L549
 7535 0010 2380     		strh	r3, [r4]	@ movhi
 7536              	.L544:
3739:TP2824/TP2802.c **** 		else
3740:TP2824/TP2802.c **** 			PTZ_pelco |= 0x04;
3741:TP2824/TP2802.c **** 
3742:TP2824/TP2802.c **** 		dat <<= 1;
 7537              		.loc 1 3742 3 is_stmt 1 discriminator 2 view .LVU2223
 7538              		.loc 1 3742 7 is_stmt 0 discriminator 2 view .LVU2224
 7539 0012 4000     		lsls	r0, r0, #1
 7540              	.LVL805:
 7541              		.loc 1 3742 7 discriminator 2 view .LVU2225
 7542 0014 C0B2     		uxtb	r0, r0
ARM GAS  C:\Users\ryanc.HS\AppData\Local\Temp\ccAQ3CYh.s 			page 234


 7543              	.LVL806:
3733:TP2824/TP2802.c **** 	{
 7544              		.loc 1 3733 21 is_stmt 1 discriminator 2 view .LVU2226
3733:TP2824/TP2802.c **** 	{
 7545              		.loc 1 3733 22 is_stmt 0 discriminator 2 view .LVU2227
 7546 0016 0132     		adds	r2, r2, #1
 7547              	.LVL807:
3733:TP2824/TP2802.c **** 	{
 7548              		.loc 1 3733 22 discriminator 2 view .LVU2228
 7549 0018 D2B2     		uxtb	r2, r2
 7550              	.LVL808:
 7551              	.L542:
3733:TP2824/TP2802.c **** 	{
 7552              		.loc 1 3733 14 is_stmt 1 discriminator 1 view .LVU2229
3733:TP2824/TP2802.c **** 	{
 7553              		.loc 1 3733 2 is_stmt 0 discriminator 1 view .LVU2230
 7554 001a 072A     		cmp	r2, #7
 7555 001c 0BD8     		bhi	.L547
3735:TP2824/TP2802.c **** 
 7556              		.loc 1 3735 3 is_stmt 1 view .LVU2231
3735:TP2824/TP2802.c **** 
 7557              		.loc 1 3735 13 is_stmt 0 view .LVU2232
 7558 001e 0C4B     		ldr	r3, .L549
 7559 0020 1B88     		ldrh	r3, [r3]
 7560 0022 DB00     		lsls	r3, r3, #3
 7561 0024 9BB2     		uxth	r3, r3
3737:TP2824/TP2802.c **** 			PTZ_pelco |= 0x06;
 7562              		.loc 1 3737 3 is_stmt 1 view .LVU2233
3737:TP2824/TP2802.c **** 			PTZ_pelco |= 0x06;
 7563              		.loc 1 3737 6 is_stmt 0 view .LVU2234
 7564 0026 10F0800F 		tst	r0, #128
 7565 002a EED1     		bne	.L548
3740:TP2824/TP2802.c **** 
 7566              		.loc 1 3740 4 is_stmt 1 view .LVU2235
3740:TP2824/TP2802.c **** 
 7567              		.loc 1 3740 14 is_stmt 0 view .LVU2236
 7568 002c 43F00403 		orr	r3, r3, #4
 7569 0030 074C     		ldr	r4, .L549
 7570 0032 2380     		strh	r3, [r4]	@ movhi
 7571 0034 EDE7     		b	.L544
 7572              	.L547:
3743:TP2824/TP2802.c **** 	}
3744:TP2824/TP2802.c **** 	PTZ_buf[buf_index] = (PTZ_pelco >> 16) & 0xff;
 7573              		.loc 1 3744 2 is_stmt 1 view .LVU2237
 7574              		.loc 1 3744 21 is_stmt 0 view .LVU2238
 7575 0036 074B     		ldr	r3, .L549+4
 7576 0038 0022     		movs	r2, #0
 7577              	.LVL809:
 7578              		.loc 1 3744 21 view .LVU2239
 7579 003a 5A54     		strb	r2, [r3, r1]
3745:TP2824/TP2802.c **** 	PTZ_buf[buf_index + 1] = (PTZ_pelco >> 8) & 0xff;
 7580              		.loc 1 3745 2 is_stmt 1 view .LVU2240
 7581              		.loc 1 3745 25 is_stmt 0 view .LVU2241
 7582 003c 044A     		ldr	r2, .L549
 7583 003e 1288     		ldrh	r2, [r2]
 7584              		.loc 1 3745 20 view .LVU2242
 7585 0040 481C     		adds	r0, r1, #1
ARM GAS  C:\Users\ryanc.HS\AppData\Local\Temp\ccAQ3CYh.s 			page 235


 7586              	.LVL810:
 7587              		.loc 1 3745 25 view .LVU2243
 7588 0042 140A     		lsrs	r4, r2, #8
 7589 0044 1C54     		strb	r4, [r3, r0]
3746:TP2824/TP2802.c **** 	PTZ_buf[buf_index + 2] = (PTZ_pelco)&0xff;
 7590              		.loc 1 3746 2 is_stmt 1 view .LVU2244
 7591              		.loc 1 3746 20 is_stmt 0 view .LVU2245
 7592 0046 0231     		adds	r1, r1, #2
 7593              	.LVL811:
 7594              		.loc 1 3746 25 view .LVU2246
 7595 0048 5A54     		strb	r2, [r3, r1]
3747:TP2824/TP2802.c **** }
 7596              		.loc 1 3747 1 view .LVU2247
 7597 004a 10BC     		pop	{r4}
 7598              	.LCFI35:
 7599              		.cfi_restore 4
 7600              		.cfi_def_cfa_offset 0
 7601 004c 7047     		bx	lr
 7602              	.L550:
 7603 004e 00BF     		.align	2
 7604              	.L549:
 7605 0050 00000000 		.word	PTZ_pelco
 7606 0054 00000000 		.word	PTZ_buf
 7607              		.cfi_endproc
 7608              	.LFE31:
 7610              		.section	.text.SwapBit,"ax",%progbits
 7611              		.align	1
 7612              		.global	SwapBit
 7613              		.syntax unified
 7614              		.thumb
 7615              		.thumb_func
 7616              		.fpu softvfp
 7618              	SwapBit:
 7619              	.LVL812:
 7620              	.LFB32:
3748:TP2824/TP2802.c **** unsigned char SwapBit(unsigned char dat, unsigned char buf_index)
3749:TP2824/TP2802.c **** {
 7621              		.loc 1 3749 1 is_stmt 1 view -0
 7622              		.cfi_startproc
 7623              		@ args = 0, pretend = 0, frame = 0
 7624              		@ frame_needed = 0, uses_anonymous_args = 0
 7625              		@ link register save eliminated.
 7626              		.loc 1 3749 1 is_stmt 0 view .LVU2249
 7627 0000 30B4     		push	{r4, r5}
 7628              	.LCFI36:
 7629              		.cfi_def_cfa_offset 8
 7630              		.cfi_offset 4, -8
 7631              		.cfi_offset 5, -4
 7632 0002 0246     		mov	r2, r0
3750:TP2824/TP2802.c **** 	unsigned char i;
 7633              		.loc 1 3750 2 is_stmt 1 view .LVU2250
3751:TP2824/TP2802.c **** 	unsigned char ret = 0;
 7634              		.loc 1 3751 2 view .LVU2251
 7635              	.LVL813:
3752:TP2824/TP2802.c **** 	crc = 0;
 7636              		.loc 1 3752 2 view .LVU2252
 7637              		.loc 1 3752 6 is_stmt 0 view .LVU2253
ARM GAS  C:\Users\ryanc.HS\AppData\Local\Temp\ccAQ3CYh.s 			page 236


 7638 0004 0023     		movs	r3, #0
 7639 0006 1448     		ldr	r0, .L558
 7640              	.LVL814:
 7641              		.loc 1 3752 6 view .LVU2254
 7642 0008 0370     		strb	r3, [r0]
3753:TP2824/TP2802.c **** 	for (i = 0; i < 8; i++)
 7643              		.loc 1 3753 2 is_stmt 1 view .LVU2255
 7644              	.LVL815:
3751:TP2824/TP2802.c **** 	unsigned char ret = 0;
 7645              		.loc 1 3751 16 is_stmt 0 view .LVU2256
 7646 000a 1846     		mov	r0, r3
 7647              		.loc 1 3753 2 view .LVU2257
 7648 000c 0AE0     		b	.L552
 7649              	.LVL816:
 7650              	.L557:
3754:TP2824/TP2802.c **** 	{
3755:TP2824/TP2802.c **** 		ret >>= 1;
3756:TP2824/TP2802.c **** 		if (0x80 & dat)
3757:TP2824/TP2802.c **** 		{
3758:TP2824/TP2802.c **** 			ret |= 0x80;
 7651              		.loc 1 3758 4 is_stmt 1 view .LVU2258
 7652              		.loc 1 3758 8 is_stmt 0 view .LVU2259
 7653 000e 60F07F00 		orn	r0, r0, #127
 7654              	.LVL817:
 7655              		.loc 1 3758 8 view .LVU2260
 7656 0012 C0B2     		uxtb	r0, r0
 7657              	.LVL818:
3759:TP2824/TP2802.c **** 			crc += 0x80;
 7658              		.loc 1 3759 4 is_stmt 1 view .LVU2261
 7659              		.loc 1 3759 8 is_stmt 0 view .LVU2262
 7660 0014 104D     		ldr	r5, .L558
 7661 0016 2C78     		ldrb	r4, [r5]	@ zero_extendqisi2
 7662 0018 803C     		subs	r4, r4, #128
 7663 001a 2C70     		strb	r4, [r5]
 7664              	.L553:
3760:TP2824/TP2802.c **** 		}
3761:TP2824/TP2802.c **** 		dat <<= 1;
 7665              		.loc 1 3761 3 is_stmt 1 discriminator 2 view .LVU2263
 7666              		.loc 1 3761 7 is_stmt 0 discriminator 2 view .LVU2264
 7667 001c 5200     		lsls	r2, r2, #1
 7668              	.LVL819:
 7669              		.loc 1 3761 7 discriminator 2 view .LVU2265
 7670 001e D2B2     		uxtb	r2, r2
 7671              	.LVL820:
3753:TP2824/TP2802.c **** 	{
 7672              		.loc 1 3753 21 is_stmt 1 discriminator 2 view .LVU2266
3753:TP2824/TP2802.c **** 	{
 7673              		.loc 1 3753 22 is_stmt 0 discriminator 2 view .LVU2267
 7674 0020 0133     		adds	r3, r3, #1
 7675              	.LVL821:
3753:TP2824/TP2802.c **** 	{
 7676              		.loc 1 3753 22 discriminator 2 view .LVU2268
 7677 0022 DBB2     		uxtb	r3, r3
 7678              	.LVL822:
 7679              	.L552:
3753:TP2824/TP2802.c **** 	{
 7680              		.loc 1 3753 14 is_stmt 1 discriminator 1 view .LVU2269
ARM GAS  C:\Users\ryanc.HS\AppData\Local\Temp\ccAQ3CYh.s 			page 237


3753:TP2824/TP2802.c **** 	{
 7681              		.loc 1 3753 2 is_stmt 0 discriminator 1 view .LVU2270
 7682 0024 072B     		cmp	r3, #7
 7683 0026 04D8     		bhi	.L556
3755:TP2824/TP2802.c **** 		if (0x80 & dat)
 7684              		.loc 1 3755 3 is_stmt 1 view .LVU2271
3755:TP2824/TP2802.c **** 		if (0x80 & dat)
 7685              		.loc 1 3755 7 is_stmt 0 view .LVU2272
 7686 0028 4008     		lsrs	r0, r0, #1
 7687              	.LVL823:
3756:TP2824/TP2802.c **** 		{
 7688              		.loc 1 3756 3 is_stmt 1 view .LVU2273
3756:TP2824/TP2802.c **** 		{
 7689              		.loc 1 3756 6 is_stmt 0 view .LVU2274
 7690 002a 12F0800F 		tst	r2, #128
 7691 002e F5D0     		beq	.L553
 7692 0030 EDE7     		b	.L557
 7693              	.L556:
3762:TP2824/TP2802.c **** 	}
3763:TP2824/TP2802.c **** 	PTZ_buf[buf_index] = 0x02;
 7694              		.loc 1 3763 2 is_stmt 1 view .LVU2275
 7695              		.loc 1 3763 21 is_stmt 0 view .LVU2276
 7696 0032 0A4B     		ldr	r3, .L558+4
 7697              	.LVL824:
 7698              		.loc 1 3763 21 view .LVU2277
 7699 0034 0222     		movs	r2, #2
 7700              	.LVL825:
 7701              		.loc 1 3763 21 view .LVU2278
 7702 0036 5A54     		strb	r2, [r3, r1]
3764:TP2824/TP2802.c **** 	PTZ_buf[buf_index + 1] = ret;
 7703              		.loc 1 3764 2 is_stmt 1 view .LVU2279
 7704              		.loc 1 3764 20 is_stmt 0 view .LVU2280
 7705 0038 4A1C     		adds	r2, r1, #1
 7706              		.loc 1 3764 25 view .LVU2281
 7707 003a 9854     		strb	r0, [r3, r2]
3765:TP2824/TP2802.c **** 	PTZ_buf[buf_index + 2] = 0x7f | crc;
 7708              		.loc 1 3765 2 is_stmt 1 view .LVU2282
 7709              		.loc 1 3765 20 is_stmt 0 view .LVU2283
 7710 003c 8C1C     		adds	r4, r1, #2
 7711              		.loc 1 3765 25 view .LVU2284
 7712 003e 064A     		ldr	r2, .L558
 7713 0040 1278     		ldrb	r2, [r2]	@ zero_extendqisi2
 7714 0042 42F07F02 		orr	r2, r2, #127
 7715 0046 1A55     		strb	r2, [r3, r4]
3766:TP2824/TP2802.c **** 	PTZ_buf[buf_index + 3] = 0xff;
 7716              		.loc 1 3766 2 is_stmt 1 view .LVU2285
 7717              		.loc 1 3766 20 is_stmt 0 view .LVU2286
 7718 0048 CA1C     		adds	r2, r1, #3
 7719              		.loc 1 3766 25 view .LVU2287
 7720 004a FF24     		movs	r4, #255
 7721 004c 9C54     		strb	r4, [r3, r2]
3767:TP2824/TP2802.c **** 	PTZ_buf[buf_index + 4] = 0xfc;
 7722              		.loc 1 3767 2 is_stmt 1 view .LVU2288
 7723              		.loc 1 3767 20 is_stmt 0 view .LVU2289
 7724 004e 0431     		adds	r1, r1, #4
 7725              	.LVL826:
 7726              		.loc 1 3767 25 view .LVU2290
ARM GAS  C:\Users\ryanc.HS\AppData\Local\Temp\ccAQ3CYh.s 			page 238


 7727 0050 FC22     		movs	r2, #252
 7728 0052 5A54     		strb	r2, [r3, r1]
3768:TP2824/TP2802.c **** 	return ret;
 7729              		.loc 1 3768 2 is_stmt 1 view .LVU2291
3769:TP2824/TP2802.c **** }
 7730              		.loc 1 3769 1 is_stmt 0 view .LVU2292
 7731 0054 30BC     		pop	{r4, r5}
 7732              	.LCFI37:
 7733              		.cfi_restore 5
 7734              		.cfi_restore 4
 7735              		.cfi_def_cfa_offset 0
 7736 0056 7047     		bx	lr
 7737              	.L559:
 7738              		.align	2
 7739              	.L558:
 7740 0058 00000000 		.word	crc
 7741 005c 00000000 		.word	PTZ_buf
 7742              		.cfi_endproc
 7743              	.LFE32:
 7745              		.section	.text.AHDBitsReverse,"ax",%progbits
 7746              		.align	1
 7747              		.global	AHDBitsReverse
 7748              		.syntax unified
 7749              		.thumb
 7750              		.thumb_func
 7751              		.fpu softvfp
 7753              	AHDBitsReverse:
 7754              	.LVL827:
 7755              	.LFB33:
3770:TP2824/TP2802.c **** 
3771:TP2824/TP2802.c **** BYTE AHDBitsReverse(BYTE val)
3772:TP2824/TP2802.c **** {
 7756              		.loc 1 3772 1 is_stmt 1 view -0
 7757              		.cfi_startproc
 7758              		@ args = 0, pretend = 0, frame = 0
 7759              		@ frame_needed = 0, uses_anonymous_args = 0
 7760              		@ link register save eliminated.
 7761              		.loc 1 3772 1 is_stmt 0 view .LVU2294
 7762 0000 70B4     		push	{r4, r5, r6}
 7763              	.LCFI38:
 7764              		.cfi_def_cfa_offset 12
 7765              		.cfi_offset 4, -12
 7766              		.cfi_offset 5, -8
 7767              		.cfi_offset 6, -4
 7768 0002 0546     		mov	r5, r0
3773:TP2824/TP2802.c **** 	BYTE i;
 7769              		.loc 1 3773 2 is_stmt 1 view .LVU2295
3774:TP2824/TP2802.c **** 	BYTE cnt = 7;
 7770              		.loc 1 3774 2 view .LVU2296
 7771              	.LVL828:
3775:TP2824/TP2802.c **** 	BYTE bitflag = 0x01;
 7772              		.loc 1 3775 2 view .LVU2297
3776:TP2824/TP2802.c **** 	BYTE rval = 0x00;
 7773              		.loc 1 3776 2 view .LVU2298
3777:TP2824/TP2802.c **** 	for (i = 0; i < 4; i++)
 7774              		.loc 1 3777 2 view .LVU2299
3776:TP2824/TP2802.c **** 	BYTE rval = 0x00;
ARM GAS  C:\Users\ryanc.HS\AppData\Local\Temp\ccAQ3CYh.s 			page 239


 7775              		.loc 1 3776 7 is_stmt 0 view .LVU2300
 7776 0004 0020     		movs	r0, #0
 7777              	.LVL829:
3775:TP2824/TP2802.c **** 	BYTE bitflag = 0x01;
 7778              		.loc 1 3775 7 view .LVU2301
 7779 0006 0126     		movs	r6, #1
3774:TP2824/TP2802.c **** 	BYTE bitflag = 0x01;
 7780              		.loc 1 3774 7 view .LVU2302
 7781 0008 0724     		movs	r4, #7
 7782              		.loc 1 3777 9 view .LVU2303
 7783 000a 0146     		mov	r1, r0
 7784              		.loc 1 3777 2 view .LVU2304
 7785 000c 0CE0     		b	.L561
 7786              	.LVL830:
 7787              	.L562:
3778:TP2824/TP2802.c **** 	{
3779:TP2824/TP2802.c **** 		rval |= ((val >> cnt) & bitflag);
 7788              		.loc 1 3779 3 is_stmt 1 discriminator 3 view .LVU2305
 7789              		.loc 1 3779 17 is_stmt 0 discriminator 3 view .LVU2306
 7790 000e 45FA04F2 		asr	r2, r5, r4
 7791              		.loc 1 3779 25 discriminator 3 view .LVU2307
 7792 0012 3240     		ands	r2, r2, r6
 7793 0014 52B2     		sxtb	r2, r2
 7794              		.loc 1 3779 8 discriminator 3 view .LVU2308
 7795 0016 42EA0003 		orr	r3, r2, r0
 7796 001a D8B2     		uxtb	r0, r3
 7797              	.LVL831:
3780:TP2824/TP2802.c **** 		bitflag <<= 1;
 7798              		.loc 1 3780 3 is_stmt 1 discriminator 3 view .LVU2309
 7799              		.loc 1 3780 11 is_stmt 0 discriminator 3 view .LVU2310
 7800 001c 7600     		lsls	r6, r6, #1
 7801              	.LVL832:
 7802              		.loc 1 3780 11 discriminator 3 view .LVU2311
 7803 001e F6B2     		uxtb	r6, r6
 7804              	.LVL833:
3781:TP2824/TP2802.c **** 		cnt -= 2;
 7805              		.loc 1 3781 3 is_stmt 1 discriminator 3 view .LVU2312
 7806              		.loc 1 3781 7 is_stmt 0 discriminator 3 view .LVU2313
 7807 0020 023C     		subs	r4, r4, #2
 7808              	.LVL834:
 7809              		.loc 1 3781 7 discriminator 3 view .LVU2314
 7810 0022 E4B2     		uxtb	r4, r4
 7811              	.LVL835:
3777:TP2824/TP2802.c **** 	{
 7812              		.loc 1 3777 21 is_stmt 1 discriminator 3 view .LVU2315
3777:TP2824/TP2802.c **** 	{
 7813              		.loc 1 3777 22 is_stmt 0 discriminator 3 view .LVU2316
 7814 0024 0131     		adds	r1, r1, #1
 7815              	.LVL836:
3777:TP2824/TP2802.c **** 	{
 7816              		.loc 1 3777 22 discriminator 3 view .LVU2317
 7817 0026 C9B2     		uxtb	r1, r1
 7818              	.LVL837:
 7819              	.L561:
3777:TP2824/TP2802.c **** 	{
 7820              		.loc 1 3777 14 is_stmt 1 discriminator 1 view .LVU2318
3777:TP2824/TP2802.c **** 	{
ARM GAS  C:\Users\ryanc.HS\AppData\Local\Temp\ccAQ3CYh.s 			page 240


 7821              		.loc 1 3777 2 is_stmt 0 discriminator 1 view .LVU2319
 7822 0028 0329     		cmp	r1, #3
 7823 002a F0D9     		bls	.L562
3782:TP2824/TP2802.c **** 	}
3783:TP2824/TP2802.c **** 	cnt = 7;
3784:TP2824/TP2802.c **** 	bitflag = 0x80;
 7824              		.loc 1 3784 10 view .LVU2320
 7825 002c 8022     		movs	r2, #128
3783:TP2824/TP2802.c **** 	bitflag = 0x80;
 7826              		.loc 1 3783 6 view .LVU2321
 7827 002e 0724     		movs	r4, #7
 7828              	.LVL838:
3785:TP2824/TP2802.c **** 	for (i = 0; i < 4; i++)
 7829              		.loc 1 3785 9 view .LVU2322
 7830 0030 0021     		movs	r1, #0
 7831              	.LVL839:
 7832              		.loc 1 3785 9 view .LVU2323
 7833 0032 0AE0     		b	.L563
 7834              	.LVL840:
 7835              	.L564:
3786:TP2824/TP2802.c **** 	{
3787:TP2824/TP2802.c **** 		rval |= ((val << cnt) & bitflag);
 7836              		.loc 1 3787 3 is_stmt 1 discriminator 3 view .LVU2324
 7837              		.loc 1 3787 17 is_stmt 0 discriminator 3 view .LVU2325
 7838 0034 05FA04F3 		lsl	r3, r5, r4
 7839              		.loc 1 3787 25 discriminator 3 view .LVU2326
 7840 0038 1340     		ands	r3, r3, r2
 7841 003a 5BB2     		sxtb	r3, r3
 7842              		.loc 1 3787 8 discriminator 3 view .LVU2327
 7843 003c 0343     		orrs	r3, r3, r0
 7844 003e D8B2     		uxtb	r0, r3
 7845              	.LVL841:
3788:TP2824/TP2802.c **** 		bitflag >>= 1;
 7846              		.loc 1 3788 3 is_stmt 1 discriminator 3 view .LVU2328
 7847              		.loc 1 3788 11 is_stmt 0 discriminator 3 view .LVU2329
 7848 0040 5208     		lsrs	r2, r2, #1
 7849              	.LVL842:
3789:TP2824/TP2802.c **** 		cnt -= 2;
 7850              		.loc 1 3789 3 is_stmt 1 discriminator 3 view .LVU2330
 7851              		.loc 1 3789 7 is_stmt 0 discriminator 3 view .LVU2331
 7852 0042 023C     		subs	r4, r4, #2
 7853              	.LVL843:
 7854              		.loc 1 3789 7 discriminator 3 view .LVU2332
 7855 0044 E4B2     		uxtb	r4, r4
 7856              	.LVL844:
3785:TP2824/TP2802.c **** 	{
 7857              		.loc 1 3785 21 is_stmt 1 discriminator 3 view .LVU2333
3785:TP2824/TP2802.c **** 	{
 7858              		.loc 1 3785 22 is_stmt 0 discriminator 3 view .LVU2334
 7859 0046 0131     		adds	r1, r1, #1
 7860              	.LVL845:
3785:TP2824/TP2802.c **** 	{
 7861              		.loc 1 3785 22 discriminator 3 view .LVU2335
 7862 0048 C9B2     		uxtb	r1, r1
 7863              	.LVL846:
 7864              	.L563:
3785:TP2824/TP2802.c **** 	{
ARM GAS  C:\Users\ryanc.HS\AppData\Local\Temp\ccAQ3CYh.s 			page 241


 7865              		.loc 1 3785 14 is_stmt 1 discriminator 1 view .LVU2336
3785:TP2824/TP2802.c **** 	{
 7866              		.loc 1 3785 2 is_stmt 0 discriminator 1 view .LVU2337
 7867 004a 0329     		cmp	r1, #3
 7868 004c F2D9     		bls	.L564
3790:TP2824/TP2802.c **** 	}
3791:TP2824/TP2802.c **** 	return rval;
3792:TP2824/TP2802.c **** }
 7869              		.loc 1 3792 1 view .LVU2338
 7870 004e 70BC     		pop	{r4, r5, r6}
 7871              	.LCFI39:
 7872              		.cfi_restore 6
 7873              		.cfi_restore 5
 7874              		.cfi_restore 4
 7875              		.cfi_def_cfa_offset 0
 7876              	.LVL847:
 7877              		.loc 1 3792 1 view .LVU2339
 7878 0050 7047     		bx	lr
 7879              		.cfi_endproc
 7880              	.LFE33:
 7882              		.section	.text.HDC_SetData,"ax",%progbits
 7883              		.align	1
 7884              		.global	HDC_SetData
 7885              		.syntax unified
 7886              		.thumb
 7887              		.thumb_func
 7888              		.fpu softvfp
 7890              	HDC_SetData:
 7891              	.LVL848:
 7892              	.LFB34:
3793:TP2824/TP2802.c **** 
3794:TP2824/TP2802.c **** void HDC_SetData(tByte reg, tByte dat)
3795:TP2824/TP2802.c **** {
 7893              		.loc 1 3795 1 is_stmt 1 view -0
 7894              		.cfi_startproc
 7895              		@ args = 0, pretend = 0, frame = 0
 7896              		@ frame_needed = 0, uses_anonymous_args = 0
 7897              		.loc 1 3795 1 is_stmt 0 view .LVU2341
 7898 0000 38B5     		push	{r3, r4, r5, lr}
 7899              	.LCFI40:
 7900              		.cfi_def_cfa_offset 16
 7901              		.cfi_offset 3, -16
 7902              		.cfi_offset 4, -12
 7903              		.cfi_offset 5, -8
 7904              		.cfi_offset 14, -4
 7905 0002 0446     		mov	r4, r0
 7906 0004 0D46     		mov	r5, r1
3796:TP2824/TP2802.c **** 	// line1
3797:TP2824/TP2802.c **** 	// tp28xx_byte_write(reg + 0 , 0x00);
3798:TP2824/TP2802.c **** 	tp28xx_byte_write(reg + 0, 0x02);
 7907              		.loc 1 3798 2 is_stmt 1 view .LVU2342
 7908 0006 0221     		movs	r1, #2
 7909              	.LVL849:
 7910              		.loc 1 3798 2 is_stmt 0 view .LVU2343
 7911 0008 FFF7FEFF 		bl	tp28xx_byte_write
 7912              	.LVL850:
3799:TP2824/TP2802.c **** 	tp28xx_byte_write(reg + 1, SwapBit(dat, 1));
ARM GAS  C:\Users\ryanc.HS\AppData\Local\Temp\ccAQ3CYh.s 			page 242


 7913              		.loc 1 3799 2 is_stmt 1 view .LVU2344
 7914 000c 0121     		movs	r1, #1
 7915 000e 2846     		mov	r0, r5
 7916 0010 FFF7FEFF 		bl	SwapBit
 7917              	.LVL851:
 7918 0014 0146     		mov	r1, r0
 7919 0016 601C     		adds	r0, r4, #1
 7920 0018 C0B2     		uxtb	r0, r0
 7921 001a FFF7FEFF 		bl	tp28xx_byte_write
 7922              	.LVL852:
3800:TP2824/TP2802.c **** 	tp28xx_byte_write(reg + 2, 0x7f | crc);
 7923              		.loc 1 3800 2 view .LVU2345
 7924 001e 094B     		ldr	r3, .L568
 7925 0020 1978     		ldrb	r1, [r3]	@ zero_extendqisi2
 7926 0022 A01C     		adds	r0, r4, #2
 7927 0024 41F07F01 		orr	r1, r1, #127
 7928 0028 C0B2     		uxtb	r0, r0
 7929 002a FFF7FEFF 		bl	tp28xx_byte_write
 7930              	.LVL853:
3801:TP2824/TP2802.c **** 	tp28xx_byte_write(reg + 3, 0xff);
 7931              		.loc 1 3801 2 view .LVU2346
 7932 002e E01C     		adds	r0, r4, #3
 7933 0030 FF21     		movs	r1, #255
 7934 0032 C0B2     		uxtb	r0, r0
 7935 0034 FFF7FEFF 		bl	tp28xx_byte_write
 7936              	.LVL854:
3802:TP2824/TP2802.c **** 	tp28xx_byte_write(reg + 4, 0xfc);
 7937              		.loc 1 3802 2 view .LVU2347
 7938 0038 201D     		adds	r0, r4, #4
 7939 003a FC21     		movs	r1, #252
 7940 003c C0B2     		uxtb	r0, r0
 7941 003e FFF7FEFF 		bl	tp28xx_byte_write
 7942              	.LVL855:
3803:TP2824/TP2802.c **** }
 7943              		.loc 1 3803 1 is_stmt 0 view .LVU2348
 7944 0042 38BD     		pop	{r3, r4, r5, pc}
 7945              	.L569:
 7946              		.align	2
 7947              	.L568:
 7948 0044 00000000 		.word	crc
 7949              		.cfi_endproc
 7950              	.LFE34:
 7952              		.section	.text.HDA_SetData,"ax",%progbits
 7953              		.align	1
 7954              		.global	HDA_SetData
 7955              		.syntax unified
 7956              		.thumb
 7957              		.thumb_func
 7958              		.fpu softvfp
 7960              	HDA_SetData:
 7961              	.LVL856:
 7962              	.LFB35:
3804:TP2824/TP2802.c **** 
3805:TP2824/TP2802.c **** void HDA_SetData(tByte reg, tByte dat)
3806:TP2824/TP2802.c **** {
 7963              		.loc 1 3806 1 is_stmt 1 view -0
 7964              		.cfi_startproc
ARM GAS  C:\Users\ryanc.HS\AppData\Local\Temp\ccAQ3CYh.s 			page 243


 7965              		@ args = 0, pretend = 0, frame = 0
 7966              		@ frame_needed = 0, uses_anonymous_args = 0
 7967              		.loc 1 3806 1 is_stmt 0 view .LVU2350
 7968 0000 38B5     		push	{r3, r4, r5, lr}
 7969              	.LCFI41:
 7970              		.cfi_def_cfa_offset 16
 7971              		.cfi_offset 3, -16
 7972              		.cfi_offset 4, -12
 7973              		.cfi_offset 5, -8
 7974              		.cfi_offset 14, -4
 7975 0002 0446     		mov	r4, r0
 7976 0004 0846     		mov	r0, r1
 7977              	.LVL857:
3807:TP2824/TP2802.c **** 	ConvertData(dat, 0);
 7978              		.loc 1 3807 2 is_stmt 1 view .LVU2351
 7979 0006 0021     		movs	r1, #0
 7980              	.LVL858:
 7981              		.loc 1 3807 2 is_stmt 0 view .LVU2352
 7982 0008 FFF7FEFF 		bl	ConvertData
 7983              	.LVL859:
3808:TP2824/TP2802.c **** 	tp28xx_byte_write(reg + 0, PTZ_buf[0]);
 7984              		.loc 1 3808 2 is_stmt 1 view .LVU2353
 7985 000c 074D     		ldr	r5, .L572
 7986 000e 2978     		ldrb	r1, [r5]	@ zero_extendqisi2
 7987 0010 2046     		mov	r0, r4
 7988 0012 FFF7FEFF 		bl	tp28xx_byte_write
 7989              	.LVL860:
3809:TP2824/TP2802.c **** 	tp28xx_byte_write(reg + 1, PTZ_buf[1]);
 7990              		.loc 1 3809 2 view .LVU2354
 7991 0016 601C     		adds	r0, r4, #1
 7992 0018 6978     		ldrb	r1, [r5, #1]	@ zero_extendqisi2
 7993 001a C0B2     		uxtb	r0, r0
 7994 001c FFF7FEFF 		bl	tp28xx_byte_write
 7995              	.LVL861:
3810:TP2824/TP2802.c **** 	tp28xx_byte_write(reg + 2, PTZ_buf[2]);
 7996              		.loc 1 3810 2 view .LVU2355
 7997 0020 A01C     		adds	r0, r4, #2
 7998 0022 A978     		ldrb	r1, [r5, #2]	@ zero_extendqisi2
 7999 0024 C0B2     		uxtb	r0, r0
 8000 0026 FFF7FEFF 		bl	tp28xx_byte_write
 8001              	.LVL862:
3811:TP2824/TP2802.c **** }
 8002              		.loc 1 3811 1 is_stmt 0 view .LVU2356
 8003 002a 38BD     		pop	{r3, r4, r5, pc}
 8004              	.L573:
 8005              		.align	2
 8006              	.L572:
 8007 002c 00000000 		.word	PTZ_buf
 8008              		.cfi_endproc
 8009              	.LFE35:
 8011              		.section	.text.TVICommandToAHData,"ax",%progbits
 8012              		.align	1
 8013              		.global	TVICommandToAHData
 8014              		.syntax unified
 8015              		.thumb
 8016              		.thumb_func
 8017              		.fpu softvfp
ARM GAS  C:\Users\ryanc.HS\AppData\Local\Temp\ccAQ3CYh.s 			page 244


 8019              	TVICommandToAHData:
 8020              	.LFB36:
3812:TP2824/TP2802.c **** 
3813:TP2824/TP2802.c **** // 20200511 COC  >>
3814:TP2824/TP2802.c **** void TVICommandToAHData(void)
3815:TP2824/TP2802.c **** {
 8021              		.loc 1 3815 1 is_stmt 1 view -0
 8022              		.cfi_startproc
 8023              		@ args = 0, pretend = 0, frame = 0
 8024              		@ frame_needed = 0, uses_anonymous_args = 0
 8025              		@ link register save eliminated.
3816:TP2824/TP2802.c **** 	AHDcmd3 = TVI_speed;
 8026              		.loc 1 3816 2 view .LVU2358
 8027              		.loc 1 3816 10 is_stmt 0 view .LVU2359
 8028 0000 4F4B     		ldr	r3, .L607
 8029 0002 1A78     		ldrb	r2, [r3]	@ zero_extendqisi2
 8030 0004 4F4B     		ldr	r3, .L607+4
 8031 0006 1A70     		strb	r2, [r3]
3817:TP2824/TP2802.c **** 	AHDcmd4 = presetNum;
 8032              		.loc 1 3817 2 is_stmt 1 view .LVU2360
 8033              		.loc 1 3817 10 is_stmt 0 view .LVU2361
 8034 0008 4F4B     		ldr	r3, .L607+8
 8035 000a 1A78     		ldrb	r2, [r3]	@ zero_extendqisi2
 8036 000c 4F4B     		ldr	r3, .L607+12
 8037 000e 1A70     		strb	r2, [r3]
3818:TP2824/TP2802.c **** 
3819:TP2824/TP2802.c **** 	if (TVI_Command == 0x17) // KEY_PRESET_CALL//"preset xx"
 8038              		.loc 1 3819 2 is_stmt 1 view .LVU2362
 8039              		.loc 1 3819 18 is_stmt 0 view .LVU2363
 8040 0010 4F4B     		ldr	r3, .L607+16
 8041 0012 1B78     		ldrb	r3, [r3]	@ zero_extendqisi2
 8042              		.loc 1 3819 5 view .LVU2364
 8043 0014 172B     		cmp	r3, #23
 8044 0016 1ED0     		beq	.L591
3820:TP2824/TP2802.c **** 	{
3821:TP2824/TP2802.c **** 		AHDcmd1 = 0x00;
3822:TP2824/TP2802.c **** 		AHDcmd2 = 0x07;
3823:TP2824/TP2802.c **** 		AHDcmd3 = 0;
3824:TP2824/TP2802.c **** 	}
3825:TP2824/TP2802.c **** 	else if (TVI_Command == 0x06) // KEY_TILT_UP
 8045              		.loc 1 3825 7 is_stmt 1 view .LVU2365
 8046              		.loc 1 3825 10 is_stmt 0 view .LVU2366
 8047 0018 062B     		cmp	r3, #6
 8048 001a 25D0     		beq	.L592
3826:TP2824/TP2802.c **** 	{
3827:TP2824/TP2802.c **** 		AHDcmd1 = 0x00;
3828:TP2824/TP2802.c **** 		AHDcmd2 = 0x08;
3829:TP2824/TP2802.c **** 	}
3830:TP2824/TP2802.c **** 	else if (TVI_Command == 0x07) // KEY_TILT_DOWN
 8049              		.loc 1 3830 7 is_stmt 1 view .LVU2367
 8050              		.loc 1 3830 10 is_stmt 0 view .LVU2368
 8051 001c 072B     		cmp	r3, #7
 8052 001e 2AD0     		beq	.L593
3831:TP2824/TP2802.c **** 	{
3832:TP2824/TP2802.c **** 		AHDcmd1 = 0x00;
3833:TP2824/TP2802.c **** 		AHDcmd2 = 0x10;
3834:TP2824/TP2802.c **** 	}
ARM GAS  C:\Users\ryanc.HS\AppData\Local\Temp\ccAQ3CYh.s 			page 245


3835:TP2824/TP2802.c **** 	else if (TVI_Command == 0x09) // KEY_PAN_LEFT
 8053              		.loc 1 3835 7 is_stmt 1 view .LVU2369
 8054              		.loc 1 3835 10 is_stmt 0 view .LVU2370
 8055 0020 092B     		cmp	r3, #9
 8056 0022 2FD0     		beq	.L594
3836:TP2824/TP2802.c **** 	{
3837:TP2824/TP2802.c **** 		AHDcmd1 = 0x00;
3838:TP2824/TP2802.c **** 		AHDcmd2 = 0x04;
3839:TP2824/TP2802.c **** 	}
3840:TP2824/TP2802.c **** 	else if (TVI_Command == 0x08) // KEY_PAN_RIGHT
 8057              		.loc 1 3840 7 is_stmt 1 view .LVU2371
 8058              		.loc 1 3840 10 is_stmt 0 view .LVU2372
 8059 0024 082B     		cmp	r3, #8
 8060 0026 34D0     		beq	.L595
3841:TP2824/TP2802.c **** 	{
3842:TP2824/TP2802.c **** 		AHDcmd1 = 0x00;
3843:TP2824/TP2802.c **** 		AHDcmd2 = 0x02;
3844:TP2824/TP2802.c **** 	}
3845:TP2824/TP2802.c **** 	else if (TVI_Command == 0x0A) // KEY_TILT_UP + KEY_PAN_LEFT
 8061              		.loc 1 3845 7 is_stmt 1 view .LVU2373
 8062              		.loc 1 3845 10 is_stmt 0 view .LVU2374
 8063 0028 0A2B     		cmp	r3, #10
 8064 002a 39D0     		beq	.L596
3846:TP2824/TP2802.c **** 	{
3847:TP2824/TP2802.c **** 		AHDcmd1 = 0x00;
3848:TP2824/TP2802.c **** 		AHDcmd2 = 0x0c;
3849:TP2824/TP2802.c **** 	}
3850:TP2824/TP2802.c **** 	else if (TVI_Command == 0x0C) // KEY_TILT_UP + KEY_PAN_RIGHT
 8065              		.loc 1 3850 7 is_stmt 1 view .LVU2375
 8066              		.loc 1 3850 10 is_stmt 0 view .LVU2376
 8067 002c 0C2B     		cmp	r3, #12
 8068 002e 3ED0     		beq	.L597
3851:TP2824/TP2802.c **** 	{
3852:TP2824/TP2802.c **** 		AHDcmd1 = 0x00;
3853:TP2824/TP2802.c **** 		AHDcmd2 = 0x0a;
3854:TP2824/TP2802.c **** 	}
3855:TP2824/TP2802.c **** 	else if (TVI_Command == 0x0B) // KEY_TILT_DOWN + KEY_PAN_LEFT
 8069              		.loc 1 3855 7 is_stmt 1 view .LVU2377
 8070              		.loc 1 3855 10 is_stmt 0 view .LVU2378
 8071 0030 0B2B     		cmp	r3, #11
 8072 0032 43D0     		beq	.L598
3856:TP2824/TP2802.c **** 	{
3857:TP2824/TP2802.c **** 		AHDcmd1 = 0x00;
3858:TP2824/TP2802.c **** 		AHDcmd2 = 0x14;
3859:TP2824/TP2802.c **** 	}
3860:TP2824/TP2802.c **** 	else if (TVI_Command == 0x0D) // KEY_TILT_DOWN + KEY_PAN_RIGHT
 8073              		.loc 1 3860 7 is_stmt 1 view .LVU2379
 8074              		.loc 1 3860 10 is_stmt 0 view .LVU2380
 8075 0034 0D2B     		cmp	r3, #13
 8076 0036 48D0     		beq	.L599
3861:TP2824/TP2802.c **** 	{
3862:TP2824/TP2802.c **** 		AHDcmd1 = 0x00;
3863:TP2824/TP2802.c **** 		AHDcmd2 = 0x12;
3864:TP2824/TP2802.c **** 	}
3865:TP2824/TP2802.c **** 	else if (TVI_Command == 0x0F) // KEY_IRIS_OPEN / OSD_MENU
 8077              		.loc 1 3865 7 is_stmt 1 view .LVU2381
 8078              		.loc 1 3865 10 is_stmt 0 view .LVU2382
ARM GAS  C:\Users\ryanc.HS\AppData\Local\Temp\ccAQ3CYh.s 			page 246


 8079 0038 0F2B     		cmp	r3, #15
 8080 003a 4DD0     		beq	.L600
3866:TP2824/TP2802.c **** 	{
3867:TP2824/TP2802.c **** 		AHDcmd1 = 0x02;
3868:TP2824/TP2802.c **** 		AHDcmd2 = 0x00;
3869:TP2824/TP2802.c **** 	}
3870:TP2824/TP2802.c **** 	else if (TVI_Command == 0x0E) // KEY_IRIS_CLOSE
 8081              		.loc 1 3870 7 is_stmt 1 view .LVU2383
 8082              		.loc 1 3870 10 is_stmt 0 view .LVU2384
 8083 003c 0E2B     		cmp	r3, #14
 8084 003e 52D0     		beq	.L601
3871:TP2824/TP2802.c **** 	{
3872:TP2824/TP2802.c **** 		AHDcmd1 = 0x04;
3873:TP2824/TP2802.c **** 		AHDcmd2 = 0x00;
3874:TP2824/TP2802.c **** 	}
3875:TP2824/TP2802.c **** 	else if (TVI_Command == 0x11) // KEY_FOCUS_FAR
 8085              		.loc 1 3875 7 is_stmt 1 view .LVU2385
 8086              		.loc 1 3875 10 is_stmt 0 view .LVU2386
 8087 0040 112B     		cmp	r3, #17
 8088 0042 57D0     		beq	.L602
3876:TP2824/TP2802.c **** 	{
3877:TP2824/TP2802.c **** 		AHDcmd1 = 0x00;
3878:TP2824/TP2802.c **** 		AHDcmd2 = 0x20;
3879:TP2824/TP2802.c **** 	}
3880:TP2824/TP2802.c **** 	else if (TVI_Command == 0x10) // KEY_FOCUS_NEAR
 8089              		.loc 1 3880 7 is_stmt 1 view .LVU2387
 8090              		.loc 1 3880 10 is_stmt 0 view .LVU2388
 8091 0044 102B     		cmp	r3, #16
 8092 0046 5CD0     		beq	.L603
3881:TP2824/TP2802.c **** 	{
3882:TP2824/TP2802.c **** 		AHDcmd1 = 0x00;
3883:TP2824/TP2802.c **** 		AHDcmd2 = 0x40;
3884:TP2824/TP2802.c **** 	}
3885:TP2824/TP2802.c **** 	else if (TVI_Command == 0x13) // KEY_ZOOM_TELE
 8093              		.loc 1 3885 7 is_stmt 1 view .LVU2389
 8094              		.loc 1 3885 10 is_stmt 0 view .LVU2390
 8095 0048 132B     		cmp	r3, #19
 8096 004a 61D0     		beq	.L604
3886:TP2824/TP2802.c **** 	{
3887:TP2824/TP2802.c **** 		AHDcmd1 = 0x00;
3888:TP2824/TP2802.c **** 		AHDcmd2 = 0x80;
3889:TP2824/TP2802.c **** 	}
3890:TP2824/TP2802.c **** 	else if (TVI_Command == 0x12) // KEY_ZOOM_WIDE
 8097              		.loc 1 3890 7 is_stmt 1 view .LVU2391
 8098              		.loc 1 3890 10 is_stmt 0 view .LVU2392
 8099 004c 122B     		cmp	r3, #18
 8100 004e 66D0     		beq	.L605
3891:TP2824/TP2802.c **** 	{
3892:TP2824/TP2802.c **** 		AHDcmd1 = 0x01;
3893:TP2824/TP2802.c **** 		AHDcmd2 = 0x00;
3894:TP2824/TP2802.c **** 	}
3895:TP2824/TP2802.c **** 	else if (TVI_Command == 0x14) // KEY_MOTOR_STOP
 8101              		.loc 1 3895 7 is_stmt 1 view .LVU2393
 8102              		.loc 1 3895 10 is_stmt 0 view .LVU2394
 8103 0050 142B     		cmp	r3, #20
 8104 0052 6BD0     		beq	.L606
 8105              	.L574:
ARM GAS  C:\Users\ryanc.HS\AppData\Local\Temp\ccAQ3CYh.s 			page 247


3896:TP2824/TP2802.c **** 	{
3897:TP2824/TP2802.c **** 		AHDcmd1 = 0x00;
3898:TP2824/TP2802.c **** 		AHDcmd2 = 0x00;
3899:TP2824/TP2802.c **** 		AHDcmd3 = 0x00;
3900:TP2824/TP2802.c **** 		AHDcmd4 = 0x00;
3901:TP2824/TP2802.c **** 	}
3902:TP2824/TP2802.c **** }
 8106              		.loc 1 3902 1 view .LVU2395
 8107 0054 7047     		bx	lr
 8108              	.L591:
3821:TP2824/TP2802.c **** 		AHDcmd2 = 0x07;
 8109              		.loc 1 3821 3 is_stmt 1 view .LVU2396
3821:TP2824/TP2802.c **** 		AHDcmd2 = 0x07;
 8110              		.loc 1 3821 11 is_stmt 0 view .LVU2397
 8111 0056 0023     		movs	r3, #0
 8112 0058 3E4A     		ldr	r2, .L607+20
 8113 005a 1370     		strb	r3, [r2]
3822:TP2824/TP2802.c **** 		AHDcmd3 = 0;
 8114              		.loc 1 3822 3 is_stmt 1 view .LVU2398
3822:TP2824/TP2802.c **** 		AHDcmd3 = 0;
 8115              		.loc 1 3822 11 is_stmt 0 view .LVU2399
 8116 005c 3E4A     		ldr	r2, .L607+24
 8117 005e 0721     		movs	r1, #7
 8118 0060 1170     		strb	r1, [r2]
3823:TP2824/TP2802.c **** 	}
 8119              		.loc 1 3823 3 is_stmt 1 view .LVU2400
3823:TP2824/TP2802.c **** 	}
 8120              		.loc 1 3823 11 is_stmt 0 view .LVU2401
 8121 0062 384A     		ldr	r2, .L607+4
 8122 0064 1370     		strb	r3, [r2]
 8123 0066 7047     		bx	lr
 8124              	.L592:
3827:TP2824/TP2802.c **** 		AHDcmd2 = 0x08;
 8125              		.loc 1 3827 3 is_stmt 1 view .LVU2402
3827:TP2824/TP2802.c **** 		AHDcmd2 = 0x08;
 8126              		.loc 1 3827 11 is_stmt 0 view .LVU2403
 8127 0068 3A4B     		ldr	r3, .L607+20
 8128 006a 0022     		movs	r2, #0
 8129 006c 1A70     		strb	r2, [r3]
3828:TP2824/TP2802.c **** 	}
 8130              		.loc 1 3828 3 is_stmt 1 view .LVU2404
3828:TP2824/TP2802.c **** 	}
 8131              		.loc 1 3828 11 is_stmt 0 view .LVU2405
 8132 006e 3A4B     		ldr	r3, .L607+24
 8133 0070 0822     		movs	r2, #8
 8134 0072 1A70     		strb	r2, [r3]
 8135 0074 7047     		bx	lr
 8136              	.L593:
3832:TP2824/TP2802.c **** 		AHDcmd2 = 0x10;
 8137              		.loc 1 3832 3 is_stmt 1 view .LVU2406
3832:TP2824/TP2802.c **** 		AHDcmd2 = 0x10;
 8138              		.loc 1 3832 11 is_stmt 0 view .LVU2407
 8139 0076 374B     		ldr	r3, .L607+20
 8140 0078 0022     		movs	r2, #0
 8141 007a 1A70     		strb	r2, [r3]
3833:TP2824/TP2802.c **** 	}
 8142              		.loc 1 3833 3 is_stmt 1 view .LVU2408
ARM GAS  C:\Users\ryanc.HS\AppData\Local\Temp\ccAQ3CYh.s 			page 248


3833:TP2824/TP2802.c **** 	}
 8143              		.loc 1 3833 11 is_stmt 0 view .LVU2409
 8144 007c 364B     		ldr	r3, .L607+24
 8145 007e 1022     		movs	r2, #16
 8146 0080 1A70     		strb	r2, [r3]
 8147 0082 7047     		bx	lr
 8148              	.L594:
3837:TP2824/TP2802.c **** 		AHDcmd2 = 0x04;
 8149              		.loc 1 3837 3 is_stmt 1 view .LVU2410
3837:TP2824/TP2802.c **** 		AHDcmd2 = 0x04;
 8150              		.loc 1 3837 11 is_stmt 0 view .LVU2411
 8151 0084 334B     		ldr	r3, .L607+20
 8152 0086 0022     		movs	r2, #0
 8153 0088 1A70     		strb	r2, [r3]
3838:TP2824/TP2802.c **** 	}
 8154              		.loc 1 3838 3 is_stmt 1 view .LVU2412
3838:TP2824/TP2802.c **** 	}
 8155              		.loc 1 3838 11 is_stmt 0 view .LVU2413
 8156 008a 334B     		ldr	r3, .L607+24
 8157 008c 0422     		movs	r2, #4
 8158 008e 1A70     		strb	r2, [r3]
 8159 0090 7047     		bx	lr
 8160              	.L595:
3842:TP2824/TP2802.c **** 		AHDcmd2 = 0x02;
 8161              		.loc 1 3842 3 is_stmt 1 view .LVU2414
3842:TP2824/TP2802.c **** 		AHDcmd2 = 0x02;
 8162              		.loc 1 3842 11 is_stmt 0 view .LVU2415
 8163 0092 304B     		ldr	r3, .L607+20
 8164 0094 0022     		movs	r2, #0
 8165 0096 1A70     		strb	r2, [r3]
3843:TP2824/TP2802.c **** 	}
 8166              		.loc 1 3843 3 is_stmt 1 view .LVU2416
3843:TP2824/TP2802.c **** 	}
 8167              		.loc 1 3843 11 is_stmt 0 view .LVU2417
 8168 0098 2F4B     		ldr	r3, .L607+24
 8169 009a 0222     		movs	r2, #2
 8170 009c 1A70     		strb	r2, [r3]
 8171 009e 7047     		bx	lr
 8172              	.L596:
3847:TP2824/TP2802.c **** 		AHDcmd2 = 0x0c;
 8173              		.loc 1 3847 3 is_stmt 1 view .LVU2418
3847:TP2824/TP2802.c **** 		AHDcmd2 = 0x0c;
 8174              		.loc 1 3847 11 is_stmt 0 view .LVU2419
 8175 00a0 2C4B     		ldr	r3, .L607+20
 8176 00a2 0022     		movs	r2, #0
 8177 00a4 1A70     		strb	r2, [r3]
3848:TP2824/TP2802.c **** 	}
 8178              		.loc 1 3848 3 is_stmt 1 view .LVU2420
3848:TP2824/TP2802.c **** 	}
 8179              		.loc 1 3848 11 is_stmt 0 view .LVU2421
 8180 00a6 2C4B     		ldr	r3, .L607+24
 8181 00a8 0C22     		movs	r2, #12
 8182 00aa 1A70     		strb	r2, [r3]
 8183 00ac 7047     		bx	lr
 8184              	.L597:
3852:TP2824/TP2802.c **** 		AHDcmd2 = 0x0a;
 8185              		.loc 1 3852 3 is_stmt 1 view .LVU2422
ARM GAS  C:\Users\ryanc.HS\AppData\Local\Temp\ccAQ3CYh.s 			page 249


3852:TP2824/TP2802.c **** 		AHDcmd2 = 0x0a;
 8186              		.loc 1 3852 11 is_stmt 0 view .LVU2423
 8187 00ae 294B     		ldr	r3, .L607+20
 8188 00b0 0022     		movs	r2, #0
 8189 00b2 1A70     		strb	r2, [r3]
3853:TP2824/TP2802.c **** 	}
 8190              		.loc 1 3853 3 is_stmt 1 view .LVU2424
3853:TP2824/TP2802.c **** 	}
 8191              		.loc 1 3853 11 is_stmt 0 view .LVU2425
 8192 00b4 284B     		ldr	r3, .L607+24
 8193 00b6 0A22     		movs	r2, #10
 8194 00b8 1A70     		strb	r2, [r3]
 8195 00ba 7047     		bx	lr
 8196              	.L598:
3857:TP2824/TP2802.c **** 		AHDcmd2 = 0x14;
 8197              		.loc 1 3857 3 is_stmt 1 view .LVU2426
3857:TP2824/TP2802.c **** 		AHDcmd2 = 0x14;
 8198              		.loc 1 3857 11 is_stmt 0 view .LVU2427
 8199 00bc 254B     		ldr	r3, .L607+20
 8200 00be 0022     		movs	r2, #0
 8201 00c0 1A70     		strb	r2, [r3]
3858:TP2824/TP2802.c **** 	}
 8202              		.loc 1 3858 3 is_stmt 1 view .LVU2428
3858:TP2824/TP2802.c **** 	}
 8203              		.loc 1 3858 11 is_stmt 0 view .LVU2429
 8204 00c2 254B     		ldr	r3, .L607+24
 8205 00c4 1422     		movs	r2, #20
 8206 00c6 1A70     		strb	r2, [r3]
 8207 00c8 7047     		bx	lr
 8208              	.L599:
3862:TP2824/TP2802.c **** 		AHDcmd2 = 0x12;
 8209              		.loc 1 3862 3 is_stmt 1 view .LVU2430
3862:TP2824/TP2802.c **** 		AHDcmd2 = 0x12;
 8210              		.loc 1 3862 11 is_stmt 0 view .LVU2431
 8211 00ca 224B     		ldr	r3, .L607+20
 8212 00cc 0022     		movs	r2, #0
 8213 00ce 1A70     		strb	r2, [r3]
3863:TP2824/TP2802.c **** 	}
 8214              		.loc 1 3863 3 is_stmt 1 view .LVU2432
3863:TP2824/TP2802.c **** 	}
 8215              		.loc 1 3863 11 is_stmt 0 view .LVU2433
 8216 00d0 214B     		ldr	r3, .L607+24
 8217 00d2 1222     		movs	r2, #18
 8218 00d4 1A70     		strb	r2, [r3]
 8219 00d6 7047     		bx	lr
 8220              	.L600:
3867:TP2824/TP2802.c **** 		AHDcmd2 = 0x00;
 8221              		.loc 1 3867 3 is_stmt 1 view .LVU2434
3867:TP2824/TP2802.c **** 		AHDcmd2 = 0x00;
 8222              		.loc 1 3867 11 is_stmt 0 view .LVU2435
 8223 00d8 1E4B     		ldr	r3, .L607+20
 8224 00da 0222     		movs	r2, #2
 8225 00dc 1A70     		strb	r2, [r3]
3868:TP2824/TP2802.c **** 	}
 8226              		.loc 1 3868 3 is_stmt 1 view .LVU2436
3868:TP2824/TP2802.c **** 	}
 8227              		.loc 1 3868 11 is_stmt 0 view .LVU2437
ARM GAS  C:\Users\ryanc.HS\AppData\Local\Temp\ccAQ3CYh.s 			page 250


 8228 00de 1E4B     		ldr	r3, .L607+24
 8229 00e0 0022     		movs	r2, #0
 8230 00e2 1A70     		strb	r2, [r3]
 8231 00e4 7047     		bx	lr
 8232              	.L601:
3872:TP2824/TP2802.c **** 		AHDcmd2 = 0x00;
 8233              		.loc 1 3872 3 is_stmt 1 view .LVU2438
3872:TP2824/TP2802.c **** 		AHDcmd2 = 0x00;
 8234              		.loc 1 3872 11 is_stmt 0 view .LVU2439
 8235 00e6 1B4B     		ldr	r3, .L607+20
 8236 00e8 0422     		movs	r2, #4
 8237 00ea 1A70     		strb	r2, [r3]
3873:TP2824/TP2802.c **** 	}
 8238              		.loc 1 3873 3 is_stmt 1 view .LVU2440
3873:TP2824/TP2802.c **** 	}
 8239              		.loc 1 3873 11 is_stmt 0 view .LVU2441
 8240 00ec 1A4B     		ldr	r3, .L607+24
 8241 00ee 0022     		movs	r2, #0
 8242 00f0 1A70     		strb	r2, [r3]
 8243 00f2 7047     		bx	lr
 8244              	.L602:
3877:TP2824/TP2802.c **** 		AHDcmd2 = 0x20;
 8245              		.loc 1 3877 3 is_stmt 1 view .LVU2442
3877:TP2824/TP2802.c **** 		AHDcmd2 = 0x20;
 8246              		.loc 1 3877 11 is_stmt 0 view .LVU2443
 8247 00f4 174B     		ldr	r3, .L607+20
 8248 00f6 0022     		movs	r2, #0
 8249 00f8 1A70     		strb	r2, [r3]
3878:TP2824/TP2802.c **** 	}
 8250              		.loc 1 3878 3 is_stmt 1 view .LVU2444
3878:TP2824/TP2802.c **** 	}
 8251              		.loc 1 3878 11 is_stmt 0 view .LVU2445
 8252 00fa 174B     		ldr	r3, .L607+24
 8253 00fc 2022     		movs	r2, #32
 8254 00fe 1A70     		strb	r2, [r3]
 8255 0100 7047     		bx	lr
 8256              	.L603:
3882:TP2824/TP2802.c **** 		AHDcmd2 = 0x40;
 8257              		.loc 1 3882 3 is_stmt 1 view .LVU2446
3882:TP2824/TP2802.c **** 		AHDcmd2 = 0x40;
 8258              		.loc 1 3882 11 is_stmt 0 view .LVU2447
 8259 0102 144B     		ldr	r3, .L607+20
 8260 0104 0022     		movs	r2, #0
 8261 0106 1A70     		strb	r2, [r3]
3883:TP2824/TP2802.c **** 	}
 8262              		.loc 1 3883 3 is_stmt 1 view .LVU2448
3883:TP2824/TP2802.c **** 	}
 8263              		.loc 1 3883 11 is_stmt 0 view .LVU2449
 8264 0108 134B     		ldr	r3, .L607+24
 8265 010a 4022     		movs	r2, #64
 8266 010c 1A70     		strb	r2, [r3]
 8267 010e 7047     		bx	lr
 8268              	.L604:
3887:TP2824/TP2802.c **** 		AHDcmd2 = 0x80;
 8269              		.loc 1 3887 3 is_stmt 1 view .LVU2450
3887:TP2824/TP2802.c **** 		AHDcmd2 = 0x80;
 8270              		.loc 1 3887 11 is_stmt 0 view .LVU2451
ARM GAS  C:\Users\ryanc.HS\AppData\Local\Temp\ccAQ3CYh.s 			page 251


 8271 0110 104B     		ldr	r3, .L607+20
 8272 0112 0022     		movs	r2, #0
 8273 0114 1A70     		strb	r2, [r3]
3888:TP2824/TP2802.c **** 	}
 8274              		.loc 1 3888 3 is_stmt 1 view .LVU2452
3888:TP2824/TP2802.c **** 	}
 8275              		.loc 1 3888 11 is_stmt 0 view .LVU2453
 8276 0116 104B     		ldr	r3, .L607+24
 8277 0118 8022     		movs	r2, #128
 8278 011a 1A70     		strb	r2, [r3]
 8279 011c 7047     		bx	lr
 8280              	.L605:
3892:TP2824/TP2802.c **** 		AHDcmd2 = 0x00;
 8281              		.loc 1 3892 3 is_stmt 1 view .LVU2454
3892:TP2824/TP2802.c **** 		AHDcmd2 = 0x00;
 8282              		.loc 1 3892 11 is_stmt 0 view .LVU2455
 8283 011e 0D4B     		ldr	r3, .L607+20
 8284 0120 0122     		movs	r2, #1
 8285 0122 1A70     		strb	r2, [r3]
3893:TP2824/TP2802.c **** 	}
 8286              		.loc 1 3893 3 is_stmt 1 view .LVU2456
3893:TP2824/TP2802.c **** 	}
 8287              		.loc 1 3893 11 is_stmt 0 view .LVU2457
 8288 0124 0C4B     		ldr	r3, .L607+24
 8289 0126 0022     		movs	r2, #0
 8290 0128 1A70     		strb	r2, [r3]
 8291 012a 7047     		bx	lr
 8292              	.L606:
3897:TP2824/TP2802.c **** 		AHDcmd2 = 0x00;
 8293              		.loc 1 3897 3 is_stmt 1 view .LVU2458
3897:TP2824/TP2802.c **** 		AHDcmd2 = 0x00;
 8294              		.loc 1 3897 11 is_stmt 0 view .LVU2459
 8295 012c 0023     		movs	r3, #0
 8296 012e 094A     		ldr	r2, .L607+20
 8297 0130 1370     		strb	r3, [r2]
3898:TP2824/TP2802.c **** 		AHDcmd3 = 0x00;
 8298              		.loc 1 3898 3 is_stmt 1 view .LVU2460
3898:TP2824/TP2802.c **** 		AHDcmd3 = 0x00;
 8299              		.loc 1 3898 11 is_stmt 0 view .LVU2461
 8300 0132 094A     		ldr	r2, .L607+24
 8301 0134 1370     		strb	r3, [r2]
3899:TP2824/TP2802.c **** 		AHDcmd4 = 0x00;
 8302              		.loc 1 3899 3 is_stmt 1 view .LVU2462
3899:TP2824/TP2802.c **** 		AHDcmd4 = 0x00;
 8303              		.loc 1 3899 11 is_stmt 0 view .LVU2463
 8304 0136 034A     		ldr	r2, .L607+4
 8305 0138 1370     		strb	r3, [r2]
3900:TP2824/TP2802.c **** 	}
 8306              		.loc 1 3900 3 is_stmt 1 view .LVU2464
3900:TP2824/TP2802.c **** 	}
 8307              		.loc 1 3900 11 is_stmt 0 view .LVU2465
 8308 013a 044A     		ldr	r2, .L607+12
 8309 013c 1370     		strb	r3, [r2]
 8310              		.loc 1 3902 1 view .LVU2466
 8311 013e 89E7     		b	.L574
 8312              	.L608:
 8313              		.align	2
ARM GAS  C:\Users\ryanc.HS\AppData\Local\Temp\ccAQ3CYh.s 			page 252


 8314              	.L607:
 8315 0140 00000000 		.word	TVI_speed
 8316 0144 00000000 		.word	AHDcmd3
 8317 0148 00000000 		.word	presetNum
 8318 014c 00000000 		.word	AHDcmd4
 8319 0150 00000000 		.word	TVI_Command
 8320 0154 00000000 		.word	AHDcmd1
 8321 0158 00000000 		.word	AHDcmd2
 8322              		.cfi_endproc
 8323              	.LFE36:
 8325              		.section	.rodata.Get_2824cIrq.str1.4,"aMS",%progbits,1
 8326              		.align	2
 8327              	.LC72:
 8328 0000 43564253 		.ascii	"CVBS-Tx %x,%x,%x,%x\012\000"
 8328      2D547820 
 8328      25782C25 
 8328      782C2578 
 8328      2C25780A 
 8329 0015 000000   		.align	2
 8330              	.LC73:
 8331 0018 5456492D 		.ascii	"TVI-Tx %x,%x,%x\012\000"
 8331      54782025 
 8331      782C2578 
 8331      2C25780A 
 8331      00
 8332 0029 000000   		.align	2
 8333              	.LC74:
 8334 002c 4356492D 		.ascii	"CVI-Tx %x\012\000"
 8334      54782025 
 8334      780A00
 8335 0037 00       		.align	2
 8336              	.LC75:
 8337 0038 41484420 		.ascii	"AHD %x,%x,%x to \000"
 8337      25782C25 
 8337      782C2578 
 8337      20746F20 
 8337      00
 8338 0049 000000   		.align	2
 8339              	.LC76:
 8340 004c 54782025 		.ascii	"Tx %x,%x,%x,%x\012\000"
 8340      782C2578 
 8340      2C25782C 
 8340      25780A00 
 8341              		.section	.text.Get_2824cIrq,"ax",%progbits
 8342              		.align	1
 8343              		.global	Get_2824cIrq
 8344              		.syntax unified
 8345              		.thumb
 8346              		.thumb_func
 8347              		.fpu softvfp
 8349              	Get_2824cIrq:
 8350              	.LFB37:
3903:TP2824/TP2802.c **** 
3904:TP2824/TP2802.c **** void Get_2824cIrq(void) // cocrx
3905:TP2824/TP2802.c **** {
 8351              		.loc 1 3905 1 is_stmt 1 view -0
 8352              		.cfi_startproc
ARM GAS  C:\Users\ryanc.HS\AppData\Local\Temp\ccAQ3CYh.s 			page 253


 8353              		@ args = 0, pretend = 0, frame = 0
 8354              		@ frame_needed = 0, uses_anonymous_args = 0
3906:TP2824/TP2802.c **** #if (COC_RX == ON)
3907:TP2824/TP2802.c **** 	tByte addr, pcnt, RegB6;
3908:TP2824/TP2802.c **** #endif
3909:TP2824/TP2802.c **** 	if ((count[0] > (EQ_COUNT + 2) && state[0] == VIDEO_LOCKED) ||
 8355              		.loc 1 3909 2 view .LVU2468
 8356              		.loc 1 3909 12 is_stmt 0 view .LVU2469
 8357 0000 BA4B     		ldr	r3, .L650
 8358 0002 1B78     		ldrb	r3, [r3]	@ zero_extendqisi2
 8359              		.loc 1 3909 5 view .LVU2470
 8360 0004 162B     		cmp	r3, #22
 8361 0006 03D9     		bls	.L610
 8362              		.loc 1 3909 41 discriminator 1 view .LVU2471
 8363 0008 B94B     		ldr	r3, .L650+4
 8364 000a 1B78     		ldrb	r3, [r3]	@ zero_extendqisi2
 8365              		.loc 1 3909 33 discriminator 1 view .LVU2472
 8366 000c 022B     		cmp	r3, #2
 8367 000e 18D0     		beq	.L611
 8368              	.L610:
3910:TP2824/TP2802.c **** 		(count[1] > (EQ_COUNT + 2) && state[1] == VIDEO_LOCKED) ||
 8369              		.loc 1 3910 9 discriminator 3 view .LVU2473
 8370 0010 B64B     		ldr	r3, .L650
 8371 0012 5B78     		ldrb	r3, [r3, #1]	@ zero_extendqisi2
3909:TP2824/TP2802.c **** 		(count[1] > (EQ_COUNT + 2) && state[1] == VIDEO_LOCKED) ||
 8372              		.loc 1 3909 62 discriminator 3 view .LVU2474
 8373 0014 162B     		cmp	r3, #22
 8374 0016 03D9     		bls	.L612
 8375              		.loc 1 3910 38 view .LVU2475
 8376 0018 B54B     		ldr	r3, .L650+4
 8377 001a 5B78     		ldrb	r3, [r3, #1]	@ zero_extendqisi2
 8378              		.loc 1 3910 30 view .LVU2476
 8379 001c 022B     		cmp	r3, #2
 8380 001e 10D0     		beq	.L611
 8381              	.L612:
3911:TP2824/TP2802.c **** 		(count[2] > (EQ_COUNT + 2) && state[2] == VIDEO_LOCKED) ||
 8382              		.loc 1 3911 9 discriminator 1 view .LVU2477
 8383 0020 B24B     		ldr	r3, .L650
 8384 0022 9B78     		ldrb	r3, [r3, #2]	@ zero_extendqisi2
3910:TP2824/TP2802.c **** 		(count[1] > (EQ_COUNT + 2) && state[1] == VIDEO_LOCKED) ||
 8385              		.loc 1 3910 59 discriminator 1 view .LVU2478
 8386 0024 162B     		cmp	r3, #22
 8387 0026 03D9     		bls	.L613
 8388              		.loc 1 3911 38 view .LVU2479
 8389 0028 B14B     		ldr	r3, .L650+4
 8390 002a 9B78     		ldrb	r3, [r3, #2]	@ zero_extendqisi2
 8391              		.loc 1 3911 30 view .LVU2480
 8392 002c 022B     		cmp	r3, #2
 8393 002e 08D0     		beq	.L611
 8394              	.L613:
3912:TP2824/TP2802.c **** 		(count[3] > (EQ_COUNT + 2) && state[3] == VIDEO_LOCKED))
 8395              		.loc 1 3912 9 discriminator 1 view .LVU2481
 8396 0030 AE4B     		ldr	r3, .L650
 8397 0032 DB78     		ldrb	r3, [r3, #3]	@ zero_extendqisi2
3911:TP2824/TP2802.c **** 		(count[2] > (EQ_COUNT + 2) && state[2] == VIDEO_LOCKED) ||
 8398              		.loc 1 3911 59 discriminator 1 view .LVU2482
 8399 0034 162B     		cmp	r3, #22
ARM GAS  C:\Users\ryanc.HS\AppData\Local\Temp\ccAQ3CYh.s 			page 254


 8400 0036 03D9     		bls	.L645
 8401              		.loc 1 3912 38 view .LVU2483
 8402 0038 AD4B     		ldr	r3, .L650+4
 8403 003a DB78     		ldrb	r3, [r3, #3]	@ zero_extendqisi2
 8404              		.loc 1 3912 30 view .LVU2484
 8405 003c 022B     		cmp	r3, #2
 8406 003e 00D0     		beq	.L611
 8407              	.L645:
 8408 0040 7047     		bx	lr
 8409              	.L611:
3905:TP2824/TP2802.c **** #if (COC_RX == ON)
 8410              		.loc 1 3905 1 view .LVU2485
 8411 0042 2DE9F041 		push	{r4, r5, r6, r7, r8, lr}
 8412              	.LCFI42:
 8413              		.cfi_def_cfa_offset 24
 8414              		.cfi_offset 4, -24
 8415              		.cfi_offset 5, -20
 8416              		.cfi_offset 6, -16
 8417              		.cfi_offset 7, -12
 8418              		.cfi_offset 8, -8
 8419              		.cfi_offset 14, -4
 8420 0046 82B0     		sub	sp, sp, #8
 8421              	.LCFI43:
 8422              		.cfi_def_cfa_offset 32
3913:TP2824/TP2802.c **** 	{
3914:TP2824/TP2802.c **** 
3915:TP2824/TP2802.c **** 		SetRegPage(0x04);
 8423              		.loc 1 3915 3 is_stmt 1 view .LVU2486
 8424 0048 0420     		movs	r0, #4
 8425 004a FFF7FEFF 		bl	SetRegPage
 8426              	.LVL863:
3916:TP2824/TP2802.c **** 		delay(1); // 5ms
 8427              		.loc 1 3916 3 view .LVU2487
 8428 004e 0120     		movs	r0, #1
 8429 0050 FFF7FEFF 		bl	delay
 8430              	.LVL864:
3917:TP2824/TP2802.c **** #if (COC_RX == ON)
3918:TP2824/TP2802.c **** 		RegB6 = tp28xx_byte_read(0xB6);
3919:TP2824/TP2802.c **** #endif
3920:TP2824/TP2802.c **** 		tp28xx_byte_read(0xB5);
 8431              		.loc 1 3920 3 view .LVU2488
 8432 0054 B520     		movs	r0, #181
 8433 0056 FFF7FEFF 		bl	tp28xx_byte_read
 8434              	.LVL865:
3921:TP2824/TP2802.c **** 		tp28xx_byte_read(0xB4);
 8435              		.loc 1 3921 3 view .LVU2489
 8436 005a B420     		movs	r0, #180
 8437 005c FFF7FEFF 		bl	tp28xx_byte_read
 8438              	.LVL866:
3922:TP2824/TP2802.c **** 
3923:TP2824/TP2802.c **** // PTZ RX	//TVI_1080P COC
3924:TP2824/TP2802.c **** #if (COC_RX == ON)
3925:TP2824/TP2802.c **** 		if ((RegB6 & 0xF0) != 0) // VnRXIRQ
3926:TP2824/TP2802.c **** 		{
3927:TP2824/TP2802.c **** 			// V4RXIRQ---
3928:TP2824/TP2802.c **** 			if ((RegB6 & 0x80) != 0 && count[3] > (EQ_COUNT + 2) /*&&(state[3] == VIDEO_LOCKED)&&std[3]==TVI
3929:TP2824/TP2802.c **** 			{
ARM GAS  C:\Users\ryanc.HS\AppData\Local\Temp\ccAQ3CYh.s 			page 255


3930:TP2824/TP2802.c **** 				SetRegPage(0x03);
3931:TP2824/TP2802.c **** 				// delay(1);//5ms
3932:TP2824/TP2802.c **** 				pcnt = 0;
3933:TP2824/TP2802.c **** 				for (addr = 0x8A; addr <= 0xA1; addr++) // Line1 & Line2
3934:TP2824/TP2802.c **** 				{
3935:TP2824/TP2802.c **** 					tpRxD[pcnt] = tp28xx_byte_read(addr);
3936:TP2824/TP2802.c **** 					pcnt++;
3937:TP2824/TP2802.c **** 				}
3938:TP2824/TP2802.c **** 				tp28xx_byte_write(0xa7, 0x00);
3939:TP2824/TP2802.c **** 				// delay(1);//5ms
3940:TP2824/TP2802.c **** 				tp28xx_byte_write(0xa7, 0x83);
3941:TP2824/TP2802.c **** 
3942:TP2824/TP2802.c **** 				for (pcnt = 0; pcnt < 5; pcnt++)
3943:TP2824/TP2802.c **** 					COCRX4[pcnt] = tpRxD[pcnt + 1];
3944:TP2824/TP2802.c **** 				for (pcnt = 5; pcnt < 10; pcnt++)
3945:TP2824/TP2802.c **** 					COCRX4[pcnt] = tpRxD[pcnt + 2];
3946:TP2824/TP2802.c **** #if (_DEBUG_MESSAGE_Get_2824cIrq == ON)
3947:TP2824/TP2802.c **** 				// GraphicsPrint(CYAN,"(TP_PRES_DOWN=%02x)",(WORD)TP_PRES_DOWN);
3948:TP2824/TP2802.c **** 				printf("\r\nCOC4:");
3949:TP2824/TP2802.c **** 				for (pcnt = 0; pcnt < 6; pcnt++)
3950:TP2824/TP2802.c **** 					printf(" %02X", COCRX4[pcnt]);
3951:TP2824/TP2802.c **** 				printf(" %02X", COCRX4[9]);
3952:TP2824/TP2802.c **** #endif
3953:TP2824/TP2802.c **** 
3954:TP2824/TP2802.c **** 				// BOX on line  return 0x61, 0x01, 0x04, 0x9E,Lcd VINn=0x01 / Box CHn=0x04
3955:TP2824/TP2802.c **** 				// COC2: 02 B5 01 61 01 02 9E
3956:TP2824/TP2802.c **** 				if (COCRX4[3] == 0x61 && COCRX4[9] == 0x9E)
3957:TP2824/TP2802.c **** 				{
3958:TP2824/TP2802.c **** 					QuadBoxId |= 8; // 1:ch1 / 2:ch2 / 4:ch3 / 8:ch4
3959:TP2824/TP2802.c **** 
3960:TP2824/TP2802.c **** #if (_DEBUG_MESSAGE_Get_2824cIrq == ON)
3961:TP2824/TP2802.c **** 					printf("QuadBoxId %02x\r\n", QuadBoxId);
3962:TP2824/TP2802.c **** #endif
3963:TP2824/TP2802.c **** 
3964:TP2824/TP2802.c **** 					if (COCRX4[4] == 0x38 && COCRX4[5] == 0x02)
3965:TP2824/TP2802.c **** 					{
3966:TP2824/TP2802.c **** 						Flisheye_CAM[CH4] = TRUE;
3967:TP2824/TP2802.c **** 						WriteEEP(EEP_FlishCAM4, TRUE);
3968:TP2824/TP2802.c **** 						Flisheye_VLOSS_Count[FCH4] = 0;
3969:TP2824/TP2802.c **** 						QuadBoxId &= ~(0x08);
3970:TP2824/TP2802.c **** 					}
3971:TP2824/TP2802.c **** 				}
3972:TP2824/TP2802.c **** 			}
3973:TP2824/TP2802.c **** 
3974:TP2824/TP2802.c **** 			// V3RXIRQ---
3975:TP2824/TP2802.c **** 			if ((RegB6 & 0x40) != 0 && count[2] > (EQ_COUNT + 2) /*&&(state[2] == VIDEO_LOCKED)&&std[2]==TVI
3976:TP2824/TP2802.c **** 			{
3977:TP2824/TP2802.c **** 				SetRegPage(0x02);
3978:TP2824/TP2802.c **** 				// delay(1);//5ms
3979:TP2824/TP2802.c **** 
3980:TP2824/TP2802.c **** 				pcnt = 0;
3981:TP2824/TP2802.c **** 				for (addr = 0x8A; addr <= 0xA1; addr++)
3982:TP2824/TP2802.c **** 				{
3983:TP2824/TP2802.c **** 					tpRxD[pcnt] = tp28xx_byte_read(addr);
3984:TP2824/TP2802.c **** 					pcnt++;
3985:TP2824/TP2802.c **** 				}
3986:TP2824/TP2802.c **** 
ARM GAS  C:\Users\ryanc.HS\AppData\Local\Temp\ccAQ3CYh.s 			page 256


3987:TP2824/TP2802.c **** 				tp28xx_byte_write(0xa7, 0x00);
3988:TP2824/TP2802.c **** 				// delay(1);//5ms
3989:TP2824/TP2802.c **** 				tp28xx_byte_write(0xa7, 0x83);
3990:TP2824/TP2802.c **** 
3991:TP2824/TP2802.c **** 				for (pcnt = 0; pcnt < 5; pcnt++)
3992:TP2824/TP2802.c **** 					COCRX3[pcnt] = tpRxD[pcnt + 1];
3993:TP2824/TP2802.c **** 				for (pcnt = 5; pcnt < 10; pcnt++)
3994:TP2824/TP2802.c **** 					COCRX3[pcnt] = tpRxD[pcnt + 2];
3995:TP2824/TP2802.c **** 
3996:TP2824/TP2802.c **** #if (_DEBUG_MESSAGE_Get_2824cIrq == ON)
3997:TP2824/TP2802.c **** 				printf("\r\nCOC3:");
3998:TP2824/TP2802.c **** 				for (pcnt = 0; pcnt < 6; pcnt++)
3999:TP2824/TP2802.c **** 					printf(" %02X", COCRX3[pcnt]);
4000:TP2824/TP2802.c **** 				printf(" %02X", COCRX3[9]);
4001:TP2824/TP2802.c **** #endif
4002:TP2824/TP2802.c **** 
4003:TP2824/TP2802.c **** 				// BOX on line  return 0x61, 0x01, 0x04, 0x9E,Lcd VINn=0x01 / Box CHn=0x04
4004:TP2824/TP2802.c **** 				// COC2: 02 B5 01 61 01 02 9E
4005:TP2824/TP2802.c **** 				if (COCRX3[3] == 0x61 && COCRX3[9] == 0x9E)
4006:TP2824/TP2802.c **** 				{
4007:TP2824/TP2802.c **** 					QuadBoxId |= 4; // 1:ch1 / 2:ch2 / 4:ch3 / 8:ch4
4008:TP2824/TP2802.c **** #if (_DEBUG_MESSAGE_Get_2824cIrq == ON)
4009:TP2824/TP2802.c **** 					printf("QuadBoxId %02x\r\n", QuadBoxId);
4010:TP2824/TP2802.c **** #endif
4011:TP2824/TP2802.c **** 
4012:TP2824/TP2802.c **** 					if (COCRX3[4] == 0x38 && COCRX3[5] == 0x02)
4013:TP2824/TP2802.c **** 					{
4014:TP2824/TP2802.c **** 						Flisheye_CAM[CH3] = TRUE;
4015:TP2824/TP2802.c **** 						WriteEEP(EEP_FlishCAM3, TRUE);
4016:TP2824/TP2802.c **** 						Flisheye_VLOSS_Count[CH3] = 0;
4017:TP2824/TP2802.c **** 						QuadBoxId &= ~(0x04);
4018:TP2824/TP2802.c **** 					}
4019:TP2824/TP2802.c **** 				}
4020:TP2824/TP2802.c **** 			}
4021:TP2824/TP2802.c **** 
4022:TP2824/TP2802.c **** 			// V2RXIRQ---
4023:TP2824/TP2802.c **** 			if ((RegB6 & 0x20) != 0 && count[1] > (EQ_COUNT + 2) /*&&(state[1] == VIDEO_LOCKED) &&std[1]==TV
4024:TP2824/TP2802.c **** 			{
4025:TP2824/TP2802.c **** 				SetRegPage(0x01);
4026:TP2824/TP2802.c **** 				// delay(1);//5ms
4027:TP2824/TP2802.c **** 
4028:TP2824/TP2802.c **** 				pcnt = 0;
4029:TP2824/TP2802.c **** 				for (addr = 0x8A; addr <= 0xA1; addr++)
4030:TP2824/TP2802.c **** 				{
4031:TP2824/TP2802.c **** 					tpRxD[pcnt] = tp28xx_byte_read(addr);
4032:TP2824/TP2802.c **** 					pcnt++;
4033:TP2824/TP2802.c **** 				}
4034:TP2824/TP2802.c **** 
4035:TP2824/TP2802.c **** 				tp28xx_byte_write(0xa7, 0x00);
4036:TP2824/TP2802.c **** 				// delay(1);//5ms
4037:TP2824/TP2802.c **** 				tp28xx_byte_write(0xa7, 0x83);
4038:TP2824/TP2802.c **** 
4039:TP2824/TP2802.c **** 				for (pcnt = 0; pcnt < 5; pcnt++)
4040:TP2824/TP2802.c **** 					COCRX2[pcnt] = tpRxD[pcnt + 1];
4041:TP2824/TP2802.c **** 				for (pcnt = 5; pcnt < 10; pcnt++)
4042:TP2824/TP2802.c **** 					COCRX2[pcnt] = tpRxD[pcnt + 2];
4043:TP2824/TP2802.c **** 
ARM GAS  C:\Users\ryanc.HS\AppData\Local\Temp\ccAQ3CYh.s 			page 257


4044:TP2824/TP2802.c **** #if (_DEBUG_MESSAGE_Get_2824cIrq == ON)
4045:TP2824/TP2802.c **** 				printf("\r\nCOC2:");
4046:TP2824/TP2802.c **** 				for (pcnt = 0; pcnt < 6; pcnt++)
4047:TP2824/TP2802.c **** 					printf(" %02X", COCRX2[pcnt]);
4048:TP2824/TP2802.c **** 				printf(" %02X", COCRX2[9]);
4049:TP2824/TP2802.c **** #endif
4050:TP2824/TP2802.c **** 
4051:TP2824/TP2802.c **** 				// BOX on line  return 0x61, 0x01, 0x04, 0x9E,Lcd VINn=0x01 / Box CHn=0x04
4052:TP2824/TP2802.c **** 				// COC2: 02 B5 01 61 01 02 9E
4053:TP2824/TP2802.c **** 				if (COCRX2[3] == 0x61 && COCRX2[9] == 0x9E)
4054:TP2824/TP2802.c **** 				{
4055:TP2824/TP2802.c **** 					QuadBoxId |= 2; // 1:ch1 / 2:ch2 / 4:ch3 / 8:ch4
4056:TP2824/TP2802.c **** #if (_DEBUG_MESSAGE_Get_2824cIrq == ON)
4057:TP2824/TP2802.c **** 					printf("QuadBoxId %02x\r\n", QuadBoxId);
4058:TP2824/TP2802.c **** #endif
4059:TP2824/TP2802.c **** 
4060:TP2824/TP2802.c **** 					if (COCRX2[4] == 0x38 && COCRX2[5] == 0x02)
4061:TP2824/TP2802.c **** 					{
4062:TP2824/TP2802.c **** 						Flisheye_CAM[CH2] = TRUE;
4063:TP2824/TP2802.c **** 						WriteEEP(EEP_FlishCAM2, TRUE);
4064:TP2824/TP2802.c **** 						Flisheye_VLOSS_Count[CH2] = 0;
4065:TP2824/TP2802.c **** 						QuadBoxId &= ~(0x02);
4066:TP2824/TP2802.c **** 					}
4067:TP2824/TP2802.c **** 				}
4068:TP2824/TP2802.c **** 			}
4069:TP2824/TP2802.c **** 
4070:TP2824/TP2802.c **** 			// V1RXIRQ---
4071:TP2824/TP2802.c **** 			if ((RegB6 & 0x10) != 0 && count[0] > (EQ_COUNT + 2) /*&&(state[0] == VIDEO_LOCKED) &&std[0]==TV
4072:TP2824/TP2802.c **** 			{
4073:TP2824/TP2802.c **** 				SetRegPage(0x00);
4074:TP2824/TP2802.c **** 				// delay(1);//5ms
4075:TP2824/TP2802.c **** 
4076:TP2824/TP2802.c **** 				pcnt = 0;
4077:TP2824/TP2802.c **** 				for (addr = 0x8A; addr <= 0xA1; addr++)
4078:TP2824/TP2802.c **** 				{
4079:TP2824/TP2802.c **** 					tpRxD[pcnt] = tp28xx_byte_read(addr);
4080:TP2824/TP2802.c **** 					pcnt++;
4081:TP2824/TP2802.c **** 				}
4082:TP2824/TP2802.c **** 
4083:TP2824/TP2802.c **** 				tp28xx_byte_write(0xa7, 0x00);
4084:TP2824/TP2802.c **** 				// delay(1);//5ms
4085:TP2824/TP2802.c **** 				tp28xx_byte_write(0xa7, 0x83);
4086:TP2824/TP2802.c **** 
4087:TP2824/TP2802.c **** 				for (pcnt = 0; pcnt < 5; pcnt++)
4088:TP2824/TP2802.c **** 					COCRX1[pcnt] = tpRxD[pcnt + 1];
4089:TP2824/TP2802.c **** 				for (pcnt = 5; pcnt < 10; pcnt++)
4090:TP2824/TP2802.c **** 					COCRX1[pcnt] = tpRxD[pcnt + 2];
4091:TP2824/TP2802.c **** 
4092:TP2824/TP2802.c **** #if (_DEBUG_MESSAGE_Get_2824cIrq == ON)
4093:TP2824/TP2802.c **** 				printf("\r\nCOC1:");
4094:TP2824/TP2802.c **** 				for (pcnt = 0; pcnt < 6; pcnt++)
4095:TP2824/TP2802.c **** 					printf(" %02X", COCRX1[pcnt]);
4096:TP2824/TP2802.c **** 				printf(" %02X", COCRX1[9]);
4097:TP2824/TP2802.c **** #endif
4098:TP2824/TP2802.c **** 
4099:TP2824/TP2802.c **** 				// BOX on line  return 0x61, 0x01, 0x04, 0x9E,Lcd VINn=0x01 / Box CHn=0x04
4100:TP2824/TP2802.c **** 				// COC2: 02 B5 01 61 01 02 9E
ARM GAS  C:\Users\ryanc.HS\AppData\Local\Temp\ccAQ3CYh.s 			page 258


4101:TP2824/TP2802.c **** 				if (COCRX1[3] == 0x61 && COCRX1[9] == 0x9E)
4102:TP2824/TP2802.c **** 				{
4103:TP2824/TP2802.c **** 					QuadBoxId |= 1; // 1:ch1 / 2:ch2 / 4:ch3 / 8:ch4
4104:TP2824/TP2802.c **** #if (_DEBUG_MESSAGE_Get_2824cIrq == ON)
4105:TP2824/TP2802.c **** 					printf("QuadBoxId %02x\r\n", QuadBoxId);
4106:TP2824/TP2802.c **** #endif
4107:TP2824/TP2802.c **** 
4108:TP2824/TP2802.c **** 					if (COCRX1[4] == 0x38 && COCRX1[5] == 0x02)
4109:TP2824/TP2802.c **** 					{
4110:TP2824/TP2802.c **** 						Flisheye_CAM[CH1] = TRUE;
4111:TP2824/TP2802.c **** 						WriteEEP(EEP_FlishCAM1, TRUE);
4112:TP2824/TP2802.c **** 						Flisheye_VLOSS_Count[CH1] = 0;
4113:TP2824/TP2802.c **** 						QuadBoxId &= ~(0x01);
4114:TP2824/TP2802.c **** 					}
4115:TP2824/TP2802.c **** 				}
4116:TP2824/TP2802.c **** 			}
4117:TP2824/TP2802.c **** 			// printf("\r\n");
4118:TP2824/TP2802.c **** 		}
4119:TP2824/TP2802.c **** #endif
4120:TP2824/TP2802.c **** 		// PTZ TX
4121:TP2824/TP2802.c **** 		// else
4122:TP2824/TP2802.c **** 		if (ptztxflag == 1) // no any RXIRQ
 8439              		.loc 1 4122 3 view .LVU2490
 8440              		.loc 1 4122 17 is_stmt 0 view .LVU2491
 8441 0060 A44B     		ldr	r3, .L650+8
 8442 0062 1B68     		ldr	r3, [r3]
 8443              		.loc 1 4122 6 view .LVU2492
 8444 0064 012B     		cmp	r3, #1
 8445 0066 02D0     		beq	.L647
 8446              	.L609:
4123:TP2824/TP2802.c **** 		{
4124:TP2824/TP2802.c **** 			if (TVI == std[PtzTxChNum])
4125:TP2824/TP2802.c **** 			{
4126:TP2824/TP2802.c **** 				if (mode[PtzTxChNum] == NTSC || mode[PtzTxChNum] == PAL)
4127:TP2824/TP2802.c **** 				{
4128:TP2824/TP2802.c **** 					tByte cmd1 = 0, cmd2 = 0, dat1 = 0, dat2 = 0;
4129:TP2824/TP2802.c **** 
4130:TP2824/TP2802.c **** 					dat1 = (tByte)TVI_speed;
4131:TP2824/TP2802.c **** 					dat2 = (tByte)presetNum;
4132:TP2824/TP2802.c **** 
4133:TP2824/TP2802.c **** 					if (TVI_Command == 0x0F) // SET//Iris +
4134:TP2824/TP2802.c **** 						cmd1 = 0x02;
4135:TP2824/TP2802.c **** 					else if (TVI_Command == 0x0E) // Iris -
4136:TP2824/TP2802.c **** 						cmd1 = 0x04;
4137:TP2824/TP2802.c **** 					else if (TVI_Command == 0x10) // Focus -
4138:TP2824/TP2802.c **** 						cmd1 = 0x01;
4139:TP2824/TP2802.c **** 					else if (TVI_Command == 0x11) // Focus +
4140:TP2824/TP2802.c **** 						cmd2 = 0x80;
4141:TP2824/TP2802.c **** 					else if (TVI_Command == 0x12) // Zoom -
4142:TP2824/TP2802.c **** 						cmd2 = 0x40;
4143:TP2824/TP2802.c **** 					else if (TVI_Command == 0x13) // Zoom +
4144:TP2824/TP2802.c **** 						cmd2 = 0x20;
4145:TP2824/TP2802.c **** 					else if (TVI_Command == 0x06) // up
4146:TP2824/TP2802.c **** 						cmd2 = 0x08;
4147:TP2824/TP2802.c **** 					else if (TVI_Command == 0x07) // down
4148:TP2824/TP2802.c **** 						cmd2 = 0x10;
4149:TP2824/TP2802.c **** 					else if (TVI_Command == 0x09) // left
ARM GAS  C:\Users\ryanc.HS\AppData\Local\Temp\ccAQ3CYh.s 			page 259


4150:TP2824/TP2802.c **** 						cmd2 = 0x04;
4151:TP2824/TP2802.c **** 					else if (TVI_Command == 0x08) // right
4152:TP2824/TP2802.c **** 						cmd2 = 0x02;
4153:TP2824/TP2802.c **** 					else if (TVI_Command == 0x0A) // up + left
4154:TP2824/TP2802.c **** 						cmd2 = 0x0c;
4155:TP2824/TP2802.c **** 					else if (TVI_Command == 0x0C) // up + right
4156:TP2824/TP2802.c **** 						cmd2 = 0x0a;
4157:TP2824/TP2802.c **** 					else if (TVI_Command == 0x0B) // down + left
4158:TP2824/TP2802.c **** 						cmd2 = 0x14;
4159:TP2824/TP2802.c **** 					else if (TVI_Command == 0x0D) // down + right
4160:TP2824/TP2802.c **** 						cmd2 = 0x12;
4161:TP2824/TP2802.c **** 					else if (TVI_Command == 0x17) // PRESET x
4162:TP2824/TP2802.c **** 					{
4163:TP2824/TP2802.c **** 						cmd2 = 0x07;
4164:TP2824/TP2802.c **** 						dat1 = 0;
4165:TP2824/TP2802.c **** 						dat2 = (tByte)presetNum;
4166:TP2824/TP2802.c **** 					}
4167:TP2824/TP2802.c **** 					// set:0x0f / dn:0x06 / up:0x07 / L:0x13 / R:0x12
4168:TP2824/TP2802.c **** 					cmd1 = AHDBitsReverse(cmd1); // 20200413
4169:TP2824/TP2802.c **** 					cmd2 = AHDBitsReverse(cmd2); // 20200413
4170:TP2824/TP2802.c **** 					dat1 = AHDBitsReverse(dat1); // 20200413
4171:TP2824/TP2802.c **** 					dat2 = AHDBitsReverse(dat2); // 20200413
4172:TP2824/TP2802.c **** 
4173:TP2824/TP2802.c **** 					SetRegPage(PtzTxChNum);
4174:TP2824/TP2802.c **** 					tp28xx_byte_write(0x5a, cmd1); // command byte 1
4175:TP2824/TP2802.c **** 					tp28xx_byte_write(0x59, cmd2); // command byte 2
4176:TP2824/TP2802.c **** 
4177:TP2824/TP2802.c **** 					tp28xx_byte_write(0x60, dat1); // data byte 1
4178:TP2824/TP2802.c **** 					tp28xx_byte_write(0x5f, dat2); // data byte 2
4179:TP2824/TP2802.c **** 
4180:TP2824/TP2802.c **** 					tp28xx_byte_write(0x6f, 0x61);
4181:TP2824/TP2802.c **** 					delay(10); // 50ms
4182:TP2824/TP2802.c **** 					tp28xx_byte_write(0x6f, 0x60);
4183:TP2824/TP2802.c **** 					printf("CVBS-Tx %x,%x,%x,%x\n", cmd1, cmd2, dat1, dat2);
4184:TP2824/TP2802.c **** 				}
4185:TP2824/TP2802.c **** 				else // 1080P
4186:TP2824/TP2802.c **** 				{
4187:TP2824/TP2802.c **** 					SetRegPage(PtzTxChNum);
4188:TP2824/TP2802.c **** 					tp28xx_byte_write(0x59, (tByte)TVI_Command);
4189:TP2824/TP2802.c **** 					tp28xx_byte_write(0x5a, (tByte)presetNum);
4190:TP2824/TP2802.c **** 					tp28xx_byte_write(0x5d, (tByte)TVI_speed); // 0x5f  check this????
4191:TP2824/TP2802.c **** 					tp28xx_byte_write(0x60, (tByte)TVI_Chksum);
4192:TP2824/TP2802.c **** 
4193:TP2824/TP2802.c **** 					tp28xx_byte_write(0x6f, 0x41);
4194:TP2824/TP2802.c **** 					delay(10); // 50ms
4195:TP2824/TP2802.c **** 					tp28xx_byte_write(0x6f, 0x40);
4196:TP2824/TP2802.c **** 					printf("TVI-Tx %x,%x,%x\n", TVI_Command, presetNum, TVI_speed);
4197:TP2824/TP2802.c **** 				}
4198:TP2824/TP2802.c **** 
4199:TP2824/TP2802.c **** 				ptztxflag = 0;
4200:TP2824/TP2802.c **** 			}
4201:TP2824/TP2802.c **** 			if (HDC == std[PtzTxChNum]) // 1080P / 720P
4202:TP2824/TP2802.c **** 			{
4203:TP2824/TP2802.c **** 				SetRegPage(PtzTxChNum);
4204:TP2824/TP2802.c **** 
4205:TP2824/TP2802.c **** 				tp28xx_byte_write(0x6e, 0xA5);
4206:TP2824/TP2802.c **** 				tp28xx_byte_write(0x6e, 0x02);
ARM GAS  C:\Users\ryanc.HS\AppData\Local\Temp\ccAQ3CYh.s 			page 260


4207:TP2824/TP2802.c **** 				switch (TVI_Command)
4208:TP2824/TP2802.c **** 				{
4209:TP2824/TP2802.c **** 				case 0x0F: // SET//Iris +
4210:TP2824/TP2802.c **** 					tp28xx_byte_write(0x6e, 0x50);
4211:TP2824/TP2802.c **** 					tp28xx_byte_write(0x6e, 0x00);
4212:TP2824/TP2802.c **** 					tp28xx_byte_write(0x6e, 0x00);
4213:TP2824/TP2802.c **** 					tp28xx_byte_write(0x6e, 0x00);
4214:TP2824/TP2802.c **** 					break;
4215:TP2824/TP2802.c **** 
4216:TP2824/TP2802.c **** 				case 0x06: // up
4217:TP2824/TP2802.c **** 					tp28xx_byte_write(0x6e, 0x08);
4218:TP2824/TP2802.c **** 					tp28xx_byte_write(0x6e, 0x00);
4219:TP2824/TP2802.c **** 					tp28xx_byte_write(0x6e, 0xFF);
4220:TP2824/TP2802.c **** 					tp28xx_byte_write(0x6e, 0x00);
4221:TP2824/TP2802.c **** 					break;
4222:TP2824/TP2802.c **** 
4223:TP2824/TP2802.c **** 				case 0x07: // down
4224:TP2824/TP2802.c **** 					tp28xx_byte_write(0x6e, 0x04);
4225:TP2824/TP2802.c **** 					tp28xx_byte_write(0x6e, 0x00);
4226:TP2824/TP2802.c **** 					tp28xx_byte_write(0x6e, 0xFF);
4227:TP2824/TP2802.c **** 					tp28xx_byte_write(0x6e, 0x00);
4228:TP2824/TP2802.c **** 					break;
4229:TP2824/TP2802.c **** 
4230:TP2824/TP2802.c **** 				case 0x09: // left
4231:TP2824/TP2802.c **** 					tp28xx_byte_write(0x6e, 0x02);
4232:TP2824/TP2802.c **** 					tp28xx_byte_write(0x6e, 0xFF);
4233:TP2824/TP2802.c **** 					tp28xx_byte_write(0x6e, 0x00);
4234:TP2824/TP2802.c **** 					tp28xx_byte_write(0x6e, 0x00);
4235:TP2824/TP2802.c **** 					break;
4236:TP2824/TP2802.c **** 
4237:TP2824/TP2802.c **** 				case 0x08: // right
4238:TP2824/TP2802.c **** 					tp28xx_byte_write(0x6e, 0x01);
4239:TP2824/TP2802.c **** 					tp28xx_byte_write(0x6e, 0xFF);
4240:TP2824/TP2802.c **** 					tp28xx_byte_write(0x6e, 0x00);
4241:TP2824/TP2802.c **** 					tp28xx_byte_write(0x6e, 0x00);
4242:TP2824/TP2802.c **** 					break;
4243:TP2824/TP2802.c **** 
4244:TP2824/TP2802.c **** 				default:
4245:TP2824/TP2802.c **** 				case 0x14: // STOP
4246:TP2824/TP2802.c **** 					tp28xx_byte_write(0x6e, 0x00);
4247:TP2824/TP2802.c **** 					tp28xx_byte_write(0x6e, 0x00);
4248:TP2824/TP2802.c **** 					tp28xx_byte_write(0x6e, 0x00);
4249:TP2824/TP2802.c **** 					tp28xx_byte_write(0x6e, 0x00);
4250:TP2824/TP2802.c **** 					break;
4251:TP2824/TP2802.c **** 				}
4252:TP2824/TP2802.c **** 
4253:TP2824/TP2802.c **** 				tp28xx_byte_write(0x6f, 0x49);
4254:TP2824/TP2802.c **** 				delay(5); // 50ms
4255:TP2824/TP2802.c **** 				tp28xx_byte_write(0x6f, 0x48);
4256:TP2824/TP2802.c **** 				ptztxflag = 0;
4257:TP2824/TP2802.c **** 				printf("CVI-Tx %x\n", TVI_Command);
4258:TP2824/TP2802.c **** 			}
4259:TP2824/TP2802.c **** 			if (HDA == std[PtzTxChNum]) // 1080P / 720P
4260:TP2824/TP2802.c **** 			{
4261:TP2824/TP2802.c **** 				TVICommandToAHData();
4262:TP2824/TP2802.c **** 
4263:TP2824/TP2802.c **** 				SetRegPage(PtzTxChNum);
ARM GAS  C:\Users\ryanc.HS\AppData\Local\Temp\ccAQ3CYh.s 			page 261


4264:TP2824/TP2802.c **** 
4265:TP2824/TP2802.c **** 				// stop command
4266:TP2824/TP2802.c **** 				tp28xx_byte_write(0x5a, 0x00);
4267:TP2824/TP2802.c **** 				tp28xx_byte_write(0x60, 0x00);
4268:TP2824/TP2802.c **** 				tp28xx_byte_write(0x66, 0x00);
4269:TP2824/TP2802.c **** 				tp28xx_byte_write(0x6c, 0x00);
4270:TP2824/TP2802.c **** 
4271:TP2824/TP2802.c **** 				tp28xx_byte_write(0x6f, 0x45);
4272:TP2824/TP2802.c **** 				delay(5); // 50ms
4273:TP2824/TP2802.c **** 				tp28xx_byte_write(0x6f, 0x44);
4274:TP2824/TP2802.c **** 
4275:TP2824/TP2802.c **** 				// command data
4276:TP2824/TP2802.c **** 				tp28xx_byte_write(0x5a, AHDBitsReverse(AHDcmd1));
4277:TP2824/TP2802.c **** 				tp28xx_byte_write(0x60, AHDBitsReverse(AHDcmd2));
4278:TP2824/TP2802.c **** 				tp28xx_byte_write(0x66, AHDBitsReverse(AHDcmd3));
4279:TP2824/TP2802.c **** 				tp28xx_byte_write(0x6c, AHDBitsReverse(AHDcmd4));
4280:TP2824/TP2802.c **** 
4281:TP2824/TP2802.c **** 				tp28xx_byte_write(0x6f, 0x45);
4282:TP2824/TP2802.c **** 				delay(5); // 50ms
4283:TP2824/TP2802.c **** 				tp28xx_byte_write(0x6f, 0x44);
4284:TP2824/TP2802.c **** 				ptztxflag = 0;
4285:TP2824/TP2802.c **** 				printf("AHD %x,%x,%x to ", TVI_Command, presetNum, TVI_speed);
4286:TP2824/TP2802.c **** 				printf("Tx %x,%x,%x,%x\n", AHDcmd1, AHDcmd2, AHDcmd3, AHDcmd4);
4287:TP2824/TP2802.c **** 			}
4288:TP2824/TP2802.c **** 			ptztxflag = 0;
4289:TP2824/TP2802.c **** 		}
4290:TP2824/TP2802.c **** 	}
4291:TP2824/TP2802.c **** }
 8447              		.loc 1 4291 1 view .LVU2493
 8448 0068 02B0     		add	sp, sp, #8
 8449              	.LCFI44:
 8450              		.cfi_remember_state
 8451              		.cfi_def_cfa_offset 24
 8452              		@ sp needed
 8453 006a BDE8F081 		pop	{r4, r5, r6, r7, r8, pc}
 8454              	.L647:
 8455              	.LCFI45:
 8456              		.cfi_restore_state
4124:TP2824/TP2802.c **** 			{
 8457              		.loc 1 4124 4 is_stmt 1 view .LVU2494
4124:TP2824/TP2802.c **** 			{
 8458              		.loc 1 4124 18 is_stmt 0 view .LVU2495
 8459 006e A24B     		ldr	r3, .L650+12
 8460 0070 1C78     		ldrb	r4, [r3]	@ zero_extendqisi2
 8461 0072 A24B     		ldr	r3, .L650+16
 8462 0074 1D5D     		ldrb	r5, [r3, r4]	@ zero_extendqisi2
4124:TP2824/TP2802.c **** 			{
 8463              		.loc 1 4124 7 view .LVU2496
 8464 0076 002D     		cmp	r5, #0
 8465 0078 66D1     		bne	.L615
4126:TP2824/TP2802.c **** 				{
 8466              		.loc 1 4126 5 is_stmt 1 view .LVU2497
4126:TP2824/TP2802.c **** 				{
 8467              		.loc 1 4126 13 is_stmt 0 view .LVU2498
 8468 007a A14B     		ldr	r3, .L650+20
 8469 007c 1B5D     		ldrb	r3, [r3, r4]	@ zero_extendqisi2
4126:TP2824/TP2802.c **** 				{
ARM GAS  C:\Users\ryanc.HS\AppData\Local\Temp\ccAQ3CYh.s 			page 262


 8470              		.loc 1 4126 34 view .LVU2499
 8471 007e 083B     		subs	r3, r3, #8
 8472 0080 DBB2     		uxtb	r3, r3
4126:TP2824/TP2802.c **** 				{
 8473              		.loc 1 4126 8 view .LVU2500
 8474 0082 012B     		cmp	r3, #1
 8475 0084 00F29A80 		bhi	.L616
 8476              	.LBB12:
4128:TP2824/TP2802.c **** 
 8477              		.loc 1 4128 6 is_stmt 1 view .LVU2501
 8478              	.LVL867:
4130:TP2824/TP2802.c **** 					dat2 = (tByte)presetNum;
 8479              		.loc 1 4130 6 view .LVU2502
4130:TP2824/TP2802.c **** 					dat2 = (tByte)presetNum;
 8480              		.loc 1 4130 11 is_stmt 0 view .LVU2503
 8481 0088 9E4B     		ldr	r3, .L650+24
 8482 008a 1F78     		ldrb	r7, [r3]	@ zero_extendqisi2
 8483              	.LVL868:
4131:TP2824/TP2802.c **** 
 8484              		.loc 1 4131 6 is_stmt 1 view .LVU2504
4131:TP2824/TP2802.c **** 
 8485              		.loc 1 4131 11 is_stmt 0 view .LVU2505
 8486 008c 9E4B     		ldr	r3, .L650+28
 8487 008e 93F80080 		ldrb	r8, [r3]	@ zero_extendqisi2
 8488              	.LVL869:
4133:TP2824/TP2802.c **** 						cmd1 = 0x02;
 8489              		.loc 1 4133 6 is_stmt 1 view .LVU2506
4133:TP2824/TP2802.c **** 						cmd1 = 0x02;
 8490              		.loc 1 4133 22 is_stmt 0 view .LVU2507
 8491 0092 9E4B     		ldr	r3, .L650+32
 8492 0094 1B78     		ldrb	r3, [r3]	@ zero_extendqisi2
4133:TP2824/TP2802.c **** 						cmd1 = 0x02;
 8493              		.loc 1 4133 9 view .LVU2508
 8494 0096 0F2B     		cmp	r3, #15
 8495 0098 1DD0     		beq	.L629
4135:TP2824/TP2802.c **** 						cmd1 = 0x04;
 8496              		.loc 1 4135 11 is_stmt 1 view .LVU2509
4135:TP2824/TP2802.c **** 						cmd1 = 0x04;
 8497              		.loc 1 4135 14 is_stmt 0 view .LVU2510
 8498 009a 0E2B     		cmp	r3, #14
 8499 009c 65D0     		beq	.L630
4137:TP2824/TP2802.c **** 						cmd1 = 0x01;
 8500              		.loc 1 4137 11 is_stmt 1 view .LVU2511
4137:TP2824/TP2802.c **** 						cmd1 = 0x01;
 8501              		.loc 1 4137 14 is_stmt 0 view .LVU2512
 8502 009e 102B     		cmp	r3, #16
 8503 00a0 65D0     		beq	.L631
4139:TP2824/TP2802.c **** 						cmd2 = 0x80;
 8504              		.loc 1 4139 11 is_stmt 1 view .LVU2513
4139:TP2824/TP2802.c **** 						cmd2 = 0x80;
 8505              		.loc 1 4139 14 is_stmt 0 view .LVU2514
 8506 00a2 112B     		cmp	r3, #17
 8507 00a4 65D0     		beq	.L632
4141:TP2824/TP2802.c **** 						cmd2 = 0x40;
 8508              		.loc 1 4141 11 is_stmt 1 view .LVU2515
4141:TP2824/TP2802.c **** 						cmd2 = 0x40;
 8509              		.loc 1 4141 14 is_stmt 0 view .LVU2516
ARM GAS  C:\Users\ryanc.HS\AppData\Local\Temp\ccAQ3CYh.s 			page 263


 8510 00a6 122B     		cmp	r3, #18
 8511 00a8 66D0     		beq	.L633
4143:TP2824/TP2802.c **** 						cmd2 = 0x20;
 8512              		.loc 1 4143 11 is_stmt 1 view .LVU2517
4143:TP2824/TP2802.c **** 						cmd2 = 0x20;
 8513              		.loc 1 4143 14 is_stmt 0 view .LVU2518
 8514 00aa 132B     		cmp	r3, #19
 8515 00ac 67D0     		beq	.L634
4145:TP2824/TP2802.c **** 						cmd2 = 0x08;
 8516              		.loc 1 4145 11 is_stmt 1 view .LVU2519
4145:TP2824/TP2802.c **** 						cmd2 = 0x08;
 8517              		.loc 1 4145 14 is_stmt 0 view .LVU2520
 8518 00ae 062B     		cmp	r3, #6
 8519 00b0 68D0     		beq	.L635
4147:TP2824/TP2802.c **** 						cmd2 = 0x10;
 8520              		.loc 1 4147 11 is_stmt 1 view .LVU2521
4147:TP2824/TP2802.c **** 						cmd2 = 0x10;
 8521              		.loc 1 4147 14 is_stmt 0 view .LVU2522
 8522 00b2 072B     		cmp	r3, #7
 8523 00b4 69D0     		beq	.L636
4149:TP2824/TP2802.c **** 						cmd2 = 0x04;
 8524              		.loc 1 4149 11 is_stmt 1 view .LVU2523
4149:TP2824/TP2802.c **** 						cmd2 = 0x04;
 8525              		.loc 1 4149 14 is_stmt 0 view .LVU2524
 8526 00b6 092B     		cmp	r3, #9
 8527 00b8 6AD0     		beq	.L637
4151:TP2824/TP2802.c **** 						cmd2 = 0x02;
 8528              		.loc 1 4151 11 is_stmt 1 view .LVU2525
4151:TP2824/TP2802.c **** 						cmd2 = 0x02;
 8529              		.loc 1 4151 14 is_stmt 0 view .LVU2526
 8530 00ba 082B     		cmp	r3, #8
 8531 00bc 6BD0     		beq	.L638
4153:TP2824/TP2802.c **** 						cmd2 = 0x0c;
 8532              		.loc 1 4153 11 is_stmt 1 view .LVU2527
4153:TP2824/TP2802.c **** 						cmd2 = 0x0c;
 8533              		.loc 1 4153 14 is_stmt 0 view .LVU2528
 8534 00be 0A2B     		cmp	r3, #10
 8535 00c0 6CD0     		beq	.L639
4155:TP2824/TP2802.c **** 						cmd2 = 0x0a;
 8536              		.loc 1 4155 11 is_stmt 1 view .LVU2529
4155:TP2824/TP2802.c **** 						cmd2 = 0x0a;
 8537              		.loc 1 4155 14 is_stmt 0 view .LVU2530
 8538 00c2 0C2B     		cmp	r3, #12
 8539 00c4 6DD0     		beq	.L640
4157:TP2824/TP2802.c **** 						cmd2 = 0x14;
 8540              		.loc 1 4157 11 is_stmt 1 view .LVU2531
4157:TP2824/TP2802.c **** 						cmd2 = 0x14;
 8541              		.loc 1 4157 14 is_stmt 0 view .LVU2532
 8542 00c6 0B2B     		cmp	r3, #11
 8543 00c8 6ED0     		beq	.L641
4159:TP2824/TP2802.c **** 						cmd2 = 0x12;
 8544              		.loc 1 4159 11 is_stmt 1 view .LVU2533
4159:TP2824/TP2802.c **** 						cmd2 = 0x12;
 8545              		.loc 1 4159 14 is_stmt 0 view .LVU2534
 8546 00ca 0D2B     		cmp	r3, #13
 8547 00cc 6FD0     		beq	.L642
4161:TP2824/TP2802.c **** 					{
ARM GAS  C:\Users\ryanc.HS\AppData\Local\Temp\ccAQ3CYh.s 			page 264


 8548              		.loc 1 4161 11 is_stmt 1 view .LVU2535
4161:TP2824/TP2802.c **** 					{
 8549              		.loc 1 4161 14 is_stmt 0 view .LVU2536
 8550 00ce 172B     		cmp	r3, #23
 8551 00d0 70D0     		beq	.L643
4128:TP2824/TP2802.c **** 
 8552              		.loc 1 4128 12 view .LVU2537
 8553 00d2 2846     		mov	r0, r5
 8554 00d4 00E0     		b	.L617
 8555              	.L629:
4134:TP2824/TP2802.c **** 					else if (TVI_Command == 0x0E) // Iris -
 8556              		.loc 1 4134 12 view .LVU2538
 8557 00d6 0220     		movs	r0, #2
 8558              	.LVL870:
 8559              	.L617:
4168:TP2824/TP2802.c **** 					cmd2 = AHDBitsReverse(cmd2); // 20200413
 8560              		.loc 1 4168 6 is_stmt 1 view .LVU2539
4168:TP2824/TP2802.c **** 					cmd2 = AHDBitsReverse(cmd2); // 20200413
 8561              		.loc 1 4168 13 is_stmt 0 view .LVU2540
 8562 00d8 FFF7FEFF 		bl	AHDBitsReverse
 8563              	.LVL871:
4168:TP2824/TP2802.c **** 					cmd2 = AHDBitsReverse(cmd2); // 20200413
 8564              		.loc 1 4168 13 view .LVU2541
 8565 00dc 0646     		mov	r6, r0
 8566              	.LVL872:
4169:TP2824/TP2802.c **** 					dat1 = AHDBitsReverse(dat1); // 20200413
 8567              		.loc 1 4169 6 is_stmt 1 view .LVU2542
4169:TP2824/TP2802.c **** 					dat1 = AHDBitsReverse(dat1); // 20200413
 8568              		.loc 1 4169 13 is_stmt 0 view .LVU2543
 8569 00de 2846     		mov	r0, r5
 8570 00e0 FFF7FEFF 		bl	AHDBitsReverse
 8571              	.LVL873:
 8572 00e4 0546     		mov	r5, r0
 8573              	.LVL874:
4170:TP2824/TP2802.c **** 					dat2 = AHDBitsReverse(dat2); // 20200413
 8574              		.loc 1 4170 6 is_stmt 1 view .LVU2544
4170:TP2824/TP2802.c **** 					dat2 = AHDBitsReverse(dat2); // 20200413
 8575              		.loc 1 4170 13 is_stmt 0 view .LVU2545
 8576 00e6 3846     		mov	r0, r7
 8577 00e8 FFF7FEFF 		bl	AHDBitsReverse
 8578              	.LVL875:
 8579 00ec 0746     		mov	r7, r0
 8580              	.LVL876:
4171:TP2824/TP2802.c **** 
 8581              		.loc 1 4171 6 is_stmt 1 view .LVU2546
4171:TP2824/TP2802.c **** 
 8582              		.loc 1 4171 13 is_stmt 0 view .LVU2547
 8583 00ee 4046     		mov	r0, r8
 8584 00f0 FFF7FEFF 		bl	AHDBitsReverse
 8585              	.LVL877:
 8586 00f4 8046     		mov	r8, r0
 8587              	.LVL878:
4173:TP2824/TP2802.c **** 					tp28xx_byte_write(0x5a, cmd1); // command byte 1
 8588              		.loc 1 4173 6 is_stmt 1 view .LVU2548
 8589 00f6 2046     		mov	r0, r4
 8590 00f8 FFF7FEFF 		bl	SetRegPage
 8591              	.LVL879:
ARM GAS  C:\Users\ryanc.HS\AppData\Local\Temp\ccAQ3CYh.s 			page 265


4174:TP2824/TP2802.c **** 					tp28xx_byte_write(0x59, cmd2); // command byte 2
 8592              		.loc 1 4174 6 view .LVU2549
 8593 00fc 3146     		mov	r1, r6
 8594 00fe 5A20     		movs	r0, #90
 8595 0100 FFF7FEFF 		bl	tp28xx_byte_write
 8596              	.LVL880:
4175:TP2824/TP2802.c **** 
 8597              		.loc 1 4175 6 view .LVU2550
 8598 0104 2946     		mov	r1, r5
 8599 0106 5920     		movs	r0, #89
 8600 0108 FFF7FEFF 		bl	tp28xx_byte_write
 8601              	.LVL881:
4177:TP2824/TP2802.c **** 					tp28xx_byte_write(0x5f, dat2); // data byte 2
 8602              		.loc 1 4177 6 view .LVU2551
 8603 010c 3946     		mov	r1, r7
 8604 010e 6020     		movs	r0, #96
 8605 0110 FFF7FEFF 		bl	tp28xx_byte_write
 8606              	.LVL882:
4178:TP2824/TP2802.c **** 
 8607              		.loc 1 4178 6 view .LVU2552
 8608 0114 4146     		mov	r1, r8
 8609 0116 5F20     		movs	r0, #95
 8610 0118 FFF7FEFF 		bl	tp28xx_byte_write
 8611              	.LVL883:
4180:TP2824/TP2802.c **** 					delay(10); // 50ms
 8612              		.loc 1 4180 6 view .LVU2553
 8613 011c 6121     		movs	r1, #97
 8614 011e 6F20     		movs	r0, #111
 8615 0120 FFF7FEFF 		bl	tp28xx_byte_write
 8616              	.LVL884:
4181:TP2824/TP2802.c **** 					tp28xx_byte_write(0x6f, 0x60);
 8617              		.loc 1 4181 6 view .LVU2554
 8618 0124 0A20     		movs	r0, #10
 8619 0126 FFF7FEFF 		bl	delay
 8620              	.LVL885:
4182:TP2824/TP2802.c **** 					printf("CVBS-Tx %x,%x,%x,%x\n", cmd1, cmd2, dat1, dat2);
 8621              		.loc 1 4182 6 view .LVU2555
 8622 012a 6021     		movs	r1, #96
 8623 012c 6F20     		movs	r0, #111
 8624 012e FFF7FEFF 		bl	tp28xx_byte_write
 8625              	.LVL886:
4183:TP2824/TP2802.c **** 				}
 8626              		.loc 1 4183 6 view .LVU2556
 8627 0132 CDF80080 		str	r8, [sp]
 8628 0136 3B46     		mov	r3, r7
 8629 0138 2A46     		mov	r2, r5
 8630 013a 3146     		mov	r1, r6
 8631 013c 7448     		ldr	r0, .L650+36
 8632 013e FFF7FEFF 		bl	printf
 8633              	.LVL887:
 8634              	.L618:
4183:TP2824/TP2802.c **** 				}
 8635              		.loc 1 4183 6 is_stmt 0 view .LVU2557
 8636              	.LBE12:
4199:TP2824/TP2802.c **** 			}
 8637              		.loc 1 4199 5 is_stmt 1 view .LVU2558
4199:TP2824/TP2802.c **** 			}
ARM GAS  C:\Users\ryanc.HS\AppData\Local\Temp\ccAQ3CYh.s 			page 266


 8638              		.loc 1 4199 15 is_stmt 0 view .LVU2559
 8639 0142 6C4B     		ldr	r3, .L650+8
 8640 0144 0022     		movs	r2, #0
 8641 0146 1A60     		str	r2, [r3]
 8642              	.L615:
4201:TP2824/TP2802.c **** 			{
 8643              		.loc 1 4201 4 is_stmt 1 view .LVU2560
4201:TP2824/TP2802.c **** 			{
 8644              		.loc 1 4201 18 is_stmt 0 view .LVU2561
 8645 0148 6B4B     		ldr	r3, .L650+12
 8646 014a 1878     		ldrb	r0, [r3]	@ zero_extendqisi2
 8647 014c 6B4B     		ldr	r3, .L650+16
 8648 014e 1B5C     		ldrb	r3, [r3, r0]	@ zero_extendqisi2
4201:TP2824/TP2802.c **** 			{
 8649              		.loc 1 4201 7 view .LVU2562
 8650 0150 022B     		cmp	r3, #2
 8651 0152 5CD0     		beq	.L648
 8652              	.L619:
4259:TP2824/TP2802.c **** 			{
 8653              		.loc 1 4259 4 is_stmt 1 view .LVU2563
4259:TP2824/TP2802.c **** 			{
 8654              		.loc 1 4259 18 is_stmt 0 view .LVU2564
 8655 0154 684B     		ldr	r3, .L650+12
 8656 0156 1B78     		ldrb	r3, [r3]	@ zero_extendqisi2
 8657 0158 684A     		ldr	r2, .L650+16
 8658 015a D35C     		ldrb	r3, [r2, r3]	@ zero_extendqisi2
4259:TP2824/TP2802.c **** 			{
 8659              		.loc 1 4259 7 view .LVU2565
 8660 015c 012B     		cmp	r3, #1
 8661 015e 00F00181 		beq	.L649
 8662              	.L628:
4288:TP2824/TP2802.c **** 		}
 8663              		.loc 1 4288 4 is_stmt 1 view .LVU2566
4288:TP2824/TP2802.c **** 		}
 8664              		.loc 1 4288 14 is_stmt 0 view .LVU2567
 8665 0162 644B     		ldr	r3, .L650+8
 8666 0164 0022     		movs	r2, #0
 8667 0166 1A60     		str	r2, [r3]
 8668              		.loc 1 4291 1 view .LVU2568
 8669 0168 7EE7     		b	.L609
 8670              	.LVL888:
 8671              	.L630:
 8672              	.LBB13:
4136:TP2824/TP2802.c **** 					else if (TVI_Command == 0x10) // Focus -
 8673              		.loc 1 4136 12 view .LVU2569
 8674 016a 0420     		movs	r0, #4
 8675 016c B4E7     		b	.L617
 8676              	.L631:
4138:TP2824/TP2802.c **** 					else if (TVI_Command == 0x11) // Focus +
 8677              		.loc 1 4138 12 view .LVU2570
 8678 016e 0120     		movs	r0, #1
 8679 0170 B2E7     		b	.L617
 8680              	.L632:
4128:TP2824/TP2802.c **** 
 8681              		.loc 1 4128 12 view .LVU2571
 8682 0172 2846     		mov	r0, r5
4140:TP2824/TP2802.c **** 					else if (TVI_Command == 0x12) // Zoom -
ARM GAS  C:\Users\ryanc.HS\AppData\Local\Temp\ccAQ3CYh.s 			page 267


 8683              		.loc 1 4140 12 view .LVU2572
 8684 0174 8025     		movs	r5, #128
 8685 0176 AFE7     		b	.L617
 8686              	.L633:
4128:TP2824/TP2802.c **** 
 8687              		.loc 1 4128 12 view .LVU2573
 8688 0178 2846     		mov	r0, r5
4142:TP2824/TP2802.c **** 					else if (TVI_Command == 0x13) // Zoom +
 8689              		.loc 1 4142 12 view .LVU2574
 8690 017a 4025     		movs	r5, #64
 8691 017c ACE7     		b	.L617
 8692              	.L634:
4128:TP2824/TP2802.c **** 
 8693              		.loc 1 4128 12 view .LVU2575
 8694 017e 2846     		mov	r0, r5
4144:TP2824/TP2802.c **** 					else if (TVI_Command == 0x06) // up
 8695              		.loc 1 4144 12 view .LVU2576
 8696 0180 2025     		movs	r5, #32
 8697 0182 A9E7     		b	.L617
 8698              	.L635:
4128:TP2824/TP2802.c **** 
 8699              		.loc 1 4128 12 view .LVU2577
 8700 0184 2846     		mov	r0, r5
4146:TP2824/TP2802.c **** 					else if (TVI_Command == 0x07) // down
 8701              		.loc 1 4146 12 view .LVU2578
 8702 0186 0825     		movs	r5, #8
 8703 0188 A6E7     		b	.L617
 8704              	.L636:
4128:TP2824/TP2802.c **** 
 8705              		.loc 1 4128 12 view .LVU2579
 8706 018a 2846     		mov	r0, r5
4148:TP2824/TP2802.c **** 					else if (TVI_Command == 0x09) // left
 8707              		.loc 1 4148 12 view .LVU2580
 8708 018c 1025     		movs	r5, #16
 8709 018e A3E7     		b	.L617
 8710              	.L637:
4128:TP2824/TP2802.c **** 
 8711              		.loc 1 4128 12 view .LVU2581
 8712 0190 2846     		mov	r0, r5
4150:TP2824/TP2802.c **** 					else if (TVI_Command == 0x08) // right
 8713              		.loc 1 4150 12 view .LVU2582
 8714 0192 0425     		movs	r5, #4
 8715 0194 A0E7     		b	.L617
 8716              	.L638:
4128:TP2824/TP2802.c **** 
 8717              		.loc 1 4128 12 view .LVU2583
 8718 0196 2846     		mov	r0, r5
4152:TP2824/TP2802.c **** 					else if (TVI_Command == 0x0A) // up + left
 8719              		.loc 1 4152 12 view .LVU2584
 8720 0198 0225     		movs	r5, #2
 8721 019a 9DE7     		b	.L617
 8722              	.L639:
4128:TP2824/TP2802.c **** 
 8723              		.loc 1 4128 12 view .LVU2585
 8724 019c 2846     		mov	r0, r5
4154:TP2824/TP2802.c **** 					else if (TVI_Command == 0x0C) // up + right
 8725              		.loc 1 4154 12 view .LVU2586
ARM GAS  C:\Users\ryanc.HS\AppData\Local\Temp\ccAQ3CYh.s 			page 268


 8726 019e 0C25     		movs	r5, #12
 8727 01a0 9AE7     		b	.L617
 8728              	.L640:
4128:TP2824/TP2802.c **** 
 8729              		.loc 1 4128 12 view .LVU2587
 8730 01a2 2846     		mov	r0, r5
4156:TP2824/TP2802.c **** 					else if (TVI_Command == 0x0B) // down + left
 8731              		.loc 1 4156 12 view .LVU2588
 8732 01a4 0A25     		movs	r5, #10
 8733 01a6 97E7     		b	.L617
 8734              	.L641:
4128:TP2824/TP2802.c **** 
 8735              		.loc 1 4128 12 view .LVU2589
 8736 01a8 2846     		mov	r0, r5
4158:TP2824/TP2802.c **** 					else if (TVI_Command == 0x0D) // down + right
 8737              		.loc 1 4158 12 view .LVU2590
 8738 01aa 1425     		movs	r5, #20
 8739 01ac 94E7     		b	.L617
 8740              	.L642:
4128:TP2824/TP2802.c **** 
 8741              		.loc 1 4128 12 view .LVU2591
 8742 01ae 2846     		mov	r0, r5
4160:TP2824/TP2802.c **** 					else if (TVI_Command == 0x17) // PRESET x
 8743              		.loc 1 4160 12 view .LVU2592
 8744 01b0 1225     		movs	r5, #18
 8745 01b2 91E7     		b	.L617
 8746              	.L643:
4164:TP2824/TP2802.c **** 						dat2 = (tByte)presetNum;
 8747              		.loc 1 4164 12 view .LVU2593
 8748 01b4 2F46     		mov	r7, r5
 8749              	.LVL889:
4128:TP2824/TP2802.c **** 
 8750              		.loc 1 4128 12 view .LVU2594
 8751 01b6 2846     		mov	r0, r5
4163:TP2824/TP2802.c **** 						dat1 = 0;
 8752              		.loc 1 4163 12 view .LVU2595
 8753 01b8 0725     		movs	r5, #7
 8754 01ba 8DE7     		b	.L617
 8755              	.LVL890:
 8756              	.L616:
4163:TP2824/TP2802.c **** 						dat1 = 0;
 8757              		.loc 1 4163 12 view .LVU2596
 8758              	.LBE13:
4187:TP2824/TP2802.c **** 					tp28xx_byte_write(0x59, (tByte)TVI_Command);
 8759              		.loc 1 4187 6 is_stmt 1 view .LVU2597
 8760 01bc 2046     		mov	r0, r4
 8761 01be FFF7FEFF 		bl	SetRegPage
 8762              	.LVL891:
4188:TP2824/TP2802.c **** 					tp28xx_byte_write(0x5a, (tByte)presetNum);
 8763              		.loc 1 4188 6 view .LVU2598
 8764 01c2 524C     		ldr	r4, .L650+32
 8765 01c4 2178     		ldrb	r1, [r4]	@ zero_extendqisi2
 8766 01c6 5920     		movs	r0, #89
 8767 01c8 FFF7FEFF 		bl	tp28xx_byte_write
 8768              	.LVL892:
4189:TP2824/TP2802.c **** 					tp28xx_byte_write(0x5d, (tByte)TVI_speed); // 0x5f  check this????
 8769              		.loc 1 4189 6 view .LVU2599
ARM GAS  C:\Users\ryanc.HS\AppData\Local\Temp\ccAQ3CYh.s 			page 269


 8770 01cc 4E4D     		ldr	r5, .L650+28
 8771 01ce 2978     		ldrb	r1, [r5]	@ zero_extendqisi2
 8772 01d0 5A20     		movs	r0, #90
 8773 01d2 FFF7FEFF 		bl	tp28xx_byte_write
 8774              	.LVL893:
4190:TP2824/TP2802.c **** 					tp28xx_byte_write(0x60, (tByte)TVI_Chksum);
 8775              		.loc 1 4190 6 view .LVU2600
 8776 01d6 4B4E     		ldr	r6, .L650+24
 8777 01d8 3178     		ldrb	r1, [r6]	@ zero_extendqisi2
 8778 01da 5D20     		movs	r0, #93
 8779 01dc FFF7FEFF 		bl	tp28xx_byte_write
 8780              	.LVL894:
4191:TP2824/TP2802.c **** 
 8781              		.loc 1 4191 6 view .LVU2601
 8782 01e0 4C4B     		ldr	r3, .L650+40
 8783 01e2 1978     		ldrb	r1, [r3]	@ zero_extendqisi2
 8784 01e4 6020     		movs	r0, #96
 8785 01e6 FFF7FEFF 		bl	tp28xx_byte_write
 8786              	.LVL895:
4193:TP2824/TP2802.c **** 					delay(10); // 50ms
 8787              		.loc 1 4193 6 view .LVU2602
 8788 01ea 4121     		movs	r1, #65
 8789 01ec 6F20     		movs	r0, #111
 8790 01ee FFF7FEFF 		bl	tp28xx_byte_write
 8791              	.LVL896:
4194:TP2824/TP2802.c **** 					tp28xx_byte_write(0x6f, 0x40);
 8792              		.loc 1 4194 6 view .LVU2603
 8793 01f2 0A20     		movs	r0, #10
 8794 01f4 FFF7FEFF 		bl	delay
 8795              	.LVL897:
4195:TP2824/TP2802.c **** 					printf("TVI-Tx %x,%x,%x\n", TVI_Command, presetNum, TVI_speed);
 8796              		.loc 1 4195 6 view .LVU2604
 8797 01f8 4021     		movs	r1, #64
 8798 01fa 6F20     		movs	r0, #111
 8799 01fc FFF7FEFF 		bl	tp28xx_byte_write
 8800              	.LVL898:
4196:TP2824/TP2802.c **** 				}
 8801              		.loc 1 4196 6 view .LVU2605
 8802 0200 3378     		ldrb	r3, [r6]	@ zero_extendqisi2
 8803 0202 2A78     		ldrb	r2, [r5]	@ zero_extendqisi2
 8804 0204 2178     		ldrb	r1, [r4]	@ zero_extendqisi2
 8805 0206 4448     		ldr	r0, .L650+44
 8806 0208 FFF7FEFF 		bl	printf
 8807              	.LVL899:
 8808 020c 99E7     		b	.L618
 8809              	.L648:
4203:TP2824/TP2802.c **** 
 8810              		.loc 1 4203 5 view .LVU2606
 8811 020e FFF7FEFF 		bl	SetRegPage
 8812              	.LVL900:
4205:TP2824/TP2802.c **** 				tp28xx_byte_write(0x6e, 0x02);
 8813              		.loc 1 4205 5 view .LVU2607
 8814 0212 A521     		movs	r1, #165
 8815 0214 6E20     		movs	r0, #110
 8816 0216 FFF7FEFF 		bl	tp28xx_byte_write
 8817              	.LVL901:
4206:TP2824/TP2802.c **** 				switch (TVI_Command)
ARM GAS  C:\Users\ryanc.HS\AppData\Local\Temp\ccAQ3CYh.s 			page 270


 8818              		.loc 1 4206 5 view .LVU2608
 8819 021a 0221     		movs	r1, #2
 8820 021c 6E20     		movs	r0, #110
 8821 021e FFF7FEFF 		bl	tp28xx_byte_write
 8822              	.LVL902:
4207:TP2824/TP2802.c **** 				{
 8823              		.loc 1 4207 5 view .LVU2609
 8824 0222 3A4B     		ldr	r3, .L650+32
 8825 0224 1B78     		ldrb	r3, [r3]	@ zero_extendqisi2
 8826 0226 063B     		subs	r3, r3, #6
 8827 0228 092B     		cmp	r3, #9
 8828 022a 00F28A80 		bhi	.L620
 8829 022e DFE803F0 		tbb	[pc, r3]
 8830              	.L622:
 8831 0232 29       		.byte	(.L626-.L622)/2
 8832 0233 3A       		.byte	(.L625-.L622)/2
 8833 0234 77       		.byte	(.L624-.L622)/2
 8834 0235 4B       		.byte	(.L623-.L622)/2
 8835 0236 88       		.byte	(.L620-.L622)/2
 8836 0237 88       		.byte	(.L620-.L622)/2
 8837 0238 88       		.byte	(.L620-.L622)/2
 8838 0239 88       		.byte	(.L620-.L622)/2
 8839 023a 88       		.byte	(.L620-.L622)/2
 8840 023b 05       		.byte	(.L621-.L622)/2
 8841              		.p2align 1
 8842              	.L621:
4210:TP2824/TP2802.c **** 					tp28xx_byte_write(0x6e, 0x00);
 8843              		.loc 1 4210 6 view .LVU2610
 8844 023c 5021     		movs	r1, #80
 8845 023e 6E20     		movs	r0, #110
 8846 0240 FFF7FEFF 		bl	tp28xx_byte_write
 8847              	.LVL903:
4211:TP2824/TP2802.c **** 					tp28xx_byte_write(0x6e, 0x00);
 8848              		.loc 1 4211 6 view .LVU2611
 8849 0244 0021     		movs	r1, #0
 8850 0246 6E20     		movs	r0, #110
 8851 0248 FFF7FEFF 		bl	tp28xx_byte_write
 8852              	.LVL904:
4212:TP2824/TP2802.c **** 					tp28xx_byte_write(0x6e, 0x00);
 8853              		.loc 1 4212 6 view .LVU2612
 8854 024c 0021     		movs	r1, #0
 8855 024e 6E20     		movs	r0, #110
 8856 0250 FFF7FEFF 		bl	tp28xx_byte_write
 8857              	.LVL905:
4213:TP2824/TP2802.c **** 					break;
 8858              		.loc 1 4213 6 view .LVU2613
 8859 0254 0021     		movs	r1, #0
 8860 0256 6E20     		movs	r0, #110
 8861 0258 FFF7FEFF 		bl	tp28xx_byte_write
 8862              	.LVL906:
4214:TP2824/TP2802.c **** 
 8863              		.loc 1 4214 6 view .LVU2614
 8864              	.L627:
4253:TP2824/TP2802.c **** 				delay(5); // 50ms
 8865              		.loc 1 4253 5 view .LVU2615
 8866 025c 4921     		movs	r1, #73
 8867 025e 6F20     		movs	r0, #111
ARM GAS  C:\Users\ryanc.HS\AppData\Local\Temp\ccAQ3CYh.s 			page 271


 8868 0260 FFF7FEFF 		bl	tp28xx_byte_write
 8869              	.LVL907:
4254:TP2824/TP2802.c **** 				tp28xx_byte_write(0x6f, 0x48);
 8870              		.loc 1 4254 5 view .LVU2616
 8871 0264 0520     		movs	r0, #5
 8872 0266 FFF7FEFF 		bl	delay
 8873              	.LVL908:
4255:TP2824/TP2802.c **** 				ptztxflag = 0;
 8874              		.loc 1 4255 5 view .LVU2617
 8875 026a 4821     		movs	r1, #72
 8876 026c 6F20     		movs	r0, #111
 8877 026e FFF7FEFF 		bl	tp28xx_byte_write
 8878              	.LVL909:
4256:TP2824/TP2802.c **** 				printf("CVI-Tx %x\n", TVI_Command);
 8879              		.loc 1 4256 5 view .LVU2618
4256:TP2824/TP2802.c **** 				printf("CVI-Tx %x\n", TVI_Command);
 8880              		.loc 1 4256 15 is_stmt 0 view .LVU2619
 8881 0272 204B     		ldr	r3, .L650+8
 8882 0274 0022     		movs	r2, #0
 8883 0276 1A60     		str	r2, [r3]
4257:TP2824/TP2802.c **** 			}
 8884              		.loc 1 4257 5 is_stmt 1 view .LVU2620
 8885 0278 244B     		ldr	r3, .L650+32
 8886 027a 1978     		ldrb	r1, [r3]	@ zero_extendqisi2
 8887 027c 2748     		ldr	r0, .L650+48
 8888 027e FFF7FEFF 		bl	printf
 8889              	.LVL910:
 8890 0282 67E7     		b	.L619
 8891              	.L626:
4217:TP2824/TP2802.c **** 					tp28xx_byte_write(0x6e, 0x00);
 8892              		.loc 1 4217 6 view .LVU2621
 8893 0284 0821     		movs	r1, #8
 8894 0286 6E20     		movs	r0, #110
 8895 0288 FFF7FEFF 		bl	tp28xx_byte_write
 8896              	.LVL911:
4218:TP2824/TP2802.c **** 					tp28xx_byte_write(0x6e, 0xFF);
 8897              		.loc 1 4218 6 view .LVU2622
 8898 028c 0021     		movs	r1, #0
 8899 028e 6E20     		movs	r0, #110
 8900 0290 FFF7FEFF 		bl	tp28xx_byte_write
 8901              	.LVL912:
4219:TP2824/TP2802.c **** 					tp28xx_byte_write(0x6e, 0x00);
 8902              		.loc 1 4219 6 view .LVU2623
 8903 0294 FF21     		movs	r1, #255
 8904 0296 6E20     		movs	r0, #110
 8905 0298 FFF7FEFF 		bl	tp28xx_byte_write
 8906              	.LVL913:
4220:TP2824/TP2802.c **** 					break;
 8907              		.loc 1 4220 6 view .LVU2624
 8908 029c 0021     		movs	r1, #0
 8909 029e 6E20     		movs	r0, #110
 8910 02a0 FFF7FEFF 		bl	tp28xx_byte_write
 8911              	.LVL914:
4221:TP2824/TP2802.c **** 
 8912              		.loc 1 4221 6 view .LVU2625
 8913 02a4 DAE7     		b	.L627
 8914              	.L625:
ARM GAS  C:\Users\ryanc.HS\AppData\Local\Temp\ccAQ3CYh.s 			page 272


4224:TP2824/TP2802.c **** 					tp28xx_byte_write(0x6e, 0x00);
 8915              		.loc 1 4224 6 view .LVU2626
 8916 02a6 0421     		movs	r1, #4
 8917 02a8 6E20     		movs	r0, #110
 8918 02aa FFF7FEFF 		bl	tp28xx_byte_write
 8919              	.LVL915:
4225:TP2824/TP2802.c **** 					tp28xx_byte_write(0x6e, 0xFF);
 8920              		.loc 1 4225 6 view .LVU2627
 8921 02ae 0021     		movs	r1, #0
 8922 02b0 6E20     		movs	r0, #110
 8923 02b2 FFF7FEFF 		bl	tp28xx_byte_write
 8924              	.LVL916:
4226:TP2824/TP2802.c **** 					tp28xx_byte_write(0x6e, 0x00);
 8925              		.loc 1 4226 6 view .LVU2628
 8926 02b6 FF21     		movs	r1, #255
 8927 02b8 6E20     		movs	r0, #110
 8928 02ba FFF7FEFF 		bl	tp28xx_byte_write
 8929              	.LVL917:
4227:TP2824/TP2802.c **** 					break;
 8930              		.loc 1 4227 6 view .LVU2629
 8931 02be 0021     		movs	r1, #0
 8932 02c0 6E20     		movs	r0, #110
 8933 02c2 FFF7FEFF 		bl	tp28xx_byte_write
 8934              	.LVL918:
4228:TP2824/TP2802.c **** 
 8935              		.loc 1 4228 6 view .LVU2630
 8936 02c6 C9E7     		b	.L627
 8937              	.L623:
4231:TP2824/TP2802.c **** 					tp28xx_byte_write(0x6e, 0xFF);
 8938              		.loc 1 4231 6 view .LVU2631
 8939 02c8 0221     		movs	r1, #2
 8940 02ca 6E20     		movs	r0, #110
 8941 02cc FFF7FEFF 		bl	tp28xx_byte_write
 8942              	.LVL919:
4232:TP2824/TP2802.c **** 					tp28xx_byte_write(0x6e, 0x00);
 8943              		.loc 1 4232 6 view .LVU2632
 8944 02d0 FF21     		movs	r1, #255
 8945 02d2 6E20     		movs	r0, #110
 8946 02d4 FFF7FEFF 		bl	tp28xx_byte_write
 8947              	.LVL920:
4233:TP2824/TP2802.c **** 					tp28xx_byte_write(0x6e, 0x00);
 8948              		.loc 1 4233 6 view .LVU2633
 8949 02d8 0021     		movs	r1, #0
 8950 02da 6E20     		movs	r0, #110
 8951 02dc FFF7FEFF 		bl	tp28xx_byte_write
 8952              	.LVL921:
4234:TP2824/TP2802.c **** 					break;
 8953              		.loc 1 4234 6 view .LVU2634
 8954 02e0 0021     		movs	r1, #0
 8955 02e2 6E20     		movs	r0, #110
 8956 02e4 FFF7FEFF 		bl	tp28xx_byte_write
 8957              	.LVL922:
4235:TP2824/TP2802.c **** 
 8958              		.loc 1 4235 6 view .LVU2635
 8959 02e8 B8E7     		b	.L627
 8960              	.L651:
 8961 02ea 00BF     		.align	2
ARM GAS  C:\Users\ryanc.HS\AppData\Local\Temp\ccAQ3CYh.s 			page 273


 8962              	.L650:
 8963 02ec 00000000 		.word	count
 8964 02f0 00000000 		.word	state
 8965 02f4 00000000 		.word	ptztxflag
 8966 02f8 00000000 		.word	PtzTxChNum
 8967 02fc 00000000 		.word	std
 8968 0300 00000000 		.word	mode
 8969 0304 00000000 		.word	TVI_speed
 8970 0308 00000000 		.word	presetNum
 8971 030c 00000000 		.word	TVI_Command
 8972 0310 00000000 		.word	.LC72
 8973 0314 00000000 		.word	TVI_Chksum
 8974 0318 18000000 		.word	.LC73
 8975 031c 2C000000 		.word	.LC74
 8976              	.L624:
4238:TP2824/TP2802.c **** 					tp28xx_byte_write(0x6e, 0xFF);
 8977              		.loc 1 4238 6 view .LVU2636
 8978 0320 0121     		movs	r1, #1
 8979 0322 6E20     		movs	r0, #110
 8980 0324 FFF7FEFF 		bl	tp28xx_byte_write
 8981              	.LVL923:
4239:TP2824/TP2802.c **** 					tp28xx_byte_write(0x6e, 0x00);
 8982              		.loc 1 4239 6 view .LVU2637
 8983 0328 FF21     		movs	r1, #255
 8984 032a 6E20     		movs	r0, #110
 8985 032c FFF7FEFF 		bl	tp28xx_byte_write
 8986              	.LVL924:
4240:TP2824/TP2802.c **** 					tp28xx_byte_write(0x6e, 0x00);
 8987              		.loc 1 4240 6 view .LVU2638
 8988 0330 0021     		movs	r1, #0
 8989 0332 6E20     		movs	r0, #110
 8990 0334 FFF7FEFF 		bl	tp28xx_byte_write
 8991              	.LVL925:
4241:TP2824/TP2802.c **** 					break;
 8992              		.loc 1 4241 6 view .LVU2639
 8993 0338 0021     		movs	r1, #0
 8994 033a 6E20     		movs	r0, #110
 8995 033c FFF7FEFF 		bl	tp28xx_byte_write
 8996              	.LVL926:
4242:TP2824/TP2802.c **** 
 8997              		.loc 1 4242 6 view .LVU2640
 8998 0340 8CE7     		b	.L627
 8999              	.L620:
4246:TP2824/TP2802.c **** 					tp28xx_byte_write(0x6e, 0x00);
 9000              		.loc 1 4246 6 view .LVU2641
 9001 0342 0021     		movs	r1, #0
 9002 0344 6E20     		movs	r0, #110
 9003 0346 FFF7FEFF 		bl	tp28xx_byte_write
 9004              	.LVL927:
4247:TP2824/TP2802.c **** 					tp28xx_byte_write(0x6e, 0x00);
 9005              		.loc 1 4247 6 view .LVU2642
 9006 034a 0021     		movs	r1, #0
 9007 034c 6E20     		movs	r0, #110
 9008 034e FFF7FEFF 		bl	tp28xx_byte_write
 9009              	.LVL928:
4248:TP2824/TP2802.c **** 					tp28xx_byte_write(0x6e, 0x00);
 9010              		.loc 1 4248 6 view .LVU2643
ARM GAS  C:\Users\ryanc.HS\AppData\Local\Temp\ccAQ3CYh.s 			page 274


 9011 0352 0021     		movs	r1, #0
 9012 0354 6E20     		movs	r0, #110
 9013 0356 FFF7FEFF 		bl	tp28xx_byte_write
 9014              	.LVL929:
4249:TP2824/TP2802.c **** 					break;
 9015              		.loc 1 4249 6 view .LVU2644
 9016 035a 0021     		movs	r1, #0
 9017 035c 6E20     		movs	r0, #110
 9018 035e FFF7FEFF 		bl	tp28xx_byte_write
 9019              	.LVL930:
4250:TP2824/TP2802.c **** 				}
 9020              		.loc 1 4250 6 view .LVU2645
 9021 0362 7BE7     		b	.L627
 9022              	.L649:
4261:TP2824/TP2802.c **** 
 9023              		.loc 1 4261 5 view .LVU2646
 9024 0364 FFF7FEFF 		bl	TVICommandToAHData
 9025              	.LVL931:
4263:TP2824/TP2802.c **** 
 9026              		.loc 1 4263 5 view .LVU2647
 9027 0368 2F4B     		ldr	r3, .L652
 9028 036a 1878     		ldrb	r0, [r3]	@ zero_extendqisi2
 9029 036c FFF7FEFF 		bl	SetRegPage
 9030              	.LVL932:
4266:TP2824/TP2802.c **** 				tp28xx_byte_write(0x60, 0x00);
 9031              		.loc 1 4266 5 view .LVU2648
 9032 0370 0021     		movs	r1, #0
 9033 0372 5A20     		movs	r0, #90
 9034 0374 FFF7FEFF 		bl	tp28xx_byte_write
 9035              	.LVL933:
4267:TP2824/TP2802.c **** 				tp28xx_byte_write(0x66, 0x00);
 9036              		.loc 1 4267 5 view .LVU2649
 9037 0378 0021     		movs	r1, #0
 9038 037a 6020     		movs	r0, #96
 9039 037c FFF7FEFF 		bl	tp28xx_byte_write
 9040              	.LVL934:
4268:TP2824/TP2802.c **** 				tp28xx_byte_write(0x6c, 0x00);
 9041              		.loc 1 4268 5 view .LVU2650
 9042 0380 0021     		movs	r1, #0
 9043 0382 6620     		movs	r0, #102
 9044 0384 FFF7FEFF 		bl	tp28xx_byte_write
 9045              	.LVL935:
4269:TP2824/TP2802.c **** 
 9046              		.loc 1 4269 5 view .LVU2651
 9047 0388 0021     		movs	r1, #0
 9048 038a 6C20     		movs	r0, #108
 9049 038c FFF7FEFF 		bl	tp28xx_byte_write
 9050              	.LVL936:
4271:TP2824/TP2802.c **** 				delay(5); // 50ms
 9051              		.loc 1 4271 5 view .LVU2652
 9052 0390 4521     		movs	r1, #69
 9053 0392 6F20     		movs	r0, #111
 9054 0394 FFF7FEFF 		bl	tp28xx_byte_write
 9055              	.LVL937:
4272:TP2824/TP2802.c **** 				tp28xx_byte_write(0x6f, 0x44);
 9056              		.loc 1 4272 5 view .LVU2653
 9057 0398 0520     		movs	r0, #5
ARM GAS  C:\Users\ryanc.HS\AppData\Local\Temp\ccAQ3CYh.s 			page 275


 9058 039a FFF7FEFF 		bl	delay
 9059              	.LVL938:
4273:TP2824/TP2802.c **** 
 9060              		.loc 1 4273 5 view .LVU2654
 9061 039e 4421     		movs	r1, #68
 9062 03a0 6F20     		movs	r0, #111
 9063 03a2 FFF7FEFF 		bl	tp28xx_byte_write
 9064              	.LVL939:
4276:TP2824/TP2802.c **** 				tp28xx_byte_write(0x60, AHDBitsReverse(AHDcmd2));
 9065              		.loc 1 4276 5 view .LVU2655
 9066 03a6 214C     		ldr	r4, .L652+4
 9067 03a8 2078     		ldrb	r0, [r4]	@ zero_extendqisi2
 9068 03aa FFF7FEFF 		bl	AHDBitsReverse
 9069              	.LVL940:
 9070 03ae 0146     		mov	r1, r0
 9071 03b0 5A20     		movs	r0, #90
 9072 03b2 FFF7FEFF 		bl	tp28xx_byte_write
 9073              	.LVL941:
4277:TP2824/TP2802.c **** 				tp28xx_byte_write(0x66, AHDBitsReverse(AHDcmd3));
 9074              		.loc 1 4277 5 view .LVU2656
 9075 03b6 1E4D     		ldr	r5, .L652+8
 9076 03b8 2878     		ldrb	r0, [r5]	@ zero_extendqisi2
 9077 03ba FFF7FEFF 		bl	AHDBitsReverse
 9078              	.LVL942:
 9079 03be 0146     		mov	r1, r0
 9080 03c0 6020     		movs	r0, #96
 9081 03c2 FFF7FEFF 		bl	tp28xx_byte_write
 9082              	.LVL943:
4278:TP2824/TP2802.c **** 				tp28xx_byte_write(0x6c, AHDBitsReverse(AHDcmd4));
 9083              		.loc 1 4278 5 view .LVU2657
 9084 03c6 1B4E     		ldr	r6, .L652+12
 9085 03c8 3078     		ldrb	r0, [r6]	@ zero_extendqisi2
 9086 03ca FFF7FEFF 		bl	AHDBitsReverse
 9087              	.LVL944:
 9088 03ce 0146     		mov	r1, r0
 9089 03d0 6620     		movs	r0, #102
 9090 03d2 FFF7FEFF 		bl	tp28xx_byte_write
 9091              	.LVL945:
4279:TP2824/TP2802.c **** 
 9092              		.loc 1 4279 5 view .LVU2658
 9093 03d6 184F     		ldr	r7, .L652+16
 9094 03d8 3878     		ldrb	r0, [r7]	@ zero_extendqisi2
 9095 03da FFF7FEFF 		bl	AHDBitsReverse
 9096              	.LVL946:
 9097 03de 0146     		mov	r1, r0
 9098 03e0 6C20     		movs	r0, #108
 9099 03e2 FFF7FEFF 		bl	tp28xx_byte_write
 9100              	.LVL947:
4281:TP2824/TP2802.c **** 				delay(5); // 50ms
 9101              		.loc 1 4281 5 view .LVU2659
 9102 03e6 4521     		movs	r1, #69
 9103 03e8 6F20     		movs	r0, #111
 9104 03ea FFF7FEFF 		bl	tp28xx_byte_write
 9105              	.LVL948:
4282:TP2824/TP2802.c **** 				tp28xx_byte_write(0x6f, 0x44);
 9106              		.loc 1 4282 5 view .LVU2660
 9107 03ee 0520     		movs	r0, #5
ARM GAS  C:\Users\ryanc.HS\AppData\Local\Temp\ccAQ3CYh.s 			page 276


 9108 03f0 FFF7FEFF 		bl	delay
 9109              	.LVL949:
4283:TP2824/TP2802.c **** 				ptztxflag = 0;
 9110              		.loc 1 4283 5 view .LVU2661
 9111 03f4 4421     		movs	r1, #68
 9112 03f6 6F20     		movs	r0, #111
 9113 03f8 FFF7FEFF 		bl	tp28xx_byte_write
 9114              	.LVL950:
4284:TP2824/TP2802.c **** 				printf("AHD %x,%x,%x to ", TVI_Command, presetNum, TVI_speed);
 9115              		.loc 1 4284 5 view .LVU2662
4284:TP2824/TP2802.c **** 				printf("AHD %x,%x,%x to ", TVI_Command, presetNum, TVI_speed);
 9116              		.loc 1 4284 15 is_stmt 0 view .LVU2663
 9117 03fc 0F4B     		ldr	r3, .L652+20
 9118 03fe 0022     		movs	r2, #0
 9119 0400 1A60     		str	r2, [r3]
4285:TP2824/TP2802.c **** 				printf("Tx %x,%x,%x,%x\n", AHDcmd1, AHDcmd2, AHDcmd3, AHDcmd4);
 9120              		.loc 1 4285 5 is_stmt 1 view .LVU2664
 9121 0402 0F4B     		ldr	r3, .L652+24
 9122 0404 1B78     		ldrb	r3, [r3]	@ zero_extendqisi2
 9123 0406 0F4A     		ldr	r2, .L652+28
 9124 0408 1278     		ldrb	r2, [r2]	@ zero_extendqisi2
 9125 040a 0F49     		ldr	r1, .L652+32
 9126 040c 0978     		ldrb	r1, [r1]	@ zero_extendqisi2
 9127 040e 0F48     		ldr	r0, .L652+36
 9128 0410 FFF7FEFF 		bl	printf
 9129              	.LVL951:
4286:TP2824/TP2802.c **** 			}
 9130              		.loc 1 4286 5 view .LVU2665
 9131 0414 3B78     		ldrb	r3, [r7]	@ zero_extendqisi2
 9132 0416 0093     		str	r3, [sp]
 9133 0418 3378     		ldrb	r3, [r6]	@ zero_extendqisi2
 9134 041a 2A78     		ldrb	r2, [r5]	@ zero_extendqisi2
 9135 041c 2178     		ldrb	r1, [r4]	@ zero_extendqisi2
 9136 041e 0C48     		ldr	r0, .L652+40
 9137 0420 FFF7FEFF 		bl	printf
 9138              	.LVL952:
 9139 0424 9DE6     		b	.L628
 9140              	.L653:
 9141 0426 00BF     		.align	2
 9142              	.L652:
 9143 0428 00000000 		.word	PtzTxChNum
 9144 042c 00000000 		.word	AHDcmd1
 9145 0430 00000000 		.word	AHDcmd2
 9146 0434 00000000 		.word	AHDcmd3
 9147 0438 00000000 		.word	AHDcmd4
 9148 043c 00000000 		.word	ptztxflag
 9149 0440 00000000 		.word	TVI_speed
 9150 0444 00000000 		.word	presetNum
 9151 0448 00000000 		.word	TVI_Command
 9152 044c 38000000 		.word	.LC75
 9153 0450 4C000000 		.word	.LC76
 9154              		.cfi_endproc
 9155              	.LFE37:
 9157              		.section	.rodata.SetCOCCom.str1.4,"aMS",%progbits,1
 9158              		.align	2
 9159              	.LC78:
 9160 0000 0D0A2853 		.ascii	"\015\012(SetCOCCom a=%d p=%d)\000"
ARM GAS  C:\Users\ryanc.HS\AppData\Local\Temp\ccAQ3CYh.s 			page 277


 9160      6574434F 
 9160      43436F6D 
 9160      20613D25 
 9160      6420703D 
 9161              		.align	2
 9162              	.LC79:
 9163 0018 2850747A 		.ascii	"(PtzTxChNum=%02x)\000"
 9163      54784368 
 9163      4E756D3D 
 9163      25303278 
 9163      2900
 9164              		.section	.text.SetCOCCom,"ax",%progbits
 9165              		.align	1
 9166              		.global	SetCOCCom
 9167              		.syntax unified
 9168              		.thumb
 9169              		.thumb_func
 9170              		.fpu softvfp
 9172              	SetCOCCom:
 9173              	.LVL953:
 9174              	.LFB38:
4292:TP2824/TP2802.c **** 
4293:TP2824/TP2802.c **** void SetCOCCom(BYTE action, BYTE param)
4294:TP2824/TP2802.c **** {
 9175              		.loc 1 4294 1 view -0
 9176              		.cfi_startproc
 9177              		@ args = 0, pretend = 0, frame = 8
 9178              		@ frame_needed = 0, uses_anonymous_args = 0
 9179              		.loc 1 4294 1 is_stmt 0 view .LVU2667
 9180 0000 30B5     		push	{r4, r5, lr}
 9181              	.LCFI46:
 9182              		.cfi_def_cfa_offset 12
 9183              		.cfi_offset 4, -12
 9184              		.cfi_offset 5, -8
 9185              		.cfi_offset 14, -4
 9186 0002 83B0     		sub	sp, sp, #12
 9187              	.LCFI47:
 9188              		.cfi_def_cfa_offset 24
 9189 0004 0446     		mov	r4, r0
 9190 0006 0D46     		mov	r5, r1
4295:TP2824/TP2802.c **** 	BYTE SV[5] = {0, 2, 3, 1, 3};
 9191              		.loc 1 4295 2 is_stmt 1 view .LVU2668
 9192              		.loc 1 4295 7 is_stmt 0 view .LVU2669
 9193 0008 704B     		ldr	r3, .L671
 9194 000a 93E80300 		ldm	r3, {r0, r1}
 9195              	.LVL954:
 9196              		.loc 1 4295 7 view .LVU2670
 9197 000e 0090     		str	r0, [sp]
 9198 0010 8DF80410 		strb	r1, [sp, #4]
4296:TP2824/TP2802.c **** 
4297:TP2824/TP2802.c **** #if (_DEBUG_MESSAGE_Get_2824cIrq == ON)
4298:TP2824/TP2802.c **** 	Printf("\r\n(SetCOCCom a=%d p=%d)", (WORD)action, (WORD)param);
 9199              		.loc 1 4298 2 is_stmt 1 view .LVU2671
 9200 0014 2A46     		mov	r2, r5
 9201 0016 2146     		mov	r1, r4
 9202 0018 6D48     		ldr	r0, .L671+4
 9203 001a FFF7FEFF 		bl	Printf
ARM GAS  C:\Users\ryanc.HS\AppData\Local\Temp\ccAQ3CYh.s 			page 278


 9204              	.LVL955:
4299:TP2824/TP2802.c **** #endif
4300:TP2824/TP2802.c **** 
4301:TP2824/TP2802.c **** 	switch (action)
 9205              		.loc 1 4301 2 view .LVU2672
 9206 001e 0F3C     		subs	r4, r4, #15
 9207 0020 0D2C     		cmp	r4, #13
 9208 0022 1ED8     		bhi	.L655
 9209 0024 DFE814F0 		tbh	[pc, r4, lsl #1]
 9210              	.L657:
 9211 0028 0E00     		.2byte	(.L669-.L657)/2
 9212 002a 2400     		.2byte	(.L668-.L657)/2
 9213 002c 3400     		.2byte	(.L667-.L657)/2
 9214 002e 4400     		.2byte	(.L666-.L657)/2
 9215 0030 5400     		.2byte	(.L665-.L657)/2
 9216 0032 1D00     		.2byte	(.L655-.L657)/2
 9217 0034 6300     		.2byte	(.L664-.L657)/2
 9218 0036 7200     		.2byte	(.L663-.L657)/2
 9219 0038 8100     		.2byte	(.L662-.L657)/2
 9220 003a 9000     		.2byte	(.L661-.L657)/2
 9221 003c 9F00     		.2byte	(.L660-.L657)/2
 9222 003e A600     		.2byte	(.L659-.L657)/2
 9223 0040 B500     		.2byte	(.L658-.L657)/2
 9224 0042 C300     		.2byte	(.L656-.L657)/2
 9225              		.p2align 1
 9226              	.L669:
4302:TP2824/TP2802.c **** 	{
4303:TP2824/TP2802.c **** 	case _COCOSD_UP:
4304:TP2824/TP2802.c **** 		TVI_Command = 0x06;
 9227              		.loc 1 4304 3 view .LVU2673
 9228              		.loc 1 4304 15 is_stmt 0 view .LVU2674
 9229 0044 634B     		ldr	r3, .L671+8
 9230 0046 0622     		movs	r2, #6
 9231 0048 1A70     		strb	r2, [r3]
4305:TP2824/TP2802.c **** 		presetNum = 0x1F;
 9232              		.loc 1 4305 3 is_stmt 1 view .LVU2675
 9233              		.loc 1 4305 13 is_stmt 0 view .LVU2676
 9234 004a 634B     		ldr	r3, .L671+12
 9235 004c 1F22     		movs	r2, #31
 9236 004e 1A70     		strb	r2, [r3]
4306:TP2824/TP2802.c **** 		TVI_speed = 0;
 9237              		.loc 1 4306 3 is_stmt 1 view .LVU2677
 9238              		.loc 1 4306 13 is_stmt 0 view .LVU2678
 9239 0050 624B     		ldr	r3, .L671+16
 9240 0052 0022     		movs	r2, #0
 9241 0054 1A70     		strb	r2, [r3]
4307:TP2824/TP2802.c **** 		TVI_Chksum = 0xDB;
 9242              		.loc 1 4307 3 is_stmt 1 view .LVU2679
 9243              		.loc 1 4307 14 is_stmt 0 view .LVU2680
 9244 0056 624B     		ldr	r3, .L671+20
 9245 0058 DB22     		movs	r2, #219
 9246 005a 1A70     		strb	r2, [r3]
4308:TP2824/TP2802.c **** 		ptztxflag = 1;
 9247              		.loc 1 4308 3 is_stmt 1 view .LVU2681
 9248              		.loc 1 4308 13 is_stmt 0 view .LVU2682
 9249 005c 614B     		ldr	r3, .L671+24
 9250 005e 0122     		movs	r2, #1
ARM GAS  C:\Users\ryanc.HS\AppData\Local\Temp\ccAQ3CYh.s 			page 279


 9251 0060 1A60     		str	r2, [r3]
4309:TP2824/TP2802.c **** 
4310:TP2824/TP2802.c **** 		break;
 9252              		.loc 1 4310 3 is_stmt 1 view .LVU2683
 9253              	.L655:
4311:TP2824/TP2802.c **** 	case _COCOSD_DOWN:
4312:TP2824/TP2802.c **** 		TVI_Command = 0x07;
4313:TP2824/TP2802.c **** 		presetNum = 0x1F;
4314:TP2824/TP2802.c **** 		TVI_speed = 0;
4315:TP2824/TP2802.c **** 		TVI_Chksum = 0xDC;
4316:TP2824/TP2802.c **** 		ptztxflag = 1;
4317:TP2824/TP2802.c **** 
4318:TP2824/TP2802.c **** 		break;
4319:TP2824/TP2802.c **** 	case _COCOSD_LEFT:
4320:TP2824/TP2802.c **** 		TVI_Command = 0x09;
4321:TP2824/TP2802.c **** 		presetNum = 0;
4322:TP2824/TP2802.c **** 		TVI_speed = 0x1F;
4323:TP2824/TP2802.c **** 		TVI_Chksum = 0xDE;
4324:TP2824/TP2802.c **** 		ptztxflag = 1;
4325:TP2824/TP2802.c **** 
4326:TP2824/TP2802.c **** 		break;
4327:TP2824/TP2802.c **** 	case _COCOSD_RIGHT:
4328:TP2824/TP2802.c **** 		TVI_Command = 0x08;
4329:TP2824/TP2802.c **** 		presetNum = 0;
4330:TP2824/TP2802.c **** 		TVI_speed = 0x1F;
4331:TP2824/TP2802.c **** 		TVI_Chksum = 0xDD;
4332:TP2824/TP2802.c **** 		ptztxflag = 1;
4333:TP2824/TP2802.c **** 
4334:TP2824/TP2802.c **** 		break;
4335:TP2824/TP2802.c **** 	case _COCOSD_ENTER:
4336:TP2824/TP2802.c **** 		TVI_Command = 0x0F;
4337:TP2824/TP2802.c **** 		presetNum = 0;
4338:TP2824/TP2802.c **** 		TVI_speed = 0;
4339:TP2824/TP2802.c **** 		TVI_Chksum = 0xC5;
4340:TP2824/TP2802.c **** 		ptztxflag = 1;
4341:TP2824/TP2802.c **** 		break;
4342:TP2824/TP2802.c **** 
4343:TP2824/TP2802.c **** 	case _COCOSD_BOXONLINE:
4344:TP2824/TP2802.c **** 		TVI_Command = 0x60;
4345:TP2824/TP2802.c **** 		presetNum = 1;
4346:TP2824/TP2802.c **** 		TVI_speed = 0;
4347:TP2824/TP2802.c **** 		TVI_Chksum = 0xFF - TVI_Command;
4348:TP2824/TP2802.c **** 		ptztxflag = 1;
4349:TP2824/TP2802.c **** 
4350:TP2824/TP2802.c **** 		break;
4351:TP2824/TP2802.c **** 	case _COCOSD_STOP:
4352:TP2824/TP2802.c **** 		TVI_Command = 0x14;
4353:TP2824/TP2802.c **** 		presetNum = 0x00;
4354:TP2824/TP2802.c **** 		TVI_speed = 0x00;
4355:TP2824/TP2802.c **** 		TVI_Chksum = 0xCA;
4356:TP2824/TP2802.c **** 		ptztxflag = 1;
4357:TP2824/TP2802.c **** 		break;
4358:TP2824/TP2802.c **** 	case _COCOSD_PRESET:
4359:TP2824/TP2802.c **** 		TVI_Command = 0x17;
4360:TP2824/TP2802.c **** 		presetNum = param;
4361:TP2824/TP2802.c **** 		TVI_speed = 0;
4362:TP2824/TP2802.c **** 		TVI_Chksum = 0xCD + presetNum;
ARM GAS  C:\Users\ryanc.HS\AppData\Local\Temp\ccAQ3CYh.s 			page 280


4363:TP2824/TP2802.c **** 		ptztxflag = 1;
4364:TP2824/TP2802.c **** 		break;
4365:TP2824/TP2802.c **** 	case _COCOSD_QUADMODE:
4366:TP2824/TP2802.c **** 		TVI_Command = 0x62;
4367:TP2824/TP2802.c **** 		presetNum = param;
4368:TP2824/TP2802.c **** 		TVI_speed = 0;
4369:TP2824/TP2802.c **** 		TVI_Chksum = 0xFF - TVI_Command;
4370:TP2824/TP2802.c **** 		ptztxflag = 1;
4371:TP2824/TP2802.c **** 		break;
4372:TP2824/TP2802.c **** 	case _COCOSD_BOX_Sel:
4373:TP2824/TP2802.c **** 		PtzTxChNum = SV[param]; // SelectModeType;
4374:TP2824/TP2802.c **** 		// PtzTxChNum=param;
4375:TP2824/TP2802.c **** 		break;
4376:TP2824/TP2802.c **** 	case _COCOSD_BOX_Channel_Sel:
4377:TP2824/TP2802.c **** 		TVI_Command = 0x62;
4378:TP2824/TP2802.c **** 		presetNum = param;
4379:TP2824/TP2802.c **** 		TVI_speed = 0;
4380:TP2824/TP2802.c **** 		TVI_Chksum = 0xFF - TVI_Command;
4381:TP2824/TP2802.c **** 		ptztxflag = 1;
4382:TP2824/TP2802.c **** 		break;
4383:TP2824/TP2802.c **** 	case _COC_FLISHEYE_MODE1:
4384:TP2824/TP2802.c **** 		TVI_Command = 0x62;
4385:TP2824/TP2802.c **** 		presetNum = 0x01; ///@e
4386:TP2824/TP2802.c **** 		TVI_speed = param;
4387:TP2824/TP2802.c **** 		TVI_Chksum = 0xFF - TVI_Command;
4388:TP2824/TP2802.c **** 		ptztxflag = 1;
4389:TP2824/TP2802.c **** 		break;
4390:TP2824/TP2802.c **** 	case _COC_FLISHEYE_MODE2:
4391:TP2824/TP2802.c **** 		TVI_Command = 0x62;
4392:TP2824/TP2802.c **** 		presetNum = 0x02; ///e
4393:TP2824/TP2802.c **** 		TVI_speed = param;
4394:TP2824/TP2802.c **** 		TVI_Chksum = 0xFF - TVI_Command;
4395:TP2824/TP2802.c **** 		ptztxflag = 1;
4396:TP2824/TP2802.c **** 		break;
4397:TP2824/TP2802.c **** 	}
4398:TP2824/TP2802.c **** 
4399:TP2824/TP2802.c **** 	// PtzTxChNum=SV[param];//SelectModeType;
4400:TP2824/TP2802.c **** #if (_DEBUG_MESSAGE_Get_2824cIrq == ON)
4401:TP2824/TP2802.c **** 	Printf("(PtzTxChNum=%02x)", (WORD)PtzTxChNum);
 9254              		.loc 1 4401 2 view .LVU2684
 9255 0062 614B     		ldr	r3, .L671+28
 9256 0064 1978     		ldrb	r1, [r3]	@ zero_extendqisi2
 9257 0066 6148     		ldr	r0, .L671+32
 9258 0068 FFF7FEFF 		bl	Printf
 9259              	.LVL956:
4402:TP2824/TP2802.c **** #endif
4403:TP2824/TP2802.c **** }
 9260              		.loc 1 4403 1 is_stmt 0 view .LVU2685
 9261 006c 03B0     		add	sp, sp, #12
 9262              	.LCFI48:
 9263              		.cfi_remember_state
 9264              		.cfi_def_cfa_offset 12
 9265              		@ sp needed
 9266 006e 30BD     		pop	{r4, r5, pc}
 9267              	.L668:
 9268              	.LCFI49:
 9269              		.cfi_restore_state
ARM GAS  C:\Users\ryanc.HS\AppData\Local\Temp\ccAQ3CYh.s 			page 281


4312:TP2824/TP2802.c **** 		presetNum = 0x1F;
 9270              		.loc 1 4312 3 is_stmt 1 view .LVU2686
4312:TP2824/TP2802.c **** 		presetNum = 0x1F;
 9271              		.loc 1 4312 15 is_stmt 0 view .LVU2687
 9272 0070 584B     		ldr	r3, .L671+8
 9273 0072 0722     		movs	r2, #7
 9274 0074 1A70     		strb	r2, [r3]
4313:TP2824/TP2802.c **** 		TVI_speed = 0;
 9275              		.loc 1 4313 3 is_stmt 1 view .LVU2688
4313:TP2824/TP2802.c **** 		TVI_speed = 0;
 9276              		.loc 1 4313 13 is_stmt 0 view .LVU2689
 9277 0076 584B     		ldr	r3, .L671+12
 9278 0078 1F22     		movs	r2, #31
 9279 007a 1A70     		strb	r2, [r3]
4314:TP2824/TP2802.c **** 		TVI_Chksum = 0xDC;
 9280              		.loc 1 4314 3 is_stmt 1 view .LVU2690
4314:TP2824/TP2802.c **** 		TVI_Chksum = 0xDC;
 9281              		.loc 1 4314 13 is_stmt 0 view .LVU2691
 9282 007c 574B     		ldr	r3, .L671+16
 9283 007e 0022     		movs	r2, #0
 9284 0080 1A70     		strb	r2, [r3]
4315:TP2824/TP2802.c **** 		ptztxflag = 1;
 9285              		.loc 1 4315 3 is_stmt 1 view .LVU2692
4315:TP2824/TP2802.c **** 		ptztxflag = 1;
 9286              		.loc 1 4315 14 is_stmt 0 view .LVU2693
 9287 0082 574B     		ldr	r3, .L671+20
 9288 0084 DC22     		movs	r2, #220
 9289 0086 1A70     		strb	r2, [r3]
4316:TP2824/TP2802.c **** 
 9290              		.loc 1 4316 3 is_stmt 1 view .LVU2694
4316:TP2824/TP2802.c **** 
 9291              		.loc 1 4316 13 is_stmt 0 view .LVU2695
 9292 0088 564B     		ldr	r3, .L671+24
 9293 008a 0122     		movs	r2, #1
 9294 008c 1A60     		str	r2, [r3]
4318:TP2824/TP2802.c **** 	case _COCOSD_LEFT:
 9295              		.loc 1 4318 3 is_stmt 1 view .LVU2696
 9296 008e E8E7     		b	.L655
 9297              	.L667:
4320:TP2824/TP2802.c **** 		presetNum = 0;
 9298              		.loc 1 4320 3 view .LVU2697
4320:TP2824/TP2802.c **** 		presetNum = 0;
 9299              		.loc 1 4320 15 is_stmt 0 view .LVU2698
 9300 0090 504B     		ldr	r3, .L671+8
 9301 0092 0922     		movs	r2, #9
 9302 0094 1A70     		strb	r2, [r3]
4321:TP2824/TP2802.c **** 		TVI_speed = 0x1F;
 9303              		.loc 1 4321 3 is_stmt 1 view .LVU2699
4321:TP2824/TP2802.c **** 		TVI_speed = 0x1F;
 9304              		.loc 1 4321 13 is_stmt 0 view .LVU2700
 9305 0096 504B     		ldr	r3, .L671+12
 9306 0098 0022     		movs	r2, #0
 9307 009a 1A70     		strb	r2, [r3]
4322:TP2824/TP2802.c **** 		TVI_Chksum = 0xDE;
 9308              		.loc 1 4322 3 is_stmt 1 view .LVU2701
4322:TP2824/TP2802.c **** 		TVI_Chksum = 0xDE;
 9309              		.loc 1 4322 13 is_stmt 0 view .LVU2702
ARM GAS  C:\Users\ryanc.HS\AppData\Local\Temp\ccAQ3CYh.s 			page 282


 9310 009c 4F4B     		ldr	r3, .L671+16
 9311 009e 1F22     		movs	r2, #31
 9312 00a0 1A70     		strb	r2, [r3]
4323:TP2824/TP2802.c **** 		ptztxflag = 1;
 9313              		.loc 1 4323 3 is_stmt 1 view .LVU2703
4323:TP2824/TP2802.c **** 		ptztxflag = 1;
 9314              		.loc 1 4323 14 is_stmt 0 view .LVU2704
 9315 00a2 4F4B     		ldr	r3, .L671+20
 9316 00a4 DE22     		movs	r2, #222
 9317 00a6 1A70     		strb	r2, [r3]
4324:TP2824/TP2802.c **** 
 9318              		.loc 1 4324 3 is_stmt 1 view .LVU2705
4324:TP2824/TP2802.c **** 
 9319              		.loc 1 4324 13 is_stmt 0 view .LVU2706
 9320 00a8 4E4B     		ldr	r3, .L671+24
 9321 00aa 0122     		movs	r2, #1
 9322 00ac 1A60     		str	r2, [r3]
4326:TP2824/TP2802.c **** 	case _COCOSD_RIGHT:
 9323              		.loc 1 4326 3 is_stmt 1 view .LVU2707
 9324 00ae D8E7     		b	.L655
 9325              	.L666:
4328:TP2824/TP2802.c **** 		presetNum = 0;
 9326              		.loc 1 4328 3 view .LVU2708
4328:TP2824/TP2802.c **** 		presetNum = 0;
 9327              		.loc 1 4328 15 is_stmt 0 view .LVU2709
 9328 00b0 484B     		ldr	r3, .L671+8
 9329 00b2 0822     		movs	r2, #8
 9330 00b4 1A70     		strb	r2, [r3]
4329:TP2824/TP2802.c **** 		TVI_speed = 0x1F;
 9331              		.loc 1 4329 3 is_stmt 1 view .LVU2710
4329:TP2824/TP2802.c **** 		TVI_speed = 0x1F;
 9332              		.loc 1 4329 13 is_stmt 0 view .LVU2711
 9333 00b6 484B     		ldr	r3, .L671+12
 9334 00b8 0022     		movs	r2, #0
 9335 00ba 1A70     		strb	r2, [r3]
4330:TP2824/TP2802.c **** 		TVI_Chksum = 0xDD;
 9336              		.loc 1 4330 3 is_stmt 1 view .LVU2712
4330:TP2824/TP2802.c **** 		TVI_Chksum = 0xDD;
 9337              		.loc 1 4330 13 is_stmt 0 view .LVU2713
 9338 00bc 474B     		ldr	r3, .L671+16
 9339 00be 1F22     		movs	r2, #31
 9340 00c0 1A70     		strb	r2, [r3]
4331:TP2824/TP2802.c **** 		ptztxflag = 1;
 9341              		.loc 1 4331 3 is_stmt 1 view .LVU2714
4331:TP2824/TP2802.c **** 		ptztxflag = 1;
 9342              		.loc 1 4331 14 is_stmt 0 view .LVU2715
 9343 00c2 474B     		ldr	r3, .L671+20
 9344 00c4 DD22     		movs	r2, #221
 9345 00c6 1A70     		strb	r2, [r3]
4332:TP2824/TP2802.c **** 
 9346              		.loc 1 4332 3 is_stmt 1 view .LVU2716
4332:TP2824/TP2802.c **** 
 9347              		.loc 1 4332 13 is_stmt 0 view .LVU2717
 9348 00c8 464B     		ldr	r3, .L671+24
 9349 00ca 0122     		movs	r2, #1
 9350 00cc 1A60     		str	r2, [r3]
4334:TP2824/TP2802.c **** 	case _COCOSD_ENTER:
ARM GAS  C:\Users\ryanc.HS\AppData\Local\Temp\ccAQ3CYh.s 			page 283


 9351              		.loc 1 4334 3 is_stmt 1 view .LVU2718
 9352 00ce C8E7     		b	.L655
 9353              	.L665:
4336:TP2824/TP2802.c **** 		presetNum = 0;
 9354              		.loc 1 4336 3 view .LVU2719
4336:TP2824/TP2802.c **** 		presetNum = 0;
 9355              		.loc 1 4336 15 is_stmt 0 view .LVU2720
 9356 00d0 404B     		ldr	r3, .L671+8
 9357 00d2 0F22     		movs	r2, #15
 9358 00d4 1A70     		strb	r2, [r3]
4337:TP2824/TP2802.c **** 		TVI_speed = 0;
 9359              		.loc 1 4337 3 is_stmt 1 view .LVU2721
4337:TP2824/TP2802.c **** 		TVI_speed = 0;
 9360              		.loc 1 4337 13 is_stmt 0 view .LVU2722
 9361 00d6 0023     		movs	r3, #0
 9362 00d8 3F4A     		ldr	r2, .L671+12
 9363 00da 1370     		strb	r3, [r2]
4338:TP2824/TP2802.c **** 		TVI_Chksum = 0xC5;
 9364              		.loc 1 4338 3 is_stmt 1 view .LVU2723
4338:TP2824/TP2802.c **** 		TVI_Chksum = 0xC5;
 9365              		.loc 1 4338 13 is_stmt 0 view .LVU2724
 9366 00dc 3F4A     		ldr	r2, .L671+16
 9367 00de 1370     		strb	r3, [r2]
4339:TP2824/TP2802.c **** 		ptztxflag = 1;
 9368              		.loc 1 4339 3 is_stmt 1 view .LVU2725
4339:TP2824/TP2802.c **** 		ptztxflag = 1;
 9369              		.loc 1 4339 14 is_stmt 0 view .LVU2726
 9370 00e0 3F4B     		ldr	r3, .L671+20
 9371 00e2 C522     		movs	r2, #197
 9372 00e4 1A70     		strb	r2, [r3]
4340:TP2824/TP2802.c **** 		break;
 9373              		.loc 1 4340 3 is_stmt 1 view .LVU2727
4340:TP2824/TP2802.c **** 		break;
 9374              		.loc 1 4340 13 is_stmt 0 view .LVU2728
 9375 00e6 3F4B     		ldr	r3, .L671+24
 9376 00e8 0122     		movs	r2, #1
 9377 00ea 1A60     		str	r2, [r3]
4341:TP2824/TP2802.c **** 
 9378              		.loc 1 4341 3 is_stmt 1 view .LVU2729
 9379 00ec B9E7     		b	.L655
 9380              	.L664:
4344:TP2824/TP2802.c **** 		presetNum = 1;
 9381              		.loc 1 4344 3 view .LVU2730
4344:TP2824/TP2802.c **** 		presetNum = 1;
 9382              		.loc 1 4344 15 is_stmt 0 view .LVU2731
 9383 00ee 394B     		ldr	r3, .L671+8
 9384 00f0 6022     		movs	r2, #96
 9385 00f2 1A70     		strb	r2, [r3]
4345:TP2824/TP2802.c **** 		TVI_speed = 0;
 9386              		.loc 1 4345 3 is_stmt 1 view .LVU2732
4345:TP2824/TP2802.c **** 		TVI_speed = 0;
 9387              		.loc 1 4345 13 is_stmt 0 view .LVU2733
 9388 00f4 0123     		movs	r3, #1
 9389 00f6 384A     		ldr	r2, .L671+12
 9390 00f8 1370     		strb	r3, [r2]
4346:TP2824/TP2802.c **** 		TVI_Chksum = 0xFF - TVI_Command;
 9391              		.loc 1 4346 3 is_stmt 1 view .LVU2734
ARM GAS  C:\Users\ryanc.HS\AppData\Local\Temp\ccAQ3CYh.s 			page 284


4346:TP2824/TP2802.c **** 		TVI_Chksum = 0xFF - TVI_Command;
 9392              		.loc 1 4346 13 is_stmt 0 view .LVU2735
 9393 00fa 384A     		ldr	r2, .L671+16
 9394 00fc 0021     		movs	r1, #0
 9395 00fe 1170     		strb	r1, [r2]
4347:TP2824/TP2802.c **** 		ptztxflag = 1;
 9396              		.loc 1 4347 3 is_stmt 1 view .LVU2736
4347:TP2824/TP2802.c **** 		ptztxflag = 1;
 9397              		.loc 1 4347 14 is_stmt 0 view .LVU2737
 9398 0100 374A     		ldr	r2, .L671+20
 9399 0102 9F21     		movs	r1, #159
 9400 0104 1170     		strb	r1, [r2]
4348:TP2824/TP2802.c **** 
 9401              		.loc 1 4348 3 is_stmt 1 view .LVU2738
4348:TP2824/TP2802.c **** 
 9402              		.loc 1 4348 13 is_stmt 0 view .LVU2739
 9403 0106 374A     		ldr	r2, .L671+24
 9404 0108 1360     		str	r3, [r2]
4350:TP2824/TP2802.c **** 	case _COCOSD_STOP:
 9405              		.loc 1 4350 3 is_stmt 1 view .LVU2740
 9406 010a AAE7     		b	.L655
 9407              	.L663:
4352:TP2824/TP2802.c **** 		presetNum = 0x00;
 9408              		.loc 1 4352 3 view .LVU2741
4352:TP2824/TP2802.c **** 		presetNum = 0x00;
 9409              		.loc 1 4352 15 is_stmt 0 view .LVU2742
 9410 010c 314B     		ldr	r3, .L671+8
 9411 010e 1422     		movs	r2, #20
 9412 0110 1A70     		strb	r2, [r3]
4353:TP2824/TP2802.c **** 		TVI_speed = 0x00;
 9413              		.loc 1 4353 3 is_stmt 1 view .LVU2743
4353:TP2824/TP2802.c **** 		TVI_speed = 0x00;
 9414              		.loc 1 4353 13 is_stmt 0 view .LVU2744
 9415 0112 0023     		movs	r3, #0
 9416 0114 304A     		ldr	r2, .L671+12
 9417 0116 1370     		strb	r3, [r2]
4354:TP2824/TP2802.c **** 		TVI_Chksum = 0xCA;
 9418              		.loc 1 4354 3 is_stmt 1 view .LVU2745
4354:TP2824/TP2802.c **** 		TVI_Chksum = 0xCA;
 9419              		.loc 1 4354 13 is_stmt 0 view .LVU2746
 9420 0118 304A     		ldr	r2, .L671+16
 9421 011a 1370     		strb	r3, [r2]
4355:TP2824/TP2802.c **** 		ptztxflag = 1;
 9422              		.loc 1 4355 3 is_stmt 1 view .LVU2747
4355:TP2824/TP2802.c **** 		ptztxflag = 1;
 9423              		.loc 1 4355 14 is_stmt 0 view .LVU2748
 9424 011c 304B     		ldr	r3, .L671+20
 9425 011e CA22     		movs	r2, #202
 9426 0120 1A70     		strb	r2, [r3]
4356:TP2824/TP2802.c **** 		break;
 9427              		.loc 1 4356 3 is_stmt 1 view .LVU2749
4356:TP2824/TP2802.c **** 		break;
 9428              		.loc 1 4356 13 is_stmt 0 view .LVU2750
 9429 0122 304B     		ldr	r3, .L671+24
 9430 0124 0122     		movs	r2, #1
 9431 0126 1A60     		str	r2, [r3]
4357:TP2824/TP2802.c **** 	case _COCOSD_PRESET:
ARM GAS  C:\Users\ryanc.HS\AppData\Local\Temp\ccAQ3CYh.s 			page 285


 9432              		.loc 1 4357 3 is_stmt 1 view .LVU2751
 9433 0128 9BE7     		b	.L655
 9434              	.L662:
4359:TP2824/TP2802.c **** 		presetNum = param;
 9435              		.loc 1 4359 3 view .LVU2752
4359:TP2824/TP2802.c **** 		presetNum = param;
 9436              		.loc 1 4359 15 is_stmt 0 view .LVU2753
 9437 012a 2A4B     		ldr	r3, .L671+8
 9438 012c 1722     		movs	r2, #23
 9439 012e 1A70     		strb	r2, [r3]
4360:TP2824/TP2802.c **** 		TVI_speed = 0;
 9440              		.loc 1 4360 3 is_stmt 1 view .LVU2754
4360:TP2824/TP2802.c **** 		TVI_speed = 0;
 9441              		.loc 1 4360 13 is_stmt 0 view .LVU2755
 9442 0130 294B     		ldr	r3, .L671+12
 9443 0132 1D70     		strb	r5, [r3]
4361:TP2824/TP2802.c **** 		TVI_Chksum = 0xCD + presetNum;
 9444              		.loc 1 4361 3 is_stmt 1 view .LVU2756
4361:TP2824/TP2802.c **** 		TVI_Chksum = 0xCD + presetNum;
 9445              		.loc 1 4361 13 is_stmt 0 view .LVU2757
 9446 0134 294B     		ldr	r3, .L671+16
 9447 0136 0022     		movs	r2, #0
 9448 0138 1A70     		strb	r2, [r3]
4362:TP2824/TP2802.c **** 		ptztxflag = 1;
 9449              		.loc 1 4362 3 is_stmt 1 view .LVU2758
4362:TP2824/TP2802.c **** 		ptztxflag = 1;
 9450              		.loc 1 4362 21 is_stmt 0 view .LVU2759
 9451 013a 333D     		subs	r5, r5, #51
4362:TP2824/TP2802.c **** 		ptztxflag = 1;
 9452              		.loc 1 4362 14 view .LVU2760
 9453 013c 284B     		ldr	r3, .L671+20
 9454 013e 1D70     		strb	r5, [r3]
4363:TP2824/TP2802.c **** 		break;
 9455              		.loc 1 4363 3 is_stmt 1 view .LVU2761
4363:TP2824/TP2802.c **** 		break;
 9456              		.loc 1 4363 13 is_stmt 0 view .LVU2762
 9457 0140 284B     		ldr	r3, .L671+24
 9458 0142 0122     		movs	r2, #1
 9459 0144 1A60     		str	r2, [r3]
4364:TP2824/TP2802.c **** 	case _COCOSD_QUADMODE:
 9460              		.loc 1 4364 3 is_stmt 1 view .LVU2763
 9461 0146 8CE7     		b	.L655
 9462              	.L661:
4366:TP2824/TP2802.c **** 		presetNum = param;
 9463              		.loc 1 4366 3 view .LVU2764
4366:TP2824/TP2802.c **** 		presetNum = param;
 9464              		.loc 1 4366 15 is_stmt 0 view .LVU2765
 9465 0148 224B     		ldr	r3, .L671+8
 9466 014a 6222     		movs	r2, #98
 9467 014c 1A70     		strb	r2, [r3]
4367:TP2824/TP2802.c **** 		TVI_speed = 0;
 9468              		.loc 1 4367 3 is_stmt 1 view .LVU2766
4367:TP2824/TP2802.c **** 		TVI_speed = 0;
 9469              		.loc 1 4367 13 is_stmt 0 view .LVU2767
 9470 014e 224B     		ldr	r3, .L671+12
 9471 0150 1D70     		strb	r5, [r3]
4368:TP2824/TP2802.c **** 		TVI_Chksum = 0xFF - TVI_Command;
ARM GAS  C:\Users\ryanc.HS\AppData\Local\Temp\ccAQ3CYh.s 			page 286


 9472              		.loc 1 4368 3 is_stmt 1 view .LVU2768
4368:TP2824/TP2802.c **** 		TVI_Chksum = 0xFF - TVI_Command;
 9473              		.loc 1 4368 13 is_stmt 0 view .LVU2769
 9474 0152 224B     		ldr	r3, .L671+16
 9475 0154 0022     		movs	r2, #0
 9476 0156 1A70     		strb	r2, [r3]
4369:TP2824/TP2802.c **** 		ptztxflag = 1;
 9477              		.loc 1 4369 3 is_stmt 1 view .LVU2770
4369:TP2824/TP2802.c **** 		ptztxflag = 1;
 9478              		.loc 1 4369 14 is_stmt 0 view .LVU2771
 9479 0158 214B     		ldr	r3, .L671+20
 9480 015a 9D22     		movs	r2, #157
 9481 015c 1A70     		strb	r2, [r3]
4370:TP2824/TP2802.c **** 		break;
 9482              		.loc 1 4370 3 is_stmt 1 view .LVU2772
4370:TP2824/TP2802.c **** 		break;
 9483              		.loc 1 4370 13 is_stmt 0 view .LVU2773
 9484 015e 214B     		ldr	r3, .L671+24
 9485 0160 0122     		movs	r2, #1
 9486 0162 1A60     		str	r2, [r3]
4371:TP2824/TP2802.c **** 	case _COCOSD_BOX_Sel:
 9487              		.loc 1 4371 3 is_stmt 1 view .LVU2774
 9488 0164 7DE7     		b	.L655
 9489              	.L660:
4373:TP2824/TP2802.c **** 		// PtzTxChNum=param;
 9490              		.loc 1 4373 3 view .LVU2775
4373:TP2824/TP2802.c **** 		// PtzTxChNum=param;
 9491              		.loc 1 4373 18 is_stmt 0 view .LVU2776
 9492 0166 02AB     		add	r3, sp, #8
 9493 0168 1D44     		add	r5, r5, r3
 9494 016a 15F8082C 		ldrb	r2, [r5, #-8]	@ zero_extendqisi2
4373:TP2824/TP2802.c **** 		// PtzTxChNum=param;
 9495              		.loc 1 4373 14 view .LVU2777
 9496 016e 1E4B     		ldr	r3, .L671+28
 9497 0170 1A70     		strb	r2, [r3]
4375:TP2824/TP2802.c **** 	case _COCOSD_BOX_Channel_Sel:
 9498              		.loc 1 4375 3 is_stmt 1 view .LVU2778
 9499 0172 76E7     		b	.L655
 9500              	.L659:
4377:TP2824/TP2802.c **** 		presetNum = param;
 9501              		.loc 1 4377 3 view .LVU2779
4377:TP2824/TP2802.c **** 		presetNum = param;
 9502              		.loc 1 4377 15 is_stmt 0 view .LVU2780
 9503 0174 174B     		ldr	r3, .L671+8
 9504 0176 6222     		movs	r2, #98
 9505 0178 1A70     		strb	r2, [r3]
4378:TP2824/TP2802.c **** 		TVI_speed = 0;
 9506              		.loc 1 4378 3 is_stmt 1 view .LVU2781
4378:TP2824/TP2802.c **** 		TVI_speed = 0;
 9507              		.loc 1 4378 13 is_stmt 0 view .LVU2782
 9508 017a 174B     		ldr	r3, .L671+12
 9509 017c 1D70     		strb	r5, [r3]
4379:TP2824/TP2802.c **** 		TVI_Chksum = 0xFF - TVI_Command;
 9510              		.loc 1 4379 3 is_stmt 1 view .LVU2783
4379:TP2824/TP2802.c **** 		TVI_Chksum = 0xFF - TVI_Command;
 9511              		.loc 1 4379 13 is_stmt 0 view .LVU2784
 9512 017e 174B     		ldr	r3, .L671+16
ARM GAS  C:\Users\ryanc.HS\AppData\Local\Temp\ccAQ3CYh.s 			page 287


 9513 0180 0022     		movs	r2, #0
 9514 0182 1A70     		strb	r2, [r3]
4380:TP2824/TP2802.c **** 		ptztxflag = 1;
 9515              		.loc 1 4380 3 is_stmt 1 view .LVU2785
4380:TP2824/TP2802.c **** 		ptztxflag = 1;
 9516              		.loc 1 4380 14 is_stmt 0 view .LVU2786
 9517 0184 164B     		ldr	r3, .L671+20
 9518 0186 9D22     		movs	r2, #157
 9519 0188 1A70     		strb	r2, [r3]
4381:TP2824/TP2802.c **** 		break;
 9520              		.loc 1 4381 3 is_stmt 1 view .LVU2787
4381:TP2824/TP2802.c **** 		break;
 9521              		.loc 1 4381 13 is_stmt 0 view .LVU2788
 9522 018a 164B     		ldr	r3, .L671+24
 9523 018c 0122     		movs	r2, #1
 9524 018e 1A60     		str	r2, [r3]
4382:TP2824/TP2802.c **** 	case _COC_FLISHEYE_MODE1:
 9525              		.loc 1 4382 3 is_stmt 1 view .LVU2789
 9526 0190 67E7     		b	.L655
 9527              	.L658:
4384:TP2824/TP2802.c **** 		presetNum = 0x01; ///@e
 9528              		.loc 1 4384 3 view .LVU2790
4384:TP2824/TP2802.c **** 		presetNum = 0x01; ///@e
 9529              		.loc 1 4384 15 is_stmt 0 view .LVU2791
 9530 0192 104B     		ldr	r3, .L671+8
 9531 0194 6222     		movs	r2, #98
 9532 0196 1A70     		strb	r2, [r3]
4385:TP2824/TP2802.c **** 		TVI_speed = param;
 9533              		.loc 1 4385 3 is_stmt 1 view .LVU2792
4385:TP2824/TP2802.c **** 		TVI_speed = param;
 9534              		.loc 1 4385 13 is_stmt 0 view .LVU2793
 9535 0198 0123     		movs	r3, #1
 9536 019a 0F4A     		ldr	r2, .L671+12
 9537 019c 1370     		strb	r3, [r2]
4386:TP2824/TP2802.c **** 		TVI_Chksum = 0xFF - TVI_Command;
 9538              		.loc 1 4386 3 is_stmt 1 view .LVU2794
4386:TP2824/TP2802.c **** 		TVI_Chksum = 0xFF - TVI_Command;
 9539              		.loc 1 4386 13 is_stmt 0 view .LVU2795
 9540 019e 0F4A     		ldr	r2, .L671+16
 9541 01a0 1570     		strb	r5, [r2]
4387:TP2824/TP2802.c **** 		ptztxflag = 1;
 9542              		.loc 1 4387 3 is_stmt 1 view .LVU2796
4387:TP2824/TP2802.c **** 		ptztxflag = 1;
 9543              		.loc 1 4387 14 is_stmt 0 view .LVU2797
 9544 01a2 0F4A     		ldr	r2, .L671+20
 9545 01a4 9D21     		movs	r1, #157
 9546 01a6 1170     		strb	r1, [r2]
4388:TP2824/TP2802.c **** 		break;
 9547              		.loc 1 4388 3 is_stmt 1 view .LVU2798
4388:TP2824/TP2802.c **** 		break;
 9548              		.loc 1 4388 13 is_stmt 0 view .LVU2799
 9549 01a8 0E4A     		ldr	r2, .L671+24
 9550 01aa 1360     		str	r3, [r2]
4389:TP2824/TP2802.c **** 	case _COC_FLISHEYE_MODE2:
 9551              		.loc 1 4389 3 is_stmt 1 view .LVU2800
 9552 01ac 59E7     		b	.L655
 9553              	.L656:
ARM GAS  C:\Users\ryanc.HS\AppData\Local\Temp\ccAQ3CYh.s 			page 288


4391:TP2824/TP2802.c **** 		presetNum = 0x02; ///e
 9554              		.loc 1 4391 3 view .LVU2801
4391:TP2824/TP2802.c **** 		presetNum = 0x02; ///e
 9555              		.loc 1 4391 15 is_stmt 0 view .LVU2802
 9556 01ae 094B     		ldr	r3, .L671+8
 9557 01b0 6222     		movs	r2, #98
 9558 01b2 1A70     		strb	r2, [r3]
4392:TP2824/TP2802.c **** 		TVI_speed = param;
 9559              		.loc 1 4392 3 is_stmt 1 view .LVU2803
4392:TP2824/TP2802.c **** 		TVI_speed = param;
 9560              		.loc 1 4392 13 is_stmt 0 view .LVU2804
 9561 01b4 084B     		ldr	r3, .L671+12
 9562 01b6 0222     		movs	r2, #2
 9563 01b8 1A70     		strb	r2, [r3]
4393:TP2824/TP2802.c **** 		TVI_Chksum = 0xFF - TVI_Command;
 9564              		.loc 1 4393 3 is_stmt 1 view .LVU2805
4393:TP2824/TP2802.c **** 		TVI_Chksum = 0xFF - TVI_Command;
 9565              		.loc 1 4393 13 is_stmt 0 view .LVU2806
 9566 01ba 084B     		ldr	r3, .L671+16
 9567 01bc 1D70     		strb	r5, [r3]
4394:TP2824/TP2802.c **** 		ptztxflag = 1;
 9568              		.loc 1 4394 3 is_stmt 1 view .LVU2807
4394:TP2824/TP2802.c **** 		ptztxflag = 1;
 9569              		.loc 1 4394 14 is_stmt 0 view .LVU2808
 9570 01be 084B     		ldr	r3, .L671+20
 9571 01c0 9D22     		movs	r2, #157
 9572 01c2 1A70     		strb	r2, [r3]
4395:TP2824/TP2802.c **** 		break;
 9573              		.loc 1 4395 3 is_stmt 1 view .LVU2809
4395:TP2824/TP2802.c **** 		break;
 9574              		.loc 1 4395 13 is_stmt 0 view .LVU2810
 9575 01c4 074B     		ldr	r3, .L671+24
 9576 01c6 0122     		movs	r2, #1
 9577 01c8 1A60     		str	r2, [r3]
4396:TP2824/TP2802.c **** 	}
 9578              		.loc 1 4396 3 is_stmt 1 view .LVU2811
 9579 01ca 4AE7     		b	.L655
 9580              	.L672:
 9581              		.align	2
 9582              	.L671:
 9583 01cc 00000000 		.word	.LANCHOR32
 9584 01d0 00000000 		.word	.LC78
 9585 01d4 00000000 		.word	TVI_Command
 9586 01d8 00000000 		.word	presetNum
 9587 01dc 00000000 		.word	TVI_speed
 9588 01e0 00000000 		.word	TVI_Chksum
 9589 01e4 00000000 		.word	ptztxflag
 9590 01e8 00000000 		.word	PtzTxChNum
 9591 01ec 18000000 		.word	.LC79
 9592              		.cfi_endproc
 9593              	.LFE38:
 9595              		.section	.rodata.TVI_BOX_Set.str1.4,"aMS",%progbits,1
 9596              		.align	2
 9597              	.LC80:
 9598 0000 282A5456 		.ascii	"(*TVI_BOX_Set=%d)\000"
 9598      495F424F 
 9598      585F5365 
ARM GAS  C:\Users\ryanc.HS\AppData\Local\Temp\ccAQ3CYh.s 			page 289


 9598      743D2564 
 9598      2900
 9599              		.section	.text.TVI_BOX_Set,"ax",%progbits
 9600              		.align	1
 9601              		.global	TVI_BOX_Set
 9602              		.syntax unified
 9603              		.thumb
 9604              		.thumb_func
 9605              		.fpu softvfp
 9607              	TVI_BOX_Set:
 9608              	.LFB23:
2646:TP2824/TP2802.c **** 	BYTE i, ch[4] = {0, 3, 1, 2};
 9609              		.loc 1 2646 1 view -0
 9610              		.cfi_startproc
 9611              		@ args = 0, pretend = 0, frame = 8
 9612              		@ frame_needed = 0, uses_anonymous_args = 0
 9613 0000 30B5     		push	{r4, r5, lr}
 9614              	.LCFI50:
 9615              		.cfi_def_cfa_offset 12
 9616              		.cfi_offset 4, -12
 9617              		.cfi_offset 5, -8
 9618              		.cfi_offset 14, -4
 9619 0002 83B0     		sub	sp, sp, #12
 9620              	.LCFI51:
 9621              		.cfi_def_cfa_offset 24
2647:TP2824/TP2802.c **** 
 9622              		.loc 1 2647 2 view .LVU2813
2647:TP2824/TP2802.c **** 
 9623              		.loc 1 2647 10 is_stmt 0 view .LVU2814
 9624 0004 1B4B     		ldr	r3, .L679
 9625 0006 0193     		str	r3, [sp, #4]
2652:TP2824/TP2802.c **** 	{
 9626              		.loc 1 2652 2 is_stmt 1 view .LVU2815
 9627              	.LVL957:
2652:TP2824/TP2802.c **** 	{
 9628              		.loc 1 2652 9 is_stmt 0 view .LVU2816
 9629 0008 0024     		movs	r4, #0
2652:TP2824/TP2802.c **** 	{
 9630              		.loc 1 2652 2 view .LVU2817
 9631 000a 01E0     		b	.L674
 9632              	.LVL958:
 9633              	.L675:
2652:TP2824/TP2802.c **** 	{
 9634              		.loc 1 2652 21 is_stmt 1 discriminator 2 view .LVU2818
2652:TP2824/TP2802.c **** 	{
 9635              		.loc 1 2652 22 is_stmt 0 discriminator 2 view .LVU2819
 9636 000c 0134     		adds	r4, r4, #1
 9637              	.LVL959:
2652:TP2824/TP2802.c **** 	{
 9638              		.loc 1 2652 22 discriminator 2 view .LVU2820
 9639 000e E4B2     		uxtb	r4, r4
 9640              	.LVL960:
 9641              	.L674:
2652:TP2824/TP2802.c **** 	{
 9642              		.loc 1 2652 14 is_stmt 1 discriminator 1 view .LVU2821
2652:TP2824/TP2802.c **** 	{
 9643              		.loc 1 2652 2 is_stmt 0 discriminator 1 view .LVU2822
ARM GAS  C:\Users\ryanc.HS\AppData\Local\Temp\ccAQ3CYh.s 			page 290


 9644 0010 032C     		cmp	r4, #3
 9645 0012 2CD8     		bhi	.L678
2655:TP2824/TP2802.c **** 		{
 9646              		.loc 1 2655 3 is_stmt 1 view .LVU2823
2655:TP2824/TP2802.c **** 		{
 9647              		.loc 1 2655 11 is_stmt 0 view .LVU2824
 9648 0014 2546     		mov	r5, r4
 9649 0016 184B     		ldr	r3, .L679+4
 9650 0018 1B5D     		ldrb	r3, [r3, r4]	@ zero_extendqisi2
2655:TP2824/TP2802.c **** 		{
 9651              		.loc 1 2655 6 view .LVU2825
 9652 001a 002B     		cmp	r3, #0
 9653 001c F6D1     		bne	.L675
2655:TP2824/TP2802.c **** 		{
 9654              		.loc 1 2655 31 discriminator 1 view .LVU2826
 9655 001e 174B     		ldr	r3, .L679+8
 9656 0020 1B5D     		ldrb	r3, [r3, r4]	@ zero_extendqisi2
2655:TP2824/TP2802.c **** 		{
 9657              		.loc 1 2655 23 discriminator 1 view .LVU2827
 9658 0022 082B     		cmp	r3, #8
 9659 0024 F2D0     		beq	.L675
2655:TP2824/TP2802.c **** 		{
 9660              		.loc 1 2655 44 discriminator 2 view .LVU2828
 9661 0026 092B     		cmp	r3, #9
 9662 0028 F0D0     		beq	.L675
2655:TP2824/TP2802.c **** 		{
 9663              		.loc 1 2655 73 discriminator 3 view .LVU2829
 9664 002a 154B     		ldr	r3, .L679+12
 9665 002c 1B5D     		ldrb	r3, [r3, r4]	@ zero_extendqisi2
2655:TP2824/TP2802.c **** 		{
 9666              		.loc 1 2655 64 discriminator 3 view .LVU2830
 9667 002e 022B     		cmp	r3, #2
 9668 0030 ECD1     		bne	.L675
2658:TP2824/TP2802.c **** #endif
 9669              		.loc 1 2658 4 is_stmt 1 view .LVU2831
 9670 0032 2146     		mov	r1, r4
 9671 0034 1348     		ldr	r0, .L679+16
 9672 0036 FFF7FEFF 		bl	Printf
 9673              	.LVL961:
2660:TP2824/TP2802.c **** 			SetCOCCom(_COCOSD_BOXONLINE, ch[i]);
 9674              		.loc 1 2660 4 view .LVU2832
 9675 003a 02AB     		add	r3, sp, #8
 9676 003c 1D44     		add	r5, r5, r3
 9677 003e 15F8045C 		ldrb	r5, [r5, #-4]	@ zero_extendqisi2
 9678 0042 2946     		mov	r1, r5
 9679 0044 1920     		movs	r0, #25
 9680 0046 FFF7FEFF 		bl	SetCOCCom
 9681              	.LVL962:
2661:TP2824/TP2802.c **** 			Get_2824cIrq();
 9682              		.loc 1 2661 4 view .LVU2833
 9683 004a 2946     		mov	r1, r5
 9684 004c 1520     		movs	r0, #21
 9685 004e FFF7FEFF 		bl	SetCOCCom
 9686              	.LVL963:
2662:TP2824/TP2802.c **** 
 9687              		.loc 1 2662 4 view .LVU2834
 9688 0052 FFF7FEFF 		bl	Get_2824cIrq
ARM GAS  C:\Users\ryanc.HS\AppData\Local\Temp\ccAQ3CYh.s 			page 291


 9689              	.LVL964:
2664:TP2824/TP2802.c **** 			COCSelectModeType[SelectModeType] = 5;
 9690              		.loc 1 2664 4 view .LVU2835
 9691 0056 0521     		movs	r1, #5
 9692 0058 1A20     		movs	r0, #26
 9693 005a FFF7FEFF 		bl	SetCOCCom
 9694              	.LVL965:
2665:TP2824/TP2802.c **** 			Get_2824cIrq();
 9695              		.loc 1 2665 4 view .LVU2836
2665:TP2824/TP2802.c **** 			Get_2824cIrq();
 9696              		.loc 1 2665 21 is_stmt 0 view .LVU2837
 9697 005e 0A4B     		ldr	r3, .L679+20
 9698 0060 1B78     		ldrb	r3, [r3]	@ zero_extendqisi2
2665:TP2824/TP2802.c **** 			Get_2824cIrq();
 9699              		.loc 1 2665 38 view .LVU2838
 9700 0062 0A4A     		ldr	r2, .L679+24
 9701 0064 0521     		movs	r1, #5
 9702 0066 D154     		strb	r1, [r2, r3]
2666:TP2824/TP2802.c **** 		}
 9703              		.loc 1 2666 4 is_stmt 1 view .LVU2839
 9704 0068 FFF7FEFF 		bl	Get_2824cIrq
 9705              	.LVL966:
 9706 006c CEE7     		b	.L675
 9707              	.L678:
2687:TP2824/TP2802.c **** 
 9708              		.loc 1 2687 1 is_stmt 0 view .LVU2840
 9709 006e 03B0     		add	sp, sp, #12
 9710              	.LCFI52:
 9711              		.cfi_def_cfa_offset 12
 9712              		@ sp needed
 9713 0070 30BD     		pop	{r4, r5, pc}
 9714              	.LVL967:
 9715              	.L680:
2687:TP2824/TP2802.c **** 
 9716              		.loc 1 2687 1 view .LVU2841
 9717 0072 00BF     		.align	2
 9718              	.L679:
 9719 0074 00030102 		.word	33620736
 9720 0078 00000000 		.word	std
 9721 007c 00000000 		.word	mode
 9722 0080 00000000 		.word	state
 9723 0084 00000000 		.word	.LC80
 9724 0088 00000000 		.word	SelectModeType
 9725 008c 00000000 		.word	.LANCHOR33
 9726              		.cfi_endproc
 9727              	.LFE23:
 9729              		.global	TP2802_FORMAT_DataSet
 9730              		.global	TP2824C_CVIHD_PTZ_DataSet
 9731              		.global	TP2824C_CVBS_PTZ_DataSet
 9732              		.global	TP2824C_AHD_FHD_PTZ_DataSet
 9733              		.global	TP2824C_TVI_FHD_PTZ_DataSet
 9734              		.global	TP2802D_DataSet
 9735              		.global	TP2822_DataSet
 9736              		.global	TP2823_MODE_DataSet
 9737              		.global	TP2823_DataSet
 9738              		.global	TP2834_MODE_DataSet
 9739              		.global	TP2834_DataSet
ARM GAS  C:\Users\ryanc.HS\AppData\Local\Temp\ccAQ3CYh.s 			page 292


 9740              		.global	TP2833_HDA_DataSet
 9741              		.global	TP2833_MODE_DataSet
 9742              		.global	TP2833_DataSet
 9743              		.global	TP2834_Audio_DataSetRD
 9744              		.global	TP2834_Audio_DataSet
 9745              		.global	TP2853C_HDC_DataSet
 9746              		.global	TP2853C_HDA_DataSet
 9747              		.global	TP2853C_MODE_DataSet
 9748              		.global	TP2853C_DataSet
 9749              		.global	TP2824C_HDC_DataSet
 9750              		.global	TP2826_HDC_DataSet
 9751              		.global	TP2824C_HDA_DataSet
 9752              		.global	TP2826_HDA_DataSet
 9753              		.global	TP2824C_MODE_DataSet
 9754              		.global	TP2826_MODE_DataSet
 9755              		.global	TP2826_DataSet
 9756              		.global	TP2824C_DataSetRD
 9757              		.global	TP2824C_DataSet
 9758              		.global	VideoChangeFlag
 9759              		.global	QuadBoxMode
 9760              		.global	QuadBoxId
 9761              		.comm	PtzTxChNum,1,1
 9762              		.global	PreCOCSelectModeType
 9763              		.global	COCSelectModeType
 9764              		.global	Flisheye_VLOSS_Count
 9765              		.global	Flisheye_COC
 9766              		.global	Flisheye_CAM
 9767              		.comm	ptztxflag,4,4
 9768              		.comm	TVI_speed,1,1
 9769              		.comm	TVI_Chksum,1,1
 9770              		.comm	presetNum,1,1
 9771              		.comm	TVI_Command,1,1
 9772              		.comm	AHDcmd4,1,1
 9773              		.comm	AHDcmd3,1,1
 9774              		.comm	AHDcmd2,1,1
 9775              		.comm	AHDcmd1,1,1
 9776              		.comm	COCRX4,12,4
 9777              		.comm	COCRX3,12,4
 9778              		.comm	COCRX2,12,4
 9779              		.comm	COCRX1,12,4
 9780              		.comm	tpRxD,26,4
 9781              		.global	REG_FA
 9782              		.global	REG_F7
 9783              		.global	REG_F6
 9784              		.global	SYS_AND
 9785              		.global	SYS_MODE
 9786              		.comm	flag_MEGA,4,4
 9787              		.comm	flag_AUDIO,4,4
 9788              		.comm	flag_CVBS,4,4
 9789              		.comm	sywd,4,4
 9790              		.comm	crc,1,1
 9791              		.comm	CurCH,1,1
 9792              		.comm	CurRes,1,1
 9793              		.comm	PTZ_pelco,2,2
 9794              		.comm	PTZ_buf,16,4
 9795              		.comm	TVII2CAddress,1,1
 9796              		.comm	flag_LOCKED,1,1
ARM GAS  C:\Users\ryanc.HS\AppData\Local\Temp\ccAQ3CYh.s 			page 293


 9797              		.comm	chip,1,1
 9798              		.comm	revision,1,1
 9799              		.global	ch_boot_reset
 9800              		.comm	VideoSave,4,4
 9801              		.comm	egain,16,4
 9802              		.comm	std,4,4
 9803              		.comm	mode,4,4
 9804              		.comm	count,4,4
 9805              		.comm	state,4,4
 9806              		.global	newInRes
 9807              		.comm	ManVidResRx,1,1
 9808              		.section	.rodata
 9809              		.align	2
 9810              		.set	.LANCHOR32,. + 0
 9811              	.LC77:
 9812 0000 00020301 		.ascii	"\000\002\003\001\003"
 9812      03
 9813              		.section	.bss.Flisheye_CAM,"aw",%nobits
 9814              		.align	2
 9815              		.set	.LANCHOR18,. + 0
 9818              	Flisheye_CAM:
 9819 0000 00000000 		.space	4
 9820              		.section	.bss.Flisheye_COC,"aw",%nobits
 9823              	Flisheye_COC:
 9824 0000 00       		.space	1
 9825              		.section	.bss.Flisheye_VLOSS_Count,"aw",%nobits
 9826              		.align	2
 9827              		.set	.LANCHOR19,. + 0
 9830              	Flisheye_VLOSS_Count:
 9831 0000 00000000 		.space	16
 9831      00000000 
 9831      00000000 
 9831      00000000 
 9832              		.section	.bss.QuadBoxId,"aw",%nobits
 9833              		.set	.LANCHOR17,. + 0
 9836              	QuadBoxId:
 9837 0000 00       		.space	1
 9838              		.section	.bss.QuadBoxMode,"aw",%nobits
 9841              	QuadBoxMode:
 9842 0000 00       		.space	1
 9843              		.section	.bss.VideoChangeFlag,"aw",%nobits
 9844              		.set	.LANCHOR22,. + 0
 9847              	VideoChangeFlag:
 9848 0000 00       		.space	1
 9849              		.section	.bss.ch_boot_reset,"aw",%nobits
 9850              		.align	2
 9853              	ch_boot_reset:
 9854 0000 00000000 		.space	4
 9855              		.section	.data.COCSelectModeType,"aw"
 9856              		.align	2
 9857              		.set	.LANCHOR33,. + 0
 9860              	COCSelectModeType:
 9861 0000 05050505 		.ascii	"\005\005\005\005"
 9862              		.section	.data.PreCOCSelectModeType,"aw"
 9863              		.align	2
 9866              	PreCOCSelectModeType:
 9867 0000 05050505 		.ascii	"\005\005\005\005"
ARM GAS  C:\Users\ryanc.HS\AppData\Local\Temp\ccAQ3CYh.s 			page 294


 9868              		.section	.data.newInRes,"aw"
 9869              		.align	2
 9870              		.set	.LANCHOR21,. + 0
 9873              	newInRes:
 9874 0000 07070707 		.ascii	"\007\007\007\007"
 9875              		.section	.rodata.REG_F6,"a"
 9876              		.align	2
 9877              		.set	.LANCHOR20,. + 0
 9880              	REG_F6:
 9881 0000 00112233 		.ascii	"\000\021\"3"
 9882              		.section	.rodata.REG_F7,"a"
 9883              		.align	2
 9886              	REG_F7:
 9887 0000 44556677 		.ascii	"DUfw"
 9888              		.section	.rodata.REG_FA,"a"
 9889              		.align	2
 9892              	REG_FA:
 9893 0000 BBCCDDEE 		.ascii	"\273\314\335\356"
 9894              		.section	.rodata.SYS_AND,"a"
 9895              		.align	2
 9896              		.set	.LANCHOR0,. + 0
 9899              	SYS_AND:
 9900 0000 FEFDFBF7 		.ascii	"\376\375\373\367\360"
 9900      F0
 9901              		.section	.rodata.SYS_MODE,"a"
 9902              		.align	2
 9903              		.set	.LANCHOR1,. + 0
 9906              	SYS_MODE:
 9907 0000 01020408 		.ascii	"\001\002\004\010\017"
 9907      0F
 9908              		.section	.rodata.TP2802D_DataSet,"a"
 9909              		.align	2
 9912              	TP2802D_DataSet:
 9913 0000 40042B44 		.ascii	"@\004+D#P9B:\0010H1\2732.3\220M\017N\377@\001P\000Q"
 9913      23503942 
 9913      3A013048 
 9913      31BB322E 
 9913      33904D0F 
 9914 001b 0052007F 		.ascii	"\000R\000\177\000\200\000\201\000@\000P\000Q\013R\014"
 9914      00800081 
 9914      00400050 
 9914      00510B52 
 9914      0C
 9915 002c 53195478 		.ascii	"S\031TxU!~\017\177\000\200\007\201\010\202\004\203\000"
 9915      55217E0F 
 9915      7F008007 
 9915      81088204 
 9915      8300
 9916 003e 84008560 		.ascii	"\204\000\205`\206\020\207\006\210\276\2119\212'\271"
 9916      86108706 
 9916      88BE8939 
 9916      8A27B9
 9917 004d 0FFFFF   		.ascii	"\017\377\377"
 9918              		.section	.rodata.TP2802_FORMAT_DataSet,"a"
 9919              		.align	2
 9920              		.set	.LANCHOR2,. + 0
 9923              	TP2802_FORMAT_DataSet:
ARM GAS  C:\Users\ryanc.HS\AppData\Local\Temp\ccAQ3CYh.s 			page 295


 9924 0000 02151617 		.ascii	"\002\025\026\027\030\031\032\034\03556\377"
 9924      18191A1C 
 9924      1D3536FF 
 9925 000c 4803D380 		.ascii	"H\003\323\200)8G\010\230\005\334\377"
 9925      29384708 
 9925      9805DCFF 
 9926 0018 4803D380 		.ascii	"H\003\323\200)8G\012P\005\334\377"
 9926      2938470A 
 9926      5005DCFF 
 9927 0024 4A131600 		.ascii	"J\023\026\000\031\320%\006r\005\334\377"
 9927      19D02506 
 9927      7205DCFF 
 9928 0030 4A131600 		.ascii	"J\023\026\000\031\320%\007\274\005\334\377"
 9928      19D02507 
 9928      BC05DCFF 
 9929 003c 4A131600 		.ascii	"J\023\026\000\031\320%\014\344\005\334\377"
 9929      19D0250C 
 9929      E405DCFF 
 9930 0048 4A131600 		.ascii	"J\023\026\000\031\320%\017x\005\334\377"
 9930      19D0250F 
 9930      7805DCFF 
 9931 0054 4F1363BC 		.ascii	"O\023c\274\025\360\007\0118%\334\377"
 9931      15F00709 
 9931      3825DCFF 
 9932 0060 4F1378BC 		.ascii	"O\023x\274\027 \027\011H%\334\377"
 9932      17201709 
 9932      4825DCFF 
 9933 006c 48136C00 		.ascii	"H\023l\000,\000h\011\304\0260\377"
 9933      2C006809 
 9933      C41630FF 
 9934 0078 48131F20 		.ascii	"H\023\037 4\230z\013\232\027\320\377"
 9934      34987A0B 
 9934      9A17D0FF 
 9935 0084 4A131600 		.ascii	"J\023\026\000\031\320%\006r%\334\377"
 9935      19D02506 
 9935      7225DCFF 
 9936 0090 4A131600 		.ascii	"J\023\026\000\031\320%\007\274%\334\377"
 9936      19D02507 
 9936      BC25DCFF 
 9937 009c 48131F80 		.ascii	"H\023\037\200}\360Z\013\270\026r\377"
 9937      7DF05A0B 
 9937      B81672FF 
 9938 00a8 48136C00 		.ascii	"H\023l\000,\000h\011\304\026r\377"
 9938      2C006809 
 9938      C41672FF 
 9939 00b4 48233478 		.ascii	"H#4x\214\360Z\014\344\027\010\377"
 9939      8CF05A0C 
 9939      E41708FF 
 9940 00c0 4813EC80 		.ascii	"H\023\354\200\260\010|\016\246\027\274\377"
 9940      B0087C0E 
 9940      A617BCFF 
 9941 00cc 48130F00 		.ascii	"H\023\017\0002\240U\006r\025\334\377"
 9941      32A05506 
 9941      7215DCFF 
 9942 00d8 48132000 		.ascii	"H\023 \000 \240U\007\274\025\334\377"
 9942      20A05507 
 9942      BC15DCFF 
ARM GAS  C:\Users\ryanc.HS\AppData\Local\Temp\ccAQ3CYh.s 			page 296


 9943              		.section	.rodata.TP2822_DataSet,"a"
 9944              		.align	2
 9947              	TP2822_DataSet:
 9948 0000 40043900 		.ascii	"@\0049\000=\010:\0010H1\2732.3\220M\003N3=\000\377\377"
 9948      3D083A01 
 9948      304831BB 
 9948      322E3390 
 9948      4D034E33 
 9949              		.section	.rodata.TP2823_DataSet,"a"
 9950              		.align	2
 9951              		.set	.LANCHOR30,. + 0
 9954              	TP2823_DataSet:
 9955 0000 40040B60 		.ascii	"@\004\013`\"4#D&\0018@?\010M\003N3\372\000\377\377"
 9955      22342344 
 9955      26013840 
 9955      3F084D03 
 9955      4E33FA00 
 9956              		.section	.rodata.TP2823_MODE_DataSet,"a"
 9957              		.align	2
 9960              	TP2823_MODE_DataSet:
 9961 0000 0C0D2026 		.ascii	"\014\015 &+-.01239\377"
 9961      2B2D2E30 
 9961      31323339 
 9961      FF
 9962 000d 43106002 		.ascii	"C\020`\002X0pH\273.\2200\377"
 9962      58307048 
 9962      BB2E9030 
 9962      FF
 9963 001a 53106002 		.ascii	"S\020`\002X0pH\273.\220 \377"
 9963      58307048 
 9963      BB2E9020 
 9963      FF
 9964 0027 5310A012 		.ascii	"S\020\240\022ph^b\273\226\300\020\377"
 9964      70685E62 
 9964      BB96C010 
 9964      FF
 9965 0034 5311B002 		.ascii	"S\021\260\002p`^zJM\360\020\377"
 9965      70605E7A 
 9965      4A4DF010 
 9965      FF
 9966              		.section	.rodata.TP2824C_AHD_FHD_PTZ_DataSet,"a"
 9967              		.align	2
 9968              		.set	.LANCHOR23,. + 0
 9971              	TP2824C_AHD_FHD_PTZ_DataSet:
 9972 0000 C000C20E 		.ascii	"\300\000\302\016\303\017\301\000\304\020\305\021\306"
 9972      C30FC100 
 9972      C410C511 
 9972      C6
 9973 000d 24C715C8 		.ascii	"$\307\025\310\227oDp\000U\000V\000W\000X\000Y\000Z\000"
 9973      976F4470 
 9973      00550056 
 9973      00570058 
 9973      0059005A 
 9974 0022 5B005C00 		.ascii	"[\000\\\000]\000^\000_\000`\000b\000c\000d\000e\000"
 9974      5D005E00 
 9974      5F006000 
 9974      62006300 
ARM GAS  C:\Users\ryanc.HS\AppData\Local\Temp\ccAQ3CYh.s 			page 297


 9974      64006500 
 9975 0036 66006800 		.ascii	"f\000h\000i\000j\000k\000l\000\313\007\314\010\315\000"
 9975      69006A00 
 9975      6B006C00 
 9975      CB07CC08 
 9975      CD00
 9976 0048 CE00CF04 		.ascii	"\316\000\317\004\320\000\321\000\322`\323\020\324\006"
 9976      D000D100 
 9976      D260D310 
 9976      D406
 9977 0056 D5BED639 		.ascii	"\325\276\3269\327'\247$\377\377"
 9977      D727A724 
 9977      FFFF
 9978              		.section	.rodata.TP2824C_CVBS_PTZ_DataSet,"a"
 9979              		.align	2
 9980              		.set	.LANCHOR15,. + 0
 9983              	TP2824C_CVBS_PTZ_DataSet:
 9984 0000 C000C20F 		.ascii	"\300\000\302\017\303\020\301\000\304\000\305\000\306"
 9984      C310C100 
 9984      C400C500 
 9984      C6
 9985 000d 49C714C8 		.ascii	"I\307\024\310\257o`p\000U\000V\000W\000X\000Y\000Z\000"
 9985      AF6F6070 
 9985      00550056 
 9985      00570058 
 9985      0059005A 
 9986 0022 5B005C00 		.ascii	"[\000\\\000]\000^\000_\000`\000b\000c\000d\000e\000"
 9986      5D005E00 
 9986      5F006000 
 9986      62006300 
 9986      64006500 
 9987 0036 66006800 		.ascii	"f\000h\000i\000j\000k\000l\000\377\377"
 9987      69006A00 
 9987      6B006C00 
 9987      FFFF
 9988              		.section	.rodata.TP2824C_CVIHD_PTZ_DataSet,"a"
 9989              		.align	2
 9990              		.set	.LANCHOR24,. + 0
 9993              	TP2824C_CVIHD_PTZ_DataSet:
 9994 0000 701DC000 		.ascii	"p\035\300\000\302\020\303\000\301\000\304\000\305\000"
 9994      C210C300 
 9994      C100C400 
 9994      C500
 9995 000e C615C75B 		.ascii	"\306\025\307[\310\244oHU\000V\000W\000X\000Y\000Z\000"
 9995      C8A46F48 
 9995      55005600 
 9995      57005800 
 9995      59005A00 
 9996 0022 5B005C00 		.ascii	"[\000\\\000]\000^\000_\000`\000b\000c\000d\000e\000"
 9996      5D005E00 
 9996      5F006000 
 9996      62006300 
 9996      64006500 
 9997 0036 66006800 		.ascii	"f\000h\000i\000j\000k\000l\000\377\377"
 9997      69006A00 
 9997      6B006C00 
 9997      FFFF
ARM GAS  C:\Users\ryanc.HS\AppData\Local\Temp\ccAQ3CYh.s 			page 298


 9998              		.section	.rodata.TP2824C_DataSet,"a"
 9999              		.align	2
 10000              		.set	.LANCHOR25,. + 0
 10003              	TP2824C_DataSet:
 10004 0000 400407C0 		.ascii	"@\004\007\300\013\300!\2048N=@A\006:\";\005&\004M\017"
 10004      0BC02184 
 10004      384E3D40 
 10004      41063A22 
 10004      3B052604 
 10005 0016 4E0F6F60 		.ascii	"N\017o`\361\000\377\377"
 10005      F100FFFF 
 10006              		.section	.rodata.TP2824C_DataSetRD,"a"
 10007              		.align	2
 10010              	TP2824C_DataSetRD:
 10011 0000 07C00BC0 		.ascii	"\007\300\013\300!\2048\000:\";\005&\004M\017N\017o`"
 10011      21843800 
 10011      3A223B05 
 10011      26044D0F 
 10011      4E0F6F60 
 10012 0014 F100FFFF 		.ascii	"\361\000\377\377"
 10013              		.section	.rodata.TP2824C_HDA_DataSet,"a"
 10014              		.align	2
 10015              		.set	.LANCHOR11,. + 0
 10018              	TP2824C_HDA_DataSet:
 10019 0000 0C16202B 		.ascii	"\014\026 +-.0123!%\377"
 10019      2D2E3031 
 10019      32332125 
 10019      FF
 10020 000d 03164060 		.ascii	"\003\026@`H@'r\200wF\376\377"
 10020      48402772 
 10020      807746FE 
 10020      FF
 10021 001a 03164060 		.ascii	"\003\026@`H@'\210\004#F\376\377"
 10021      48402788 
 10021      042346FE 
 10021      FF
 10022 0027 03D33860 		.ascii	"\003\3238`D@)ex\026F\376\377"
 10022      44402965 
 10022      781646FE 
 10022      FF
 10023 0034 03D33C60 		.ascii	"\003\323<`D@)ax\026F\376\377"
 10023      44402961 
 10023      781646FE 
 10023      FF
 10024 0041 03003C60 		.ascii	"\003\000<`D@\023\2767\026F\376\377"
 10024      444013BE 
 10024      371646FE 
 10024      FF
 10025              		.section	.rodata.TP2824C_HDC_DataSet,"a"
 10026              		.align	2
 10027              		.set	.LANCHOR14,. + 0
 10030              	TP2824C_HDC_DataSet:
 10031 0000 0C151617 		.ascii	"\014\025\026\027\030\031\032\034\035 +-.0123'(\377"
 10031      18191A1C 
 10031      1D202B2D 
 10031      2E303132 
 10031      332728FF 
ARM GAS  C:\Users\ryanc.HS\AppData\Local\Temp\ccAQ3CYh.s 			page 299


 10032 0014 03130800 		.ascii	"\003\023\010\000\031\320%\006r0`7@Hgo0Z\004\377"
 10032      19D02506 
 10032      72306037 
 10032      4048676F 
 10032      305A04FF 
 10033 0028 03130A00 		.ascii	"\003\023\012\000\031\320%\006z:`B@Hgo3Z\004\377"
 10033      19D02506 
 10033      7A3A6042 
 10033      4048676F 
 10033      335A04FF 
 10034 003c 03136080 		.ascii	"\003\023`\200)8G\011`<`G@A\202'\244Z\004\377"
 10034      29384709 
 10034      603C6047 
 10034      40418227 
 10034      A45A04FF 
 10035 0050 03136080 		.ascii	"\003\023`\200)8G\011`P`T@A\202'\242Z\004\377"
 10035      29384709 
 10035      60506054 
 10035      40418227 
 10035      A25A04FF 
 10036              		.section	.rodata.TP2824C_MODE_DataSet,"a"
 10037              		.align	2
 10038              		.set	.LANCHOR7,. + 0
 10041              	TP2824C_MODE_DataSet:
 10042 0000 0C0D2026 		.ascii	"\014\015 &+-.01239,!\"#%'(\377"
 10042      2B2D2E30 
 10042      31323339 
 10042      2C212223 
 10042      252728FF 
 10043 0014 03503005 		.ascii	"\003P0\005`0pH\273.\220\034\012\2046<\377-\000\377"
 10043      60307048 
 10043      BB2E901C 
 10043      0A84363C 
 10043      FF2D00FF 
 10044 0028 13503005 		.ascii	"\023P0\005`0pH\273.\220\030\012\2046<\377-\000\377"
 10044      60307048 
 10044      BB2E9018 
 10044      0A84363C 
 10044      FF2D00FF 
 10045 003c 13504005 		.ascii	"\023P@\005ph^b\273\226\300\004*\2046<\377-\000\377"
 10045      70685E62 
 10045      BB96C004 
 10045      2A84363C 
 10045      FF2D00FF 
 10046 0050 13514805 		.ascii	"\023QH\005p`^zJM\360\004*\2047?\377-\000\377"
 10046      70605E7A 
 10046      4A4DF004 
 10046      2A84373F 
 10046      FF2D00FF 
 10047              		.section	.rodata.TP2824C_TVI_FHD_PTZ_DataSet,"a"
 10048              		.align	2
 10049              		.set	.LANCHOR16,. + 0
 10052              	TP2824C_TVI_FHD_PTZ_DataSet:
 10053 0000 C000C20B 		.ascii	"\300\000\302\013\303\014\301\000\304\000\305\000\306"
 10053      C30CC100 
 10053      C400C500 
 10053      C6
ARM GAS  C:\Users\ryanc.HS\AppData\Local\Temp\ccAQ3CYh.s 			page 300


 10054 000d 33C778C8 		.ascii	"3\307x\310!o@p\000U\000V\002W\265X\001Y\027Z\001[\000"
 10054      216F4070 
 10054      00550056 
 10054      0257B558 
 10054      0159175A 
 10055 0024 5C025D00 		.ascii	"\\\002]\000^\000_\000`\316\313\007\314\010\315\000\316"
 10055      5E005F00 
 10055      60CECB07 
 10055      CC08CD00 
 10055      CE
 10056 0035 00CF04D0 		.ascii	"\000\317\004\320\000\321\000\322`\323\020\324\006\325"
 10056      00D100D2 
 10056      60D310D4 
 10056      06D5
 10057 0043 BED639D7 		.ascii	"\276\3269\327!\247\000\377\377"
 10057      21A700FF 
 10057      FF
 10058              		.section	.rodata.TP2826_DataSet,"a"
 10059              		.align	2
 10060              		.set	.LANCHOR29,. + 0
 10063              	TP2826_DataSet:
 10064 0000 400407C0 		.ascii	"@\004\007\300\013\300!\2048\000:\";\005&\004M\007N\005"
 10064      0BC02184 
 10064      38003A22 
 10064      3B052604 
 10064      4D074E05 
 10065 0014 F107FFFF 		.ascii	"\361\007\377\377"
 10066              		.section	.rodata.TP2826_HDA_DataSet,"a"
 10067              		.align	2
 10068              		.set	.LANCHOR10,. + 0
 10071              	TP2826_HDA_DataSet:
 10072 0000 0C202B2D 		.ascii	"\014 +-.0123!%\377"
 10072      2E303132 
 10072      332125FF 
 10073 000c 03406048 		.ascii	"\003@`H@'r\200wF\376\377"
 10073      40277280 
 10073      7746FEFF 
 10074 0018 03406048 		.ascii	"\003@`H@'\210\004#F\376\377"
 10074      40278804 
 10074      2346FEFF 
 10075 0024 03386044 		.ascii	"\0038`D@)ex\026F\376\377"
 10075      40296578 
 10075      1646FEFF 
 10076 0030 033C6044 		.ascii	"\003<`D@)ax\026F\376\377"
 10076      40296178 
 10076      1646FEFF 
 10077              		.section	.rodata.TP2826_HDC_DataSet,"a"
 10078              		.align	2
 10079              		.set	.LANCHOR13,. + 0
 10082              	TP2826_HDC_DataSet:
 10083 0000 0C151617 		.ascii	"\014\025\026\027\030\031\032\034\035 +-.0123'(\377"
 10083      18191A1C 
 10083      1D202B2D 
 10083      2E303132 
 10083      332728FF 
 10084 0014 03130800 		.ascii	"\003\023\010\000\031\320%\006r0`7@Hgo0Z\004\377"
 10084      19D02506 
ARM GAS  C:\Users\ryanc.HS\AppData\Local\Temp\ccAQ3CYh.s 			page 301


 10084      72306037 
 10084      4048676F 
 10084      305A04FF 
 10085 0028 03130A00 		.ascii	"\003\023\012\000\031\320%\006z:`B@Hgo3Z\004\377"
 10085      19D02506 
 10085      7A3A6042 
 10085      4048676F 
 10085      335A04FF 
 10086 003c 03136080 		.ascii	"\003\023`\200)8G\011`<`G@A\202'\244Z\004\377"
 10086      29384709 
 10086      603C6047 
 10086      40418227 
 10086      A45A04FF 
 10087 0050 03136080 		.ascii	"\003\023`\200)8G\011`P`T@A\202'\242Z\004\377"
 10087      29384709 
 10087      60506054 
 10087      40418227 
 10087      A25A04FF 
 10088              		.section	.rodata.TP2826_MODE_DataSet,"a"
 10089              		.align	2
 10090              		.set	.LANCHOR6,. + 0
 10093              	TP2826_MODE_DataSet:
 10094 0000 0C0D2026 		.ascii	"\014\015 &+-.01239,!\"#%'(\377"
 10094      2B2D2E30 
 10094      31323339 
 10094      2C212223 
 10094      252728FF 
 10095 0014 03503005 		.ascii	"\003P0\005`0pH\273.\220\034\012\2046<\377-\000\377"
 10095      60307048 
 10095      BB2E901C 
 10095      0A84363C 
 10095      FF2D00FF 
 10096 0028 13503005 		.ascii	"\023P0\005`0pH\273.\220\030\012\2046<\377-\000\377"
 10096      60307048 
 10096      BB2E9018 
 10096      0A84363C 
 10096      FF2D00FF 
 10097 003c 13504005 		.ascii	"\023P@\005ph^b\273\226\300\004*\2046<\377-\000\377"
 10097      70685E62 
 10097      BB96C004 
 10097      2A84363C 
 10097      FF2D00FF 
 10098 0050 13514805 		.ascii	"\023QH\005p`^zJM\360\004*\2047?\377-\000\377"
 10098      70605E7A 
 10098      4A4DF004 
 10098      2A84373F 
 10098      FF2D00FF 
 10099              		.section	.rodata.TP2833_DataSet,"a"
 10100              		.align	2
 10101              		.set	.LANCHOR28,. + 0
 10104              	TP2833_DataSet:
 10105 0000 400407C0 		.ascii	"@\004\007\300\013\300\"68@&\004M\003N\003O\001\377\377"
 10105      0BC02236 
 10105      38402604 
 10105      4D034E03 
 10105      4F01FFFF 
 10106              		.section	.rodata.TP2833_HDA_DataSet,"a"
ARM GAS  C:\Users\ryanc.HS\AppData\Local\Temp\ccAQ3CYh.s 			page 302


 10107              		.align	2
 10108              		.set	.LANCHOR9,. + 0
 10111              	TP2833_HDA_DataSet:
 10112 0000 2B2D2E30 		.ascii	"+-.0123\377"
 10112      313233FF 
 10113 0008 70485E27 		.ascii	"pH^'r\200w\377"
 10113      728077FF 
 10114 0010 70485E27 		.ascii	"pH^'\210\004#\377"
 10114      880423FF 
 10115 0018 58455029 		.ascii	"XEP)ex\026\377"
 10115      657816FF 
 10116 0020 58454029 		.ascii	"XE@)ax\026\377"
 10116      617816FF 
 10117              		.section	.rodata.TP2833_MODE_DataSet,"a"
 10118              		.align	2
 10119              		.set	.LANCHOR4,. + 0
 10122              	TP2833_MODE_DataSet:
 10123 0000 0C0D2026 		.ascii	"\014\015 &+-.01239\030\377"
 10123      2B2D2E30 
 10123      31323339 
 10123      18FF
 10124 000e 03503005 		.ascii	"\003P0\005X0pH\273.\220\014\022\377"
 10124      58307048 
 10124      BB2E900C 
 10124      12FF
 10125 001c 13503005 		.ascii	"\023P0\005X0pH\273.\220\010\022\377"
 10125      58307048 
 10125      BB2E9008 
 10125      12FF
 10126 002a 13504005 		.ascii	"\023P@\005ph^b\273\226\300\004\021\377"
 10126      70685E62 
 10126      BB96C004 
 10126      11FF
 10127 0038 13514805 		.ascii	"\023QH\005p`^zJM\360\004\021\377"
 10127      70605E7A 
 10127      4A4DF004 
 10127      11FF
 10128              		.section	.rodata.TP2834_Audio_DataSet,"a"
 10129              		.align	2
 10130              		.set	.LANCHOR31,. + 0
 10133              	TP2834_Audio_DataSet:
 10134 0000 40400001 		.ascii	"@@\000\001\001\002\002\003\003\004\004\021\027\000\030"
 10134      01020203 
 10134      03040411 
 10134      170018
 10135 000f 10190F1A 		.ascii	"\020\031\017\032\025\033\0017 \035\010\035\000<?<\000"
 10135      151B0137 
 10135      201D081D 
 10135      003C3F3C 
 10135      00
 10136 0020 3D01FFFF 		.ascii	"=\001\377\377"
 10137              		.section	.rodata.TP2834_Audio_DataSetRD,"a"
 10138              		.align	2
 10141              	TP2834_Audio_DataSetRD:
 10142 0000 00010102 		.ascii	"\000\001\001\002\002\003\003\004\004\021\027\000\030"
 10142      02030304 
 10142      04111700 
ARM GAS  C:\Users\ryanc.HS\AppData\Local\Temp\ccAQ3CYh.s 			page 303


 10142      18
 10143 000d 10190F1A 		.ascii	"\020\031\017\032\025\033\0017 \035\010\035\000<?<\000"
 10143      151B0137 
 10143      201D081D 
 10143      003C3F3C 
 10143      00
 10144 001e 3D01FFFF 		.ascii	"=\001\377\377"
 10145              		.section	.rodata.TP2834_DataSet,"a"
 10146              		.align	2
 10147              		.set	.LANCHOR27,. + 0
 10150              	TP2834_DataSet:
 10151 0000 400407C0 		.ascii	"@\004\007\300\013\300:p&\001M\017N\017\377\377"
 10151      0BC03A70 
 10151      26014D0F 
 10151      4E0FFFFF 
 10152              		.section	.rodata.TP2834_MODE_DataSet,"a"
 10153              		.align	2
 10154              		.set	.LANCHOR5,. + 0
 10157              	TP2834_MODE_DataSet:
 10158 0000 0C0D2026 		.ascii	"\014\015 &+-.01239\377"
 10158      2B2D2E30 
 10158      31323339 
 10158      FF
 10159 000d 03106002 		.ascii	"\003\020`\002X0pH\273.\220\214\377"
 10159      58307048 
 10159      BB2E908C 
 10159      FF
 10160 001a 03106002 		.ascii	"\003\020`\002X0pH\273.\220\210\377"
 10160      58307048 
 10160      BB2E9088 
 10160      FF
 10161 0027 4310A012 		.ascii	"C\020\240\022ph^b\273\226\300\204\377"
 10161      70685E62 
 10161      BB96C084 
 10161      FF
 10162 0034 4311B002 		.ascii	"C\021\260\002p`^zJM\360\204\377"
 10162      70605E7A 
 10162      4A4DF084 
 10162      FF
 10163              		.section	.rodata.TP2853C_DataSet,"a"
 10164              		.align	2
 10165              		.set	.LANCHOR26,. + 0
 10168              	TP2853C_DataSet:
 10169 0000 400407C0 		.ascii	"@\004\007\300\013\300!\2048\000:2;\005&\004M\003N\003"
 10169      0BC02184 
 10169      38003A32 
 10169      3B052604 
 10169      4D034E03 
 10170 0014 4F01F5F0 		.ascii	"O\001\365\360\361\007\377\377"
 10170      F107FFFF 
 10171              		.section	.rodata.TP2853C_HDA_DataSet,"a"
 10172              		.align	2
 10173              		.set	.LANCHOR8,. + 0
 10176              	TP2853C_HDA_DataSet:
 10177 0000 2B2D2E30 		.ascii	"+-.0123!%\377"
 10177      31323321 
 10177      25FF
ARM GAS  C:\Users\ryanc.HS\AppData\Local\Temp\ccAQ3CYh.s 			page 304


 10178 000a 70485E27 		.ascii	"pH^'r\200wD\360\377"
 10178      72807744 
 10178      F0FF
 10179 0014 70485E27 		.ascii	"pH^'\210\004#D\360\377"
 10179      88042344 
 10179      F0FF
 10180 001e 58455029 		.ascii	"XEP)ex\026D\360\377"
 10180      65781644 
 10180      F0FF
 10181 0028 58454029 		.ascii	"XE@)ax\026D\360\377"
 10181      61781644 
 10181      F0FF
 10182              		.section	.rodata.TP2853C_HDC_DataSet,"a"
 10183              		.align	2
 10184              		.set	.LANCHOR12,. + 0
 10187              	TP2853C_HDC_DataSet:
 10188 0000 1516202B 		.ascii	"\025\026 +-.0123'(\377"
 10188      2D2E3031 
 10188      32332728 
 10188      FF
 10189 000d 13405060 		.ascii	"\023@P`B@Hg.\220Z\004\377"
 10189      42404867 
 10189      2E905A04 
 10189      FF
 10190 001a 13405060 		.ascii	"\023@P`B@Hg.\220Z\004\377"
 10190      42404867 
 10190      2E905A04 
 10190      FF
 10191 0027 13204860 		.ascii	"\023 H`E@A\203.\220Z\004\377"
 10191      45404183 
 10191      2E905A04 
 10191      FF
 10192 0034 13844860 		.ascii	"\023\204H`E@A\203.\220Z\004\377"
 10192      45404183 
 10192      2E905A04 
 10192      FF
 10193              		.section	.rodata.TP2853C_MODE_DataSet,"a"
 10194              		.align	2
 10195              		.set	.LANCHOR3,. + 0
 10198              	TP2853C_MODE_DataSet:
 10199 0000 0C0D2026 		.ascii	"\014\015 &+-.01239,!%'(\377"
 10199      2B2D2E30 
 10199      31323339 
 10199      2C212527 
 10199      28FF
 10200 0012 03503005 		.ascii	"\003P0\005`0pH\273.\220\014\012\204\360-\000\377"
 10200      60307048 
 10200      BB2E900C 
 10200      0A84F02D 
 10200      00FF
 10201 0024 13503005 		.ascii	"\023P0\005`0pH\273.\220\010\012\204\360-\000\377"
 10201      60307048 
 10201      BB2E9008 
 10201      0A84F02D 
 10201      00FF
 10202 0036 13504005 		.ascii	"\023P@\005ph^b\273\226\300\004*\204\360-\000\377"
 10202      70685E62 
ARM GAS  C:\Users\ryanc.HS\AppData\Local\Temp\ccAQ3CYh.s 			page 305


 10202      BB96C004 
 10202      2A84F02D 
 10202      00FF
 10203 0048 13514805 		.ascii	"\023QH\005p`^zJM\360\004*\204\360-\000\377"
 10203      70605E7A 
 10203      4A4DF004 
 10203      2A84F02D 
 10203      00FF
 10204              		.text
 10205              	.Letext0:
 10206              		.file 2 "c:\\program files (x86)\\gnu tools arm embedded\\9 2019-q4-major\\arm-none-eabi\\include\
 10207              		.file 3 "c:\\program files (x86)\\gnu tools arm embedded\\9 2019-q4-major\\arm-none-eabi\\include\
 10208              		.file 4 "c:\\program files (x86)\\gnu tools arm embedded\\9 2019-q4-major\\lib\\gcc\\arm-none-eabi
 10209              		.file 5 "c:\\program files (x86)\\gnu tools arm embedded\\9 2019-q4-major\\arm-none-eabi\\include\
 10210              		.file 6 "VS4210/VXIS_Extern_Define.h"
 10211              		.file 7 "c:\\program files (x86)\\gnu tools arm embedded\\9 2019-q4-major\\arm-none-eabi\\include\
 10212              		.file 8 "TP2824/tpinc/TP2802.h"
 10213              		.file 9 "sw_i2c/VX_swi2c.h"
 10214              		.file 10 "VS4210/VS4210.h"
 10215              		.file 11 "VS4210/keyremo.h"
 10216              		.file 12 "VS4210/Printf.h"
 10217              		.file 13 "c:\\program files (x86)\\gnu tools arm embedded\\9 2019-q4-major\\arm-none-eabi\\include
 10218              		.file 14 "VS4210/etc_eep.h"
 10219              		.file 15 "<built-in>"
ARM GAS  C:\Users\ryanc.HS\AppData\Local\Temp\ccAQ3CYh.s 			page 306


DEFINED SYMBOLS
                            *ABS*:00000000 TP2802.c
C:\Users\ryanc.HS\AppData\Local\Temp\ccAQ3CYh.s:16     .text.tp2824_reset_default:00000000 $t
C:\Users\ryanc.HS\AppData\Local\Temp\ccAQ3CYh.s:23     .text.tp2824_reset_default:00000000 tp2824_reset_default
C:\Users\ryanc.HS\AppData\Local\Temp\ccAQ3CYh.s:46     .text.tp28xx_SYSCLK_V1:00000000 $t
C:\Users\ryanc.HS\AppData\Local\Temp\ccAQ3CYh.s:52     .text.tp28xx_SYSCLK_V1:00000000 tp28xx_SYSCLK_V1
C:\Users\ryanc.HS\AppData\Local\Temp\ccAQ3CYh.s:104    .text.tp28xx_SYSCLK_V1:00000028 $d
C:\Users\ryanc.HS\AppData\Local\Temp\ccAQ3CYh.s:109    .text.tp28xx_SYSCLK_V2:00000000 $t
C:\Users\ryanc.HS\AppData\Local\Temp\ccAQ3CYh.s:115    .text.tp28xx_SYSCLK_V2:00000000 tp28xx_SYSCLK_V2
C:\Users\ryanc.HS\AppData\Local\Temp\ccAQ3CYh.s:170    .text.tp28xx_SYSCLK_V2:0000002c $d
C:\Users\ryanc.HS\AppData\Local\Temp\ccAQ3CYh.s:175    .text.tp2853C_reset_default:00000000 $t
C:\Users\ryanc.HS\AppData\Local\Temp\ccAQ3CYh.s:181    .text.tp2853C_reset_default:00000000 tp2853C_reset_default
C:\Users\ryanc.HS\AppData\Local\Temp\ccAQ3CYh.s:232    .text.TP28xx_reset_default:00000000 $t
C:\Users\ryanc.HS\AppData\Local\Temp\ccAQ3CYh.s:238    .text.TP28xx_reset_default:00000000 TP28xx_reset_default
C:\Users\ryanc.HS\AppData\Local\Temp\ccAQ3CYh.s:294    .text.I2CDeviceSet1:00000000 $t
C:\Users\ryanc.HS\AppData\Local\Temp\ccAQ3CYh.s:301    .text.I2CDeviceSet1:00000000 I2CDeviceSet1
C:\Users\ryanc.HS\AppData\Local\Temp\ccAQ3CYh.s:351    .text.I2CDeviceSet2:00000000 $t
C:\Users\ryanc.HS\AppData\Local\Temp\ccAQ3CYh.s:358    .text.I2CDeviceSet2:00000000 I2CDeviceSet2
C:\Users\ryanc.HS\AppData\Local\Temp\ccAQ3CYh.s:414    .text.SetRegPage:00000000 $t
C:\Users\ryanc.HS\AppData\Local\Temp\ccAQ3CYh.s:421    .text.SetRegPage:00000000 SetRegPage
C:\Users\ryanc.HS\AppData\Local\Temp\ccAQ3CYh.s:447    .rodata.Set_VidRes.str1.4:00000000 $d
C:\Users\ryanc.HS\AppData\Local\Temp\ccAQ3CYh.s:508    .text.Set_VidRes:00000000 $t
C:\Users\ryanc.HS\AppData\Local\Temp\ccAQ3CYh.s:515    .text.Set_VidRes:00000000 Set_VidRes
C:\Users\ryanc.HS\AppData\Local\Temp\ccAQ3CYh.s:542    .text.Set_VidRes:00000012 $d
C:\Users\ryanc.HS\AppData\Local\Temp\ccAQ3CYh.s:1103   .text.Set_VidRes:00000230 $d
                            *COM*:00000004 mode
                            *COM*:00000001 ManVidResRx
                            *COM*:00000001 chip
C:\Users\ryanc.HS\AppData\Local\Temp\ccAQ3CYh.s:1136   .text.Set_HDA:00000000 $t
C:\Users\ryanc.HS\AppData\Local\Temp\ccAQ3CYh.s:1143   .text.Set_HDA:00000000 Set_HDA
C:\Users\ryanc.HS\AppData\Local\Temp\ccAQ3CYh.s:1167   .text.Set_HDA:0000000e $d
C:\Users\ryanc.HS\AppData\Local\Temp\ccAQ3CYh.s:1181   .text.Set_HDA:0000001c $t
C:\Users\ryanc.HS\AppData\Local\Temp\ccAQ3CYh.s:1310   .text.Set_HDA:000000a4 $d
C:\Users\ryanc.HS\AppData\Local\Temp\ccAQ3CYh.s:1320   .text.Set_HDC:00000000 $t
C:\Users\ryanc.HS\AppData\Local\Temp\ccAQ3CYh.s:1327   .text.Set_HDC:00000000 Set_HDC
C:\Users\ryanc.HS\AppData\Local\Temp\ccAQ3CYh.s:1351   .text.Set_HDC:0000000e $d
C:\Users\ryanc.HS\AppData\Local\Temp\ccAQ3CYh.s:1365   .text.Set_HDC:0000001c $t
C:\Users\ryanc.HS\AppData\Local\Temp\ccAQ3CYh.s:1477   .text.Set_HDC:0000009c $d
C:\Users\ryanc.HS\AppData\Local\Temp\ccAQ3CYh.s:1486   .rodata.Det_VidRes.str1.4:00000000 $d
C:\Users\ryanc.HS\AppData\Local\Temp\ccAQ3CYh.s:1493   .text.Det_VidRes:00000000 $t
C:\Users\ryanc.HS\AppData\Local\Temp\ccAQ3CYh.s:1500   .text.Det_VidRes:00000000 Det_VidRes
C:\Users\ryanc.HS\AppData\Local\Temp\ccAQ3CYh.s:1526   .text.Det_VidRes:00000014 $d
C:\Users\ryanc.HS\AppData\Local\Temp\ccAQ3CYh.s:1562   .text.Det_VidRes:00000030 $d
C:\Users\ryanc.HS\AppData\Local\Temp\ccAQ3CYh.s:1568   .rodata.Det_VideoLoss.str1.4:00000000 $d
C:\Users\ryanc.HS\AppData\Local\Temp\ccAQ3CYh.s:1575   .text.Det_VideoLoss:00000000 $t
C:\Users\ryanc.HS\AppData\Local\Temp\ccAQ3CYh.s:1582   .text.Det_VideoLoss:00000000 Det_VideoLoss
C:\Users\ryanc.HS\AppData\Local\Temp\ccAQ3CYh.s:1635   .text.Det_VideoLoss:0000002c $d
C:\Users\ryanc.HS\AppData\Local\Temp\ccAQ3CYh.s:1641   .rodata.ManualAGC.str1.4:00000000 $d
C:\Users\ryanc.HS\AppData\Local\Temp\ccAQ3CYh.s:1645   .text.ManualAGC:00000000 $t
C:\Users\ryanc.HS\AppData\Local\Temp\ccAQ3CYh.s:1652   .text.ManualAGC:00000000 ManualAGC
C:\Users\ryanc.HS\AppData\Local\Temp\ccAQ3CYh.s:1764   .text.ManualAGC:00000064 $d
C:\Users\ryanc.HS\AppData\Local\Temp\ccAQ3CYh.s:1769   .text.ReadGain:00000000 $t
C:\Users\ryanc.HS\AppData\Local\Temp\ccAQ3CYh.s:1776   .text.ReadGain:00000000 ReadGain
C:\Users\ryanc.HS\AppData\Local\Temp\ccAQ3CYh.s:1803   .rodata.SetCGain.str1.4:00000000 $d
C:\Users\ryanc.HS\AppData\Local\Temp\ccAQ3CYh.s:1807   .text.SetCGain:00000000 $t
C:\Users\ryanc.HS\AppData\Local\Temp\ccAQ3CYh.s:1814   .text.SetCGain:00000000 SetCGain
C:\Users\ryanc.HS\AppData\Local\Temp\ccAQ3CYh.s:2009   .text.SetCGain:000000ac $d
ARM GAS  C:\Users\ryanc.HS\AppData\Local\Temp\ccAQ3CYh.s 			page 307


C:\Users\ryanc.HS\AppData\Local\Temp\ccAQ3CYh.s:2014   .text.INPUT_VIDEO_CHECK:00000000 $t
C:\Users\ryanc.HS\AppData\Local\Temp\ccAQ3CYh.s:2021   .text.INPUT_VIDEO_CHECK:00000000 INPUT_VIDEO_CHECK
C:\Users\ryanc.HS\AppData\Local\Temp\ccAQ3CYh.s:2042   .text.INPUT_VIDEO_CHECK:0000000e $d
C:\Users\ryanc.HS\AppData\Local\Temp\ccAQ3CYh.s:2291   .text.INPUT_VIDEO_CHECK:0000010c $d
C:\Users\ryanc.HS\AppData\Local\Temp\ccAQ3CYh.s:2296   .rodata.SetTP2824CHVloss.str1.4:00000000 $d
C:\Users\ryanc.HS\AppData\Local\Temp\ccAQ3CYh.s:2300   .text.SetTP2824CHVloss:00000000 $t
C:\Users\ryanc.HS\AppData\Local\Temp\ccAQ3CYh.s:2307   .text.SetTP2824CHVloss:00000000 SetTP2824CHVloss
C:\Users\ryanc.HS\AppData\Local\Temp\ccAQ3CYh.s:2352   .text.SetTP2824CHVloss:00000028 $d
                            *COM*:00000004 state
                            *COM*:00000004 count
C:\Users\ryanc.HS\AppData\Local\Temp\ccAQ3CYh.s:2360   .rodata.SETChannelReset.str1.4:00000000 $d
C:\Users\ryanc.HS\AppData\Local\Temp\ccAQ3CYh.s:2364   .text.SETChannelReset:00000000 $t
C:\Users\ryanc.HS\AppData\Local\Temp\ccAQ3CYh.s:2371   .text.SETChannelReset:00000000 SETChannelReset
C:\Users\ryanc.HS\AppData\Local\Temp\ccAQ3CYh.s:2434   .text.SETChannelReset:0000003c $d
                            *COM*:00000004 VideoSave
C:\Users\ryanc.HS\AppData\Local\Temp\ccAQ3CYh.s:2445   .rodata.EQ_Detect.str1.4:00000000 $d
C:\Users\ryanc.HS\AppData\Local\Temp\ccAQ3CYh.s:2537   .text.EQ_Detect:00000000 $t
C:\Users\ryanc.HS\AppData\Local\Temp\ccAQ3CYh.s:2544   .text.EQ_Detect:00000000 EQ_Detect
C:\Users\ryanc.HS\AppData\Local\Temp\ccAQ3CYh.s:3168   .text.EQ_Detect:000002ec $d
                            *COM*:00000001 flag_LOCKED
                            *COM*:00000004 sywd
                            *COM*:00000004 flag_MEGA
C:\Users\ryanc.HS\AppData\Local\Temp\ccAQ3CYh.s:3190   .text.EQ_Detect:00000338 $t
C:\Users\ryanc.HS\AppData\Local\Temp\ccAQ3CYh.s:3807   .text.EQ_Detect:000005ec $d
                            *COM*:00000004 flag_CVBS
                            *COM*:00000004 std
                            *COM*:00000001 CurCH
                            *COM*:00000001 CurRes
C:\Users\ryanc.HS\AppData\Local\Temp\ccAQ3CYh.s:3826   .text.EQ_Detect:00000624 $t
C:\Users\ryanc.HS\AppData\Local\Temp\ccAQ3CYh.s:4420   .text.EQ_Detect:00000950 $d
                            *COM*:00000010 egain
C:\Users\ryanc.HS\AppData\Local\Temp\ccAQ3CYh.s:4444   .text.EQ_Detect:000009a0 $t
C:\Users\ryanc.HS\AppData\Local\Temp\ccAQ3CYh.s:4934   .text.EQ_Detect:00000c58 $d
                            *COM*:00000001 PtzTxChNum
C:\Users\ryanc.HS\AppData\Local\Temp\ccAQ3CYh.s:4962   .text.Det_HLock:00000000 $t
C:\Users\ryanc.HS\AppData\Local\Temp\ccAQ3CYh.s:4969   .text.Det_HLock:00000000 Det_HLock
C:\Users\ryanc.HS\AppData\Local\Temp\ccAQ3CYh.s:5008   .rodata.Set_ResWithAutoDet.str1.4:00000000 $d
C:\Users\ryanc.HS\AppData\Local\Temp\ccAQ3CYh.s:5012   .text.Set_ResWithAutoDet:00000000 $t
C:\Users\ryanc.HS\AppData\Local\Temp\ccAQ3CYh.s:5019   .text.Set_ResWithAutoDet:00000000 Set_ResWithAutoDet
C:\Users\ryanc.HS\AppData\Local\Temp\ccAQ3CYh.s:5101   .text.Set_ResWithAutoDet:00000044 $d
C:\Users\ryanc.HS\AppData\Local\Temp\ccAQ3CYh.s:5106   .text.Scan_Channels:00000000 $t
C:\Users\ryanc.HS\AppData\Local\Temp\ccAQ3CYh.s:5113   .text.Scan_Channels:00000000 Scan_Channels
C:\Users\ryanc.HS\AppData\Local\Temp\ccAQ3CYh.s:5183   .text.Set_PLL_StartUp:00000000 $t
C:\Users\ryanc.HS\AppData\Local\Temp\ccAQ3CYh.s:5190   .text.Set_PLL_StartUp:00000000 Set_PLL_StartUp
C:\Users\ryanc.HS\AppData\Local\Temp\ccAQ3CYh.s:5228   .rodata.Init_TP280x_CHx_RegSet.str1.4:00000000 $d
C:\Users\ryanc.HS\AppData\Local\Temp\ccAQ3CYh.s:5257   .text.Init_TP280x_CHx_RegSet:00000000 $t
C:\Users\ryanc.HS\AppData\Local\Temp\ccAQ3CYh.s:5264   .text.Init_TP280x_CHx_RegSet:00000000 Init_TP280x_CHx_RegSet
C:\Users\ryanc.HS\AppData\Local\Temp\ccAQ3CYh.s:5961   .text.Init_TP280x_CHx_RegSet:00000308 $d
C:\Users\ryanc.HS\AppData\Local\Temp\ccAQ3CYh.s:5983   .text.Init_TP280x_CHx_RegSet:00000354 $t
C:\Users\ryanc.HS\AppData\Local\Temp\ccAQ3CYh.s:6526   .text.Init_TP280x_CHx_RegSet:000005d4 $d
C:\Users\ryanc.HS\AppData\Local\Temp\ccAQ3CYh.s:6543   .text.Init_TP280x_CHx_RegSet:0000060c $t
C:\Users\ryanc.HS\AppData\Local\Temp\ccAQ3CYh.s:6821   .text.Init_TP280x_CHx_RegSet:00000780 $d
C:\Users\ryanc.HS\AppData\Local\Temp\ccAQ3CYh.s:6838   .text.Boot_Trigger_Function:00000000 $t
C:\Users\ryanc.HS\AppData\Local\Temp\ccAQ3CYh.s:6845   .text.Boot_Trigger_Function:00000000 Boot_Trigger_Function
C:\Users\ryanc.HS\AppData\Local\Temp\ccAQ3CYh.s:6927   .text.Boot_Trigger_Function:00000058 $d
C:\Users\ryanc.HS\AppData\Local\Temp\ccAQ3CYh.s:6935   .rodata.Init_TP280x_RegSet.str1.4:00000000 $d
C:\Users\ryanc.HS\AppData\Local\Temp\ccAQ3CYh.s:6948   .text.Init_TP280x_RegSet:00000000 $t
ARM GAS  C:\Users\ryanc.HS\AppData\Local\Temp\ccAQ3CYh.s 			page 308


C:\Users\ryanc.HS\AppData\Local\Temp\ccAQ3CYh.s:6955   .text.Init_TP280x_RegSet:00000000 Init_TP280x_RegSet
C:\Users\ryanc.HS\AppData\Local\Temp\ccAQ3CYh.s:7066   .text.Init_TP280x_RegSet:0000006a $d
C:\Users\ryanc.HS\AppData\Local\Temp\ccAQ3CYh.s:7104   .text.Init_TP280x_RegSet:00000090 $t
C:\Users\ryanc.HS\AppData\Local\Temp\ccAQ3CYh.s:7470   .text.Init_TP280x_RegSet:00000214 $d
                            *COM*:00000001 TVII2CAddress
                            *COM*:00000001 revision
                            *COM*:00000004 flag_AUDIO
C:\Users\ryanc.HS\AppData\Local\Temp\ccAQ3CYh.s:7499   .text.ConvertData:00000000 $t
C:\Users\ryanc.HS\AppData\Local\Temp\ccAQ3CYh.s:7506   .text.ConvertData:00000000 ConvertData
C:\Users\ryanc.HS\AppData\Local\Temp\ccAQ3CYh.s:7605   .text.ConvertData:00000050 $d
                            *COM*:00000002 PTZ_pelco
                            *COM*:00000010 PTZ_buf
C:\Users\ryanc.HS\AppData\Local\Temp\ccAQ3CYh.s:7611   .text.SwapBit:00000000 $t
C:\Users\ryanc.HS\AppData\Local\Temp\ccAQ3CYh.s:7618   .text.SwapBit:00000000 SwapBit
C:\Users\ryanc.HS\AppData\Local\Temp\ccAQ3CYh.s:7740   .text.SwapBit:00000058 $d
                            *COM*:00000001 crc
C:\Users\ryanc.HS\AppData\Local\Temp\ccAQ3CYh.s:7746   .text.AHDBitsReverse:00000000 $t
C:\Users\ryanc.HS\AppData\Local\Temp\ccAQ3CYh.s:7753   .text.AHDBitsReverse:00000000 AHDBitsReverse
C:\Users\ryanc.HS\AppData\Local\Temp\ccAQ3CYh.s:7883   .text.HDC_SetData:00000000 $t
C:\Users\ryanc.HS\AppData\Local\Temp\ccAQ3CYh.s:7890   .text.HDC_SetData:00000000 HDC_SetData
C:\Users\ryanc.HS\AppData\Local\Temp\ccAQ3CYh.s:7948   .text.HDC_SetData:00000044 $d
C:\Users\ryanc.HS\AppData\Local\Temp\ccAQ3CYh.s:7953   .text.HDA_SetData:00000000 $t
C:\Users\ryanc.HS\AppData\Local\Temp\ccAQ3CYh.s:7960   .text.HDA_SetData:00000000 HDA_SetData
C:\Users\ryanc.HS\AppData\Local\Temp\ccAQ3CYh.s:8007   .text.HDA_SetData:0000002c $d
C:\Users\ryanc.HS\AppData\Local\Temp\ccAQ3CYh.s:8012   .text.TVICommandToAHData:00000000 $t
C:\Users\ryanc.HS\AppData\Local\Temp\ccAQ3CYh.s:8019   .text.TVICommandToAHData:00000000 TVICommandToAHData
C:\Users\ryanc.HS\AppData\Local\Temp\ccAQ3CYh.s:8315   .text.TVICommandToAHData:00000140 $d
                            *COM*:00000001 TVI_speed
                            *COM*:00000001 AHDcmd3
                            *COM*:00000001 presetNum
                            *COM*:00000001 AHDcmd4
                            *COM*:00000001 TVI_Command
                            *COM*:00000001 AHDcmd1
                            *COM*:00000001 AHDcmd2
C:\Users\ryanc.HS\AppData\Local\Temp\ccAQ3CYh.s:8326   .rodata.Get_2824cIrq.str1.4:00000000 $d
C:\Users\ryanc.HS\AppData\Local\Temp\ccAQ3CYh.s:8342   .text.Get_2824cIrq:00000000 $t
C:\Users\ryanc.HS\AppData\Local\Temp\ccAQ3CYh.s:8349   .text.Get_2824cIrq:00000000 Get_2824cIrq
C:\Users\ryanc.HS\AppData\Local\Temp\ccAQ3CYh.s:8831   .text.Get_2824cIrq:00000232 $d
C:\Users\ryanc.HS\AppData\Local\Temp\ccAQ3CYh.s:8841   .text.Get_2824cIrq:0000023c $t
C:\Users\ryanc.HS\AppData\Local\Temp\ccAQ3CYh.s:8963   .text.Get_2824cIrq:000002ec $d
                            *COM*:00000004 ptztxflag
                            *COM*:00000001 TVI_Chksum
C:\Users\ryanc.HS\AppData\Local\Temp\ccAQ3CYh.s:8978   .text.Get_2824cIrq:00000320 $t
C:\Users\ryanc.HS\AppData\Local\Temp\ccAQ3CYh.s:9143   .text.Get_2824cIrq:00000428 $d
C:\Users\ryanc.HS\AppData\Local\Temp\ccAQ3CYh.s:9158   .rodata.SetCOCCom.str1.4:00000000 $d
C:\Users\ryanc.HS\AppData\Local\Temp\ccAQ3CYh.s:9165   .text.SetCOCCom:00000000 $t
C:\Users\ryanc.HS\AppData\Local\Temp\ccAQ3CYh.s:9172   .text.SetCOCCom:00000000 SetCOCCom
C:\Users\ryanc.HS\AppData\Local\Temp\ccAQ3CYh.s:9211   .text.SetCOCCom:00000028 $d
C:\Users\ryanc.HS\AppData\Local\Temp\ccAQ3CYh.s:9225   .text.SetCOCCom:00000044 $t
C:\Users\ryanc.HS\AppData\Local\Temp\ccAQ3CYh.s:9583   .text.SetCOCCom:000001cc $d
C:\Users\ryanc.HS\AppData\Local\Temp\ccAQ3CYh.s:9596   .rodata.TVI_BOX_Set.str1.4:00000000 $d
C:\Users\ryanc.HS\AppData\Local\Temp\ccAQ3CYh.s:9600   .text.TVI_BOX_Set:00000000 $t
C:\Users\ryanc.HS\AppData\Local\Temp\ccAQ3CYh.s:9607   .text.TVI_BOX_Set:00000000 TVI_BOX_Set
C:\Users\ryanc.HS\AppData\Local\Temp\ccAQ3CYh.s:9719   .text.TVI_BOX_Set:00000074 $d
C:\Users\ryanc.HS\AppData\Local\Temp\ccAQ3CYh.s:9923   .rodata.TP2802_FORMAT_DataSet:00000000 TP2802_FORMAT_DataSet
C:\Users\ryanc.HS\AppData\Local\Temp\ccAQ3CYh.s:9993   .rodata.TP2824C_CVIHD_PTZ_DataSet:00000000 TP2824C_CVIHD_PTZ_DataSet
C:\Users\ryanc.HS\AppData\Local\Temp\ccAQ3CYh.s:9983   .rodata.TP2824C_CVBS_PTZ_DataSet:00000000 TP2824C_CVBS_PTZ_DataSet
ARM GAS  C:\Users\ryanc.HS\AppData\Local\Temp\ccAQ3CYh.s 			page 309


C:\Users\ryanc.HS\AppData\Local\Temp\ccAQ3CYh.s:9971   .rodata.TP2824C_AHD_FHD_PTZ_DataSet:00000000 TP2824C_AHD_FHD_PTZ_DataSet
C:\Users\ryanc.HS\AppData\Local\Temp\ccAQ3CYh.s:10052  .rodata.TP2824C_TVI_FHD_PTZ_DataSet:00000000 TP2824C_TVI_FHD_PTZ_DataSet
C:\Users\ryanc.HS\AppData\Local\Temp\ccAQ3CYh.s:9912   .rodata.TP2802D_DataSet:00000000 TP2802D_DataSet
C:\Users\ryanc.HS\AppData\Local\Temp\ccAQ3CYh.s:9947   .rodata.TP2822_DataSet:00000000 TP2822_DataSet
C:\Users\ryanc.HS\AppData\Local\Temp\ccAQ3CYh.s:9960   .rodata.TP2823_MODE_DataSet:00000000 TP2823_MODE_DataSet
C:\Users\ryanc.HS\AppData\Local\Temp\ccAQ3CYh.s:9954   .rodata.TP2823_DataSet:00000000 TP2823_DataSet
C:\Users\ryanc.HS\AppData\Local\Temp\ccAQ3CYh.s:10157  .rodata.TP2834_MODE_DataSet:00000000 TP2834_MODE_DataSet
C:\Users\ryanc.HS\AppData\Local\Temp\ccAQ3CYh.s:10150  .rodata.TP2834_DataSet:00000000 TP2834_DataSet
C:\Users\ryanc.HS\AppData\Local\Temp\ccAQ3CYh.s:10111  .rodata.TP2833_HDA_DataSet:00000000 TP2833_HDA_DataSet
C:\Users\ryanc.HS\AppData\Local\Temp\ccAQ3CYh.s:10122  .rodata.TP2833_MODE_DataSet:00000000 TP2833_MODE_DataSet
C:\Users\ryanc.HS\AppData\Local\Temp\ccAQ3CYh.s:10104  .rodata.TP2833_DataSet:00000000 TP2833_DataSet
C:\Users\ryanc.HS\AppData\Local\Temp\ccAQ3CYh.s:10141  .rodata.TP2834_Audio_DataSetRD:00000000 TP2834_Audio_DataSetRD
C:\Users\ryanc.HS\AppData\Local\Temp\ccAQ3CYh.s:10133  .rodata.TP2834_Audio_DataSet:00000000 TP2834_Audio_DataSet
C:\Users\ryanc.HS\AppData\Local\Temp\ccAQ3CYh.s:10187  .rodata.TP2853C_HDC_DataSet:00000000 TP2853C_HDC_DataSet
C:\Users\ryanc.HS\AppData\Local\Temp\ccAQ3CYh.s:10176  .rodata.TP2853C_HDA_DataSet:00000000 TP2853C_HDA_DataSet
C:\Users\ryanc.HS\AppData\Local\Temp\ccAQ3CYh.s:10198  .rodata.TP2853C_MODE_DataSet:00000000 TP2853C_MODE_DataSet
C:\Users\ryanc.HS\AppData\Local\Temp\ccAQ3CYh.s:10168  .rodata.TP2853C_DataSet:00000000 TP2853C_DataSet
C:\Users\ryanc.HS\AppData\Local\Temp\ccAQ3CYh.s:10030  .rodata.TP2824C_HDC_DataSet:00000000 TP2824C_HDC_DataSet
C:\Users\ryanc.HS\AppData\Local\Temp\ccAQ3CYh.s:10082  .rodata.TP2826_HDC_DataSet:00000000 TP2826_HDC_DataSet
C:\Users\ryanc.HS\AppData\Local\Temp\ccAQ3CYh.s:10018  .rodata.TP2824C_HDA_DataSet:00000000 TP2824C_HDA_DataSet
C:\Users\ryanc.HS\AppData\Local\Temp\ccAQ3CYh.s:10071  .rodata.TP2826_HDA_DataSet:00000000 TP2826_HDA_DataSet
C:\Users\ryanc.HS\AppData\Local\Temp\ccAQ3CYh.s:10041  .rodata.TP2824C_MODE_DataSet:00000000 TP2824C_MODE_DataSet
C:\Users\ryanc.HS\AppData\Local\Temp\ccAQ3CYh.s:10093  .rodata.TP2826_MODE_DataSet:00000000 TP2826_MODE_DataSet
C:\Users\ryanc.HS\AppData\Local\Temp\ccAQ3CYh.s:10063  .rodata.TP2826_DataSet:00000000 TP2826_DataSet
C:\Users\ryanc.HS\AppData\Local\Temp\ccAQ3CYh.s:10010  .rodata.TP2824C_DataSetRD:00000000 TP2824C_DataSetRD
C:\Users\ryanc.HS\AppData\Local\Temp\ccAQ3CYh.s:10003  .rodata.TP2824C_DataSet:00000000 TP2824C_DataSet
C:\Users\ryanc.HS\AppData\Local\Temp\ccAQ3CYh.s:9847   .bss.VideoChangeFlag:00000000 VideoChangeFlag
C:\Users\ryanc.HS\AppData\Local\Temp\ccAQ3CYh.s:9841   .bss.QuadBoxMode:00000000 QuadBoxMode
C:\Users\ryanc.HS\AppData\Local\Temp\ccAQ3CYh.s:9836   .bss.QuadBoxId:00000000 QuadBoxId
C:\Users\ryanc.HS\AppData\Local\Temp\ccAQ3CYh.s:9866   .data.PreCOCSelectModeType:00000000 PreCOCSelectModeType
C:\Users\ryanc.HS\AppData\Local\Temp\ccAQ3CYh.s:9860   .data.COCSelectModeType:00000000 COCSelectModeType
C:\Users\ryanc.HS\AppData\Local\Temp\ccAQ3CYh.s:9830   .bss.Flisheye_VLOSS_Count:00000000 Flisheye_VLOSS_Count
C:\Users\ryanc.HS\AppData\Local\Temp\ccAQ3CYh.s:9823   .bss.Flisheye_COC:00000000 Flisheye_COC
C:\Users\ryanc.HS\AppData\Local\Temp\ccAQ3CYh.s:9818   .bss.Flisheye_CAM:00000000 Flisheye_CAM
                            *COM*:0000000c COCRX4
                            *COM*:0000000c COCRX3
                            *COM*:0000000c COCRX2
                            *COM*:0000000c COCRX1
                            *COM*:0000001a tpRxD
C:\Users\ryanc.HS\AppData\Local\Temp\ccAQ3CYh.s:9892   .rodata.REG_FA:00000000 REG_FA
C:\Users\ryanc.HS\AppData\Local\Temp\ccAQ3CYh.s:9886   .rodata.REG_F7:00000000 REG_F7
C:\Users\ryanc.HS\AppData\Local\Temp\ccAQ3CYh.s:9880   .rodata.REG_F6:00000000 REG_F6
C:\Users\ryanc.HS\AppData\Local\Temp\ccAQ3CYh.s:9899   .rodata.SYS_AND:00000000 SYS_AND
C:\Users\ryanc.HS\AppData\Local\Temp\ccAQ3CYh.s:9906   .rodata.SYS_MODE:00000000 SYS_MODE
C:\Users\ryanc.HS\AppData\Local\Temp\ccAQ3CYh.s:9853   .bss.ch_boot_reset:00000000 ch_boot_reset
C:\Users\ryanc.HS\AppData\Local\Temp\ccAQ3CYh.s:9873   .data.newInRes:00000000 newInRes
C:\Users\ryanc.HS\AppData\Local\Temp\ccAQ3CYh.s:9809   .rodata:00000000 $d
C:\Users\ryanc.HS\AppData\Local\Temp\ccAQ3CYh.s:9814   .bss.Flisheye_CAM:00000000 $d
C:\Users\ryanc.HS\AppData\Local\Temp\ccAQ3CYh.s:9824   .bss.Flisheye_COC:00000000 $d
C:\Users\ryanc.HS\AppData\Local\Temp\ccAQ3CYh.s:9826   .bss.Flisheye_VLOSS_Count:00000000 $d
C:\Users\ryanc.HS\AppData\Local\Temp\ccAQ3CYh.s:9837   .bss.QuadBoxId:00000000 $d
C:\Users\ryanc.HS\AppData\Local\Temp\ccAQ3CYh.s:9842   .bss.QuadBoxMode:00000000 $d
C:\Users\ryanc.HS\AppData\Local\Temp\ccAQ3CYh.s:9848   .bss.VideoChangeFlag:00000000 $d
C:\Users\ryanc.HS\AppData\Local\Temp\ccAQ3CYh.s:9850   .bss.ch_boot_reset:00000000 $d
C:\Users\ryanc.HS\AppData\Local\Temp\ccAQ3CYh.s:9856   .data.COCSelectModeType:00000000 $d
C:\Users\ryanc.HS\AppData\Local\Temp\ccAQ3CYh.s:9863   .data.PreCOCSelectModeType:00000000 $d
C:\Users\ryanc.HS\AppData\Local\Temp\ccAQ3CYh.s:9869   .data.newInRes:00000000 $d
ARM GAS  C:\Users\ryanc.HS\AppData\Local\Temp\ccAQ3CYh.s 			page 310


C:\Users\ryanc.HS\AppData\Local\Temp\ccAQ3CYh.s:9876   .rodata.REG_F6:00000000 $d
C:\Users\ryanc.HS\AppData\Local\Temp\ccAQ3CYh.s:9883   .rodata.REG_F7:00000000 $d
C:\Users\ryanc.HS\AppData\Local\Temp\ccAQ3CYh.s:9889   .rodata.REG_FA:00000000 $d
C:\Users\ryanc.HS\AppData\Local\Temp\ccAQ3CYh.s:9895   .rodata.SYS_AND:00000000 $d
C:\Users\ryanc.HS\AppData\Local\Temp\ccAQ3CYh.s:9902   .rodata.SYS_MODE:00000000 $d
C:\Users\ryanc.HS\AppData\Local\Temp\ccAQ3CYh.s:9909   .rodata.TP2802D_DataSet:00000000 $d
C:\Users\ryanc.HS\AppData\Local\Temp\ccAQ3CYh.s:9919   .rodata.TP2802_FORMAT_DataSet:00000000 $d
C:\Users\ryanc.HS\AppData\Local\Temp\ccAQ3CYh.s:9944   .rodata.TP2822_DataSet:00000000 $d
C:\Users\ryanc.HS\AppData\Local\Temp\ccAQ3CYh.s:9950   .rodata.TP2823_DataSet:00000000 $d
C:\Users\ryanc.HS\AppData\Local\Temp\ccAQ3CYh.s:9957   .rodata.TP2823_MODE_DataSet:00000000 $d
C:\Users\ryanc.HS\AppData\Local\Temp\ccAQ3CYh.s:9967   .rodata.TP2824C_AHD_FHD_PTZ_DataSet:00000000 $d
C:\Users\ryanc.HS\AppData\Local\Temp\ccAQ3CYh.s:9979   .rodata.TP2824C_CVBS_PTZ_DataSet:00000000 $d
C:\Users\ryanc.HS\AppData\Local\Temp\ccAQ3CYh.s:9989   .rodata.TP2824C_CVIHD_PTZ_DataSet:00000000 $d
C:\Users\ryanc.HS\AppData\Local\Temp\ccAQ3CYh.s:9999   .rodata.TP2824C_DataSet:00000000 $d
C:\Users\ryanc.HS\AppData\Local\Temp\ccAQ3CYh.s:10007  .rodata.TP2824C_DataSetRD:00000000 $d
C:\Users\ryanc.HS\AppData\Local\Temp\ccAQ3CYh.s:10014  .rodata.TP2824C_HDA_DataSet:00000000 $d
C:\Users\ryanc.HS\AppData\Local\Temp\ccAQ3CYh.s:10026  .rodata.TP2824C_HDC_DataSet:00000000 $d
C:\Users\ryanc.HS\AppData\Local\Temp\ccAQ3CYh.s:10037  .rodata.TP2824C_MODE_DataSet:00000000 $d
C:\Users\ryanc.HS\AppData\Local\Temp\ccAQ3CYh.s:10048  .rodata.TP2824C_TVI_FHD_PTZ_DataSet:00000000 $d
C:\Users\ryanc.HS\AppData\Local\Temp\ccAQ3CYh.s:10059  .rodata.TP2826_DataSet:00000000 $d
C:\Users\ryanc.HS\AppData\Local\Temp\ccAQ3CYh.s:10067  .rodata.TP2826_HDA_DataSet:00000000 $d
C:\Users\ryanc.HS\AppData\Local\Temp\ccAQ3CYh.s:10078  .rodata.TP2826_HDC_DataSet:00000000 $d
C:\Users\ryanc.HS\AppData\Local\Temp\ccAQ3CYh.s:10089  .rodata.TP2826_MODE_DataSet:00000000 $d
C:\Users\ryanc.HS\AppData\Local\Temp\ccAQ3CYh.s:10100  .rodata.TP2833_DataSet:00000000 $d
C:\Users\ryanc.HS\AppData\Local\Temp\ccAQ3CYh.s:10107  .rodata.TP2833_HDA_DataSet:00000000 $d
C:\Users\ryanc.HS\AppData\Local\Temp\ccAQ3CYh.s:10118  .rodata.TP2833_MODE_DataSet:00000000 $d
C:\Users\ryanc.HS\AppData\Local\Temp\ccAQ3CYh.s:10129  .rodata.TP2834_Audio_DataSet:00000000 $d
C:\Users\ryanc.HS\AppData\Local\Temp\ccAQ3CYh.s:10138  .rodata.TP2834_Audio_DataSetRD:00000000 $d
C:\Users\ryanc.HS\AppData\Local\Temp\ccAQ3CYh.s:10146  .rodata.TP2834_DataSet:00000000 $d
C:\Users\ryanc.HS\AppData\Local\Temp\ccAQ3CYh.s:10153  .rodata.TP2834_MODE_DataSet:00000000 $d
C:\Users\ryanc.HS\AppData\Local\Temp\ccAQ3CYh.s:10164  .rodata.TP2853C_DataSet:00000000 $d
C:\Users\ryanc.HS\AppData\Local\Temp\ccAQ3CYh.s:10172  .rodata.TP2853C_HDA_DataSet:00000000 $d
C:\Users\ryanc.HS\AppData\Local\Temp\ccAQ3CYh.s:10183  .rodata.TP2853C_HDC_DataSet:00000000 $d
C:\Users\ryanc.HS\AppData\Local\Temp\ccAQ3CYh.s:10194  .rodata.TP2853C_MODE_DataSet:00000000 $d
C:\Users\ryanc.HS\AppData\Local\Temp\ccAQ3CYh.s:581    .text.Set_VidRes:00000039 $d
C:\Users\ryanc.HS\AppData\Local\Temp\ccAQ3CYh.s:581    .text.Set_VidRes:0000003a $t
C:\Users\ryanc.HS\AppData\Local\Temp\ccAQ3CYh.s:1533   .text.Det_VidRes:0000001b $d
C:\Users\ryanc.HS\AppData\Local\Temp\ccAQ3CYh.s:1533   .text.Det_VidRes:0000001c $t
C:\Users\ryanc.HS\AppData\Local\Temp\ccAQ3CYh.s:2081   .text.INPUT_VIDEO_CHECK:00000035 $d
C:\Users\ryanc.HS\AppData\Local\Temp\ccAQ3CYh.s:2081   .text.INPUT_VIDEO_CHECK:00000036 $t

UNDEFINED SYMBOLS
tp28xx_byte_write
tp28xx_byte_read
delay
printf
puts
Printf
CURRENT_CH
VS4210_Rx_NoSignal
gbVXIS_InputMode
bSignal
WriteEEP
GetDisplayedOSD
ShowJUMPOSD
CloseOSDMenu
bytSelectCAMRD
ARM GAS  C:\Users\ryanc.HS\AppData\Local\Temp\ccAQ3CYh.s 			page 311


half_scaler
MCUTimerCancelTimerEvent
MCUTimerActiveTimerEvent
BOX_ISSUE
VS4210_SetInModeOutMode
GraphicsPrint
bytResetOSDValue
gbVXIS_OuputModeflg
ReadEEP
msleep
SelectModeType
CheckTrigger
TriggerHandler
GetBackLightLevel
user_pwm_setvalue
BackLightON
TriggerStatus
