ARM GAS  C:\Users\ryanc.HS\AppData\Local\Temp\ccAQ3CYh.s 			page 1


   1              		.cpu cortex-m3
   2              		.eabi_attribute 20, 1
   3              		.eabi_attribute 21, 1
   4              		.eabi_attribute 23, 3
   5              		.eabi_attribute 24, 1
   6              		.eabi_attribute 25, 1
   7              		.eabi_attribute 26, 1
   8              		.eabi_attribute 30, 1
   9              		.eabi_attribute 34, 1
  10              		.eabi_attribute 18, 4
  11              		.file	"TP2802.c"
  12              		.text
  13              	.Ltext0:
  14              		.cfi_sections	.debug_frame
  15              		.section	.text.tp2824_reset_default,"ax",%progbits
  16              		.align	1
  17              		.arch armv7-m
  18              		.syntax unified
  19              		.thumb
  20              		.thumb_func
  21              		.fpu softvfp
  23              	tp2824_reset_default:
  24              	.LFB14:
  25              		.file 1 "TP2824/TP2802.c"
   1:TP2824/TP2802.c **** // *****************************************************
   2:TP2824/TP2802.c **** // Company : Techpoint Inc
   3:TP2824/TP2802.c **** // $Date: 2014-03-10
   4:TP2824/TP2802.c **** // $Log:  $
   5:TP2824/TP2802.c **** // ******************************************************
   6:TP2824/TP2802.c **** #include "VXIS_Extern_Define.h"
   7:TP2824/TP2802.c **** #include "stdlib.h"
   8:TP2824/TP2802.c **** //#include "tpinc/Device_Rx.h"
   9:TP2824/TP2802.c **** #include "tpinc/TP2802.h"
  10:TP2824/TP2802.c **** 
  11:TP2824/TP2802.c **** #include "VX_swi2c.h"
  12:TP2824/TP2802.c **** #include "VS4210.h"
  13:TP2824/TP2802.c **** #include "etc_eep.h"
  14:TP2824/TP2802.c **** #include "keyremo.h"
  15:TP2824/TP2802.c **** #include "Printf.h"
  16:TP2824/TP2802.c **** 
  17:TP2824/TP2802.c **** // extern tByte ManVidResRx;
  18:TP2824/TP2802.c **** 
  19:TP2824/TP2802.c **** tByte ManVidResRx;
  20:TP2824/TP2802.c **** extern tByte ManSelCh;
  21:TP2824/TP2802.c **** extern tByte gRxLoopFlg;
  22:TP2824/TP2802.c **** 
  23:TP2824/TP2802.c **** #ifndef TRUE
  24:TP2824/TP2802.c **** #define TRUE 1
  25:TP2824/TP2802.c **** #endif
  26:TP2824/TP2802.c **** 
  27:TP2824/TP2802.c **** #ifndef FALSE
  28:TP2824/TP2802.c **** #define FALSE 0
  29:TP2824/TP2802.c **** #endif
  30:TP2824/TP2802.c **** 
  31:TP2824/TP2802.c **** // TP2802D EQ for short cable option
  32:TP2824/TP2802.c **** #define TP2802D_EQ_SHORT 0x0d
  33:TP2824/TP2802.c **** #define TP2802D_CGAIN_SHORT 0x74
ARM GAS  C:\Users\ryanc.HS\AppData\Local\Temp\ccAQ3CYh.s 			page 2


  34:TP2824/TP2802.c **** //#define TP2802D_EQ_SHORT 0x01
  35:TP2824/TP2802.c **** //#define TP2802D_CGAIN_SHORT 0x70
  36:TP2824/TP2802.c **** 
  37:TP2824/TP2802.c **** //#define CVI_TEST 0
  38:TP2824/TP2802.c **** //#define AHD_TEST 1
  39:TP2824/TP2802.c **** 
  40:TP2824/TP2802.c **** #define CH_PER_CHIP 0x04
  41:TP2824/TP2802.c **** #define MAX_COUNT 0xff
  42:TP2824/TP2802.c **** 
  43:TP2824/TP2802.c **** // extern void CreateMDIN340VideoInstance(void);
  44:TP2824/TP2802.c **** 
  45:TP2824/TP2802.c **** tByte newInRes[4] = {7, 7, 7, 7};
  46:TP2824/TP2802.c **** 
  47:TP2824/TP2802.c **** extern bit DetAutoRes;
  48:TP2824/TP2802.c **** tByte state[CH_PER_CHIP];
  49:TP2824/TP2802.c **** tByte count[CH_PER_CHIP];
  50:TP2824/TP2802.c **** tByte mode[CH_PER_CHIP];
  51:TP2824/TP2802.c **** tByte std[CH_PER_CHIP];
  52:TP2824/TP2802.c **** tByte egain[CH_PER_CHIP][4];
  53:TP2824/TP2802.c **** tByte VideoSave[CH_PER_CHIP];
  54:TP2824/TP2802.c **** tByte ch_boot_reset[CH_PER_CHIP] = {0, 0, 0, 0};
  55:TP2824/TP2802.c **** tByte revision;
  56:TP2824/TP2802.c **** tByte chip;
  57:TP2824/TP2802.c **** tByte flag_LOCKED;
  58:TP2824/TP2802.c **** tByte TVII2CAddress;
  59:TP2824/TP2802.c **** tByte PTZ_buf[16];
  60:TP2824/TP2802.c **** tWord PTZ_pelco;
  61:TP2824/TP2802.c **** tByte CurRes;
  62:TP2824/TP2802.c **** tByte CurCH;
  63:TP2824/TP2802.c **** tByte crc;
  64:TP2824/TP2802.c **** bit sywd;
  65:TP2824/TP2802.c **** bit flag_CVBS;
  66:TP2824/TP2802.c **** bit flag_AUDIO;
  67:TP2824/TP2802.c **** bit flag_MEGA;
  68:TP2824/TP2802.c **** 
  69:TP2824/TP2802.c **** tcByte SYS_MODE[] = {0x01, 0x02, 0x04, 0x08, 0x0f};
  70:TP2824/TP2802.c **** tcByte SYS_AND[] = {0xfe, 0xfd, 0xfb, 0xf7, 0xf0};
  71:TP2824/TP2802.c **** 
  72:TP2824/TP2802.c **** tcByte REG_F6[4] = {0x00, 0x11, 0x22, 0x33};
  73:TP2824/TP2802.c **** tcByte REG_F7[4] = {0x44, 0x55, 0x66, 0x77};
  74:TP2824/TP2802.c **** tcByte REG_FA[4] = {0xBB, 0xCC, 0xDD, 0xEE};
  75:TP2824/TP2802.c **** 
  76:TP2824/TP2802.c **** // cocrx
  77:TP2824/TP2802.c **** tByte tpRxD[26];
  78:TP2824/TP2802.c **** BYTE COCRX1[12];
  79:TP2824/TP2802.c **** BYTE COCRX2[12];
  80:TP2824/TP2802.c **** BYTE COCRX3[12];
  81:TP2824/TP2802.c **** BYTE COCRX4[12];
  82:TP2824/TP2802.c **** /*
  83:TP2824/TP2802.c **** extern BYTE AHDcmd1,AHDcmd2,AHDcmd3,AHDcmd4;
  84:TP2824/TP2802.c **** extern BYTE TVI_Command;
  85:TP2824/TP2802.c **** extern BYTE presetNum;
  86:TP2824/TP2802.c **** extern BYTE TVI_Chksum;
  87:TP2824/TP2802.c **** extern BYTE TVI_speed;
  88:TP2824/TP2802.c **** extern bit ptztxflag;
  89:TP2824/TP2802.c **** */
  90:TP2824/TP2802.c **** BYTE AHDcmd1, AHDcmd2, AHDcmd3, AHDcmd4;
ARM GAS  C:\Users\ryanc.HS\AppData\Local\Temp\ccAQ3CYh.s 			page 3


  91:TP2824/TP2802.c **** BYTE TVI_Command;
  92:TP2824/TP2802.c **** BYTE presetNum;
  93:TP2824/TP2802.c **** BYTE TVI_Chksum;
  94:TP2824/TP2802.c **** BYTE TVI_speed;
  95:TP2824/TP2802.c **** bit ptztxflag;
  96:TP2824/TP2802.c **** BYTE Flisheye_CAM[4] = {0};
  97:TP2824/TP2802.c **** BYTE Flisheye_COC = 0;
  98:TP2824/TP2802.c **** 
  99:TP2824/TP2802.c **** WORD Flisheye_VLOSS_Count[4] = {0};
 100:TP2824/TP2802.c **** 
 101:TP2824/TP2802.c **** // BYTE Flisheye_CAM[4]={1,1,1,1};
 102:TP2824/TP2802.c **** BYTE COCSelectModeType[4] = {5, 5, 5, 5};
 103:TP2824/TP2802.c **** BYTE PreCOCSelectModeType[4] = {5, 5, 5, 5};
 104:TP2824/TP2802.c **** 
 105:TP2824/TP2802.c **** // extern BYTE PtzTxChNum;//0:ch1 / 1:ch2 / 2:ch3 / 3:ch4
 106:TP2824/TP2802.c **** 
 107:TP2824/TP2802.c **** BYTE PtzTxChNum; // 0:ch1 / 1:ch2 / 2:ch3 / 3:ch4
 108:TP2824/TP2802.c **** // extern BYTE QuadBoxId;//1:ch1 / 2:ch2 / 4:ch3 / 8:ch4
 109:TP2824/TP2802.c **** BYTE QuadBoxId = 0; // 1:ch1 / 2:ch2 / 4:ch3 / 8:ch4
 110:TP2824/TP2802.c **** BYTE QuadBoxMode = 0;
 111:TP2824/TP2802.c **** BYTE VideoChangeFlag = 0;
 112:TP2824/TP2802.c **** 
 113:TP2824/TP2802.c **** extern BYTE SelectModeType;
 114:TP2824/TP2802.c **** extern volatile BYTE MainSetSelectMode[13];
 115:TP2824/TP2802.c **** extern BYTE BOOT_ISSUE;
 116:TP2824/TP2802.c **** extern BYTE CURRENT_CH;
 117:TP2824/TP2802.c **** extern BYTE BOX_ISSUE;
 118:TP2824/TP2802.c **** extern BYTE TriggerStatus;
 119:TP2824/TP2802.c **** extern BYTE TriggerFlag;
 120:TP2824/TP2802.c **** extern BYTE TriggerMode;
 121:TP2824/TP2802.c **** extern BYTE PowerFlag;
 122:TP2824/TP2802.c **** extern BYTE NowModeState;
 123:TP2824/TP2802.c **** extern BYTE bytSelectCAMRD;
 124:TP2824/TP2802.c **** extern BYTE bytGarbberLinerMode;
 125:TP2824/TP2802.c **** extern BYTE bytResetOSDValue;
 126:TP2824/TP2802.c **** extern tByte bSignal[4];
 127:TP2824/TP2802.c **** 
 128:TP2824/TP2802.c **** enum
 129:TP2824/TP2802.c **** {
 130:TP2824/TP2802.c **** 	TP2802C = 0x02,
 131:TP2824/TP2802.c **** 	TP2804 = 0x04,
 132:TP2824/TP2802.c **** 	TP2802D = 0x05,
 133:TP2824/TP2802.c **** 	TP2822 = 0x22,
 134:TP2824/TP2802.c **** 	TP2823 = 0x23,
 135:TP2824/TP2802.c **** 	TP2834 = 0x24,
 136:TP2824/TP2802.c **** 	TP2833 = 0x25,
 137:TP2824/TP2802.c **** 	TP2853C = 0x26,
 138:TP2824/TP2802.c **** 	TP2824C = 0x27,
 139:TP2824/TP2802.c **** 	TP2826 = 0x2f
 140:TP2824/TP2802.c **** };
 141:TP2824/TP2802.c **** 
 142:TP2824/TP2802.c **** tcByte TP2824C_DataSet[] =
 143:TP2824/TP2802.c **** 	{
 144:TP2824/TP2802.c **** 		0x40, 0x04,
 145:TP2824/TP2802.c **** 		0x07, 0xC0,
 146:TP2824/TP2802.c **** 		0x0B, 0xC0,
 147:TP2824/TP2802.c **** 		0x21, 0x84,
ARM GAS  C:\Users\ryanc.HS\AppData\Local\Temp\ccAQ3CYh.s 			page 4


 148:TP2824/TP2802.c **** 
 149:TP2824/TP2802.c **** 		0x38, (0x00 | 0x4E), // 0x4E ryan@20220525 Regulus suggusted the value of register for noise issu
 150:TP2824/TP2802.c **** 		0x3D, 0x40,
 151:TP2824/TP2802.c **** 		0x41, 0x06,
 152:TP2824/TP2802.c **** 
 153:TP2824/TP2802.c **** 		0x3A, 0x22,
 154:TP2824/TP2802.c **** 		0x3B, 0x05,
 155:TP2824/TP2802.c **** 		0x26, 0x04,
 156:TP2824/TP2802.c **** 		// 0x4d, 0x07,
 157:TP2824/TP2802.c **** 		// 0x4e, 0x05,
 158:TP2824/TP2802.c **** 		0x4d, 0x0F,
 159:TP2824/TP2802.c **** 		0x4e, 0x0F, // chunyu
 160:TP2824/TP2802.c **** 		0x6f, 0x60, /// default cvbs coc  ryan@20210416
 161:TP2824/TP2802.c **** 		0xf1, 0x00, // different with TP2826
 162:TP2824/TP2802.c **** 		/*cocrx
 163:TP2824/TP2802.c **** 		//PTZ RX
 164:TP2824/TP2802.c **** 		//	0xc6, 0x1F,//0x19,	//TXBITCNNUM
 165:TP2824/TP2802.c **** 		//	0xc7, 0x78,		//TXHST
 166:TP2824/TP2802.c **** 			0xcb, 0x07,		//RXLINE1
 167:TP2824/TP2802.c **** 			0xcc, 0x08,		//RXLINE2
 168:TP2824/TP2802.c **** 			0xcd, 0x00,//0x09,		//RXLINE3
 169:TP2824/TP2802.c **** 			0xce, 0x00,//0x0a,		//RXLINE4
 170:TP2824/TP2802.c **** 			0xcf, 0x04,		//RXFREQ
 171:TP2824/TP2802.c **** 			0xd0, 0x00,		//RXFREQ
 172:TP2824/TP2802.c **** 			0xd1, 0x00,		//RXFREQ
 173:TP2824/TP2802.c **** 			0xd2, 0x60,		//RXTHLEVEL
 174:TP2824/TP2802.c **** 			0xd3, 0x10,		//RXHINUM
 175:TP2824/TP2802.c **** 			0xd4, 0x06,		//RXHST / RXHEND
 176:TP2824/TP2802.c **** 			0xd5, 0xbe,		//RXHST
 177:TP2824/TP2802.c **** 			0xd6, 0x39,		//RXHEND
 178:TP2824/TP2802.c **** 			0xd7, 0x27,		//RXBITNUM
 179:TP2824/TP2802.c **** 		*/
 180:TP2824/TP2802.c **** 		0xff, 0xff};
 181:TP2824/TP2802.c **** 
 182:TP2824/TP2802.c **** tcByte TP2824C_DataSetRD[] =
 183:TP2824/TP2802.c **** 	{
 184:TP2824/TP2802.c **** 		//    0x40, 0x04,
 185:TP2824/TP2802.c **** 		0x07, 0xC0,
 186:TP2824/TP2802.c **** 		0x0B, 0xC0,
 187:TP2824/TP2802.c **** 		0x21, 0x84,
 188:TP2824/TP2802.c **** 		0x38, 0x00,
 189:TP2824/TP2802.c **** 		0x3A, 0x22,
 190:TP2824/TP2802.c **** 		0x3B, 0x05,
 191:TP2824/TP2802.c **** 		0x26, 0x04,
 192:TP2824/TP2802.c **** 		// 0x4d, 0x07,
 193:TP2824/TP2802.c **** 		// 0x4e, 0x05,
 194:TP2824/TP2802.c **** 		0x4d, 0x0F,
 195:TP2824/TP2802.c **** 		0x4e, 0x0F, // chunyu
 196:TP2824/TP2802.c **** 		0x6f, 0x60, /// default cvbs coc  ryan@20210416
 197:TP2824/TP2802.c **** 		0xf1, 0x00, // different with TP2826
 198:TP2824/TP2802.c **** 		/*cocrx
 199:TP2824/TP2802.c **** 		//PTZ RX
 200:TP2824/TP2802.c **** 		//	0xc6, 0x1F,//0x19,	//TXBITCNNUM
 201:TP2824/TP2802.c **** 		//	0xc7, 0x78,		//TXHST
 202:TP2824/TP2802.c **** 			0xcb, 0x07,		//RXLINE1
 203:TP2824/TP2802.c **** 			0xcc, 0x08,		//RXLINE2
 204:TP2824/TP2802.c **** 			0xcd, 0x00,//0x09,		//RXLINE3
ARM GAS  C:\Users\ryanc.HS\AppData\Local\Temp\ccAQ3CYh.s 			page 5


 205:TP2824/TP2802.c **** 			0xce, 0x00,//0x0a,		//RXLINE4
 206:TP2824/TP2802.c **** 			0xcf, 0x04,		//RXFREQ
 207:TP2824/TP2802.c **** 			0xd0, 0x00,		//RXFREQ
 208:TP2824/TP2802.c **** 			0xd1, 0x00,		//RXFREQ
 209:TP2824/TP2802.c **** 			0xd2, 0x60,		//RXTHLEVEL
 210:TP2824/TP2802.c **** 			0xd3, 0x10,		//RXHINUM
 211:TP2824/TP2802.c **** 			0xd4, 0x06,		//RXHST / RXHEND
 212:TP2824/TP2802.c **** 			0xd5, 0xbe,		//RXHST
 213:TP2824/TP2802.c **** 			0xd6, 0x39,		//RXHEND
 214:TP2824/TP2802.c **** 			0xd7, 0x27,		//RXBITNUM
 215:TP2824/TP2802.c **** 		*/
 216:TP2824/TP2802.c **** 		0xff, 0xff};
 217:TP2824/TP2802.c **** 
 218:TP2824/TP2802.c **** tcByte TP2826_DataSet[] =
 219:TP2824/TP2802.c **** 	{
 220:TP2824/TP2802.c **** 		0x40, 0x04,
 221:TP2824/TP2802.c **** 		0x07, 0xC0,
 222:TP2824/TP2802.c **** 		0x0B, 0xC0,
 223:TP2824/TP2802.c **** 		0x21, 0x84,
 224:TP2824/TP2802.c **** 		0x38, 0x00,
 225:TP2824/TP2802.c **** 		0x3A, 0x22,
 226:TP2824/TP2802.c **** 		0x3B, 0x05,
 227:TP2824/TP2802.c **** 		0x26, 0x04,
 228:TP2824/TP2802.c **** 		0x4d, 0x07,
 229:TP2824/TP2802.c **** 		0x4e, 0x05,
 230:TP2824/TP2802.c **** 		0xf1, 0x07,
 231:TP2824/TP2802.c **** 		0xff, 0xff};
 232:TP2824/TP2802.c **** 
 233:TP2824/TP2802.c **** tcByte TP2826_MODE_DataSet[5][20] =
 234:TP2824/TP2802.c **** 	{
 235:TP2824/TP2802.c **** 		{0x0c, 0x0d, 0x20, 0x26, 0x2b, 0x2d, 0x2e, 0x30, 0x31, 0x32, 0x33, 0x39, 0x2c, 0x21, 0x22, 0x23, 
 236:TP2824/TP2802.c **** 		{0x03, 0x50, 0x30, 0x05, 0x60, 0x30, 0x70, 0x48, 0xbb, 0x2e, 0x90, 0x1c, 0x0a, 0x84, 0x36, 0x3c, 
 237:TP2824/TP2802.c **** 		{0x13, 0x50, 0x30, 0x05, 0x60, 0x30, 0x70, 0x48, 0xbb, 0x2e, 0x90, 0x18, 0x0a, 0x84, 0x36, 0x3c, 
 238:TP2824/TP2802.c **** 		{0x13, 0x50, 0x40, 0x05, 0x70, 0x68, 0x5e, 0x62, 0xbb, 0x96, 0xc0, 0x04, 0x2a, 0x84, 0x36, 0x3c, 
 239:TP2824/TP2802.c **** 		{0x13, 0x51, 0x48, 0x05, 0x70, 0x60, 0x5e, 0x7a, 0x4a, 0x4d, 0xf0, 0x04, 0x2a, 0x84, 0x37, 0x3f, 
 240:TP2824/TP2802.c **** };
 241:TP2824/TP2802.c **** tcByte TP2824C_MODE_DataSet[5][20] =
 242:TP2824/TP2802.c **** 	{
 243:TP2824/TP2802.c **** 		{0x0c, 0x0d, 0x20, 0x26, 0x2b, 0x2d, 0x2e, 0x30, 0x31, 0x32, 0x33, 0x39, 0x2c, 0x21, 0x22, 0x23, 
 244:TP2824/TP2802.c **** 		{0x03, 0x50, 0x30, 0x05, 0x60, 0x30, 0x70, 0x48, 0xbb, 0x2e, 0x90, 0x1c, 0x0a, 0x84, 0x36, 0x3c, 
 245:TP2824/TP2802.c **** 		{0x13, 0x50, 0x30, 0x05, 0x60, 0x30, 0x70, 0x48, 0xbb, 0x2e, 0x90, 0x18, 0x0a, 0x84, 0x36, 0x3c, 
 246:TP2824/TP2802.c **** 		{0x13, 0x50, 0x40, 0x05, 0x70, 0x68, 0x5e, 0x62, 0xbb, 0x96, 0xc0, 0x04, 0x2a, 0x84, 0x36, 0x3c, 
 247:TP2824/TP2802.c **** 		{0x13, 0x51, 0x48, 0x05, 0x70, 0x60, 0x5e, 0x7a, 0x4a, 0x4d, 0xf0, 0x04, 0x2a, 0x84, 0x37, 0x3f, 
 248:TP2824/TP2802.c **** };
 249:TP2824/TP2802.c **** 
 250:TP2824/TP2802.c **** tcByte TP2826_HDA_DataSet[5][12] =
 251:TP2824/TP2802.c **** 	{
 252:TP2824/TP2802.c **** 		{0x0c, 0x20, 0x2b, 0x2d, 0x2e, 0x30, 0x31, 0x32, 0x33, 0x21, 0x25, 0xff}, // ADDR
 253:TP2824/TP2802.c **** 		{0x03, 0x40, 0x60, 0x48, 0x40, 0x27, 0x72, 0x80, 0x77, 0x46, 0xfe, 0xff}, // 720p30
 254:TP2824/TP2802.c **** 		{0x03, 0x40, 0x60, 0x48, 0x40, 0x27, 0x88, 0x04, 0x23, 0x46, 0xfe, 0xff}, // 720p25
 255:TP2824/TP2802.c **** 		{0x03, 0x38, 0x60, 0x44, 0x40, 0x29, 0x65, 0x78, 0x16, 0x46, 0xfe, 0xff}, // 1080p30
 256:TP2824/TP2802.c **** 		{0x03, 0x3c, 0x60, 0x44, 0x40, 0x29, 0x61, 0x78, 0x16, 0x46, 0xfe, 0xff}, // 1080p25
 257:TP2824/TP2802.c **** };
 258:TP2824/TP2802.c **** tcByte TP2824C_HDA_DataSet[5 + 1][12 + 1] =
 259:TP2824/TP2802.c **** 	{
 260:TP2824/TP2802.c **** 		{0x0c, 0x16, 0x20, 0x2b, 0x2d, 0x2e, 0x30, 0x31, 0x32, 0x33, 0x21, 0x25, 0xff}, // ADDR
 261:TP2824/TP2802.c **** 		{0x03, 0x16, 0x40, 0x60, 0x48, 0x40, 0x27, 0x72, 0x80, 0x77, 0x46, 0xfe, 0xff}, // 720p30
ARM GAS  C:\Users\ryanc.HS\AppData\Local\Temp\ccAQ3CYh.s 			page 6


 262:TP2824/TP2802.c **** 		{0x03, 0x16, 0x40, 0x60, 0x48, 0x40, 0x27, 0x88, 0x04, 0x23, 0x46, 0xfe, 0xff}, // 720p25
 263:TP2824/TP2802.c **** 		{0x03, 0xD3, 0x38, 0x60, 0x44, 0x40, 0x29, 0x65, 0x78, 0x16, 0x46, 0xfe, 0xff}, // 1080p30
 264:TP2824/TP2802.c **** 		{0x03, 0xD3, 0x3c, 0x60, 0x44, 0x40, 0x29, 0x61, 0x78, 0x16, 0x46, 0xfe, 0xff}, // 1080p25
 265:TP2824/TP2802.c **** 		{0x03, 0x00, 0x3c, 0x60, 0x44, 0x40, 0x13, 0xbe, 0x37, 0x16, 0x46, 0xfe, 0xff}, // 720p60  //ryan
 266:TP2824/TP2802.c **** };
 267:TP2824/TP2802.c **** tcByte TP2826_HDC_DataSet[5][20] =
 268:TP2824/TP2802.c **** 	{
 269:TP2824/TP2802.c **** 		{0x0c, 0x15, 0x16, 0x17, 0x18, 0x19, 0x1a, 0x1c, 0x1d, 0x20, 0x2b, 0x2d, 0x2e, 0x30, 0x31, 0x32, 
 270:TP2824/TP2802.c **** 		{0x03, 0x13, 0x08, 0x00, 0x19, 0xd0, 0x25, 0x06, 0x72, 0x30, 0x60, 0x37, 0x40, 0x48, 0x67, 0x6f, 
 271:TP2824/TP2802.c **** 		{0x03, 0x13, 0x0a, 0x00, 0x19, 0xd0, 0x25, 0x06, 0x7a, 0x3a, 0x60, 0x42, 0x40, 0x48, 0x67, 0x6f, 
 272:TP2824/TP2802.c **** 		{0x03, 0x13, 0x60, 0x80, 0x29, 0x38, 0x47, 0x09, 0x60, 0x3c, 0x60, 0x47, 0x40, 0x41, 0x82, 0x27, 
 273:TP2824/TP2802.c **** 		{0x03, 0x13, 0x60, 0x80, 0x29, 0x38, 0x47, 0x09, 0x60, 0x50, 0x60, 0x54, 0x40, 0x41, 0x82, 0x27, 
 274:TP2824/TP2802.c **** };
 275:TP2824/TP2802.c **** tcByte TP2824C_HDC_DataSet[5][20] =
 276:TP2824/TP2802.c **** 	{
 277:TP2824/TP2802.c **** 		{0x0c, 0x15, 0x16, 0x17, 0x18, 0x19, 0x1a, 0x1c, 0x1d, 0x20, 0x2b, 0x2d, 0x2e, 0x30, 0x31, 0x32, 
 278:TP2824/TP2802.c **** 		{0x03, 0x13, 0x08, 0x00, 0x19, 0xd0, 0x25, 0x06, 0x72, 0x30, 0x60, 0x37, 0x40, 0x48, 0x67, 0x6f, 
 279:TP2824/TP2802.c **** 		{0x03, 0x13, 0x0a, 0x00, 0x19, 0xd0, 0x25, 0x06, 0x7a, 0x3a, 0x60, 0x42, 0x40, 0x48, 0x67, 0x6f, 
 280:TP2824/TP2802.c **** 		{0x03, 0x13, 0x60, 0x80, 0x29, 0x38, 0x47, 0x09, 0x60, 0x3c, 0x60, 0x47, 0x40, 0x41, 0x82, 0x27, 
 281:TP2824/TP2802.c **** 		{0x03, 0x13, 0x60, 0x80, 0x29, 0x38, 0x47, 0x09, 0x60, 0x50, 0x60, 0x54, 0x40, 0x41, 0x82, 0x27, 
 282:TP2824/TP2802.c **** };
 283:TP2824/TP2802.c **** tcByte TP2853C_DataSet[] =
 284:TP2824/TP2802.c **** 	{
 285:TP2824/TP2802.c **** 		0x40, 0x04,
 286:TP2824/TP2802.c **** 		0x07, 0xC0,
 287:TP2824/TP2802.c **** 		0x0B, 0xC0,
 288:TP2824/TP2802.c **** 		0x21, 0x84,
 289:TP2824/TP2802.c **** 		0x38, 0x00,
 290:TP2824/TP2802.c **** 		0x3A, 0x32,
 291:TP2824/TP2802.c **** 		0x3B, 0x05,
 292:TP2824/TP2802.c **** 		0x26, 0x04,
 293:TP2824/TP2802.c **** 		0x4d, 0x03,
 294:TP2824/TP2802.c **** 		0x4e, 0x03,
 295:TP2824/TP2802.c **** 		0x4f, 0x01,
 296:TP2824/TP2802.c **** 		0xf5, 0xf0,
 297:TP2824/TP2802.c **** 		0xf1, 0x07, // tp2826c
 298:TP2824/TP2802.c **** 
 299:TP2824/TP2802.c **** 		0xff, 0xff};
 300:TP2824/TP2802.c **** tcByte TP2853C_MODE_DataSet[5][18] =
 301:TP2824/TP2802.c **** 	{
 302:TP2824/TP2802.c **** 		{0x0c, 0x0d, 0x20, 0x26, 0x2b, 0x2d, 0x2e, 0x30, 0x31, 0x32, 0x33, 0x39, 0x2c, 0x21, 0x25, 0x27, 
 303:TP2824/TP2802.c **** 		{0x03, 0x50, 0x30, 0x05, 0x60, 0x30, 0x70, 0x48, 0xbb, 0x2e, 0x90, 0x0c, 0x0a, 0x84, 0xf0, 0x2d, 
 304:TP2824/TP2802.c **** 		{0x13, 0x50, 0x30, 0x05, 0x60, 0x30, 0x70, 0x48, 0xbb, 0x2e, 0x90, 0x08, 0x0a, 0x84, 0xf0, 0x2d, 
 305:TP2824/TP2802.c **** 		{0x13, 0x50, 0x40, 0x05, 0x70, 0x68, 0x5e, 0x62, 0xbb, 0x96, 0xc0, 0x04, 0x2a, 0x84, 0xf0, 0x2d, 
 306:TP2824/TP2802.c **** 		{0x13, 0x51, 0x48, 0x05, 0x70, 0x60, 0x5e, 0x7a, 0x4a, 0x4d, 0xf0, 0x04, 0x2a, 0x84, 0xf0, 0x2d, 
 307:TP2824/TP2802.c **** };
 308:TP2824/TP2802.c **** tcByte TP2853C_HDA_DataSet[5][10] =
 309:TP2824/TP2802.c **** 	{
 310:TP2824/TP2802.c **** 		{0x2b, 0x2d, 0x2e, 0x30, 0x31, 0x32, 0x33, 0x21, 0x25, 0xff}, // ADDR
 311:TP2824/TP2802.c **** 		{0x70, 0x48, 0x5e, 0x27, 0x72, 0x80, 0x77, 0x44, 0xf0, 0xff}, // 720p30
 312:TP2824/TP2802.c **** 		{0x70, 0x48, 0x5e, 0x27, 0x88, 0x04, 0x23, 0x44, 0xf0, 0xff}, // 720p25
 313:TP2824/TP2802.c **** 		{0x58, 0x45, 0x50, 0x29, 0x65, 0x78, 0x16, 0x44, 0xf0, 0xff}, // 1080p30
 314:TP2824/TP2802.c **** 		{0x58, 0x45, 0x40, 0x29, 0x61, 0x78, 0x16, 0x44, 0xf0, 0xff}, // 1080p25
 315:TP2824/TP2802.c **** };
 316:TP2824/TP2802.c **** tcByte TP2853C_HDC_DataSet[5][13] =
 317:TP2824/TP2802.c **** 	{
 318:TP2824/TP2802.c **** 		{0x15, 0x16, 0x20, 0x2b, 0x2d, 0x2e, 0x30, 0x31, 0x32, 0x33, 0x27, 0x28, 0xff}, // ADDR
ARM GAS  C:\Users\ryanc.HS\AppData\Local\Temp\ccAQ3CYh.s 			page 7


 319:TP2824/TP2802.c **** 		{0x13, 0x40, 0x50, 0x60, 0x42, 0x40, 0x48, 0x67, 0x2e, 0x90, 0x5a, 0x04, 0xff}, // 720p30
 320:TP2824/TP2802.c **** 		{0x13, 0x40, 0x50, 0x60, 0x42, 0x40, 0x48, 0x67, 0x2e, 0x90, 0x5a, 0x04, 0xff}, // 720p25
 321:TP2824/TP2802.c **** 		{0x13, 0x20, 0x48, 0x60, 0x45, 0x40, 0x41, 0x83, 0x2e, 0x90, 0x5a, 0x04, 0xff}, // 1080p30
 322:TP2824/TP2802.c **** 		{0x13, 0x84, 0x48, 0x60, 0x45, 0x40, 0x41, 0x83, 0x2e, 0x90, 0x5a, 0x04, 0xff}, // 1080p25
 323:TP2824/TP2802.c **** };
 324:TP2824/TP2802.c **** 
 325:TP2824/TP2802.c **** tcByte TP2834_Audio_DataSet[] =
 326:TP2824/TP2802.c **** 	{
 327:TP2824/TP2802.c **** 		// audio
 328:TP2824/TP2802.c **** 		0x40, 0x40, // audio page
 329:TP2824/TP2802.c **** 		0x00, 0x01, // A1
 330:TP2824/TP2802.c **** 		0x01, 0x02, // A2
 331:TP2824/TP2802.c **** 		0x02, 0x03, // A3
 332:TP2824/TP2802.c **** 		0x03, 0x04, // A4
 333:TP2824/TP2802.c **** 		0x04, 0x11, // AUX
 334:TP2824/TP2802.c **** 		0x17, 0x00,
 335:TP2824/TP2802.c **** 		0x18, 0x10, // 5ch mode
 336:TP2824/TP2802.c **** 		0x19, 0x0f,
 337:TP2824/TP2802.c **** 		0x1A, 0x15, // PB to DAC
 338:TP2824/TP2802.c **** 		0x1b, 0x01, // PB master
 339:TP2824/TP2802.c **** 		0x37, 0x20,
 340:TP2824/TP2802.c **** 
 341:TP2824/TP2802.c **** 		0x1d, 0x08,
 342:TP2824/TP2802.c **** 		0x1d, 0x00,
 343:TP2824/TP2802.c **** 
 344:TP2824/TP2802.c **** 		0x3c, 0x3f,
 345:TP2824/TP2802.c **** 		0x3c, 0x00,
 346:TP2824/TP2802.c **** 
 347:TP2824/TP2802.c **** 		0x3d, 0x01, // ADC reset
 348:TP2824/TP2802.c **** 		0xff, 0xff};
 349:TP2824/TP2802.c **** 
 350:TP2824/TP2802.c **** tcByte TP2834_Audio_DataSetRD[] =
 351:TP2824/TP2802.c **** 	{
 352:TP2824/TP2802.c **** 		// audio
 353:TP2824/TP2802.c **** 		//    0x40, 0x40, //audio page
 354:TP2824/TP2802.c **** 		0x00, 0x01, // A1
 355:TP2824/TP2802.c **** 		0x01, 0x02, // A2
 356:TP2824/TP2802.c **** 		0x02, 0x03, // A3
 357:TP2824/TP2802.c **** 		0x03, 0x04, // A4
 358:TP2824/TP2802.c **** 		0x04, 0x11, // AUX
 359:TP2824/TP2802.c **** 		0x17, 0x00,
 360:TP2824/TP2802.c **** 		0x18, 0x10, // 5ch mode
 361:TP2824/TP2802.c **** 		0x19, 0x0f,
 362:TP2824/TP2802.c **** 		0x1A, 0x15, // PB to DAC
 363:TP2824/TP2802.c **** 		0x1b, 0x01, // PB master
 364:TP2824/TP2802.c **** 		0x37, 0x20,
 365:TP2824/TP2802.c **** 
 366:TP2824/TP2802.c **** 		0x1d, 0x08,
 367:TP2824/TP2802.c **** 		0x1d, 0x00,
 368:TP2824/TP2802.c **** 
 369:TP2824/TP2802.c **** 		0x3c, 0x3f,
 370:TP2824/TP2802.c **** 		0x3c, 0x00,
 371:TP2824/TP2802.c **** 
 372:TP2824/TP2802.c **** 		0x3d, 0x01, // ADC reset
 373:TP2824/TP2802.c **** 		0xff, 0xff};
 374:TP2824/TP2802.c **** 
 375:TP2824/TP2802.c **** tcByte TP2833_DataSet[] =
ARM GAS  C:\Users\ryanc.HS\AppData\Local\Temp\ccAQ3CYh.s 			page 8


 376:TP2824/TP2802.c **** 	{
 377:TP2824/TP2802.c **** 
 378:TP2824/TP2802.c **** 		0x40, 0x04,
 379:TP2824/TP2802.c **** 		0x07, 0xC0,
 380:TP2824/TP2802.c **** 		0x0B, 0xC0,
 381:TP2824/TP2802.c **** 		0x22, 0x36,
 382:TP2824/TP2802.c **** 		0x38, 0x40,
 383:TP2824/TP2802.c **** 		0x26, 0x04,
 384:TP2824/TP2802.c **** 		0x4d, 0x03,
 385:TP2824/TP2802.c **** 		0x4e, 0x03,
 386:TP2824/TP2802.c **** 		0x4f, 0x01,
 387:TP2824/TP2802.c **** 		0xff, 0xff};
 388:TP2824/TP2802.c **** tcByte TP2833_MODE_DataSet[5][14] =
 389:TP2824/TP2802.c **** 	{
 390:TP2824/TP2802.c **** 		{0x0c, 0x0d, 0x20, 0x26, 0x2b, 0x2d, 0x2e, 0x30, 0x31, 0x32, 0x33, 0x39, 0x18, 0xff},
 391:TP2824/TP2802.c **** 		{0x03, 0x50, 0x30, 0x05, 0x58, 0x30, 0x70, 0x48, 0xbb, 0x2e, 0x90, 0x0c, 0x12, 0xff},
 392:TP2824/TP2802.c **** 		{0x13, 0x50, 0x30, 0x05, 0x58, 0x30, 0x70, 0x48, 0xbb, 0x2e, 0x90, 0x08, 0x12, 0xff},
 393:TP2824/TP2802.c **** 		{0x13, 0x50, 0x40, 0x05, 0x70, 0x68, 0x5e, 0x62, 0xbb, 0x96, 0xc0, 0x04, 0x11, 0xff},
 394:TP2824/TP2802.c **** 		{0x13, 0x51, 0x48, 0x05, 0x70, 0x60, 0x5e, 0x7a, 0x4a, 0x4d, 0xf0, 0x04, 0x11, 0xff}};
 395:TP2824/TP2802.c **** tcByte TP2833_HDA_DataSet[5][8] =
 396:TP2824/TP2802.c **** 	{
 397:TP2824/TP2802.c **** 		{0x2b, 0x2d, 0x2e, 0x30, 0x31, 0x32, 0x33, 0xff}, // ADDR
 398:TP2824/TP2802.c **** 		{0x70, 0x48, 0x5e, 0x27, 0x72, 0x80, 0x77, 0xff}, // 720p30
 399:TP2824/TP2802.c **** 		{0x70, 0x48, 0x5e, 0x27, 0x88, 0x04, 0x23, 0xff}, // 720p25
 400:TP2824/TP2802.c **** 		{0x58, 0x45, 0x50, 0x29, 0x65, 0x78, 0x16, 0xff}, // 1080p30
 401:TP2824/TP2802.c **** 		{0x58, 0x45, 0x40, 0x29, 0x61, 0x78, 0x16, 0xff}, // 1080p25
 402:TP2824/TP2802.c **** };
 403:TP2824/TP2802.c **** 
 404:TP2824/TP2802.c **** tcByte TP2834_DataSet[] =
 405:TP2824/TP2802.c **** 	{
 406:TP2824/TP2802.c **** 
 407:TP2824/TP2802.c **** 		// video
 408:TP2824/TP2802.c **** 		0x40, 0x04,
 409:TP2824/TP2802.c **** 		0x07, 0xc0,
 410:TP2824/TP2802.c **** 		0x0b, 0xc0,
 411:TP2824/TP2802.c **** 		0x3a, 0x70,
 412:TP2824/TP2802.c **** 		0x26, 0x01,
 413:TP2824/TP2802.c **** 
 414:TP2824/TP2802.c **** 		0x4d, 0x0f,
 415:TP2824/TP2802.c **** 		0x4e, 0x0f,
 416:TP2824/TP2802.c **** 
 417:TP2824/TP2802.c **** 		0xff, 0xff};
 418:TP2824/TP2802.c **** tcByte TP2834_MODE_DataSet[5][13] =
 419:TP2824/TP2802.c **** 	{
 420:TP2824/TP2802.c **** 		{0x0c, 0x0d, 0x20, 0x26, 0x2b, 0x2d, 0x2e, 0x30, 0x31, 0x32, 0x33, 0x39, 0xff},
 421:TP2824/TP2802.c **** 		{0x03, 0x10, 0x60, 0x02, 0x58, 0x30, 0x70, 0x48, 0xbb, 0x2e, 0x90, 0x8c, 0xff},
 422:TP2824/TP2802.c **** 		{0x03, 0x10, 0x60, 0x02, 0x58, 0x30, 0x70, 0x48, 0xbb, 0x2e, 0x90, 0x88, 0xff},
 423:TP2824/TP2802.c **** 		{0x43, 0x10, 0xa0, 0x12, 0x70, 0x68, 0x5e, 0x62, 0xbb, 0x96, 0xc0, 0x84, 0xff},
 424:TP2824/TP2802.c **** 		{0x43, 0x11, 0xb0, 0x02, 0x70, 0x60, 0x5e, 0x7a, 0x4a, 0x4d, 0xf0, 0x84, 0xff}};
 425:TP2824/TP2802.c **** 
 426:TP2824/TP2802.c **** //////////////////////////////////////////////////////
 427:TP2824/TP2802.c **** ////
 428:TP2824/TP2802.c **** /////////////////////////////////////////////////////
 429:TP2824/TP2802.c **** 
 430:TP2824/TP2802.c **** tcByte TP2823_DataSet[] =
 431:TP2824/TP2802.c **** 	{
 432:TP2824/TP2802.c **** 
ARM GAS  C:\Users\ryanc.HS\AppData\Local\Temp\ccAQ3CYh.s 			page 9


 433:TP2824/TP2802.c **** 		// video
 434:TP2824/TP2802.c **** 		0x40, 0x04,
 435:TP2824/TP2802.c **** 		0x0b, 0x60,
 436:TP2824/TP2802.c **** 		0x22, 0x34,
 437:TP2824/TP2802.c **** 		0x23, 0x44,
 438:TP2824/TP2802.c **** 		0x26, 0x01,
 439:TP2824/TP2802.c **** 		0x38, 0x40,
 440:TP2824/TP2802.c **** 		0x3f, 0x08,
 441:TP2824/TP2802.c **** 
 442:TP2824/TP2802.c **** 		0x4d, 0x03,
 443:TP2824/TP2802.c **** 		0x4e, 0x33,
 444:TP2824/TP2802.c **** 		0xfa, 0x00,
 445:TP2824/TP2802.c **** 
 446:TP2824/TP2802.c **** 		0xff, 0xff};
 447:TP2824/TP2802.c **** tcByte TP2823_MODE_DataSet[5][13] =
 448:TP2824/TP2802.c **** 	{
 449:TP2824/TP2802.c **** 		{0x0c, 0x0d, 0x20, 0x26, 0x2b, 0x2d, 0x2e, 0x30, 0x31, 0x32, 0x33, 0x39, 0xff},
 450:TP2824/TP2802.c **** 		{0x43, 0x10, 0x60, 0x02, 0x58, 0x30, 0x70, 0x48, 0xbb, 0x2e, 0x90, 0x30, 0xff},
 451:TP2824/TP2802.c **** 		{0x53, 0x10, 0x60, 0x02, 0x58, 0x30, 0x70, 0x48, 0xbb, 0x2e, 0x90, 0x20, 0xff},
 452:TP2824/TP2802.c **** 		{0x53, 0x10, 0xa0, 0x12, 0x70, 0x68, 0x5e, 0x62, 0xbb, 0x96, 0xc0, 0x10, 0xff},
 453:TP2824/TP2802.c **** 		{0x53, 0x11, 0xb0, 0x02, 0x70, 0x60, 0x5e, 0x7a, 0x4a, 0x4d, 0xf0, 0x10, 0xff}};
 454:TP2824/TP2802.c **** tcByte TP2822_DataSet[] =
 455:TP2824/TP2802.c **** 	{
 456:TP2824/TP2802.c **** 
 457:TP2824/TP2802.c **** 		0x40, 0x04,
 458:TP2824/TP2802.c **** 		0x39, 0x00,
 459:TP2824/TP2802.c **** 		0x3d, 0x08,
 460:TP2824/TP2802.c **** 		0x3a, 0x01,
 461:TP2824/TP2802.c **** 
 462:TP2824/TP2802.c **** 		0x30, 0x48,
 463:TP2824/TP2802.c **** 		0x31, 0xbb,
 464:TP2824/TP2802.c **** 		0x32, 0x2e,
 465:TP2824/TP2802.c **** 		0x33, 0x90,
 466:TP2824/TP2802.c **** 
 467:TP2824/TP2802.c **** 		0x4d, 0x03,
 468:TP2824/TP2802.c **** 		0x4e, 0x33,
 469:TP2824/TP2802.c **** 		0x3d, 0x00,
 470:TP2824/TP2802.c **** 
 471:TP2824/TP2802.c **** 		0xff, 0xff};
 472:TP2824/TP2802.c **** 
 473:TP2824/TP2802.c **** tcByte TP2802D_DataSet[] =
 474:TP2824/TP2802.c **** 	{
 475:TP2824/TP2802.c **** 		0x40, 0x04,
 476:TP2824/TP2802.c **** 		//		0x07, 0xc0,
 477:TP2824/TP2802.c **** 		//		0x0b, 0xc0,
 478:TP2824/TP2802.c **** 		0x2b, 0x44,
 479:TP2824/TP2802.c **** 		0x23, 0x50,
 480:TP2824/TP2802.c **** 		0x39, 0x42,
 481:TP2824/TP2802.c **** 		0x3a, 0x01,
 482:TP2824/TP2802.c **** 
 483:TP2824/TP2802.c **** 		0x30, 0x48,
 484:TP2824/TP2802.c **** 		0x31, 0xbb,
 485:TP2824/TP2802.c **** 		0x32, 0x2e,
 486:TP2824/TP2802.c **** 		0x33, 0x90,
 487:TP2824/TP2802.c **** 
 488:TP2824/TP2802.c **** 		0x4d, 0x0f,
 489:TP2824/TP2802.c **** 		0x4e, 0xff,
ARM GAS  C:\Users\ryanc.HS\AppData\Local\Temp\ccAQ3CYh.s 			page 10


 490:TP2824/TP2802.c **** 
 491:TP2824/TP2802.c **** 		// now TP2801A just support 2 lines, to disable line3&4, else IRQ is in trouble.
 492:TP2824/TP2802.c **** 		0x40, 0x01,
 493:TP2824/TP2802.c **** 		0x50, 0x00,
 494:TP2824/TP2802.c **** 		0x51, 0x00,
 495:TP2824/TP2802.c **** 		0x52, 0x00,
 496:TP2824/TP2802.c **** 		0x7F, 0x00,
 497:TP2824/TP2802.c **** 		0x80, 0x00,
 498:TP2824/TP2802.c **** 		0x81, 0x00,
 499:TP2824/TP2802.c **** 
 500:TP2824/TP2802.c **** 		// 0x50~0xb2 need bank switch
 501:TP2824/TP2802.c **** 		0x40, 0x00,
 502:TP2824/TP2802.c **** 		// TX total 34bit, valid load 32bit
 503:TP2824/TP2802.c **** 		0x50, 0x00,
 504:TP2824/TP2802.c **** 		0x51, 0x0b,
 505:TP2824/TP2802.c **** 		0x52, 0x0c,
 506:TP2824/TP2802.c **** 		0x53, 0x19,
 507:TP2824/TP2802.c **** 		0x54, 0x78,
 508:TP2824/TP2802.c **** 		0x55, 0x21,
 509:TP2824/TP2802.c **** 		0x7e, 0x0f, //
 510:TP2824/TP2802.c **** 
 511:TP2824/TP2802.c **** 		// RX total 40bit, valid load 39bit
 512:TP2824/TP2802.c **** 		0x7F, 0x00,
 513:TP2824/TP2802.c **** 		0x80, 0x07,
 514:TP2824/TP2802.c **** 		0x81, 0x08,
 515:TP2824/TP2802.c **** 		0x82, 0x04,
 516:TP2824/TP2802.c **** 		0x83, 0x00,
 517:TP2824/TP2802.c **** 		0x84, 0x00,
 518:TP2824/TP2802.c **** 		0x85, 0x60,
 519:TP2824/TP2802.c **** 		0x86, 0x10,
 520:TP2824/TP2802.c **** 		0x87, 0x06,
 521:TP2824/TP2802.c **** 		0x88, 0xBE,
 522:TP2824/TP2802.c **** 		0x89, 0x39,
 523:TP2824/TP2802.c **** 		0x8A, 0x27, //
 524:TP2824/TP2802.c **** 		0xB9, 0x0F, // RX channel enable
 525:TP2824/TP2802.c **** 		0xff, 0xff};
 526:TP2824/TP2802.c **** 
 527:TP2824/TP2802.c **** /*
 528:TP2824/TP2802.c **** //total 34bit, valid load 32bit
 529:TP2824/TP2802.c **** tcByte TP2822_PTZ_DataSet[] = {
 530:TP2824/TP2802.c **** 
 531:TP2824/TP2802.c **** 		//PTZ
 532:TP2824/TP2802.c **** 		0x40, 0x10,
 533:TP2824/TP2802.c **** 		0xc8, 0x21,
 534:TP2824/TP2802.c **** 		0xe0, 0x21,
 535:TP2824/TP2802.c **** 		0x40, 0x00,
 536:TP2824/TP2802.c **** 		0xc8, 0x21,
 537:TP2824/TP2802.c **** 		0xe0, 0x21,
 538:TP2824/TP2802.c **** 		0x7e, 0x0f,
 539:TP2824/TP2802.c **** 		0xb9, 0x0f,
 540:TP2824/TP2802.c **** 
 541:TP2824/TP2802.c **** 	0xff, 0xff
 542:TP2824/TP2802.c **** };
 543:TP2824/TP2802.c **** */
 544:TP2824/TP2802.c **** 
 545:TP2824/TP2802.c **** #if 1
 546:TP2824/TP2802.c **** tcByte TP2824C_TVI_FHD_PTZ_DataSet[] = { // 1080P30/25 TVI
ARM GAS  C:\Users\ryanc.HS\AppData\Local\Temp\ccAQ3CYh.s 			page 11


 547:TP2824/TP2802.c **** 
 548:TP2824/TP2802.c **** 	// PTZ COC
 549:TP2824/TP2802.c **** 	// TX
 550:TP2824/TP2802.c **** 	0xc0, 0x00,
 551:TP2824/TP2802.c **** 	0xc2, 0x0B,
 552:TP2824/TP2802.c **** 	0xc3, 0x0C,
 553:TP2824/TP2802.c **** 	0xc1, 0x00,
 554:TP2824/TP2802.c **** 	0xc4, 0x00,
 555:TP2824/TP2802.c **** 	0xc5, 0x00,
 556:TP2824/TP2802.c **** 	0xc6, 0x33,
 557:TP2824/TP2802.c **** 	0xc7, 0x78,
 558:TP2824/TP2802.c **** 	0xc8, 0x21,
 559:TP2824/TP2802.c **** 	0x6f, 0x40,
 560:TP2824/TP2802.c **** 	0x70, 0x00,
 561:TP2824/TP2802.c **** 
 562:TP2824/TP2802.c **** 	0x55, 0x00,
 563:TP2824/TP2802.c **** 	0x56, 0x02,
 564:TP2824/TP2802.c **** 	0x57, 0xB5,
 565:TP2824/TP2802.c **** 	0x58, 0x01,
 566:TP2824/TP2802.c **** 	0x59, 0x17,
 567:TP2824/TP2802.c **** 	0x5a, 0x01,
 568:TP2824/TP2802.c **** 	0x5b, 0x00,
 569:TP2824/TP2802.c **** 	0x5c, 0x02,
 570:TP2824/TP2802.c **** 	0x5d, 0x00,
 571:TP2824/TP2802.c **** 	0x5e, 0x00,
 572:TP2824/TP2802.c **** 	0x5f, 0x00,
 573:TP2824/TP2802.c **** 	0x60, 0xCE,
 574:TP2824/TP2802.c **** 
 575:TP2824/TP2802.c **** 	// RX
 576:TP2824/TP2802.c **** 	0xcb, 0x07,
 577:TP2824/TP2802.c **** 	0xcc, 0x08,
 578:TP2824/TP2802.c **** 	0xcd, 0x00,
 579:TP2824/TP2802.c **** 	0xce, 0x00,
 580:TP2824/TP2802.c **** 	0xcf, 0x04,
 581:TP2824/TP2802.c **** 	0xd0, 0x00,
 582:TP2824/TP2802.c **** 	0xd1, 0x00,
 583:TP2824/TP2802.c **** 	0xd2, 0x60,
 584:TP2824/TP2802.c **** 	0xd3, 0x10,
 585:TP2824/TP2802.c **** 	0xd4, 0x06,
 586:TP2824/TP2802.c **** 	0xd5, 0xbe,
 587:TP2824/TP2802.c **** 	0xd6, 0x39,
 588:TP2824/TP2802.c **** 	0xd7, 0x21,
 589:TP2824/TP2802.c **** 	0xa7, 0x00,
 590:TP2824/TP2802.c **** 	0xff, 0xff};
 591:TP2824/TP2802.c **** 
 592:TP2824/TP2802.c **** tcByte TP2824C_AHD_FHD_PTZ_DataSet[] = { // 1080P30/25 AHD
 593:TP2824/TP2802.c **** 
 594:TP2824/TP2802.c **** 	// PTZ COC
 595:TP2824/TP2802.c **** 	// TX
 596:TP2824/TP2802.c **** 	0xc0, 0x00,
 597:TP2824/TP2802.c **** 	0xc2, 0x0E,
 598:TP2824/TP2802.c **** 	0xc3, 0x0F,
 599:TP2824/TP2802.c **** 	0xc1, 0x00,
 600:TP2824/TP2802.c **** 	0xc4, 0x10,
 601:TP2824/TP2802.c **** 	0xc5, 0x11,
 602:TP2824/TP2802.c **** 	0xc6, 0x24,
 603:TP2824/TP2802.c **** 	0xc7, 0x15,
ARM GAS  C:\Users\ryanc.HS\AppData\Local\Temp\ccAQ3CYh.s 			page 12


 604:TP2824/TP2802.c **** 	0xc8, 0x97,
 605:TP2824/TP2802.c **** 	0x6f, 0x44,
 606:TP2824/TP2802.c **** 	0x70, 0x00,
 607:TP2824/TP2802.c **** 
 608:TP2824/TP2802.c **** 	0x55, 0x00,
 609:TP2824/TP2802.c **** 	0x56, 0x00,
 610:TP2824/TP2802.c **** 	0x57, 0x00,
 611:TP2824/TP2802.c **** 	0x58, 0x00,
 612:TP2824/TP2802.c **** 	0x59, 0x00,
 613:TP2824/TP2802.c **** 	0x5a, 0x00,
 614:TP2824/TP2802.c **** 	0x5b, 0x00,
 615:TP2824/TP2802.c **** 	0x5c, 0x00,
 616:TP2824/TP2802.c **** 	0x5d, 0x00,
 617:TP2824/TP2802.c **** 	0x5e, 0x00,
 618:TP2824/TP2802.c **** 	0x5f, 0x00,
 619:TP2824/TP2802.c **** 	0x60, 0x00,
 620:TP2824/TP2802.c **** 	0x62, 0x00,
 621:TP2824/TP2802.c **** 	0x63, 0x00,
 622:TP2824/TP2802.c **** 	0x64, 0x00,
 623:TP2824/TP2802.c **** 	0x65, 0x00,
 624:TP2824/TP2802.c **** 	0x66, 0x00,
 625:TP2824/TP2802.c **** 	0x68, 0x00,
 626:TP2824/TP2802.c **** 	0x69, 0x00,
 627:TP2824/TP2802.c **** 	0x6a, 0x00,
 628:TP2824/TP2802.c **** 	0x6b, 0x00,
 629:TP2824/TP2802.c **** 	0x6c, 0x00,
 630:TP2824/TP2802.c **** 
 631:TP2824/TP2802.c **** 	// RX
 632:TP2824/TP2802.c **** 	0xcb, 0x07,
 633:TP2824/TP2802.c **** 	0xcc, 0x08,
 634:TP2824/TP2802.c **** 	0xcd, 0x00,
 635:TP2824/TP2802.c **** 	0xce, 0x00,
 636:TP2824/TP2802.c **** 	0xcf, 0x04,
 637:TP2824/TP2802.c **** 	0xd0, 0x00,
 638:TP2824/TP2802.c **** 	0xd1, 0x00,
 639:TP2824/TP2802.c **** 	0xd2, 0x60,
 640:TP2824/TP2802.c **** 	0xd3, 0x10,
 641:TP2824/TP2802.c **** 	0xd4, 0x06,
 642:TP2824/TP2802.c **** 	0xd5, 0xbe,
 643:TP2824/TP2802.c **** 	0xd6, 0x39,
 644:TP2824/TP2802.c **** 	0xd7, 0x27,
 645:TP2824/TP2802.c **** 
 646:TP2824/TP2802.c **** 	0xa7, 0x24,
 647:TP2824/TP2802.c **** 
 648:TP2824/TP2802.c **** 	0xff, 0xff};
 649:TP2824/TP2802.c **** 
 650:TP2824/TP2802.c **** tcByte TP2824C_CVBS_PTZ_DataSet[] = { // CVBS NTSC/PAL
 651:TP2824/TP2802.c **** 
 652:TP2824/TP2802.c **** 	// PTZ COC
 653:TP2824/TP2802.c **** 	// TX
 654:TP2824/TP2802.c **** 	0xc0, 0x00,
 655:TP2824/TP2802.c **** 	0xc2, 0x0F,
 656:TP2824/TP2802.c **** 	0xc3, 0x10,
 657:TP2824/TP2802.c **** 	0xc1, 0x00,
 658:TP2824/TP2802.c **** 	0xc4, 0x00,
 659:TP2824/TP2802.c **** 	0xc5, 0x00,
 660:TP2824/TP2802.c **** 	0xc6, 0x49,
ARM GAS  C:\Users\ryanc.HS\AppData\Local\Temp\ccAQ3CYh.s 			page 13


 661:TP2824/TP2802.c **** 	0xc7, 0x14,
 662:TP2824/TP2802.c **** 	0xc8, 0xAF,
 663:TP2824/TP2802.c **** 	0x6f, 0x60,
 664:TP2824/TP2802.c **** 	0x70, 0x00,
 665:TP2824/TP2802.c **** 
 666:TP2824/TP2802.c **** 	0x55, 0x00,
 667:TP2824/TP2802.c **** 	0x56, 0x00,
 668:TP2824/TP2802.c **** 	0x57, 0x00,
 669:TP2824/TP2802.c **** 	0x58, 0x00,
 670:TP2824/TP2802.c **** 	0x59, 0x00,
 671:TP2824/TP2802.c **** 	0x5a, 0x00,
 672:TP2824/TP2802.c **** 	0x5b, 0x00,
 673:TP2824/TP2802.c **** 	0x5c, 0x00,
 674:TP2824/TP2802.c **** 	0x5d, 0x00,
 675:TP2824/TP2802.c **** 	0x5e, 0x00,
 676:TP2824/TP2802.c **** 	0x5f, 0x00,
 677:TP2824/TP2802.c **** 	0x60, 0x00,
 678:TP2824/TP2802.c **** 	0x62, 0x00,
 679:TP2824/TP2802.c **** 	0x63, 0x00,
 680:TP2824/TP2802.c **** 	0x64, 0x00,
 681:TP2824/TP2802.c **** 	0x65, 0x00,
 682:TP2824/TP2802.c **** 	0x66, 0x00,
 683:TP2824/TP2802.c **** 	0x68, 0x00,
 684:TP2824/TP2802.c **** 	0x69, 0x00,
 685:TP2824/TP2802.c **** 	0x6a, 0x00,
 686:TP2824/TP2802.c **** 	0x6b, 0x00,
 687:TP2824/TP2802.c **** 	0x6c, 0x00,
 688:TP2824/TP2802.c **** 
 689:TP2824/TP2802.c **** 	0xff, 0xff};
 690:TP2824/TP2802.c **** 
 691:TP2824/TP2802.c **** tcByte TP2824C_CVIHD_PTZ_DataSet[] = { // CVI CHD
 692:TP2824/TP2802.c **** 
 693:TP2824/TP2802.c **** 	// PTZ COC
 694:TP2824/TP2802.c **** 	// TX
 695:TP2824/TP2802.c **** 	0x70, 0x1D,
 696:TP2824/TP2802.c **** 	0xc0, 0x00,
 697:TP2824/TP2802.c **** 	0xc2, 0x10,
 698:TP2824/TP2802.c **** 	0xc3, 0x00,
 699:TP2824/TP2802.c **** 	0xc1, 0x00,
 700:TP2824/TP2802.c **** 	0xc4, 0x00,
 701:TP2824/TP2802.c **** 	0xc5, 0x00,
 702:TP2824/TP2802.c **** 	0xc6, 0x15,
 703:TP2824/TP2802.c **** 	0xc7, 0x5B,
 704:TP2824/TP2802.c **** 	0xc8, 0xa4,
 705:TP2824/TP2802.c **** 	0x6f, 0x48,
 706:TP2824/TP2802.c **** 
 707:TP2824/TP2802.c **** 	0x55, 0x00,
 708:TP2824/TP2802.c **** 	0x56, 0x00,
 709:TP2824/TP2802.c **** 	0x57, 0x00,
 710:TP2824/TP2802.c **** 	0x58, 0x00,
 711:TP2824/TP2802.c **** 	0x59, 0x00,
 712:TP2824/TP2802.c **** 	0x5a, 0x00,
 713:TP2824/TP2802.c **** 	0x5b, 0x00,
 714:TP2824/TP2802.c **** 	0x5c, 0x00,
 715:TP2824/TP2802.c **** 	0x5d, 0x00,
 716:TP2824/TP2802.c **** 	0x5e, 0x00,
 717:TP2824/TP2802.c **** 	0x5f, 0x00,
ARM GAS  C:\Users\ryanc.HS\AppData\Local\Temp\ccAQ3CYh.s 			page 14


 718:TP2824/TP2802.c **** 	0x60, 0x00,
 719:TP2824/TP2802.c **** 	0x62, 0x00,
 720:TP2824/TP2802.c **** 	0x63, 0x00,
 721:TP2824/TP2802.c **** 	0x64, 0x00,
 722:TP2824/TP2802.c **** 	0x65, 0x00,
 723:TP2824/TP2802.c **** 	0x66, 0x00,
 724:TP2824/TP2802.c **** 	0x68, 0x00,
 725:TP2824/TP2802.c **** 	0x69, 0x00,
 726:TP2824/TP2802.c **** 	0x6a, 0x00,
 727:TP2824/TP2802.c **** 	0x6b, 0x00,
 728:TP2824/TP2802.c **** 	0x6c, 0x00,
 729:TP2824/TP2802.c **** 
 730:TP2824/TP2802.c **** 	0xff, 0xff};
 731:TP2824/TP2802.c **** 
 732:TP2824/TP2802.c **** #else
 733:TP2824/TP2802.c **** tcByte TP2824C_TVI_FHD_PTZ_DataSet[] = { // 1080P30/25 TVI
 734:TP2824/TP2802.c **** 
 735:TP2824/TP2802.c **** 	// PTZ COC
 736:TP2824/TP2802.c **** 	// TX
 737:TP2824/TP2802.c **** 	0xc0, 0x00, // TXLINE2  / TXLINE1
 738:TP2824/TP2802.c **** 	0xc2, 0x0B, // TXLINE1
 739:TP2824/TP2802.c **** 	0xc3, 0x0C, // TXLINE2
 740:TP2824/TP2802.c **** 	0xc1, 0x00, // TXLINE4  / TXLINE3
 741:TP2824/TP2802.c **** 	0xc4, 0x00, // TXLINE3
 742:TP2824/TP2802.c **** 	0xc5, 0x00, // TXLINE4
 743:TP2824/TP2802.c **** 	0xc6, 0x33, // TXBITCKNUM  0x19  0x1F  //0x19 for 1080P  ;  0x33 for 720P   // TVI 720P ptz 202005
 744:TP2824/TP2802.c **** 	0xc7, 0x78, // TXHST
 745:TP2824/TP2802.c **** 	0xc8, 0x21, // TXBITNUM  //0x21  0x27
 746:TP2824/TP2802.c **** 	0x6f, 0x40, // TXn pin enable
 747:TP2824/TP2802.c **** 	0x70, 0x00, // TXLMD[3]=0 / TXLNUM[2:0]=0
 748:TP2824/TP2802.c **** 
 749:TP2824/TP2802.c **** 	// PRESET 1
 750:TP2824/TP2802.c **** 	// TXLINE1DATA
 751:TP2824/TP2802.c **** 	0x55, 0x00,
 752:TP2824/TP2802.c **** 	0x56, 0x02,
 753:TP2824/TP2802.c **** 	0x57, 0xB5,
 754:TP2824/TP2802.c **** 	0x58, 0x01,
 755:TP2824/TP2802.c **** 	0x59, 0x17,
 756:TP2824/TP2802.c **** 	0x5a, 0x01,
 757:TP2824/TP2802.c **** 	// TXLINE2DATA
 758:TP2824/TP2802.c **** 	0x5b, 0x00,
 759:TP2824/TP2802.c **** 	0x5c, 0x02,
 760:TP2824/TP2802.c **** 	0x5d, 0x00,
 761:TP2824/TP2802.c **** 	0x5e, 0x00,
 762:TP2824/TP2802.c **** 	0x5f, 0x00,
 763:TP2824/TP2802.c **** 	0x60, 0xCE,
 764:TP2824/TP2802.c **** 
 765:TP2824/TP2802.c **** 	// RX
 766:TP2824/TP2802.c **** 	0xcb, 0x07, // RXLINE1
 767:TP2824/TP2802.c **** 	0xcc, 0x08, // RXLINE2
 768:TP2824/TP2802.c **** 	0xcd, 0x00, // 0x09,		//RXLINE3
 769:TP2824/TP2802.c **** 	0xce, 0x00, // 0x0a,		//RXLINE4
 770:TP2824/TP2802.c **** 	0xcf, 0x04, // RXFREQ
 771:TP2824/TP2802.c **** 	0xd0, 0x00, // RXFREQ
 772:TP2824/TP2802.c **** 	0xd1, 0x00, // RXFREQ
 773:TP2824/TP2802.c **** 	0xd2, 0x60, // RXTHLEVEL
 774:TP2824/TP2802.c **** 	0xd3, 0x10, // RXHINUM
ARM GAS  C:\Users\ryanc.HS\AppData\Local\Temp\ccAQ3CYh.s 			page 15


 775:TP2824/TP2802.c **** 	0xd4, 0x06, // RXHST / RXHEND
 776:TP2824/TP2802.c **** 	0xd5, 0xbe, // RXHST
 777:TP2824/TP2802.c **** 	0xd6, 0x39, // RXHEND
 778:TP2824/TP2802.c **** 	0xd7, 0x21, // 0x27,		//RXBITNUM
 779:TP2824/TP2802.c **** 	0xa7, 0x00, //
 780:TP2824/TP2802.c **** 	0xff, 0xff};
 781:TP2824/TP2802.c **** 
 782:TP2824/TP2802.c **** tcByte TP2824C_AHD_FHD_PTZ_DataSet[] = { // 1080P30/25 AHD
 783:TP2824/TP2802.c **** 
 784:TP2824/TP2802.c **** 	// PTZ COC
 785:TP2824/TP2802.c **** 	// TX
 786:TP2824/TP2802.c **** 	0xc0, 0x00, // TXLINE2  / TXLINE1
 787:TP2824/TP2802.c **** 	0xc2, 0x0E, // TXLINE1
 788:TP2824/TP2802.c **** 	0xc3, 0x0F, // TXLINE2
 789:TP2824/TP2802.c **** 	0xc1, 0x00, // TXLINE4  / TXLINE3
 790:TP2824/TP2802.c **** 	0xc4, 0x10, // TXLINE3
 791:TP2824/TP2802.c **** 	0xc5, 0x11, // TXLINE4
 792:TP2824/TP2802.c **** 	0xc6, 0x24, // TXBITCKNUM
 793:TP2824/TP2802.c **** 	0xc7, 0x15, // TXHST[7:0]		//TXHST=0x215
 794:TP2824/TP2802.c **** 	0xc8, 0x97, // TXHST[9:8] / TXBITNUM:0x17
 795:TP2824/TP2802.c **** 	0x6f, 0x44, // TXn pin enable / TXACP
 796:TP2824/TP2802.c **** 	0x70, 0x00, // TXLMD[3]=0 / TXLNUM[2:0]=0
 797:TP2824/TP2802.c **** 
 798:TP2824/TP2802.c **** 	// TXLINE1DATA
 799:TP2824/TP2802.c **** 	0x55, 0x00,
 800:TP2824/TP2802.c **** 	0x56, 0x00,
 801:TP2824/TP2802.c **** 	0x57, 0x00,
 802:TP2824/TP2802.c **** 	0x58, 0x00,
 803:TP2824/TP2802.c **** 	0x59, 0x00,
 804:TP2824/TP2802.c **** 	0x5a, 0x00,
 805:TP2824/TP2802.c **** 	// TXLINE2DATA
 806:TP2824/TP2802.c **** 	0x5b, 0x00,
 807:TP2824/TP2802.c **** 	0x5c, 0x00,
 808:TP2824/TP2802.c **** 	0x5d, 0x00,
 809:TP2824/TP2802.c **** 	0x5e, 0x00,
 810:TP2824/TP2802.c **** 	0x5f, 0x00,
 811:TP2824/TP2802.c **** 	0x60, 0x00,
 812:TP2824/TP2802.c **** 	// TXLINE3DATA
 813:TP2824/TP2802.c **** 	0x62, 0x00,
 814:TP2824/TP2802.c **** 	0x63, 0x00,
 815:TP2824/TP2802.c **** 	0x64, 0x00,
 816:TP2824/TP2802.c **** 	0x65, 0x00,
 817:TP2824/TP2802.c **** 	0x66, 0x00,
 818:TP2824/TP2802.c **** 	// TXLINE4DATA
 819:TP2824/TP2802.c **** 	0x68, 0x00,
 820:TP2824/TP2802.c **** 	0x69, 0x00,
 821:TP2824/TP2802.c **** 	0x6a, 0x00,
 822:TP2824/TP2802.c **** 	0x6b, 0x00,
 823:TP2824/TP2802.c **** 	0x6c, 0x00,
 824:TP2824/TP2802.c **** 
 825:TP2824/TP2802.c **** 	// RX
 826:TP2824/TP2802.c **** 	0xcb, 0x07, // RXLINE1
 827:TP2824/TP2802.c **** 	0xcc, 0x08, // RXLINE2
 828:TP2824/TP2802.c **** 	0xcd, 0x00, // 0x09,		//RXLINE3
 829:TP2824/TP2802.c **** 	0xce, 0x00, // 0x0a,		//RXLINE4
 830:TP2824/TP2802.c **** 	0xcf, 0x04, // RXFREQ
 831:TP2824/TP2802.c **** 	0xd0, 0x00, // RXFREQ
ARM GAS  C:\Users\ryanc.HS\AppData\Local\Temp\ccAQ3CYh.s 			page 16


 832:TP2824/TP2802.c **** 	0xd1, 0x00, // RXFREQ
 833:TP2824/TP2802.c **** 	0xd2, 0x60, // RXTHLEVEL
 834:TP2824/TP2802.c **** 	0xd3, 0x10, // RXHINUM
 835:TP2824/TP2802.c **** 	0xd4, 0x06, // RXHST / RXHEND
 836:TP2824/TP2802.c **** 	0xd5, 0xbe, // RXHST
 837:TP2824/TP2802.c **** 	0xd6, 0x39, // RXHEND
 838:TP2824/TP2802.c **** 	0xd7, 0x27, // RXBITNUM
 839:TP2824/TP2802.c **** 
 840:TP2824/TP2802.c **** 	0xa7, 0x24, // RXPWM / RXACP
 841:TP2824/TP2802.c **** 
 842:TP2824/TP2802.c **** 	0xff, 0xff};
 843:TP2824/TP2802.c **** 
 844:TP2824/TP2802.c **** tcByte TP2824C_CVBS_PTZ_DataSet[] = { // CVBS NTSC/PAL
 845:TP2824/TP2802.c **** 
 846:TP2824/TP2802.c **** 	// PTZ COC
 847:TP2824/TP2802.c **** 	// TX
 848:TP2824/TP2802.c **** 	0xc0, 0x00, // TXLINE2  / TXLINE1
 849:TP2824/TP2802.c **** 	0xc2, 0x0F, // TXLINE1		//line18
 850:TP2824/TP2802.c **** 	0xc3, 0x10, // TXLINE2		//line19
 851:TP2824/TP2802.c **** 	0xc1, 0x00, // TXLINE4  / TXLINE3
 852:TP2824/TP2802.c **** 	0xc4, 0x00, // TXLINE3
 853:TP2824/TP2802.c **** 	0xc5, 0x00, // TXLINE4
 854:TP2824/TP2802.c **** 	0xc6, 0x49, // TXBITCKNUM
 855:TP2824/TP2802.c **** 	0xc7, 0x14, // TXHST[7:0]		//TXHST=0x214
 856:TP2824/TP2802.c **** 	0xc8, 0xAF, // TXHST[9:8] / TXBITNUM:0x2F
 857:TP2824/TP2802.c **** 	0x6f, 0x60, // TXn pin enable / TXPELCO2
 858:TP2824/TP2802.c **** 	0x70, 0x00, // TXLMD[3]=0 / TXLNUM[2:0]=0
 859:TP2824/TP2802.c **** 
 860:TP2824/TP2802.c **** 	// TXLINE1DATA
 861:TP2824/TP2802.c **** 	0x55, 0x00,
 862:TP2824/TP2802.c **** 	0x56, 0x00,
 863:TP2824/TP2802.c **** 	0x57, 0x00,
 864:TP2824/TP2802.c **** 	0x58, 0x00,
 865:TP2824/TP2802.c **** 	0x59, 0x00, // cmd2 [LSB first]
 866:TP2824/TP2802.c **** 	0x5a, 0x00, // cmd1 [LSB first]
 867:TP2824/TP2802.c **** 	// TXLINE2DATA
 868:TP2824/TP2802.c **** 	0x5b, 0x00,
 869:TP2824/TP2802.c **** 	0x5c, 0x00,
 870:TP2824/TP2802.c **** 	0x5d, 0x00,
 871:TP2824/TP2802.c **** 	0x5e, 0x00,
 872:TP2824/TP2802.c **** 	0x5f, 0x00, // data2 [LSB first]
 873:TP2824/TP2802.c **** 	0x60, 0x00, // data1 [LSB first]
 874:TP2824/TP2802.c **** 	// TXLINE3DATA
 875:TP2824/TP2802.c **** 	0x62, 0x00,
 876:TP2824/TP2802.c **** 	0x63, 0x00,
 877:TP2824/TP2802.c **** 	0x64, 0x00,
 878:TP2824/TP2802.c **** 	0x65, 0x00,
 879:TP2824/TP2802.c **** 	0x66, 0x00,
 880:TP2824/TP2802.c **** 	// TXLINE4DATA
 881:TP2824/TP2802.c **** 	0x68, 0x00,
 882:TP2824/TP2802.c **** 	0x69, 0x00,
 883:TP2824/TP2802.c **** 	0x6a, 0x00,
 884:TP2824/TP2802.c **** 	0x6b, 0x00,
 885:TP2824/TP2802.c **** 	0x6c, 0x00,
 886:TP2824/TP2802.c **** 	/*
 887:TP2824/TP2802.c **** 	 //RX
 888:TP2824/TP2802.c **** 		0xcb, 0x07,		//RXLINE1
ARM GAS  C:\Users\ryanc.HS\AppData\Local\Temp\ccAQ3CYh.s 			page 17


 889:TP2824/TP2802.c **** 		0xcc, 0x08,		//RXLINE2
 890:TP2824/TP2802.c **** 		0xcd, 0x00,//0x09,		//RXLINE3
 891:TP2824/TP2802.c **** 		0xce, 0x00,//0x0a,		//RXLINE4
 892:TP2824/TP2802.c **** 		0xcf, 0x04,		//RXFREQ
 893:TP2824/TP2802.c **** 		0xd0, 0x00,		//RXFREQ
 894:TP2824/TP2802.c **** 		0xd1, 0x00,		//RXFREQ
 895:TP2824/TP2802.c **** 		0xd2, 0x60,		//RXTHLEVEL
 896:TP2824/TP2802.c **** 		0xd3, 0x10,		//RXHINUM
 897:TP2824/TP2802.c **** 		0xd4, 0x06,		//RXHST / RXHEND
 898:TP2824/TP2802.c **** 		0xd5, 0xbe,		//RXHST
 899:TP2824/TP2802.c **** 		0xd6, 0x39,		//RXHEND
 900:TP2824/TP2802.c **** 		0xd7, 0x27,		//RXBITNUM
 901:TP2824/TP2802.c **** 
 902:TP2824/TP2802.c **** 		0xa7, 0x24,//RXPWM / RXACP
 903:TP2824/TP2802.c **** 	*/
 904:TP2824/TP2802.c **** 	0xff, 0xff};
 905:TP2824/TP2802.c **** 
 906:TP2824/TP2802.c **** tcByte TP2824C_CVIHD_PTZ_DataSet[] = { // CVI CHD
 907:TP2824/TP2802.c **** 
 908:TP2824/TP2802.c **** 	// PTZ COC
 909:TP2824/TP2802.c **** 	// TX
 910:TP2824/TP2802.c **** 	0x70, 0x1D, // TCMFR[4]=1 / TXLMD[3]=1 / TXLNUM[2:0]=5
 911:TP2824/TP2802.c **** 	0xc0, 0x00, // TXLINE2  / TXLINE1
 912:TP2824/TP2802.c **** 	0xc2, 0x10, // TXLINE1		//line18
 913:TP2824/TP2802.c **** 	0xc3, 0x00, // TXLINE2		//line19
 914:TP2824/TP2802.c **** 	0xc1, 0x00, // TXLINE4  / TXLINE3
 915:TP2824/TP2802.c **** 	0xc4, 0x00, // TXLINE3
 916:TP2824/TP2802.c **** 	0xc5, 0x00, // TXLINE4
 917:TP2824/TP2802.c **** 	0xc6, 0x15, // TXBITCKNUM
 918:TP2824/TP2802.c **** 	0xc7, 0x5B, // TXHST[7:0]		//TXHST=0x25B
 919:TP2824/TP2802.c **** 	0xc8, 0xa4, // 0x97,	//TXHST[9:8]0b10xx xxxx / TXBITNUM:0x17=>0x24
 920:TP2824/TP2802.c **** 	0x6f, 0x48, // TXn pin enable / TXDAH
 921:TP2824/TP2802.c **** 
 922:TP2824/TP2802.c **** 	// TXLINE1DATA
 923:TP2824/TP2802.c **** 	0x55, 0x00,
 924:TP2824/TP2802.c **** 	0x56, 0x00,
 925:TP2824/TP2802.c **** 	0x57, 0x00,
 926:TP2824/TP2802.c **** 	0x58, 0x00,
 927:TP2824/TP2802.c **** 	0x59, 0x00, // cmd2 [LSB first]
 928:TP2824/TP2802.c **** 	0x5a, 0x00, // cmd1 [LSB first]
 929:TP2824/TP2802.c **** 	// TXLINE2DATA
 930:TP2824/TP2802.c **** 	0x5b, 0x00,
 931:TP2824/TP2802.c **** 	0x5c, 0x00,
 932:TP2824/TP2802.c **** 	0x5d, 0x00,
 933:TP2824/TP2802.c **** 	0x5e, 0x00,
 934:TP2824/TP2802.c **** 	0x5f, 0x00, // data2 [LSB first]
 935:TP2824/TP2802.c **** 	0x60, 0x00, // data1 [LSB first]
 936:TP2824/TP2802.c **** 	// TXLINE3DATA
 937:TP2824/TP2802.c **** 	0x62, 0x00,
 938:TP2824/TP2802.c **** 	0x63, 0x00,
 939:TP2824/TP2802.c **** 	0x64, 0x00,
 940:TP2824/TP2802.c **** 	0x65, 0x00,
 941:TP2824/TP2802.c **** 	0x66, 0x00,
 942:TP2824/TP2802.c **** 	// TXLINE4DATA
 943:TP2824/TP2802.c **** 	0x68, 0x00,
 944:TP2824/TP2802.c **** 	0x69, 0x00,
 945:TP2824/TP2802.c **** 	0x6a, 0x00,
ARM GAS  C:\Users\ryanc.HS\AppData\Local\Temp\ccAQ3CYh.s 			page 18


 946:TP2824/TP2802.c **** 	0x6b, 0x00,
 947:TP2824/TP2802.c **** 	0x6c, 0x00,
 948:TP2824/TP2802.c **** 	/*
 949:TP2824/TP2802.c **** 	 //RX
 950:TP2824/TP2802.c **** 		0xcb, 0x07,		//RXLINE1
 951:TP2824/TP2802.c **** 		0xcc, 0x08,		//RXLINE2
 952:TP2824/TP2802.c **** 		0xcd, 0x00,//0x09,		//RXLINE3
 953:TP2824/TP2802.c **** 		0xce, 0x00,//0x0a,		//RXLINE4
 954:TP2824/TP2802.c **** 		0xcf, 0x04,		//RXFREQ
 955:TP2824/TP2802.c **** 		0xd0, 0x00,		//RXFREQ
 956:TP2824/TP2802.c **** 		0xd1, 0x00,		//RXFREQ
 957:TP2824/TP2802.c **** 		0xd2, 0x60,		//RXTHLEVEL
 958:TP2824/TP2802.c **** 		0xd3, 0x10,		//RXHINUM
 959:TP2824/TP2802.c **** 		0xd4, 0x06,		//RXHST / RXHEND
 960:TP2824/TP2802.c **** 		0xd5, 0xbe,		//RXHST
 961:TP2824/TP2802.c **** 		0xd6, 0x39,		//RXHEND
 962:TP2824/TP2802.c **** 		0xd7, 0x27,		//RXBITNUM
 963:TP2824/TP2802.c **** 
 964:TP2824/TP2802.c **** 		0xa7, 0x24,//RXPWM / RXACP
 965:TP2824/TP2802.c **** 	*/
 966:TP2824/TP2802.c **** 	0xff, 0xff};
 967:TP2824/TP2802.c **** #endif
 968:TP2824/TP2802.c **** 
 969:TP2824/TP2802.c **** // chunyu
 970:TP2824/TP2802.c **** void I2CDeviceSet1(tcByte *RegSet)
 971:TP2824/TP2802.c **** {
 972:TP2824/TP2802.c **** 	int cnt = 0;
 973:TP2824/TP2802.c **** 	tByte index, val;
 974:TP2824/TP2802.c **** 
 975:TP2824/TP2802.c **** // Output discription
 976:TP2824/TP2802.c **** #ifdef TASKING
 977:TP2824/TP2802.c **** 	while (*RegSet)
 978:TP2824/TP2802.c **** 		RS_tx(*RegSet++);
 979:TP2824/TP2802.c **** 	RegSet++;
 980:TP2824/TP2802.c **** #endif
 981:TP2824/TP2802.c **** 
 982:TP2824/TP2802.c **** 	while (*RegSet != 0xFF)
 983:TP2824/TP2802.c **** 	{
 984:TP2824/TP2802.c **** 
 985:TP2824/TP2802.c **** 		index = *RegSet;
 986:TP2824/TP2802.c **** 		val = *(RegSet + 1);
 987:TP2824/TP2802.c **** 		//		MonWriteI2C(addr, index, val);
 988:TP2824/TP2802.c **** 		tp28xx_byte_write(index, val);
 989:TP2824/TP2802.c **** 
 990:TP2824/TP2802.c **** 		//		Puts("\r\n");
 991:TP2824/TP2802.c **** 
 992:TP2824/TP2802.c **** 		RegSet += 2;
 993:TP2824/TP2802.c **** 
 994:TP2824/TP2802.c **** 		cnt--;
 995:TP2824/TP2802.c **** 	}
 996:TP2824/TP2802.c **** 	delay(50); // 50*5 =250ms
 997:TP2824/TP2802.c **** }
 998:TP2824/TP2802.c **** 
 999:TP2824/TP2802.c **** void I2CDeviceSet2(tcByte *RegSet, tcByte *DatSet)
1000:TP2824/TP2802.c **** {
1001:TP2824/TP2802.c **** 	int cnt = 0;
1002:TP2824/TP2802.c **** 	tByte index, val;
ARM GAS  C:\Users\ryanc.HS\AppData\Local\Temp\ccAQ3CYh.s 			page 19


1003:TP2824/TP2802.c **** 
1004:TP2824/TP2802.c **** 	while (*RegSet != 0xFF)
1005:TP2824/TP2802.c **** 	{
1006:TP2824/TP2802.c **** 
1007:TP2824/TP2802.c **** 		index = *RegSet;
1008:TP2824/TP2802.c **** 		val = *DatSet;
1009:TP2824/TP2802.c **** 		//		MonWriteI2C(addr, index, val);
1010:TP2824/TP2802.c **** 		tp28xx_byte_write(index, val);
1011:TP2824/TP2802.c **** 
1012:TP2824/TP2802.c **** 		//		Puts("\r\n");
1013:TP2824/TP2802.c **** 
1014:TP2824/TP2802.c **** 		RegSet++;
1015:TP2824/TP2802.c **** 		DatSet++;
1016:TP2824/TP2802.c **** 
1017:TP2824/TP2802.c **** 		cnt--;
1018:TP2824/TP2802.c **** 	}
1019:TP2824/TP2802.c **** 	delay(50); // 50*5 =250ms
1020:TP2824/TP2802.c **** }
1021:TP2824/TP2802.c **** 
1022:TP2824/TP2802.c **** void SetRegPage(tByte channel)
1023:TP2824/TP2802.c **** {
1024:TP2824/TP2802.c **** 	// tByte tmp;
1025:TP2824/TP2802.c **** 	// tmp = tp28xx_byte_read(tByte index);
1026:TP2824/TP2802.c **** 	tp28xx_byte_write(0x40, channel);
1027:TP2824/TP2802.c **** 	// tp28xx_byte_write(0x40,0x04); //chunyu
1028:TP2824/TP2802.c **** 	// printf("\r\nChannel-%02x ",(tWord)channel);
1029:TP2824/TP2802.c **** }
1030:TP2824/TP2802.c **** 
1031:TP2824/TP2802.c **** /*
1032:TP2824/TP2802.c **** void Write_AllRegPage(tByte addr, tByte bitpos, tByte bitval){
1033:TP2824/TP2802.c **** 	tByte ch;
1034:TP2824/TP2802.c **** 	tByte val;
1035:TP2824/TP2802.c **** 	tByte mask=0x00;
1036:TP2824/TP2802.c **** 	tByte maskb;
1037:TP2824/TP2802.c **** 	tByte Reg40;
1038:TP2824/TP2802.c **** 
1039:TP2824/TP2802.c **** 	Reg40 = tp28xx_byte_read(TVII2CAddress,0x40);
1040:TP2824/TP2802.c **** 
1041:TP2824/TP2802.c **** 	mask = 0x01 << bitpos;
1042:TP2824/TP2802.c **** 	maskb = ~mask;
1043:TP2824/TP2802.c **** 
1044:TP2824/TP2802.c **** 	for(ch=CH1;ch<=CH4;ch++){
1045:TP2824/TP2802.c **** 		tp28xx_byte_write(TVII2CAddress,0x40,ch);
1046:TP2824/TP2802.c **** 		val = tp28xx_byte_read(TVII2CAddress,addr);
1047:TP2824/TP2802.c **** 		if(bitval)
1048:TP2824/TP2802.c **** 			tp28xx_byte_write(TVII2CAddress,addr,(val|mask));
1049:TP2824/TP2802.c **** 		else
1050:TP2824/TP2802.c **** 			tp28xx_byte_write(TVII2CAddress,addr,(val&maskb));
1051:TP2824/TP2802.c **** 	}
1052:TP2824/TP2802.c **** 
1053:TP2824/TP2802.c **** 	tp28xx_byte_write(TVII2CAddress,0x40,Reg40);
1054:TP2824/TP2802.c **** }
1055:TP2824/TP2802.c **** */
1056:TP2824/TP2802.c **** 
1057:TP2824/TP2802.c **** /*
1058:TP2824/TP2802.c **** void Set_16Bits_VDCLK_Out(){
1059:TP2824/TP2802.c **** 
ARM GAS  C:\Users\ryanc.HS\AppData\Local\Temp\ccAQ3CYh.s 			page 20


1060:TP2824/TP2802.c **** 	Write_AllRegPage(0x02,7,0);
1061:TP2824/TP2802.c **** 	tp28xx_byte_write(TVII2CAddress,0x4b,0x40);
1062:TP2824/TP2802.c **** }
1063:TP2824/TP2802.c **** 
1064:TP2824/TP2802.c **** void Set_16Bits_VD_Out(tByte channel){
1065:TP2824/TP2802.c **** 	tByte Reg02,Reg4b;
1066:TP2824/TP2802.c **** 	tByte VD2SEL;
1067:TP2824/TP2802.c **** 	tByte VD1SEL;
1068:TP2824/TP2802.c **** 	tByte dat;
1069:TP2824/TP2802.c **** 
1070:TP2824/TP2802.c **** 	Reg02 = tp28xx_byte_read(TVII2CAddress,0x02);
1071:TP2824/TP2802.c **** 	Reg4b = tp28xx_byte_read(TVII2CAddress,0x4b);
1072:TP2824/TP2802.c **** 
1073:TP2824/TP2802.c **** 
1074:TP2824/TP2802.c **** 	tp28xx_byte_write(TVII2CAddress,0x02,(Reg02&0x7f));
1075:TP2824/TP2802.c **** 
1076:TP2824/TP2802.c **** 	switch (channel){
1077:TP2824/TP2802.c **** 		case CH1:
1078:TP2824/TP2802.c **** 			VD2SEL = VIN1_C;
1079:TP2824/TP2802.c **** 			VD1SEL = VIN1_Y;
1080:TP2824/TP2802.c **** 			break;
1081:TP2824/TP2802.c **** 		case CH2:
1082:TP2824/TP2802.c **** 			VD2SEL = VIN2_C;
1083:TP2824/TP2802.c **** 			VD1SEL = VIN2_Y;
1084:TP2824/TP2802.c **** 			break;
1085:TP2824/TP2802.c **** 		case CH3:
1086:TP2824/TP2802.c **** 			VD2SEL = VIN3_C;
1087:TP2824/TP2802.c **** 			VD1SEL = VIN3_Y;
1088:TP2824/TP2802.c **** 			break;
1089:TP2824/TP2802.c **** 		case CH4:
1090:TP2824/TP2802.c **** 			VD2SEL = VIN4_C;
1091:TP2824/TP2802.c **** 			VD1SEL = VIN4_Y;
1092:TP2824/TP2802.c **** 			break;
1093:TP2824/TP2802.c **** 		}
1094:TP2824/TP2802.c **** 	dat = (VD2SEL<<4)|VD1SEL;
1095:TP2824/TP2802.c **** 	tp28xx_byte_write(TVII2CAddress,0x4b,dat);
1096:TP2824/TP2802.c **** 
1097:TP2824/TP2802.c **** }
1098:TP2824/TP2802.c **** */
1099:TP2824/TP2802.c **** 
1100:TP2824/TP2802.c **** tcByte TP2802_FORMAT_DataSet[][12] =
1101:TP2824/TP2802.c **** 	{
1102:TP2824/TP2802.c **** 		{0x02, 0x15, 0x16, 0x17, 0x18, 0x19, 0x1a, 0x1c, 0x1d, 0x35, 0x36, 0xff},			   // reg
1103:TP2824/TP2802.c **** 		{0x48, 0x03, 0xd3, 0x80, 0x29, 0x38, 0x47, 0x08, 0x98, 0x05, 0xdc, 0xff},			   // 1080p30
1104:TP2824/TP2802.c **** 		{0x48, 0x03, 0xd3, 0x80, 0x29, 0x38, 0x47, 0x0a, 0x50, 0x05, 0xdc, 0xff},			   // 1080p25
1105:TP2824/TP2802.c **** 		{0x4a, 0x13, 0x16, 0x00, 0x19, 0xd0, 0x25, 0x06, 0x72, 0x05, 0xdc, 0xff},			   // 720p60 720p30V2
1106:TP2824/TP2802.c **** 		{0x4a, 0x13, 0x16, 0x00, 0x19, 0xd0, 0x25, 0x07, 0xbc, 0x05, 0xdc, 0xff},			   // 720p50 720p25V2
1107:TP2824/TP2802.c **** 		{0x4a, 0x13, 0x16, 0x00, 0x19, 0xd0, 0x25, 0x0c, 0xe4, 0x05, 0xdc, 0xff},			   // 720p30    //5
1108:TP2824/TP2802.c **** 		{0x4a, 0x13, 0x16, 0x00, 0x19, 0xd0, 0x25, 0x0f, 0x78, 0x05, 0xdc, 0xff},			   // 720p25
1109:TP2824/TP2802.c **** 		{0x4f, 0x13, 0x63 /*0x4e*/, 0xbc, 0x15, 0xf0, 0x07, 0x09, 0x38, 0x25, 0xdc, 0xff},	   // NTSC
1110:TP2824/TP2802.c **** 		{0x4f, 0x13, 0x73 + 5 /*0x5f*/, 0xbc, 0x17, 0x20, 0x17, 0x09, 0x48, 0x25, 0xdc, 0xff}, // PAL
1111:TP2824/TP2802.c **** 		{0x48, 0x13, 0x6c, 0x00, 0x2c, 0x00, 0x68, 0x09, 0xc4, 0x16, 0x30, 0xff},			   // 3M18
1112:TP2824/TP2802.c **** 		{0x48, 0x13, 0x1f, 0x20, 0x34, 0x98, 0x7a, 0x0b, 0x9a, 0x17, 0xd0, 0xff},			   // 5M12      //10
1113:TP2824/TP2802.c **** 		{0x4a, 0x13, 0x16, 0x00, 0x19, 0xd0, 0x25, 0x06, 0x72, 0x25, 0xdc, 0xff},			   // 720p30V2
1114:TP2824/TP2802.c **** 		{0x4a, 0x13, 0x16, 0x00, 0x19, 0xd0, 0x25, 0x07, 0xbc, 0x25, 0xdc, 0xff},			   // 720p25V2
1115:TP2824/TP2802.c **** 		{0x48, 0x13, 0x1f, 0x80, 0x7d, 0xf0, 0x5a, 0x0b, 0xb8, 0x16, 0x72, 0xff},			   // 4M15
1116:TP2824/TP2802.c **** 		{0x48, 0x13, 0x6c, 0x00, 0x2c, 0x00, 0x68, 0x09, 0xc4, 0x16, 0x72, 0xff},			   // 3M20
ARM GAS  C:\Users\ryanc.HS\AppData\Local\Temp\ccAQ3CYh.s 			page 21


1117:TP2824/TP2802.c **** 		{0x48, 0x23, 0x34, 0x78, 0x8c, 0xf0, 0x5a, 0x0c, 0xe4, 0x17, 0x08, 0xff},			   // 4M12
1118:TP2824/TP2802.c **** 		{0x48, 0x13, 0xec, 0x80, 0xb0, 0x08, 0x7c, 0x0e, 0xa6, 0x17, 0xbc, 0xff},			   // 6M10
1119:TP2824/TP2802.c **** 		{0x48, 0x13, 0x0f, 0x00, 0x32, 0xa0, 0x55, 0x06, 0x72, 0x15, 0xdc, 0xff},			   // 4M30
1120:TP2824/TP2802.c **** 		{0x48, 0x13, 0x20, 0x00, 0x20, 0xa0, 0x55, 0x07, 0xbc, 0x15, 0xdc, 0xff}			   // 4M25
1121:TP2824/TP2802.c **** 
1122:TP2824/TP2802.c **** 		//{0xc8,0x13,0x6c,0x20,0x2c,0xf0,0x5a,0x0b,0xb8,0x16,0x72,0xff}, //2592x1520p15
1123:TP2824/TP2802.c **** };
1124:TP2824/TP2802.c **** 
1125:TP2824/TP2802.c **** static void tp28xx_SYSCLK_V2(unsigned char ch)
1126:TP2824/TP2802.c **** {
1127:TP2824/TP2802.c **** 	unsigned char tmp;
1128:TP2824/TP2802.c **** 	tmp = tp28xx_byte_read(0xf5);
1129:TP2824/TP2802.c **** 	tmp |= SYS_MODE[ch];
1130:TP2824/TP2802.c **** 	tp28xx_byte_write(0xf5, tmp);
1131:TP2824/TP2802.c **** 	tmp = tp28xx_byte_read(0x35);
1132:TP2824/TP2802.c **** 	tmp |= 0x20;
1133:TP2824/TP2802.c **** 	tp28xx_byte_write(0x35, tmp);
1134:TP2824/TP2802.c **** }
1135:TP2824/TP2802.c **** static void tp28xx_SYSCLK_V1(unsigned char ch)
1136:TP2824/TP2802.c **** {
1137:TP2824/TP2802.c **** 	unsigned char tmp;
1138:TP2824/TP2802.c **** 	tmp = tp28xx_byte_read(0xf5);
1139:TP2824/TP2802.c **** 	tmp &= SYS_AND[ch];
1140:TP2824/TP2802.c **** 	tp28xx_byte_write(0xf5, tmp);
1141:TP2824/TP2802.c **** 	tmp = tp28xx_byte_read(0x35);
1142:TP2824/TP2802.c **** 	tmp &= 0xdf;
1143:TP2824/TP2802.c **** 	tp28xx_byte_write(0x35, tmp);
1144:TP2824/TP2802.c **** }
1145:TP2824/TP2802.c **** 
1146:TP2824/TP2802.c **** void Set_VidRes(tByte ch)
1147:TP2824/TP2802.c **** {
1148:TP2824/TP2802.c **** 	tByte index, sys, tmp;
1149:TP2824/TP2802.c **** 	sys = 1; // V1
1150:TP2824/TP2802.c **** 	// printf("Set_VidRes");
1151:TP2824/TP2802.c **** 	switch (mode[ch])
1152:TP2824/TP2802.c **** 	{
1153:TP2824/TP2802.c **** 	case R1080P30:
1154:TP2824/TP2802.c **** 		index = 1; // 1080p30
1155:TP2824/TP2802.c **** 		sys = 1;   // V1
1156:TP2824/TP2802.c **** 		ManVidResRx = RES1920X1080;
1157:TP2824/TP2802.c **** 		printf("1080p30");
1158:TP2824/TP2802.c **** 		break;
1159:TP2824/TP2802.c **** 
1160:TP2824/TP2802.c **** 	case R1080P25:
1161:TP2824/TP2802.c **** 		index = 2; // 1080p25
1162:TP2824/TP2802.c **** 		sys = 1;   // V1
1163:TP2824/TP2802.c **** 		ManVidResRx = RES1920X1080;
1164:TP2824/TP2802.c **** 		printf("1080p25");
1165:TP2824/TP2802.c **** 		break;
1166:TP2824/TP2802.c **** 
1167:TP2824/TP2802.c **** 	case R720P60:
1168:TP2824/TP2802.c **** 		index = 3; // 720p60 720p30V2
1169:TP2824/TP2802.c **** 		sys = 1;   // V1
1170:TP2824/TP2802.c **** 		ManVidResRx = RES1280X720;
1171:TP2824/TP2802.c **** 		printf("720p60");
1172:TP2824/TP2802.c **** 		break;
1173:TP2824/TP2802.c **** 
ARM GAS  C:\Users\ryanc.HS\AppData\Local\Temp\ccAQ3CYh.s 			page 22


1174:TP2824/TP2802.c **** 	case R720P30V2:
1175:TP2824/TP2802.c **** 		index = 11; // 720p30V2
1176:TP2824/TP2802.c **** 		sys = 2;	// V2
1177:TP2824/TP2802.c **** 		ManVidResRx = RES1280X720;
1178:TP2824/TP2802.c **** 		printf("720p30V2");
1179:TP2824/TP2802.c **** 		break;
1180:TP2824/TP2802.c **** 
1181:TP2824/TP2802.c **** 	case R720P50:
1182:TP2824/TP2802.c **** 		index = 4; // 720p50 720p25V2
1183:TP2824/TP2802.c **** 		sys = 1;   // V1
1184:TP2824/TP2802.c **** 		ManVidResRx = RES1280X720;
1185:TP2824/TP2802.c **** 		printf("720p50");
1186:TP2824/TP2802.c **** 		break;
1187:TP2824/TP2802.c **** 
1188:TP2824/TP2802.c **** 	case R720P25V2:
1189:TP2824/TP2802.c **** 		index = 12; // 720p25V2
1190:TP2824/TP2802.c **** 		sys = 2;	// V2
1191:TP2824/TP2802.c **** 		ManVidResRx = RES1280X720;
1192:TP2824/TP2802.c **** 		printf("720p25V2");
1193:TP2824/TP2802.c **** 		break;
1194:TP2824/TP2802.c **** 
1195:TP2824/TP2802.c **** 	case R720P30:
1196:TP2824/TP2802.c **** 		index = 5; // 720p30
1197:TP2824/TP2802.c **** 		sys = 1;   // V1
1198:TP2824/TP2802.c **** 		ManVidResRx = RES1280X720;
1199:TP2824/TP2802.c **** 		printf("720p30");
1200:TP2824/TP2802.c **** 		break;
1201:TP2824/TP2802.c **** 
1202:TP2824/TP2802.c **** 	case R720P25:
1203:TP2824/TP2802.c **** 		index = 6; // 720p25
1204:TP2824/TP2802.c **** 		sys = 1;   // V1
1205:TP2824/TP2802.c **** 		ManVidResRx = RES1280X720;
1206:TP2824/TP2802.c **** 		printf("720p25");
1207:TP2824/TP2802.c **** 		break;
1208:TP2824/TP2802.c **** 
1209:TP2824/TP2802.c **** 	case PAL:
1210:TP2824/TP2802.c **** 		index = 8;
1211:TP2824/TP2802.c **** 		sys = 4;
1212:TP2824/TP2802.c **** 		ManVidResRx = RES1920X576;
1213:TP2824/TP2802.c **** 		printf("PAL");
1214:TP2824/TP2802.c **** 		break;
1215:TP2824/TP2802.c **** 
1216:TP2824/TP2802.c **** 	case NTSC:
1217:TP2824/TP2802.c **** 		index = 7;
1218:TP2824/TP2802.c **** 		sys = 3;
1219:TP2824/TP2802.c **** 		ManVidResRx = RES1920X480;
1220:TP2824/TP2802.c **** 		printf("NTSC");
1221:TP2824/TP2802.c **** 		break;
1222:TP2824/TP2802.c **** 
1223:TP2824/TP2802.c **** 	case R3M18:
1224:TP2824/TP2802.c **** 		index = 9; // 3M18
1225:TP2824/TP2802.c **** 		sys = 1;   // V1
1226:TP2824/TP2802.c **** 		ManVidResRx = RES1920X1080;
1227:TP2824/TP2802.c **** 		printf("3M18");
1228:TP2824/TP2802.c **** 		break;
1229:TP2824/TP2802.c **** 
1230:TP2824/TP2802.c **** 	case R5M12:
ARM GAS  C:\Users\ryanc.HS\AppData\Local\Temp\ccAQ3CYh.s 			page 23


1231:TP2824/TP2802.c **** 		index = 10; // 5M12
1232:TP2824/TP2802.c **** 		sys = 1;	// V1
1233:TP2824/TP2802.c **** 		ManVidResRx = RES1920X1080;
1234:TP2824/TP2802.c **** 		printf("5M12");
1235:TP2824/TP2802.c **** 		break;
1236:TP2824/TP2802.c **** 
1237:TP2824/TP2802.c **** 	case R4M15:
1238:TP2824/TP2802.c **** 		index = 13; // 4M15
1239:TP2824/TP2802.c **** 		sys = 1;	// V1
1240:TP2824/TP2802.c **** 		ManVidResRx = RES1920X1080;
1241:TP2824/TP2802.c **** 		printf("4M15");
1242:TP2824/TP2802.c **** 		break;
1243:TP2824/TP2802.c **** 
1244:TP2824/TP2802.c **** 	case R3M20:
1245:TP2824/TP2802.c **** 		index = 14; // 3M20
1246:TP2824/TP2802.c **** 		sys = 1;	// V1
1247:TP2824/TP2802.c **** 		ManVidResRx = RES1920X1080;
1248:TP2824/TP2802.c **** 		printf("3M20");
1249:TP2824/TP2802.c **** 		break;
1250:TP2824/TP2802.c **** 
1251:TP2824/TP2802.c **** 	case R4M12:
1252:TP2824/TP2802.c **** 		index = 15; // 4M12
1253:TP2824/TP2802.c **** 		sys = 1;	// V1
1254:TP2824/TP2802.c **** 		ManVidResRx = RES1920X1080;
1255:TP2824/TP2802.c **** 		printf("4M12");
1256:TP2824/TP2802.c **** 		break;
1257:TP2824/TP2802.c **** 
1258:TP2824/TP2802.c **** 	case R6M10:
1259:TP2824/TP2802.c **** 		index = 16; // 6M10
1260:TP2824/TP2802.c **** 		sys = 1;	// V1
1261:TP2824/TP2802.c **** 		ManVidResRx = RES1920X1080;
1262:TP2824/TP2802.c **** 		printf("6M10");
1263:TP2824/TP2802.c **** 		break;
1264:TP2824/TP2802.c **** 
1265:TP2824/TP2802.c **** 	case R4M30:
1266:TP2824/TP2802.c **** 		index = 17; // 4M30
1267:TP2824/TP2802.c **** 		sys = 1;	// V1
1268:TP2824/TP2802.c **** 		ManVidResRx = RES1280X720;
1269:TP2824/TP2802.c **** 		printf("4M30");
1270:TP2824/TP2802.c **** 		break;
1271:TP2824/TP2802.c **** 
1272:TP2824/TP2802.c **** 	default:
1273:TP2824/TP2802.c **** 		index = 1; // 1080p30
1274:TP2824/TP2802.c **** 		break;
1275:TP2824/TP2802.c **** 	}
1276:TP2824/TP2802.c **** 	printf("...\r\n");
1277:TP2824/TP2802.c **** 
1278:TP2824/TP2802.c **** 	// I2CDeviceSet(TVII2CAddress, ptr_TP2802_Res );
1279:TP2824/TP2802.c **** 	I2CDeviceSet2(TP2802_FORMAT_DataSet[0], TP2802_FORMAT_DataSet[index]);
1280:TP2824/TP2802.c **** 	//	printf("chip= 0x%4x\r\n",chip);
1281:TP2824/TP2802.c **** 	if (TP2853C == chip)
1282:TP2824/TP2802.c **** 	{
1283:TP2824/TP2802.c **** 		I2CDeviceSet2(TP2853C_MODE_DataSet[0], TP2853C_MODE_DataSet[sys]);
1284:TP2824/TP2802.c **** 	}
1285:TP2824/TP2802.c **** 	else if (TP2833 == chip)
1286:TP2824/TP2802.c **** 	{
1287:TP2824/TP2802.c **** 		I2CDeviceSet2(TP2833_MODE_DataSet[0], TP2833_MODE_DataSet[sys]);
ARM GAS  C:\Users\ryanc.HS\AppData\Local\Temp\ccAQ3CYh.s 			page 24


1288:TP2824/TP2802.c **** 	}
1289:TP2824/TP2802.c **** 	else if (TP2834 == chip)
1290:TP2824/TP2802.c **** 	{
1291:TP2824/TP2802.c **** 		I2CDeviceSet2(TP2834_MODE_DataSet[0], TP2834_MODE_DataSet[sys]);
1292:TP2824/TP2802.c **** 	}
1293:TP2824/TP2802.c **** 	if (TP2826 == chip)
1294:TP2824/TP2802.c **** 	{
1295:TP2824/TP2802.c **** 		printf("tp2826MODEDATASET\r\n");
1296:TP2824/TP2802.c **** 		I2CDeviceSet2(TP2826_MODE_DataSet[0], TP2826_MODE_DataSet[sys]);
1297:TP2824/TP2802.c **** 	}
1298:TP2824/TP2802.c **** 	if (TP2824C == chip)
1299:TP2824/TP2802.c **** 	{
1300:TP2824/TP2802.c **** 		printf("tp2824C MODEDATASET\r\n");
1301:TP2824/TP2802.c **** 		I2CDeviceSet2(TP2824C_MODE_DataSet[0], TP2824C_MODE_DataSet[sys]);
1302:TP2824/TP2802.c **** 	}
1303:TP2824/TP2802.c **** 
1304:TP2824/TP2802.c **** 	if (1 == sys)
1305:TP2824/TP2802.c **** 		tp28xx_SYSCLK_V1(ch);
1306:TP2824/TP2802.c **** 	else
1307:TP2824/TP2802.c **** 		tp28xx_SYSCLK_V2(ch);
1308:TP2824/TP2802.c **** 
1309:TP2824/TP2802.c **** 	tp28xx_byte_write(0x13, 0x00);
1310:TP2824/TP2802.c **** 	tmp = tp28xx_byte_read(0x14);
1311:TP2824/TP2802.c **** 	tmp &= 0x9f;
1312:TP2824/TP2802.c **** 	tp28xx_byte_write(0x14, tmp);
1313:TP2824/TP2802.c **** 
1314:TP2824/TP2802.c **** #if (OUTPUT == Bits16out)
1315:TP2824/TP2802.c **** 	tmp = tp28xx_byte_read(0x02);
1316:TP2824/TP2802.c **** 	tmp &= 0x7f;
1317:TP2824/TP2802.c **** 	tp28xx_byte_write(0x02, tmp);
1318:TP2824/TP2802.c **** #else
1319:TP2824/TP2802.c **** 	tmp = tp28xx_byte_read(0x02);
1320:TP2824/TP2802.c **** 	tmp |= 0x80;
1321:TP2824/TP2802.c **** 	tp28xx_byte_write(0x02, tmp);
1322:TP2824/TP2802.c **** #endif
1323:TP2824/TP2802.c **** }
1324:TP2824/TP2802.c **** 
1325:TP2824/TP2802.c **** tByte Set_HDA(tByte ch)
1326:TP2824/TP2802.c **** {
1327:TP2824/TP2802.c **** 
1328:TP2824/TP2802.c **** 	tByte index, tmp;
1329:TP2824/TP2802.c **** 	index = 0;
1330:TP2824/TP2802.c **** 
1331:TP2824/TP2802.c **** 	switch (mode[ch])
1332:TP2824/TP2802.c **** 	{
1333:TP2824/TP2802.c **** 	case R1080P30:
1334:TP2824/TP2802.c **** 		index = 3;
1335:TP2824/TP2802.c **** 		break;
1336:TP2824/TP2802.c **** 
1337:TP2824/TP2802.c **** 	case R1080P25:
1338:TP2824/TP2802.c **** 		index = 4;
1339:TP2824/TP2802.c **** 		break;
1340:TP2824/TP2802.c **** 
1341:TP2824/TP2802.c **** 	case R720P60: // 20200507
1342:TP2824/TP2802.c **** 		index = 5;
1343:TP2824/TP2802.c **** 		break;
1344:TP2824/TP2802.c **** 	case R720P30V2:
ARM GAS  C:\Users\ryanc.HS\AppData\Local\Temp\ccAQ3CYh.s 			page 25


1345:TP2824/TP2802.c **** 		index = 1;
1346:TP2824/TP2802.c **** 		break;
1347:TP2824/TP2802.c **** 
1348:TP2824/TP2802.c **** 	case R720P50: // 20200507
1349:TP2824/TP2802.c **** 	case R720P25V2:
1350:TP2824/TP2802.c **** 		index = 2;
1351:TP2824/TP2802.c **** 		break;
1352:TP2824/TP2802.c **** 	}
1353:TP2824/TP2802.c **** 	if (index)
1354:TP2824/TP2802.c **** 	{
1355:TP2824/TP2802.c **** 		Set_VidRes(ch);
1356:TP2824/TP2802.c **** 
1357:TP2824/TP2802.c **** 		if (TP2853C == chip)
1358:TP2824/TP2802.c **** 		{
1359:TP2824/TP2802.c **** 			I2CDeviceSet2(TP2853C_HDA_DataSet[0], TP2853C_HDA_DataSet[index]);
1360:TP2824/TP2802.c **** 		}
1361:TP2824/TP2802.c **** 		else if (TP2833 == chip || TP2834 == chip)
1362:TP2824/TP2802.c **** 		{
1363:TP2824/TP2802.c **** 			I2CDeviceSet2(TP2833_HDA_DataSet[0], TP2833_HDA_DataSet[index]);
1364:TP2824/TP2802.c **** 		}
1365:TP2824/TP2802.c **** 		else if (TP2826 == chip)
1366:TP2824/TP2802.c **** 		{
1367:TP2824/TP2802.c **** 			I2CDeviceSet2(TP2826_HDA_DataSet[0], TP2826_HDA_DataSet[index]);
1368:TP2824/TP2802.c **** 		}
1369:TP2824/TP2802.c **** 		else if (TP2824C == chip)
1370:TP2824/TP2802.c **** 		{
1371:TP2824/TP2802.c **** 			I2CDeviceSet2(TP2824C_HDA_DataSet[0], TP2824C_HDA_DataSet[index]);
1372:TP2824/TP2802.c **** 		}
1373:TP2824/TP2802.c **** 		tmp = tp28xx_byte_read(0x14);
1374:TP2824/TP2802.c **** 		tmp |= 0x40;
1375:TP2824/TP2802.c **** 		tp28xx_byte_write(0x14, tmp);
1376:TP2824/TP2802.c **** 	}
1377:TP2824/TP2802.c **** 	return index;
1378:TP2824/TP2802.c **** }
1379:TP2824/TP2802.c **** 
1380:TP2824/TP2802.c **** tByte Set_HDC(tByte ch)
1381:TP2824/TP2802.c **** {
1382:TP2824/TP2802.c **** 
1383:TP2824/TP2802.c **** 	tByte index;
1384:TP2824/TP2802.c **** 
1385:TP2824/TP2802.c **** 	index = 0;
1386:TP2824/TP2802.c **** 
1387:TP2824/TP2802.c **** 	switch (mode[ch])
1388:TP2824/TP2802.c **** 	{
1389:TP2824/TP2802.c **** 
1390:TP2824/TP2802.c **** 	case R1080P30:
1391:TP2824/TP2802.c **** 		index = 3;
1392:TP2824/TP2802.c **** 		break;
1393:TP2824/TP2802.c **** 
1394:TP2824/TP2802.c **** 	case R1080P25:
1395:TP2824/TP2802.c **** 		index = 4;
1396:TP2824/TP2802.c **** 		break;
1397:TP2824/TP2802.c **** 
1398:TP2824/TP2802.c **** 	case R720P60: // 20200507
1399:TP2824/TP2802.c **** 	case R720P30V2:
1400:TP2824/TP2802.c **** 		index = 1;
1401:TP2824/TP2802.c **** 		break;
ARM GAS  C:\Users\ryanc.HS\AppData\Local\Temp\ccAQ3CYh.s 			page 26


1402:TP2824/TP2802.c **** 
1403:TP2824/TP2802.c **** 	case R720P50: // 20200507
1404:TP2824/TP2802.c **** 	case R720P25V2:
1405:TP2824/TP2802.c **** 		index = 2;
1406:TP2824/TP2802.c **** 		break;
1407:TP2824/TP2802.c **** 	}
1408:TP2824/TP2802.c **** 	if (index)
1409:TP2824/TP2802.c **** 	{
1410:TP2824/TP2802.c **** 		Set_VidRes(ch);
1411:TP2824/TP2802.c **** 
1412:TP2824/TP2802.c **** 		if (TP2853C == chip)
1413:TP2824/TP2802.c **** 		{
1414:TP2824/TP2802.c **** 			I2CDeviceSet2(TP2853C_HDC_DataSet[0], TP2853C_HDC_DataSet[index]);
1415:TP2824/TP2802.c **** 		}
1416:TP2824/TP2802.c **** 		else if (TP2833 == chip || TP2834 == chip)
1417:TP2824/TP2802.c **** 		{
1418:TP2824/TP2802.c **** 			I2CDeviceSet2(TP2853C_HDC_DataSet[0], TP2853C_HDC_DataSet[index]);
1419:TP2824/TP2802.c **** 		}
1420:TP2824/TP2802.c **** 		else if (TP2826 == chip)
1421:TP2824/TP2802.c **** 		{
1422:TP2824/TP2802.c **** 			I2CDeviceSet2(TP2826_HDC_DataSet[0], TP2826_HDC_DataSet[index]);
1423:TP2824/TP2802.c **** 		}
1424:TP2824/TP2802.c **** 		else if (TP2824C == chip)
1425:TP2824/TP2802.c **** 		{
1426:TP2824/TP2802.c **** 			I2CDeviceSet2(TP2824C_HDC_DataSet[0], TP2824C_HDC_DataSet[index]);
1427:TP2824/TP2802.c **** 		}
1428:TP2824/TP2802.c **** 		tp28xx_byte_write(0x13, 0x40);
1429:TP2824/TP2802.c **** 	}
1430:TP2824/TP2802.c **** 	return index;
1431:TP2824/TP2802.c **** }
1432:TP2824/TP2802.c **** 
1433:TP2824/TP2802.c **** tByte Det_VidRes()
1434:TP2824/TP2802.c **** {
1435:TP2824/TP2802.c **** 	tByte CVSTD;
1436:TP2824/TP2802.c **** 	tByte RES;
1437:TP2824/TP2802.c **** 
1438:TP2824/TP2802.c **** 	CVSTD = tp28xx_byte_read(0x03) & 0x07;
1439:TP2824/TP2802.c **** 
1440:TP2824/TP2802.c **** 	switch (CVSTD)
1441:TP2824/TP2802.c **** 	{
1442:TP2824/TP2802.c **** 
1443:TP2824/TP2802.c **** 	case 0x00:
1444:TP2824/TP2802.c **** 		RES = R720P60;
1445:TP2824/TP2802.c **** 		break;
1446:TP2824/TP2802.c **** 	case 0x01:
1447:TP2824/TP2802.c **** 		RES = R720P50;
1448:TP2824/TP2802.c **** 		break;
1449:TP2824/TP2802.c **** 	case 0x02:
1450:TP2824/TP2802.c **** 		RES = R1080P30;
1451:TP2824/TP2802.c **** 		break;
1452:TP2824/TP2802.c **** 	case 0x03:
1453:TP2824/TP2802.c **** 		RES = R1080P25;
1454:TP2824/TP2802.c **** 		break;
1455:TP2824/TP2802.c **** 	case 0x04:
1456:TP2824/TP2802.c **** 		RES = R720P30;
1457:TP2824/TP2802.c **** 		break;
1458:TP2824/TP2802.c **** 	case 0x05:
ARM GAS  C:\Users\ryanc.HS\AppData\Local\Temp\ccAQ3CYh.s 			page 27


1459:TP2824/TP2802.c **** 		RES = R720P25;
1460:TP2824/TP2802.c **** 		break;
1461:TP2824/TP2802.c **** 	case 0x06:
1462:TP2824/TP2802.c **** 		printf("\r\nN/P detected");
1463:TP2824/TP2802.c **** 		RES = NTPAL;
1464:TP2824/TP2802.c **** 		break;
1465:TP2824/TP2802.c **** 	default:
1466:TP2824/TP2802.c **** 		printf("\r\nNo res detect...");
1467:TP2824/TP2802.c **** 		RES = NoDet;
1468:TP2824/TP2802.c **** 		break;
1469:TP2824/TP2802.c **** 	}
1470:TP2824/TP2802.c **** 
1471:TP2824/TP2802.c **** 	return RES;
1472:TP2824/TP2802.c **** }
1473:TP2824/TP2802.c **** tByte Det_VideoLoss(tByte ch)
1474:TP2824/TP2802.c **** {
1475:TP2824/TP2802.c **** 
1476:TP2824/TP2802.c **** 	tByte VDLOSS;
1477:TP2824/TP2802.c **** 
1478:TP2824/TP2802.c **** 	tp28xx_byte_write(0x40, ch & 0x03);
1479:TP2824/TP2802.c **** 	VDLOSS = tp28xx_byte_read(0x01);
1480:TP2824/TP2802.c **** 	//	printf("video status 0x%02x on ch%01x\r\n",(tWord)VDLOSS,(tWord)ch);
1481:TP2824/TP2802.c **** 
1482:TP2824/TP2802.c **** 	if (VDLOSS)
1483:TP2824/TP2802.c **** 		printf("No ");
1484:TP2824/TP2802.c **** 
1485:TP2824/TP2802.c **** 	printf("video detected");
1486:TP2824/TP2802.c **** 
1487:TP2824/TP2802.c **** 	VDLOSS = VDLOSS >> 7;
1488:TP2824/TP2802.c **** 	return VDLOSS;
1489:TP2824/TP2802.c **** }
1490:TP2824/TP2802.c **** 
1491:TP2824/TP2802.c **** void ManualAGC(unsigned char ch)
1492:TP2824/TP2802.c **** {
1493:TP2824/TP2802.c **** 	unsigned int agc;
1494:TP2824/TP2802.c **** 	unsigned char tmp;
1495:TP2824/TP2802.c **** 	// unsigned int i;
1496:TP2824/TP2802.c **** 
1497:TP2824/TP2802.c **** 	tp28xx_byte_write(0x2F, 0x02);
1498:TP2824/TP2802.c **** 	agc = tp28xx_byte_read(0x04);
1499:TP2824/TP2802.c **** 	agc += tp28xx_byte_read(0x04);
1500:TP2824/TP2802.c **** 	agc += tp28xx_byte_read(0x04);
1501:TP2824/TP2802.c **** 	agc += tp28xx_byte_read(0x04);
1502:TP2824/TP2802.c **** 	agc &= 0x3f0;
1503:TP2824/TP2802.c **** 	agc >>= 1;
1504:TP2824/TP2802.c **** 	if (agc > 0x1ff)
1505:TP2824/TP2802.c **** 		agc = 0x1ff;
1506:TP2824/TP2802.c **** 
1507:TP2824/TP2802.c **** 	printf("result AGC=0X%04x ch%02X\r\n", (tWord)agc, (tWord)ch);
1508:TP2824/TP2802.c **** 	tp28xx_byte_write(0x08, agc & 0xff);
1509:TP2824/TP2802.c **** 	tmp = tp28xx_byte_read(0x06);
1510:TP2824/TP2802.c **** 	tmp &= 0xf9;
1511:TP2824/TP2802.c **** 	tmp |= (agc >> 7) & 0x02;
1512:TP2824/TP2802.c **** 	tmp |= 0x04;
1513:TP2824/TP2802.c **** 	tmp &= 0x32; /// ryan@20211028 AHD 720P GDAGCgain
1514:TP2824/TP2802.c **** 	tp28xx_byte_write(0x06, tmp);
1515:TP2824/TP2802.c **** 
ARM GAS  C:\Users\ryanc.HS\AppData\Local\Temp\ccAQ3CYh.s 			page 28


1516:TP2824/TP2802.c **** 	// test Dump Reg
1517:TP2824/TP2802.c **** 	/*
1518:TP2824/TP2802.c **** 		printf("DumpReg@strat\r\n") ;
1519:TP2824/TP2802.c **** 		tp28xx_byte_write(0x40,01); //
1520:TP2824/TP2802.c **** 		for (i = 2 ; i< 255 ;i++)
1521:TP2824/TP2802.c **** 		{
1522:TP2824/TP2802.c **** 			tmp = tp28xx_byte_read((tByte)i);
1523:TP2824/TP2802.c **** 			printf("88,%02X,%02X\r\n", i , (int)tmp ) ;
1524:TP2824/TP2802.c **** 		}
1525:TP2824/TP2802.c **** 		printf("DumpReg@end\r\n") ;
1526:TP2824/TP2802.c **** 	*/
1527:TP2824/TP2802.c **** }
1528:TP2824/TP2802.c **** 
1529:TP2824/TP2802.c **** /*
1530:TP2824/TP2802.c **** static void tp2802D_reset_default(unsigned char ch)
1531:TP2824/TP2802.c **** {
1532:TP2824/TP2802.c **** 	unsigned char tmp;
1533:TP2824/TP2802.c **** 	tp28xx_byte_write(0x3A, 0x01);
1534:TP2824/TP2802.c **** 	tp28xx_byte_write(0x0B, 0xC0);
1535:TP2824/TP2802.c **** 	tp28xx_byte_write(0x07, 0xC0);
1536:TP2824/TP2802.c **** 	tp28xx_byte_write(0x2e, 0x70);
1537:TP2824/TP2802.c **** 	tp28xx_byte_write(0x39, 0x42);
1538:TP2824/TP2802.c **** 	tp28xx_byte_write(0x09, 0x24);
1539:TP2824/TP2802.c **** 	tmp = tp28xx_byte_read(0x06);   // soft reset and auto agc when cable is unplug
1540:TP2824/TP2802.c **** 	tmp &= 0x7b;
1541:TP2824/TP2802.c **** 	tp28xx_byte_write(0x06, tmp);
1542:TP2824/TP2802.c **** 
1543:TP2824/TP2802.c **** 	tmp = tp28xx_byte_read(0xf5);
1544:TP2824/TP2802.c **** 	if( tmp & SYS_MODE[ch])
1545:TP2824/TP2802.c **** 	{
1546:TP2824/TP2802.c **** 		tmp &= SYS_AND[ch];
1547:TP2824/TP2802.c **** 		tp28xx_byte_write(0xf5, tmp);
1548:TP2824/TP2802.c **** 	}
1549:TP2824/TP2802.c **** }
1550:TP2824/TP2802.c **** */
1551:TP2824/TP2802.c **** /*  //chunyu
1552:TP2824/TP2802.c **** static void tp282x_reset_AGC_CLK(unsigned char ch)
1553:TP2824/TP2802.c **** {
1554:TP2824/TP2802.c **** 	unsigned char tmp;
1555:TP2824/TP2802.c **** 
1556:TP2824/TP2802.c **** 	tmp = tp28xx_byte_read(0x06);
1557:TP2824/TP2802.c **** 	tmp &= 0xfb;
1558:TP2824/TP2802.c **** 	tp28xx_byte_write(0x06, tmp);
1559:TP2824/TP2802.c **** 
1560:TP2824/TP2802.c **** 	tmp = tp28xx_byte_read(0xf5);
1561:TP2824/TP2802.c **** 	tmp &= SYS_AND[ch];
1562:TP2824/TP2802.c **** 	tp28xx_byte_write(0xf5, tmp);
1563:TP2824/TP2802.c **** 
1564:TP2824/TP2802.c **** 	tp28xx_byte_write(0x35, 0x05);
1565:TP2824/TP2802.c **** 	tp28xx_byte_write(0x26, 0x01);
1566:TP2824/TP2802.c **** }
1567:TP2824/TP2802.c **** */
1568:TP2824/TP2802.c **** static void tp2824_reset_default(void)
1569:TP2824/TP2802.c **** {
  26              		.loc 1 1569 1 view -0
  27              		.cfi_startproc
  28              		@ args = 0, pretend = 0, frame = 0
ARM GAS  C:\Users\ryanc.HS\AppData\Local\Temp\ccAQ3CYh.s 			page 29


  29              		@ frame_needed = 0, uses_anonymous_args = 0
  30 0000 08B5     		push	{r3, lr}
  31              	.LCFI0:
  32              		.cfi_def_cfa_offset 8
  33              		.cfi_offset 3, -8
  34              		.cfi_offset 14, -4
1570:TP2824/TP2802.c **** 	// unsigned char tmp;
1571:TP2824/TP2802.c **** 	// tp28xx_byte_write(addr, 0x07, 0x40);
1572:TP2824/TP2802.c **** 	// tp28xx_byte_write(addr, 0x0b, 0x40);
1573:TP2824/TP2802.c **** 	// tp28xx_byte_write(addr, 0x3A, 0x88);
1574:TP2824/TP2802.c **** 	tp28xx_byte_write(0x26, 0x01);
  35              		.loc 1 1574 2 view .LVU1
  36 0002 0121     		movs	r1, #1
  37 0004 2620     		movs	r0, #38
  38 0006 FFF7FEFF 		bl	tp28xx_byte_write
  39              	.LVL0:
1575:TP2824/TP2802.c **** }
  40              		.loc 1 1575 1 is_stmt 0 view .LVU2
  41 000a 08BD     		pop	{r3, pc}
  42              		.cfi_endproc
  43              	.LFE14:
  45              		.section	.text.tp28xx_SYSCLK_V1,"ax",%progbits
  46              		.align	1
  47              		.syntax unified
  48              		.thumb
  49              		.thumb_func
  50              		.fpu softvfp
  52              	tp28xx_SYSCLK_V1:
  53              	.LVL1:
  54              	.LFB7:
1136:TP2824/TP2802.c **** 	unsigned char tmp;
  55              		.loc 1 1136 1 is_stmt 1 view -0
  56              		.cfi_startproc
  57              		@ args = 0, pretend = 0, frame = 0
  58              		@ frame_needed = 0, uses_anonymous_args = 0
1136:TP2824/TP2802.c **** 	unsigned char tmp;
  59              		.loc 1 1136 1 is_stmt 0 view .LVU4
  60 0000 10B5     		push	{r4, lr}
  61              	.LCFI1:
  62              		.cfi_def_cfa_offset 8
  63              		.cfi_offset 4, -8
  64              		.cfi_offset 14, -4
  65 0002 0446     		mov	r4, r0
1137:TP2824/TP2802.c **** 	tmp = tp28xx_byte_read(0xf5);
  66              		.loc 1 1137 2 is_stmt 1 view .LVU5
1138:TP2824/TP2802.c **** 	tmp &= SYS_AND[ch];
  67              		.loc 1 1138 2 view .LVU6
1138:TP2824/TP2802.c **** 	tmp &= SYS_AND[ch];
  68              		.loc 1 1138 8 is_stmt 0 view .LVU7
  69 0004 F520     		movs	r0, #245
  70              	.LVL2:
1138:TP2824/TP2802.c **** 	tmp &= SYS_AND[ch];
  71              		.loc 1 1138 8 view .LVU8
  72 0006 FFF7FEFF 		bl	tp28xx_byte_read
  73              	.LVL3:
1139:TP2824/TP2802.c **** 	tp28xx_byte_write(0xf5, tmp);
  74              		.loc 1 1139 2 is_stmt 1 view .LVU9
ARM GAS  C:\Users\ryanc.HS\AppData\Local\Temp\ccAQ3CYh.s 			page 30


1139:TP2824/TP2802.c **** 	tp28xx_byte_write(0xf5, tmp);
  75              		.loc 1 1139 16 is_stmt 0 view .LVU10
  76 000a 074B     		ldr	r3, .L5
  77 000c 195D     		ldrb	r1, [r3, r4]	@ zero_extendqisi2
  78              	.LVL4:
1140:TP2824/TP2802.c **** 	tmp = tp28xx_byte_read(0x35);
  79              		.loc 1 1140 2 is_stmt 1 view .LVU11
  80 000e 0140     		ands	r1, r1, r0
  81              	.LVL5:
1140:TP2824/TP2802.c **** 	tmp = tp28xx_byte_read(0x35);
  82              		.loc 1 1140 2 is_stmt 0 view .LVU12
  83 0010 F520     		movs	r0, #245
  84 0012 FFF7FEFF 		bl	tp28xx_byte_write
  85              	.LVL6:
1141:TP2824/TP2802.c **** 	tmp &= 0xdf;
  86              		.loc 1 1141 2 is_stmt 1 view .LVU13
1141:TP2824/TP2802.c **** 	tmp &= 0xdf;
  87              		.loc 1 1141 8 is_stmt 0 view .LVU14
  88 0016 3520     		movs	r0, #53
  89 0018 FFF7FEFF 		bl	tp28xx_byte_read
  90              	.LVL7:
1142:TP2824/TP2802.c **** 	tp28xx_byte_write(0x35, tmp);
  91              		.loc 1 1142 2 is_stmt 1 view .LVU15
1143:TP2824/TP2802.c **** }
  92              		.loc 1 1143 2 view .LVU16
  93 001c 00F0DF01 		and	r1, r0, #223
  94 0020 3520     		movs	r0, #53
  95              	.LVL8:
1143:TP2824/TP2802.c **** }
  96              		.loc 1 1143 2 is_stmt 0 view .LVU17
  97 0022 FFF7FEFF 		bl	tp28xx_byte_write
  98              	.LVL9:
1144:TP2824/TP2802.c **** 
  99              		.loc 1 1144 1 view .LVU18
 100 0026 10BD     		pop	{r4, pc}
 101              	.L6:
 102              		.align	2
 103              	.L5:
 104 0028 00000000 		.word	.LANCHOR0
 105              		.cfi_endproc
 106              	.LFE7:
 108              		.section	.text.tp28xx_SYSCLK_V2,"ax",%progbits
 109              		.align	1
 110              		.syntax unified
 111              		.thumb
 112              		.thumb_func
 113              		.fpu softvfp
 115              	tp28xx_SYSCLK_V2:
 116              	.LVL10:
 117              	.LFB6:
1126:TP2824/TP2802.c **** 	unsigned char tmp;
 118              		.loc 1 1126 1 is_stmt 1 view -0
 119              		.cfi_startproc
 120              		@ args = 0, pretend = 0, frame = 0
 121              		@ frame_needed = 0, uses_anonymous_args = 0
1126:TP2824/TP2802.c **** 	unsigned char tmp;
 122              		.loc 1 1126 1 is_stmt 0 view .LVU20
ARM GAS  C:\Users\ryanc.HS\AppData\Local\Temp\ccAQ3CYh.s 			page 31


 123 0000 10B5     		push	{r4, lr}
 124              	.LCFI2:
 125              		.cfi_def_cfa_offset 8
 126              		.cfi_offset 4, -8
 127              		.cfi_offset 14, -4
 128 0002 0446     		mov	r4, r0
1127:TP2824/TP2802.c **** 	tmp = tp28xx_byte_read(0xf5);
 129              		.loc 1 1127 2 is_stmt 1 view .LVU21
1128:TP2824/TP2802.c **** 	tmp |= SYS_MODE[ch];
 130              		.loc 1 1128 2 view .LVU22
1128:TP2824/TP2802.c **** 	tmp |= SYS_MODE[ch];
 131              		.loc 1 1128 8 is_stmt 0 view .LVU23
 132 0004 F520     		movs	r0, #245
 133              	.LVL11:
1128:TP2824/TP2802.c **** 	tmp |= SYS_MODE[ch];
 134              		.loc 1 1128 8 view .LVU24
 135 0006 FFF7FEFF 		bl	tp28xx_byte_read
 136              	.LVL12:
1129:TP2824/TP2802.c **** 	tp28xx_byte_write(0xf5, tmp);
 137              		.loc 1 1129 2 is_stmt 1 view .LVU25
1129:TP2824/TP2802.c **** 	tp28xx_byte_write(0xf5, tmp);
 138              		.loc 1 1129 17 is_stmt 0 view .LVU26
 139 000a 084B     		ldr	r3, .L9
 140 000c 195D     		ldrb	r1, [r3, r4]	@ zero_extendqisi2
1129:TP2824/TP2802.c **** 	tp28xx_byte_write(0xf5, tmp);
 141              		.loc 1 1129 6 view .LVU27
 142 000e 0143     		orrs	r1, r1, r0
 143              	.LVL13:
1130:TP2824/TP2802.c **** 	tmp = tp28xx_byte_read(0x35);
 144              		.loc 1 1130 2 is_stmt 1 view .LVU28
 145 0010 C9B2     		uxtb	r1, r1
1130:TP2824/TP2802.c **** 	tmp = tp28xx_byte_read(0x35);
 146              		.loc 1 1130 2 is_stmt 0 view .LVU29
 147 0012 F520     		movs	r0, #245
 148 0014 FFF7FEFF 		bl	tp28xx_byte_write
 149              	.LVL14:
1131:TP2824/TP2802.c **** 	tmp |= 0x20;
 150              		.loc 1 1131 2 is_stmt 1 view .LVU30
1131:TP2824/TP2802.c **** 	tmp |= 0x20;
 151              		.loc 1 1131 8 is_stmt 0 view .LVU31
 152 0018 3520     		movs	r0, #53
 153 001a FFF7FEFF 		bl	tp28xx_byte_read
 154              	.LVL15:
1132:TP2824/TP2802.c **** 	tp28xx_byte_write(0x35, tmp);
 155              		.loc 1 1132 2 is_stmt 1 view .LVU32
1132:TP2824/TP2802.c **** 	tp28xx_byte_write(0x35, tmp);
 156              		.loc 1 1132 6 is_stmt 0 view .LVU33
 157 001e 40F02001 		orr	r1, r0, #32
 158              	.LVL16:
1133:TP2824/TP2802.c **** }
 159              		.loc 1 1133 2 is_stmt 1 view .LVU34
 160 0022 C9B2     		uxtb	r1, r1
1133:TP2824/TP2802.c **** }
 161              		.loc 1 1133 2 is_stmt 0 view .LVU35
 162 0024 3520     		movs	r0, #53
 163 0026 FFF7FEFF 		bl	tp28xx_byte_write
 164              	.LVL17:
ARM GAS  C:\Users\ryanc.HS\AppData\Local\Temp\ccAQ3CYh.s 			page 32


1134:TP2824/TP2802.c **** static void tp28xx_SYSCLK_V1(unsigned char ch)
 165              		.loc 1 1134 1 view .LVU36
 166 002a 10BD     		pop	{r4, pc}
 167              	.L10:
 168              		.align	2
 169              	.L9:
 170 002c 00000000 		.word	.LANCHOR1
 171              		.cfi_endproc
 172              	.LFE6:
 174              		.section	.text.tp2853C_reset_default,"ax",%progbits
 175              		.align	1
 176              		.syntax unified
 177              		.thumb
 178              		.thumb_func
 179              		.fpu softvfp
 181              	tp2853C_reset_default:
 182              	.LFB15:
1576:TP2824/TP2802.c **** static void tp2853C_reset_default(void)
1577:TP2824/TP2802.c **** {
 183              		.loc 1 1577 1 is_stmt 1 view -0
 184              		.cfi_startproc
 185              		@ args = 0, pretend = 0, frame = 0
 186              		@ frame_needed = 0, uses_anonymous_args = 0
 187 0000 08B5     		push	{r3, lr}
 188              	.LCFI3:
 189              		.cfi_def_cfa_offset 8
 190              		.cfi_offset 3, -8
 191              		.cfi_offset 14, -4
1578:TP2824/TP2802.c **** 	unsigned char tmp;
 192              		.loc 1 1578 2 view .LVU38
1579:TP2824/TP2802.c **** 	tp28xx_byte_write(0x07, 0xC0);
 193              		.loc 1 1579 2 view .LVU39
 194 0002 C021     		movs	r1, #192
 195 0004 0720     		movs	r0, #7
 196 0006 FFF7FEFF 		bl	tp28xx_byte_write
 197              	.LVL18:
1580:TP2824/TP2802.c **** 	tmp = tp28xx_byte_read(0x14);
 198              		.loc 1 1580 2 view .LVU40
 199              		.loc 1 1580 8 is_stmt 0 view .LVU41
 200 000a 1420     		movs	r0, #20
 201 000c FFF7FEFF 		bl	tp28xx_byte_read
 202              	.LVL19:
1581:TP2824/TP2802.c **** 	tmp &= 0x9f;
 203              		.loc 1 1581 2 is_stmt 1 view .LVU42
1582:TP2824/TP2802.c **** 	tp28xx_byte_write(0x14, tmp);
 204              		.loc 1 1582 2 view .LVU43
 205 0010 00F09F01 		and	r1, r0, #159
 206 0014 1420     		movs	r0, #20
 207              	.LVL20:
 208              		.loc 1 1582 2 is_stmt 0 view .LVU44
 209 0016 FFF7FEFF 		bl	tp28xx_byte_write
 210              	.LVL21:
1583:TP2824/TP2802.c **** 	tp28xx_byte_write(0x13, 0x00);
 211              		.loc 1 1583 2 is_stmt 1 view .LVU45
 212 001a 0021     		movs	r1, #0
 213 001c 1320     		movs	r0, #19
 214 001e FFF7FEFF 		bl	tp28xx_byte_write
ARM GAS  C:\Users\ryanc.HS\AppData\Local\Temp\ccAQ3CYh.s 			page 33


 215              	.LVL22:
1584:TP2824/TP2802.c **** 	tp28xx_byte_write(0x26, 0x04);
 216              		.loc 1 1584 2 view .LVU46
 217 0022 0421     		movs	r1, #4
 218 0024 2620     		movs	r0, #38
 219 0026 FFF7FEFF 		bl	tp28xx_byte_write
 220              	.LVL23:
1585:TP2824/TP2802.c **** 	tp28xx_byte_write(0x06, 0xb2);
 221              		.loc 1 1585 2 view .LVU47
 222 002a B221     		movs	r1, #178
 223 002c 0620     		movs	r0, #6
 224 002e FFF7FEFF 		bl	tp28xx_byte_write
 225              	.LVL24:
1586:TP2824/TP2802.c **** }
 226              		.loc 1 1586 1 is_stmt 0 view .LVU48
 227 0032 08BD     		pop	{r3, pc}
 228              		.cfi_endproc
 229              	.LFE15:
 231              		.section	.text.TP28xx_reset_default,"ax",%progbits
 232              		.align	1
 233              		.syntax unified
 234              		.thumb
 235              		.thumb_func
 236              		.fpu softvfp
 238              	TP28xx_reset_default:
 239              	.LVL25:
 240              	.LFB16:
1587:TP2824/TP2802.c **** static void TP28xx_reset_default(int chip, unsigned char ch)
1588:TP2824/TP2802.c **** {
 241              		.loc 1 1588 1 is_stmt 1 view -0
 242              		.cfi_startproc
 243              		@ args = 0, pretend = 0, frame = 0
 244              		@ frame_needed = 0, uses_anonymous_args = 0
 245              		.loc 1 1588 1 is_stmt 0 view .LVU50
 246 0000 08B5     		push	{r3, lr}
 247              	.LCFI4:
 248              		.cfi_def_cfa_offset 8
 249              		.cfi_offset 3, -8
 250              		.cfi_offset 14, -4
1589:TP2824/TP2802.c **** 	/*    if(TP2823 == chip )
1590:TP2824/TP2802.c **** 		{
1591:TP2824/TP2802.c **** 			   tp282x_reset_AGC_CLK(ch);
1592:TP2824/TP2802.c **** 		}
1593:TP2824/TP2802.c **** 		else if(TP2822 == chip )
1594:TP2824/TP2802.c **** 		{
1595:TP2824/TP2802.c **** 			   tp282x_reset_AGC_CLK(ch);
1596:TP2824/TP2802.c **** 			   tp28xx_byte_write(0x07, 0x40);
1597:TP2824/TP2802.c **** 		}
1598:TP2824/TP2802.c **** 		else if(TP2802D == chip )
1599:TP2824/TP2802.c **** 		{
1600:TP2824/TP2802.c **** 			   tp2802D_reset_default( ch);
1601:TP2824/TP2802.c **** 		}
1602:TP2824/TP2802.c **** 	*/
1603:TP2824/TP2802.c **** 	if (TP2834 == chip)
 251              		.loc 1 1603 2 is_stmt 1 view .LVU51
 252              		.loc 1 1603 5 is_stmt 0 view .LVU52
 253 0002 2428     		cmp	r0, #36
ARM GAS  C:\Users\ryanc.HS\AppData\Local\Temp\ccAQ3CYh.s 			page 34


 254 0004 06D0     		beq	.L19
1604:TP2824/TP2802.c **** 	{
1605:TP2824/TP2802.c **** 		tp2824_reset_default();
1606:TP2824/TP2802.c **** 	}
1607:TP2824/TP2802.c **** 	else if (TP2833 == chip)
 255              		.loc 1 1607 7 is_stmt 1 view .LVU53
 256              		.loc 1 1607 10 is_stmt 0 view .LVU54
 257 0006 2528     		cmp	r0, #37
 258 0008 07D0     		beq	.L20
1608:TP2824/TP2802.c **** 	{
1609:TP2824/TP2802.c **** 		tp2853C_reset_default();
1610:TP2824/TP2802.c **** 	}
1611:TP2824/TP2802.c **** 	else if (TP2853C == chip)
 259              		.loc 1 1611 7 is_stmt 1 view .LVU55
 260              		.loc 1 1611 10 is_stmt 0 view .LVU56
 261 000a 2628     		cmp	r0, #38
 262 000c 08D0     		beq	.L21
1612:TP2824/TP2802.c **** 	{
1613:TP2824/TP2802.c **** 		tp2853C_reset_default();
1614:TP2824/TP2802.c **** 	}
1615:TP2824/TP2802.c **** 	else // chunyu
1616:TP2824/TP2802.c **** 	{
1617:TP2824/TP2802.c **** 		tp2824_reset_default(); // chunyu
 263              		.loc 1 1617 3 is_stmt 1 view .LVU57
 264 000e FFF7FEFF 		bl	tp2824_reset_default
 265              	.LVL26:
 266              	.L13:
1618:TP2824/TP2802.c **** 	}
1619:TP2824/TP2802.c **** }
 267              		.loc 1 1619 1 is_stmt 0 view .LVU58
 268 0012 08BD     		pop	{r3, pc}
 269              	.LVL27:
 270              	.L19:
1605:TP2824/TP2802.c **** 	}
 271              		.loc 1 1605 3 is_stmt 1 view .LVU59
 272 0014 FFF7FEFF 		bl	tp2824_reset_default
 273              	.LVL28:
1605:TP2824/TP2802.c **** 	}
 274              		.loc 1 1605 3 is_stmt 0 view .LVU60
 275 0018 FBE7     		b	.L13
 276              	.LVL29:
 277              	.L20:
1609:TP2824/TP2802.c **** 	}
 278              		.loc 1 1609 3 is_stmt 1 view .LVU61
 279 001a FFF7FEFF 		bl	tp2853C_reset_default
 280              	.LVL30:
1609:TP2824/TP2802.c **** 	}
 281              		.loc 1 1609 3 is_stmt 0 view .LVU62
 282 001e F8E7     		b	.L13
 283              	.LVL31:
 284              	.L21:
1613:TP2824/TP2802.c **** 	}
 285              		.loc 1 1613 3 is_stmt 1 view .LVU63
 286 0020 FFF7FEFF 		bl	tp2853C_reset_default
 287              	.LVL32:
1613:TP2824/TP2802.c **** 	}
 288              		.loc 1 1613 3 is_stmt 0 view .LVU64
ARM GAS  C:\Users\ryanc.HS\AppData\Local\Temp\ccAQ3CYh.s 			page 35


 289 0024 F5E7     		b	.L13
 290              		.cfi_endproc
 291              	.LFE16:
 293              		.section	.text.I2CDeviceSet1,"ax",%progbits
 294              		.align	1
 295              		.global	I2CDeviceSet1
 296              		.syntax unified
 297              		.thumb
 298              		.thumb_func
 299              		.fpu softvfp
 301              	I2CDeviceSet1:
 302              	.LVL33:
 303              	.LFB3:
 971:TP2824/TP2802.c **** 	int cnt = 0;
 304              		.loc 1 971 1 is_stmt 1 view -0
 305              		.cfi_startproc
 306              		@ args = 0, pretend = 0, frame = 0
 307              		@ frame_needed = 0, uses_anonymous_args = 0
 971:TP2824/TP2802.c **** 	int cnt = 0;
 308              		.loc 1 971 1 is_stmt 0 view .LVU66
 309 0000 10B5     		push	{r4, lr}
 310              	.LCFI5:
 311              		.cfi_def_cfa_offset 8
 312              		.cfi_offset 4, -8
 313              		.cfi_offset 14, -4
 314 0002 0446     		mov	r4, r0
 972:TP2824/TP2802.c **** 	tByte index, val;
 315              		.loc 1 972 2 is_stmt 1 view .LVU67
 316              	.LVL34:
 973:TP2824/TP2802.c **** 
 317              		.loc 1 973 2 view .LVU68
 982:TP2824/TP2802.c **** 	{
 318              		.loc 1 982 2 view .LVU69
 319              	.L23:
 982:TP2824/TP2802.c **** 	{
 320              		.loc 1 982 8 view .LVU70
 982:TP2824/TP2802.c **** 	{
 321              		.loc 1 982 9 is_stmt 0 view .LVU71
 322 0004 2078     		ldrb	r0, [r4]	@ zero_extendqisi2
 982:TP2824/TP2802.c **** 	{
 323              		.loc 1 982 8 view .LVU72
 324 0006 FF28     		cmp	r0, #255
 325 0008 04D0     		beq	.L26
 985:TP2824/TP2802.c **** 		val = *(RegSet + 1);
 326              		.loc 1 985 3 is_stmt 1 view .LVU73
 327              	.LVL35:
 986:TP2824/TP2802.c **** 		//		MonWriteI2C(addr, index, val);
 328              		.loc 1 986 3 view .LVU74
 988:TP2824/TP2802.c **** 
 329              		.loc 1 988 3 view .LVU75
 330 000a 6178     		ldrb	r1, [r4, #1]	@ zero_extendqisi2
 331 000c FFF7FEFF 		bl	tp28xx_byte_write
 332              	.LVL36:
 992:TP2824/TP2802.c **** 
 333              		.loc 1 992 3 view .LVU76
 992:TP2824/TP2802.c **** 
 334              		.loc 1 992 10 is_stmt 0 view .LVU77
ARM GAS  C:\Users\ryanc.HS\AppData\Local\Temp\ccAQ3CYh.s 			page 36


 335 0010 0234     		adds	r4, r4, #2
 336              	.LVL37:
 994:TP2824/TP2802.c **** 	}
 337              		.loc 1 994 3 is_stmt 1 view .LVU78
 338 0012 F7E7     		b	.L23
 339              	.L26:
 996:TP2824/TP2802.c **** }
 340              		.loc 1 996 2 view .LVU79
 341 0014 3220     		movs	r0, #50
 342 0016 FFF7FEFF 		bl	delay
 343              	.LVL38:
 997:TP2824/TP2802.c **** 
 344              		.loc 1 997 1 is_stmt 0 view .LVU80
 345 001a 10BD     		pop	{r4, pc}
 997:TP2824/TP2802.c **** 
 346              		.loc 1 997 1 view .LVU81
 347              		.cfi_endproc
 348              	.LFE3:
 350              		.section	.text.I2CDeviceSet2,"ax",%progbits
 351              		.align	1
 352              		.global	I2CDeviceSet2
 353              		.syntax unified
 354              		.thumb
 355              		.thumb_func
 356              		.fpu softvfp
 358              	I2CDeviceSet2:
 359              	.LVL39:
 360              	.LFB4:
1000:TP2824/TP2802.c **** 	int cnt = 0;
 361              		.loc 1 1000 1 is_stmt 1 view -0
 362              		.cfi_startproc
 363              		@ args = 0, pretend = 0, frame = 0
 364              		@ frame_needed = 0, uses_anonymous_args = 0
1000:TP2824/TP2802.c **** 	int cnt = 0;
 365              		.loc 1 1000 1 is_stmt 0 view .LVU83
 366 0000 38B5     		push	{r3, r4, r5, lr}
 367              	.LCFI6:
 368              		.cfi_def_cfa_offset 16
 369              		.cfi_offset 3, -16
 370              		.cfi_offset 4, -12
 371              		.cfi_offset 5, -8
 372              		.cfi_offset 14, -4
 373 0002 0446     		mov	r4, r0
 374 0004 0D46     		mov	r5, r1
1001:TP2824/TP2802.c **** 	tByte index, val;
 375              		.loc 1 1001 2 is_stmt 1 view .LVU84
 376              	.LVL40:
1002:TP2824/TP2802.c **** 
 377              		.loc 1 1002 2 view .LVU85
1004:TP2824/TP2802.c **** 	{
 378              		.loc 1 1004 2 view .LVU86
 379              	.L28:
1004:TP2824/TP2802.c **** 	{
 380              		.loc 1 1004 8 view .LVU87
1004:TP2824/TP2802.c **** 	{
 381              		.loc 1 1004 9 is_stmt 0 view .LVU88
 382 0006 2078     		ldrb	r0, [r4]	@ zero_extendqisi2
ARM GAS  C:\Users\ryanc.HS\AppData\Local\Temp\ccAQ3CYh.s 			page 37


1004:TP2824/TP2802.c **** 	{
 383              		.loc 1 1004 8 view .LVU89
 384 0008 FF28     		cmp	r0, #255
 385 000a 05D0     		beq	.L31
1007:TP2824/TP2802.c **** 		val = *DatSet;
 386              		.loc 1 1007 3 is_stmt 1 view .LVU90
 387              	.LVL41:
1008:TP2824/TP2802.c **** 		//		MonWriteI2C(addr, index, val);
 388              		.loc 1 1008 3 view .LVU91
1010:TP2824/TP2802.c **** 
 389              		.loc 1 1010 3 view .LVU92
 390 000c 15F8011B 		ldrb	r1, [r5], #1	@ zero_extendqisi2
 391              	.LVL42:
1010:TP2824/TP2802.c **** 
 392              		.loc 1 1010 3 is_stmt 0 view .LVU93
 393 0010 FFF7FEFF 		bl	tp28xx_byte_write
 394              	.LVL43:
1014:TP2824/TP2802.c **** 		DatSet++;
 395              		.loc 1 1014 3 is_stmt 1 view .LVU94
1014:TP2824/TP2802.c **** 		DatSet++;
 396              		.loc 1 1014 9 is_stmt 0 view .LVU95
 397 0014 0134     		adds	r4, r4, #1
 398              	.LVL44:
1015:TP2824/TP2802.c **** 
 399              		.loc 1 1015 3 is_stmt 1 view .LVU96
1017:TP2824/TP2802.c **** 	}
 400              		.loc 1 1017 3 view .LVU97
 401 0016 F6E7     		b	.L28
 402              	.L31:
1019:TP2824/TP2802.c **** }
 403              		.loc 1 1019 2 view .LVU98
 404 0018 3220     		movs	r0, #50
 405 001a FFF7FEFF 		bl	delay
 406              	.LVL45:
1020:TP2824/TP2802.c **** 
 407              		.loc 1 1020 1 is_stmt 0 view .LVU99
 408 001e 38BD     		pop	{r3, r4, r5, pc}
1020:TP2824/TP2802.c **** 
 409              		.loc 1 1020 1 view .LVU100
 410              		.cfi_endproc
 411              	.LFE4:
 413              		.section	.text.SetRegPage,"ax",%progbits
 414              		.align	1
 415              		.global	SetRegPage
 416              		.syntax unified
 417              		.thumb
 418              		.thumb_func
 419              		.fpu softvfp
 421              	SetRegPage:
 422              	.LVL46:
 423              	.LFB5:
1023:TP2824/TP2802.c **** 	// tByte tmp;
 424              		.loc 1 1023 1 is_stmt 1 view -0
 425              		.cfi_startproc
 426              		@ args = 0, pretend = 0, frame = 0
 427              		@ frame_needed = 0, uses_anonymous_args = 0
1023:TP2824/TP2802.c **** 	// tByte tmp;
ARM GAS  C:\Users\ryanc.HS\AppData\Local\Temp\ccAQ3CYh.s 			page 38


 428              		.loc 1 1023 1 is_stmt 0 view .LVU102
 429 0000 08B5     		push	{r3, lr}
 430              	.LCFI7:
 431              		.cfi_def_cfa_offset 8
 432              		.cfi_offset 3, -8
 433              		.cfi_offset 14, -4
 434 0002 0146     		mov	r1, r0
1026:TP2824/TP2802.c **** 	// tp28xx_byte_write(0x40,0x04); //chunyu
 435              		.loc 1 1026 2 is_stmt 1 view .LVU103
 436 0004 4020     		movs	r0, #64
 437              	.LVL47:
1026:TP2824/TP2802.c **** 	// tp28xx_byte_write(0x40,0x04); //chunyu
 438              		.loc 1 1026 2 is_stmt 0 view .LVU104
 439 0006 FFF7FEFF 		bl	tp28xx_byte_write
 440              	.LVL48:
1029:TP2824/TP2802.c **** 
 441              		.loc 1 1029 1 view .LVU105
 442 000a 08BD     		pop	{r3, pc}
 443              		.cfi_endproc
 444              	.LFE5:
 446              		.section	.rodata.Set_VidRes.str1.4,"aMS",%progbits,1
 447              		.align	2
 448              	.LC0:
 449 0000 31303830 		.ascii	"1080p30\000"
 449      70333000 
 450              		.align	2
 451              	.LC1:
 452 0008 31303830 		.ascii	"1080p25\000"
 452      70323500 
 453              		.align	2
 454              	.LC2:
 455 0010 37323070 		.ascii	"720p60\000"
 455      363000
 456 0017 00       		.align	2
 457              	.LC3:
 458 0018 37323070 		.ascii	"720p30V2\000"
 458      33305632 
 458      00
 459 0021 000000   		.align	2
 460              	.LC4:
 461 0024 37323070 		.ascii	"720p50\000"
 461      353000
 462 002b 00       		.align	2
 463              	.LC5:
 464 002c 37323070 		.ascii	"720p25V2\000"
 464      32355632 
 464      00
 465 0035 000000   		.align	2
 466              	.LC6:
 467 0038 37323070 		.ascii	"720p30\000"
 467      333000
 468 003f 00       		.align	2
 469              	.LC7:
 470 0040 37323070 		.ascii	"720p25\000"
 470      323500
 471 0047 00       		.align	2
 472              	.LC8:
ARM GAS  C:\Users\ryanc.HS\AppData\Local\Temp\ccAQ3CYh.s 			page 39


 473 0048 50414C00 		.ascii	"PAL\000"
 474              		.align	2
 475              	.LC9:
 476 004c 4E545343 		.ascii	"NTSC\000"
 476      00
 477 0051 000000   		.align	2
 478              	.LC10:
 479 0054 334D3138 		.ascii	"3M18\000"
 479      00
 480 0059 000000   		.align	2
 481              	.LC11:
 482 005c 354D3132 		.ascii	"5M12\000"
 482      00
 483 0061 000000   		.align	2
 484              	.LC12:
 485 0064 344D3135 		.ascii	"4M15\000"
 485      00
 486 0069 000000   		.align	2
 487              	.LC13:
 488 006c 334D3230 		.ascii	"3M20\000"
 488      00
 489 0071 000000   		.align	2
 490              	.LC14:
 491 0074 344D3132 		.ascii	"4M12\000"
 491      00
 492 0079 000000   		.align	2
 493              	.LC15:
 494 007c 364D3130 		.ascii	"6M10\000"
 494      00
 495 0081 000000   		.align	2
 496              	.LC16:
 497 0084 344D3330 		.ascii	"4M30\000"
 497      00
 498 0089 000000   		.align	2
 499              	.LC17:
 500 008c 2E2E2E0D 		.ascii	"...\015\000"
 500      00
 501 0091 000000   		.align	2
 502              	.LC18:
 503 0094 74703238 		.ascii	"tp2826MODEDATASET\015\000"
 503      32364D4F 
 503      44454441 
 503      54415345 
 503      540D00
 504 00a7 00       		.align	2
 505              	.LC19:
 506 00a8 74703238 		.ascii	"tp2824C MODEDATASET\015\000"
 506      32344320 
 506      4D4F4445 
 506      44415441 
 506      5345540D 
 507              		.section	.text.Set_VidRes,"ax",%progbits
 508              		.align	1
 509              		.global	Set_VidRes
 510              		.syntax unified
 511              		.thumb
 512              		.thumb_func
ARM GAS  C:\Users\ryanc.HS\AppData\Local\Temp\ccAQ3CYh.s 			page 40


 513              		.fpu softvfp
 515              	Set_VidRes:
 516              	.LVL49:
 517              	.LFB8:
1147:TP2824/TP2802.c **** 	tByte index, sys, tmp;
 518              		.loc 1 1147 1 is_stmt 1 view -0
 519              		.cfi_startproc
 520              		@ args = 0, pretend = 0, frame = 0
 521              		@ frame_needed = 0, uses_anonymous_args = 0
1147:TP2824/TP2802.c **** 	tByte index, sys, tmp;
 522              		.loc 1 1147 1 is_stmt 0 view .LVU107
 523 0000 70B5     		push	{r4, r5, r6, lr}
 524              	.LCFI8:
 525              		.cfi_def_cfa_offset 16
 526              		.cfi_offset 4, -16
 527              		.cfi_offset 5, -12
 528              		.cfi_offset 6, -8
 529              		.cfi_offset 14, -4
 530 0002 0646     		mov	r6, r0
1148:TP2824/TP2802.c **** 	sys = 1; // V1
 531              		.loc 1 1148 2 is_stmt 1 view .LVU108
1149:TP2824/TP2802.c **** 	// printf("Set_VidRes");
 532              		.loc 1 1149 2 view .LVU109
 533              	.LVL50:
1151:TP2824/TP2802.c **** 	{
 534              		.loc 1 1151 2 view .LVU110
1151:TP2824/TP2802.c **** 	{
 535              		.loc 1 1151 14 is_stmt 0 view .LVU111
 536 0004 8A4B     		ldr	r3, .L69
 537 0006 1C5C     		ldrb	r4, [r3, r0]	@ zero_extendqisi2
 538 0008 262C     		cmp	r4, #38
 539 000a 00F2A680 		bhi	.L61
 540 000e DFE804F0 		tbb	[pc, r4]
 541              	.L37:
 542 0012 24       		.byte	(.L53-.L37)/2
 543 0013 36       		.byte	(.L52-.L37)/2
 544 0014 14       		.byte	(.L51-.L37)/2
 545 0015 1C       		.byte	(.L50-.L37)/2
 546 0016 47       		.byte	(.L49-.L37)/2
 547 0017 50       		.byte	(.L48-.L37)/2
 548 0018 A4       		.byte	(.L61-.L37)/2
 549 0019 A4       		.byte	(.L61-.L37)/2
 550 001a 62       		.byte	(.L47-.L37)/2
 551 001b 59       		.byte	(.L46-.L37)/2
 552 001c A4       		.byte	(.L61-.L37)/2
 553 001d A4       		.byte	(.L61-.L37)/2
 554 001e 2D       		.byte	(.L45-.L37)/2
 555 001f 3E       		.byte	(.L44-.L37)/2
 556 0020 A4       		.byte	(.L61-.L37)/2
 557 0021 A4       		.byte	(.L61-.L37)/2
 558 0022 A4       		.byte	(.L61-.L37)/2
 559 0023 A4       		.byte	(.L61-.L37)/2
 560 0024 A4       		.byte	(.L61-.L37)/2
 561 0025 A4       		.byte	(.L61-.L37)/2
 562 0026 A4       		.byte	(.L61-.L37)/2
 563 0027 A4       		.byte	(.L61-.L37)/2
 564 0028 A4       		.byte	(.L61-.L37)/2
ARM GAS  C:\Users\ryanc.HS\AppData\Local\Temp\ccAQ3CYh.s 			page 41


 565 0029 A4       		.byte	(.L61-.L37)/2
 566 002a A4       		.byte	(.L61-.L37)/2
 567 002b A4       		.byte	(.L61-.L37)/2
 568 002c A4       		.byte	(.L61-.L37)/2
 569 002d A4       		.byte	(.L61-.L37)/2
 570 002e A4       		.byte	(.L61-.L37)/2
 571 002f A4       		.byte	(.L61-.L37)/2
 572 0030 A4       		.byte	(.L61-.L37)/2
 573 0031 A4       		.byte	(.L61-.L37)/2
 574 0032 6B       		.byte	(.L43-.L37)/2
 575 0033 73       		.byte	(.L42-.L37)/2
 576 0034 7B       		.byte	(.L41-.L37)/2
 577 0035 83       		.byte	(.L40-.L37)/2
 578 0036 8B       		.byte	(.L39-.L37)/2
 579 0037 93       		.byte	(.L38-.L37)/2
 580 0038 9B       		.byte	(.L36-.L37)/2
 581 0039 00       		.p2align 1
 582              	.L51:
1154:TP2824/TP2802.c **** 		sys = 1;   // V1
 583              		.loc 1 1154 3 is_stmt 1 view .LVU112
 584              	.LVL51:
1155:TP2824/TP2802.c **** 		ManVidResRx = RES1920X1080;
 585              		.loc 1 1155 3 view .LVU113
1156:TP2824/TP2802.c **** 		printf("1080p30");
 586              		.loc 1 1156 3 view .LVU114
1156:TP2824/TP2802.c **** 		printf("1080p30");
 587              		.loc 1 1156 15 is_stmt 0 view .LVU115
 588 003a 0125     		movs	r5, #1
 589 003c 7D4B     		ldr	r3, .L69+4
 590 003e 1D70     		strb	r5, [r3]
1157:TP2824/TP2802.c **** 		break;
 591              		.loc 1 1157 3 is_stmt 1 view .LVU116
 592 0040 7D48     		ldr	r0, .L69+8
 593              	.LVL52:
1157:TP2824/TP2802.c **** 		break;
 594              		.loc 1 1157 3 is_stmt 0 view .LVU117
 595 0042 FFF7FEFF 		bl	printf
 596              	.LVL53:
1158:TP2824/TP2802.c **** 
 597              		.loc 1 1158 3 is_stmt 1 view .LVU118
1155:TP2824/TP2802.c **** 		ManVidResRx = RES1920X1080;
 598              		.loc 1 1155 7 is_stmt 0 view .LVU119
 599 0046 2C46     		mov	r4, r5
1158:TP2824/TP2802.c **** 
 600              		.loc 1 1158 3 view .LVU120
 601 0048 89E0     		b	.L35
 602              	.LVL54:
 603              	.L50:
1161:TP2824/TP2802.c **** 		sys = 1;   // V1
 604              		.loc 1 1161 3 is_stmt 1 view .LVU121
1162:TP2824/TP2802.c **** 		ManVidResRx = RES1920X1080;
 605              		.loc 1 1162 3 view .LVU122
1163:TP2824/TP2802.c **** 		printf("1080p25");
 606              		.loc 1 1163 3 view .LVU123
1163:TP2824/TP2802.c **** 		printf("1080p25");
 607              		.loc 1 1163 15 is_stmt 0 view .LVU124
 608 004a 0124     		movs	r4, #1
ARM GAS  C:\Users\ryanc.HS\AppData\Local\Temp\ccAQ3CYh.s 			page 42


 609 004c 794B     		ldr	r3, .L69+4
 610 004e 1C70     		strb	r4, [r3]
1164:TP2824/TP2802.c **** 		break;
 611              		.loc 1 1164 3 is_stmt 1 view .LVU125
 612 0050 7A48     		ldr	r0, .L69+12
 613              	.LVL55:
1164:TP2824/TP2802.c **** 		break;
 614              		.loc 1 1164 3 is_stmt 0 view .LVU126
 615 0052 FFF7FEFF 		bl	printf
 616              	.LVL56:
1165:TP2824/TP2802.c **** 
 617              		.loc 1 1165 3 is_stmt 1 view .LVU127
1161:TP2824/TP2802.c **** 		sys = 1;   // V1
 618              		.loc 1 1161 9 is_stmt 0 view .LVU128
 619 0056 0225     		movs	r5, #2
1165:TP2824/TP2802.c **** 
 620              		.loc 1 1165 3 view .LVU129
 621 0058 81E0     		b	.L35
 622              	.LVL57:
 623              	.L53:
1168:TP2824/TP2802.c **** 		sys = 1;   // V1
 624              		.loc 1 1168 3 is_stmt 1 view .LVU130
1169:TP2824/TP2802.c **** 		ManVidResRx = RES1280X720;
 625              		.loc 1 1169 3 view .LVU131
1170:TP2824/TP2802.c **** 		printf("720p60");
 626              		.loc 1 1170 3 view .LVU132
1170:TP2824/TP2802.c **** 		printf("720p60");
 627              		.loc 1 1170 15 is_stmt 0 view .LVU133
 628 005a 764B     		ldr	r3, .L69+4
 629 005c 0022     		movs	r2, #0
 630 005e 1A70     		strb	r2, [r3]
1171:TP2824/TP2802.c **** 		break;
 631              		.loc 1 1171 3 is_stmt 1 view .LVU134
 632 0060 7748     		ldr	r0, .L69+16
 633              	.LVL58:
1171:TP2824/TP2802.c **** 		break;
 634              		.loc 1 1171 3 is_stmt 0 view .LVU135
 635 0062 FFF7FEFF 		bl	printf
 636              	.LVL59:
1172:TP2824/TP2802.c **** 
 637              		.loc 1 1172 3 is_stmt 1 view .LVU136
1169:TP2824/TP2802.c **** 		ManVidResRx = RES1280X720;
 638              		.loc 1 1169 7 is_stmt 0 view .LVU137
 639 0066 0124     		movs	r4, #1
1168:TP2824/TP2802.c **** 		sys = 1;   // V1
 640              		.loc 1 1168 9 view .LVU138
 641 0068 0325     		movs	r5, #3
1172:TP2824/TP2802.c **** 
 642              		.loc 1 1172 3 view .LVU139
 643 006a 78E0     		b	.L35
 644              	.LVL60:
 645              	.L45:
1175:TP2824/TP2802.c **** 		sys = 2;	// V2
 646              		.loc 1 1175 3 is_stmt 1 view .LVU140
1176:TP2824/TP2802.c **** 		ManVidResRx = RES1280X720;
 647              		.loc 1 1176 3 view .LVU141
1177:TP2824/TP2802.c **** 		printf("720p30V2");
ARM GAS  C:\Users\ryanc.HS\AppData\Local\Temp\ccAQ3CYh.s 			page 43


 648              		.loc 1 1177 3 view .LVU142
1177:TP2824/TP2802.c **** 		printf("720p30V2");
 649              		.loc 1 1177 15 is_stmt 0 view .LVU143
 650 006c 714B     		ldr	r3, .L69+4
 651 006e 0022     		movs	r2, #0
 652 0070 1A70     		strb	r2, [r3]
1178:TP2824/TP2802.c **** 		break;
 653              		.loc 1 1178 3 is_stmt 1 view .LVU144
 654 0072 7448     		ldr	r0, .L69+20
 655              	.LVL61:
1178:TP2824/TP2802.c **** 		break;
 656              		.loc 1 1178 3 is_stmt 0 view .LVU145
 657 0074 FFF7FEFF 		bl	printf
 658              	.LVL62:
1179:TP2824/TP2802.c **** 
 659              		.loc 1 1179 3 is_stmt 1 view .LVU146
1176:TP2824/TP2802.c **** 		ManVidResRx = RES1280X720;
 660              		.loc 1 1176 7 is_stmt 0 view .LVU147
 661 0078 0224     		movs	r4, #2
1175:TP2824/TP2802.c **** 		sys = 2;	// V2
 662              		.loc 1 1175 9 view .LVU148
 663 007a 0B25     		movs	r5, #11
1179:TP2824/TP2802.c **** 
 664              		.loc 1 1179 3 view .LVU149
 665 007c 6FE0     		b	.L35
 666              	.LVL63:
 667              	.L52:
1182:TP2824/TP2802.c **** 		sys = 1;   // V1
 668              		.loc 1 1182 3 is_stmt 1 view .LVU150
1183:TP2824/TP2802.c **** 		ManVidResRx = RES1280X720;
 669              		.loc 1 1183 3 view .LVU151
1184:TP2824/TP2802.c **** 		printf("720p50");
 670              		.loc 1 1184 3 view .LVU152
1184:TP2824/TP2802.c **** 		printf("720p50");
 671              		.loc 1 1184 15 is_stmt 0 view .LVU153
 672 007e 6D4B     		ldr	r3, .L69+4
 673 0080 0022     		movs	r2, #0
 674 0082 1A70     		strb	r2, [r3]
1185:TP2824/TP2802.c **** 		break;
 675              		.loc 1 1185 3 is_stmt 1 view .LVU154
 676 0084 7048     		ldr	r0, .L69+24
 677              	.LVL64:
1185:TP2824/TP2802.c **** 		break;
 678              		.loc 1 1185 3 is_stmt 0 view .LVU155
 679 0086 FFF7FEFF 		bl	printf
 680              	.LVL65:
1186:TP2824/TP2802.c **** 
 681              		.loc 1 1186 3 is_stmt 1 view .LVU156
1182:TP2824/TP2802.c **** 		sys = 1;   // V1
 682              		.loc 1 1182 9 is_stmt 0 view .LVU157
 683 008a 0425     		movs	r5, #4
1186:TP2824/TP2802.c **** 
 684              		.loc 1 1186 3 view .LVU158
 685 008c 67E0     		b	.L35
 686              	.LVL66:
 687              	.L44:
1189:TP2824/TP2802.c **** 		sys = 2;	// V2
ARM GAS  C:\Users\ryanc.HS\AppData\Local\Temp\ccAQ3CYh.s 			page 44


 688              		.loc 1 1189 3 is_stmt 1 view .LVU159
1190:TP2824/TP2802.c **** 		ManVidResRx = RES1280X720;
 689              		.loc 1 1190 3 view .LVU160
1191:TP2824/TP2802.c **** 		printf("720p25V2");
 690              		.loc 1 1191 3 view .LVU161
1191:TP2824/TP2802.c **** 		printf("720p25V2");
 691              		.loc 1 1191 15 is_stmt 0 view .LVU162
 692 008e 694B     		ldr	r3, .L69+4
 693 0090 0022     		movs	r2, #0
 694 0092 1A70     		strb	r2, [r3]
1192:TP2824/TP2802.c **** 		break;
 695              		.loc 1 1192 3 is_stmt 1 view .LVU163
 696 0094 6D48     		ldr	r0, .L69+28
 697              	.LVL67:
1192:TP2824/TP2802.c **** 		break;
 698              		.loc 1 1192 3 is_stmt 0 view .LVU164
 699 0096 FFF7FEFF 		bl	printf
 700              	.LVL68:
1193:TP2824/TP2802.c **** 
 701              		.loc 1 1193 3 is_stmt 1 view .LVU165
1190:TP2824/TP2802.c **** 		ManVidResRx = RES1280X720;
 702              		.loc 1 1190 7 is_stmt 0 view .LVU166
 703 009a 0224     		movs	r4, #2
1189:TP2824/TP2802.c **** 		sys = 2;	// V2
 704              		.loc 1 1189 9 view .LVU167
 705 009c 0C25     		movs	r5, #12
1193:TP2824/TP2802.c **** 
 706              		.loc 1 1193 3 view .LVU168
 707 009e 5EE0     		b	.L35
 708              	.LVL69:
 709              	.L49:
1196:TP2824/TP2802.c **** 		sys = 1;   // V1
 710              		.loc 1 1196 3 is_stmt 1 view .LVU169
1197:TP2824/TP2802.c **** 		ManVidResRx = RES1280X720;
 711              		.loc 1 1197 3 view .LVU170
1198:TP2824/TP2802.c **** 		printf("720p30");
 712              		.loc 1 1198 3 view .LVU171
1198:TP2824/TP2802.c **** 		printf("720p30");
 713              		.loc 1 1198 15 is_stmt 0 view .LVU172
 714 00a0 644B     		ldr	r3, .L69+4
 715 00a2 0022     		movs	r2, #0
 716 00a4 1A70     		strb	r2, [r3]
1199:TP2824/TP2802.c **** 		break;
 717              		.loc 1 1199 3 is_stmt 1 view .LVU173
 718 00a6 6A48     		ldr	r0, .L69+32
 719              	.LVL70:
1199:TP2824/TP2802.c **** 		break;
 720              		.loc 1 1199 3 is_stmt 0 view .LVU174
 721 00a8 FFF7FEFF 		bl	printf
 722              	.LVL71:
1200:TP2824/TP2802.c **** 
 723              		.loc 1 1200 3 is_stmt 1 view .LVU175
1197:TP2824/TP2802.c **** 		ManVidResRx = RES1280X720;
 724              		.loc 1 1197 7 is_stmt 0 view .LVU176
 725 00ac 0124     		movs	r4, #1
1196:TP2824/TP2802.c **** 		sys = 1;   // V1
 726              		.loc 1 1196 9 view .LVU177
ARM GAS  C:\Users\ryanc.HS\AppData\Local\Temp\ccAQ3CYh.s 			page 45


 727 00ae 0525     		movs	r5, #5
1200:TP2824/TP2802.c **** 
 728              		.loc 1 1200 3 view .LVU178
 729 00b0 55E0     		b	.L35
 730              	.LVL72:
 731              	.L48:
1203:TP2824/TP2802.c **** 		sys = 1;   // V1
 732              		.loc 1 1203 3 is_stmt 1 view .LVU179
1204:TP2824/TP2802.c **** 		ManVidResRx = RES1280X720;
 733              		.loc 1 1204 3 view .LVU180
1205:TP2824/TP2802.c **** 		printf("720p25");
 734              		.loc 1 1205 3 view .LVU181
1205:TP2824/TP2802.c **** 		printf("720p25");
 735              		.loc 1 1205 15 is_stmt 0 view .LVU182
 736 00b2 604B     		ldr	r3, .L69+4
 737 00b4 0022     		movs	r2, #0
 738 00b6 1A70     		strb	r2, [r3]
1206:TP2824/TP2802.c **** 		break;
 739              		.loc 1 1206 3 is_stmt 1 view .LVU183
 740 00b8 6648     		ldr	r0, .L69+36
 741              	.LVL73:
1206:TP2824/TP2802.c **** 		break;
 742              		.loc 1 1206 3 is_stmt 0 view .LVU184
 743 00ba FFF7FEFF 		bl	printf
 744              	.LVL74:
1207:TP2824/TP2802.c **** 
 745              		.loc 1 1207 3 is_stmt 1 view .LVU185
1204:TP2824/TP2802.c **** 		ManVidResRx = RES1280X720;
 746              		.loc 1 1204 7 is_stmt 0 view .LVU186
 747 00be 0124     		movs	r4, #1
1203:TP2824/TP2802.c **** 		sys = 1;   // V1
 748              		.loc 1 1203 9 view .LVU187
 749 00c0 0625     		movs	r5, #6
1207:TP2824/TP2802.c **** 
 750              		.loc 1 1207 3 view .LVU188
 751 00c2 4CE0     		b	.L35
 752              	.LVL75:
 753              	.L46:
1210:TP2824/TP2802.c **** 		sys = 4;
 754              		.loc 1 1210 3 is_stmt 1 view .LVU189
1211:TP2824/TP2802.c **** 		ManVidResRx = RES1920X576;
 755              		.loc 1 1211 3 view .LVU190
1212:TP2824/TP2802.c **** 		printf("PAL");
 756              		.loc 1 1212 3 view .LVU191
1212:TP2824/TP2802.c **** 		printf("PAL");
 757              		.loc 1 1212 15 is_stmt 0 view .LVU192
 758 00c4 5B4B     		ldr	r3, .L69+4
 759 00c6 0322     		movs	r2, #3
 760 00c8 1A70     		strb	r2, [r3]
1213:TP2824/TP2802.c **** 		break;
 761              		.loc 1 1213 3 is_stmt 1 view .LVU193
 762 00ca 6348     		ldr	r0, .L69+40
 763              	.LVL76:
1213:TP2824/TP2802.c **** 		break;
 764              		.loc 1 1213 3 is_stmt 0 view .LVU194
 765 00cc FFF7FEFF 		bl	printf
 766              	.LVL77:
ARM GAS  C:\Users\ryanc.HS\AppData\Local\Temp\ccAQ3CYh.s 			page 46


1214:TP2824/TP2802.c **** 
 767              		.loc 1 1214 3 is_stmt 1 view .LVU195
1211:TP2824/TP2802.c **** 		ManVidResRx = RES1920X576;
 768              		.loc 1 1211 7 is_stmt 0 view .LVU196
 769 00d0 0424     		movs	r4, #4
1210:TP2824/TP2802.c **** 		sys = 4;
 770              		.loc 1 1210 9 view .LVU197
 771 00d2 0825     		movs	r5, #8
1214:TP2824/TP2802.c **** 
 772              		.loc 1 1214 3 view .LVU198
 773 00d4 43E0     		b	.L35
 774              	.LVL78:
 775              	.L47:
1217:TP2824/TP2802.c **** 		sys = 3;
 776              		.loc 1 1217 3 is_stmt 1 view .LVU199
1218:TP2824/TP2802.c **** 		ManVidResRx = RES1920X480;
 777              		.loc 1 1218 3 view .LVU200
1219:TP2824/TP2802.c **** 		printf("NTSC");
 778              		.loc 1 1219 3 view .LVU201
1219:TP2824/TP2802.c **** 		printf("NTSC");
 779              		.loc 1 1219 15 is_stmt 0 view .LVU202
 780 00d6 574B     		ldr	r3, .L69+4
 781 00d8 0222     		movs	r2, #2
 782 00da 1A70     		strb	r2, [r3]
1220:TP2824/TP2802.c **** 		break;
 783              		.loc 1 1220 3 is_stmt 1 view .LVU203
 784 00dc 5F48     		ldr	r0, .L69+44
 785              	.LVL79:
1220:TP2824/TP2802.c **** 		break;
 786              		.loc 1 1220 3 is_stmt 0 view .LVU204
 787 00de FFF7FEFF 		bl	printf
 788              	.LVL80:
1221:TP2824/TP2802.c **** 
 789              		.loc 1 1221 3 is_stmt 1 view .LVU205
1218:TP2824/TP2802.c **** 		ManVidResRx = RES1920X480;
 790              		.loc 1 1218 7 is_stmt 0 view .LVU206
 791 00e2 0324     		movs	r4, #3
1217:TP2824/TP2802.c **** 		sys = 3;
 792              		.loc 1 1217 9 view .LVU207
 793 00e4 0725     		movs	r5, #7
1221:TP2824/TP2802.c **** 
 794              		.loc 1 1221 3 view .LVU208
 795 00e6 3AE0     		b	.L35
 796              	.LVL81:
 797              	.L43:
1224:TP2824/TP2802.c **** 		sys = 1;   // V1
 798              		.loc 1 1224 3 is_stmt 1 view .LVU209
1225:TP2824/TP2802.c **** 		ManVidResRx = RES1920X1080;
 799              		.loc 1 1225 3 view .LVU210
1226:TP2824/TP2802.c **** 		printf("3M18");
 800              		.loc 1 1226 3 view .LVU211
1226:TP2824/TP2802.c **** 		printf("3M18");
 801              		.loc 1 1226 15 is_stmt 0 view .LVU212
 802 00e8 0124     		movs	r4, #1
 803 00ea 524B     		ldr	r3, .L69+4
 804 00ec 1C70     		strb	r4, [r3]
1227:TP2824/TP2802.c **** 		break;
ARM GAS  C:\Users\ryanc.HS\AppData\Local\Temp\ccAQ3CYh.s 			page 47


 805              		.loc 1 1227 3 is_stmt 1 view .LVU213
 806 00ee 5C48     		ldr	r0, .L69+48
 807              	.LVL82:
1227:TP2824/TP2802.c **** 		break;
 808              		.loc 1 1227 3 is_stmt 0 view .LVU214
 809 00f0 FFF7FEFF 		bl	printf
 810              	.LVL83:
1228:TP2824/TP2802.c **** 
 811              		.loc 1 1228 3 is_stmt 1 view .LVU215
1224:TP2824/TP2802.c **** 		sys = 1;   // V1
 812              		.loc 1 1224 9 is_stmt 0 view .LVU216
 813 00f4 0925     		movs	r5, #9
1228:TP2824/TP2802.c **** 
 814              		.loc 1 1228 3 view .LVU217
 815 00f6 32E0     		b	.L35
 816              	.LVL84:
 817              	.L42:
1231:TP2824/TP2802.c **** 		sys = 1;	// V1
 818              		.loc 1 1231 3 is_stmt 1 view .LVU218
1232:TP2824/TP2802.c **** 		ManVidResRx = RES1920X1080;
 819              		.loc 1 1232 3 view .LVU219
1233:TP2824/TP2802.c **** 		printf("5M12");
 820              		.loc 1 1233 3 view .LVU220
1233:TP2824/TP2802.c **** 		printf("5M12");
 821              		.loc 1 1233 15 is_stmt 0 view .LVU221
 822 00f8 0124     		movs	r4, #1
 823 00fa 4E4B     		ldr	r3, .L69+4
 824 00fc 1C70     		strb	r4, [r3]
1234:TP2824/TP2802.c **** 		break;
 825              		.loc 1 1234 3 is_stmt 1 view .LVU222
 826 00fe 5948     		ldr	r0, .L69+52
 827              	.LVL85:
1234:TP2824/TP2802.c **** 		break;
 828              		.loc 1 1234 3 is_stmt 0 view .LVU223
 829 0100 FFF7FEFF 		bl	printf
 830              	.LVL86:
1235:TP2824/TP2802.c **** 
 831              		.loc 1 1235 3 is_stmt 1 view .LVU224
1231:TP2824/TP2802.c **** 		sys = 1;	// V1
 832              		.loc 1 1231 9 is_stmt 0 view .LVU225
 833 0104 0A25     		movs	r5, #10
1235:TP2824/TP2802.c **** 
 834              		.loc 1 1235 3 view .LVU226
 835 0106 2AE0     		b	.L35
 836              	.LVL87:
 837              	.L41:
1238:TP2824/TP2802.c **** 		sys = 1;	// V1
 838              		.loc 1 1238 3 is_stmt 1 view .LVU227
1239:TP2824/TP2802.c **** 		ManVidResRx = RES1920X1080;
 839              		.loc 1 1239 3 view .LVU228
1240:TP2824/TP2802.c **** 		printf("4M15");
 840              		.loc 1 1240 3 view .LVU229
1240:TP2824/TP2802.c **** 		printf("4M15");
 841              		.loc 1 1240 15 is_stmt 0 view .LVU230
 842 0108 0124     		movs	r4, #1
 843 010a 4A4B     		ldr	r3, .L69+4
 844 010c 1C70     		strb	r4, [r3]
ARM GAS  C:\Users\ryanc.HS\AppData\Local\Temp\ccAQ3CYh.s 			page 48


1241:TP2824/TP2802.c **** 		break;
 845              		.loc 1 1241 3 is_stmt 1 view .LVU231
 846 010e 5648     		ldr	r0, .L69+56
 847              	.LVL88:
1241:TP2824/TP2802.c **** 		break;
 848              		.loc 1 1241 3 is_stmt 0 view .LVU232
 849 0110 FFF7FEFF 		bl	printf
 850              	.LVL89:
1242:TP2824/TP2802.c **** 
 851              		.loc 1 1242 3 is_stmt 1 view .LVU233
1238:TP2824/TP2802.c **** 		sys = 1;	// V1
 852              		.loc 1 1238 9 is_stmt 0 view .LVU234
 853 0114 0D25     		movs	r5, #13
1242:TP2824/TP2802.c **** 
 854              		.loc 1 1242 3 view .LVU235
 855 0116 22E0     		b	.L35
 856              	.LVL90:
 857              	.L40:
1245:TP2824/TP2802.c **** 		sys = 1;	// V1
 858              		.loc 1 1245 3 is_stmt 1 view .LVU236
1246:TP2824/TP2802.c **** 		ManVidResRx = RES1920X1080;
 859              		.loc 1 1246 3 view .LVU237
1247:TP2824/TP2802.c **** 		printf("3M20");
 860              		.loc 1 1247 3 view .LVU238
1247:TP2824/TP2802.c **** 		printf("3M20");
 861              		.loc 1 1247 15 is_stmt 0 view .LVU239
 862 0118 0124     		movs	r4, #1
 863 011a 464B     		ldr	r3, .L69+4
 864 011c 1C70     		strb	r4, [r3]
1248:TP2824/TP2802.c **** 		break;
 865              		.loc 1 1248 3 is_stmt 1 view .LVU240
 866 011e 5348     		ldr	r0, .L69+60
 867              	.LVL91:
1248:TP2824/TP2802.c **** 		break;
 868              		.loc 1 1248 3 is_stmt 0 view .LVU241
 869 0120 FFF7FEFF 		bl	printf
 870              	.LVL92:
1249:TP2824/TP2802.c **** 
 871              		.loc 1 1249 3 is_stmt 1 view .LVU242
1245:TP2824/TP2802.c **** 		sys = 1;	// V1
 872              		.loc 1 1245 9 is_stmt 0 view .LVU243
 873 0124 0E25     		movs	r5, #14
1249:TP2824/TP2802.c **** 
 874              		.loc 1 1249 3 view .LVU244
 875 0126 1AE0     		b	.L35
 876              	.LVL93:
 877              	.L39:
1252:TP2824/TP2802.c **** 		sys = 1;	// V1
 878              		.loc 1 1252 3 is_stmt 1 view .LVU245
1253:TP2824/TP2802.c **** 		ManVidResRx = RES1920X1080;
 879              		.loc 1 1253 3 view .LVU246
1254:TP2824/TP2802.c **** 		printf("4M12");
 880              		.loc 1 1254 3 view .LVU247
1254:TP2824/TP2802.c **** 		printf("4M12");
 881              		.loc 1 1254 15 is_stmt 0 view .LVU248
 882 0128 0124     		movs	r4, #1
 883 012a 424B     		ldr	r3, .L69+4
ARM GAS  C:\Users\ryanc.HS\AppData\Local\Temp\ccAQ3CYh.s 			page 49


 884 012c 1C70     		strb	r4, [r3]
1255:TP2824/TP2802.c **** 		break;
 885              		.loc 1 1255 3 is_stmt 1 view .LVU249
 886 012e 5048     		ldr	r0, .L69+64
 887              	.LVL94:
1255:TP2824/TP2802.c **** 		break;
 888              		.loc 1 1255 3 is_stmt 0 view .LVU250
 889 0130 FFF7FEFF 		bl	printf
 890              	.LVL95:
1256:TP2824/TP2802.c **** 
 891              		.loc 1 1256 3 is_stmt 1 view .LVU251
1252:TP2824/TP2802.c **** 		sys = 1;	// V1
 892              		.loc 1 1252 9 is_stmt 0 view .LVU252
 893 0134 0F25     		movs	r5, #15
1256:TP2824/TP2802.c **** 
 894              		.loc 1 1256 3 view .LVU253
 895 0136 12E0     		b	.L35
 896              	.LVL96:
 897              	.L38:
1259:TP2824/TP2802.c **** 		sys = 1;	// V1
 898              		.loc 1 1259 3 is_stmt 1 view .LVU254
1260:TP2824/TP2802.c **** 		ManVidResRx = RES1920X1080;
 899              		.loc 1 1260 3 view .LVU255
1261:TP2824/TP2802.c **** 		printf("6M10");
 900              		.loc 1 1261 3 view .LVU256
1261:TP2824/TP2802.c **** 		printf("6M10");
 901              		.loc 1 1261 15 is_stmt 0 view .LVU257
 902 0138 0124     		movs	r4, #1
 903 013a 3E4B     		ldr	r3, .L69+4
 904 013c 1C70     		strb	r4, [r3]
1262:TP2824/TP2802.c **** 		break;
 905              		.loc 1 1262 3 is_stmt 1 view .LVU258
 906 013e 4D48     		ldr	r0, .L69+68
 907              	.LVL97:
1262:TP2824/TP2802.c **** 		break;
 908              		.loc 1 1262 3 is_stmt 0 view .LVU259
 909 0140 FFF7FEFF 		bl	printf
 910              	.LVL98:
1263:TP2824/TP2802.c **** 
 911              		.loc 1 1263 3 is_stmt 1 view .LVU260
1259:TP2824/TP2802.c **** 		sys = 1;	// V1
 912              		.loc 1 1259 9 is_stmt 0 view .LVU261
 913 0144 1025     		movs	r5, #16
1263:TP2824/TP2802.c **** 
 914              		.loc 1 1263 3 view .LVU262
 915 0146 0AE0     		b	.L35
 916              	.LVL99:
 917              	.L36:
1266:TP2824/TP2802.c **** 		sys = 1;	// V1
 918              		.loc 1 1266 3 is_stmt 1 view .LVU263
1267:TP2824/TP2802.c **** 		ManVidResRx = RES1280X720;
 919              		.loc 1 1267 3 view .LVU264
1268:TP2824/TP2802.c **** 		printf("4M30");
 920              		.loc 1 1268 3 view .LVU265
1268:TP2824/TP2802.c **** 		printf("4M30");
 921              		.loc 1 1268 15 is_stmt 0 view .LVU266
 922 0148 3A4B     		ldr	r3, .L69+4
ARM GAS  C:\Users\ryanc.HS\AppData\Local\Temp\ccAQ3CYh.s 			page 50


 923 014a 0022     		movs	r2, #0
 924 014c 1A70     		strb	r2, [r3]
1269:TP2824/TP2802.c **** 		break;
 925              		.loc 1 1269 3 is_stmt 1 view .LVU267
 926 014e 4A48     		ldr	r0, .L69+72
 927              	.LVL100:
1269:TP2824/TP2802.c **** 		break;
 928              		.loc 1 1269 3 is_stmt 0 view .LVU268
 929 0150 FFF7FEFF 		bl	printf
 930              	.LVL101:
1270:TP2824/TP2802.c **** 
 931              		.loc 1 1270 3 is_stmt 1 view .LVU269
1267:TP2824/TP2802.c **** 		ManVidResRx = RES1280X720;
 932              		.loc 1 1267 7 is_stmt 0 view .LVU270
 933 0154 0124     		movs	r4, #1
1266:TP2824/TP2802.c **** 		sys = 1;	// V1
 934              		.loc 1 1266 9 view .LVU271
 935 0156 1125     		movs	r5, #17
1270:TP2824/TP2802.c **** 
 936              		.loc 1 1270 3 view .LVU272
 937 0158 01E0     		b	.L35
 938              	.LVL102:
 939              	.L61:
1151:TP2824/TP2802.c **** 	{
 940              		.loc 1 1151 14 view .LVU273
 941 015a 0124     		movs	r4, #1
 942 015c 2546     		mov	r5, r4
 943              	.LVL103:
 944              	.L35:
1276:TP2824/TP2802.c **** 
 945              		.loc 1 1276 2 is_stmt 1 view .LVU274
 946 015e 4748     		ldr	r0, .L69+76
 947 0160 FFF7FEFF 		bl	puts
 948              	.LVL104:
1279:TP2824/TP2802.c **** 	//	printf("chip= 0x%4x\r\n",chip);
 949              		.loc 1 1279 2 view .LVU275
1279:TP2824/TP2802.c **** 	//	printf("chip= 0x%4x\r\n",chip);
 950              		.loc 1 1279 63 is_stmt 0 view .LVU276
 951 0164 4648     		ldr	r0, .L69+80
 952 0166 05EB4505 		add	r5, r5, r5, lsl #1
 953              	.LVL105:
1279:TP2824/TP2802.c **** 	//	printf("chip= 0x%4x\r\n",chip);
 954              		.loc 1 1279 2 view .LVU277
 955 016a 00EB8501 		add	r1, r0, r5, lsl #2
 956 016e FFF7FEFF 		bl	I2CDeviceSet2
 957              	.LVL106:
1281:TP2824/TP2802.c **** 	{
 958              		.loc 1 1281 2 is_stmt 1 view .LVU278
1281:TP2824/TP2802.c **** 	{
 959              		.loc 1 1281 14 is_stmt 0 view .LVU279
 960 0172 444B     		ldr	r3, .L69+84
 961 0174 1B78     		ldrb	r3, [r3]	@ zero_extendqisi2
1281:TP2824/TP2802.c **** 	{
 962              		.loc 1 1281 5 view .LVU280
 963 0176 262B     		cmp	r3, #38
 964 0178 26D0     		beq	.L63
1285:TP2824/TP2802.c **** 	{
ARM GAS  C:\Users\ryanc.HS\AppData\Local\Temp\ccAQ3CYh.s 			page 51


 965              		.loc 1 1285 7 is_stmt 1 view .LVU281
1285:TP2824/TP2802.c **** 	{
 966              		.loc 1 1285 10 is_stmt 0 view .LVU282
 967 017a 252B     		cmp	r3, #37
 968 017c 2CD0     		beq	.L64
1289:TP2824/TP2802.c **** 	{
 969              		.loc 1 1289 7 is_stmt 1 view .LVU283
1289:TP2824/TP2802.c **** 	{
 970              		.loc 1 1289 10 is_stmt 0 view .LVU284
 971 017e 242B     		cmp	r3, #36
 972 0180 32D0     		beq	.L65
 973              	.L55:
1293:TP2824/TP2802.c **** 	{
 974              		.loc 1 1293 2 is_stmt 1 view .LVU285
1293:TP2824/TP2802.c **** 	{
 975              		.loc 1 1293 13 is_stmt 0 view .LVU286
 976 0182 404B     		ldr	r3, .L69+84
 977 0184 1B78     		ldrb	r3, [r3]	@ zero_extendqisi2
1293:TP2824/TP2802.c **** 	{
 978              		.loc 1 1293 5 view .LVU287
 979 0186 2F2B     		cmp	r3, #47
 980 0188 37D0     		beq	.L66
 981              	.L57:
1298:TP2824/TP2802.c **** 	{
 982              		.loc 1 1298 2 is_stmt 1 view .LVU288
1298:TP2824/TP2802.c **** 	{
 983              		.loc 1 1298 14 is_stmt 0 view .LVU289
 984 018a 3E4B     		ldr	r3, .L69+84
 985 018c 1B78     		ldrb	r3, [r3]	@ zero_extendqisi2
1298:TP2824/TP2802.c **** 	{
 986              		.loc 1 1298 5 view .LVU290
 987 018e 272B     		cmp	r3, #39
 988 0190 3ED0     		beq	.L67
 989              	.L58:
1304:TP2824/TP2802.c **** 		tp28xx_SYSCLK_V1(ch);
 990              		.loc 1 1304 2 is_stmt 1 view .LVU291
1304:TP2824/TP2802.c **** 		tp28xx_SYSCLK_V1(ch);
 991              		.loc 1 1304 5 is_stmt 0 view .LVU292
 992 0192 012C     		cmp	r4, #1
 993 0194 47D0     		beq	.L68
1307:TP2824/TP2802.c **** 
 994              		.loc 1 1307 3 is_stmt 1 view .LVU293
 995 0196 3046     		mov	r0, r6
 996 0198 FFF7FEFF 		bl	tp28xx_SYSCLK_V2
 997              	.LVL107:
 998              	.L60:
1309:TP2824/TP2802.c **** 	tmp = tp28xx_byte_read(0x14);
 999              		.loc 1 1309 2 view .LVU294
 1000 019c 0021     		movs	r1, #0
 1001 019e 1320     		movs	r0, #19
 1002 01a0 FFF7FEFF 		bl	tp28xx_byte_write
 1003              	.LVL108:
1310:TP2824/TP2802.c **** 	tmp &= 0x9f;
 1004              		.loc 1 1310 2 view .LVU295
1310:TP2824/TP2802.c **** 	tmp &= 0x9f;
 1005              		.loc 1 1310 8 is_stmt 0 view .LVU296
 1006 01a4 1420     		movs	r0, #20
ARM GAS  C:\Users\ryanc.HS\AppData\Local\Temp\ccAQ3CYh.s 			page 52


 1007 01a6 FFF7FEFF 		bl	tp28xx_byte_read
 1008              	.LVL109:
1311:TP2824/TP2802.c **** 	tp28xx_byte_write(0x14, tmp);
 1009              		.loc 1 1311 2 is_stmt 1 view .LVU297
1312:TP2824/TP2802.c **** 
 1010              		.loc 1 1312 2 view .LVU298
 1011 01aa 00F09F01 		and	r1, r0, #159
 1012 01ae 1420     		movs	r0, #20
 1013              	.LVL110:
1312:TP2824/TP2802.c **** 
 1014              		.loc 1 1312 2 is_stmt 0 view .LVU299
 1015 01b0 FFF7FEFF 		bl	tp28xx_byte_write
 1016              	.LVL111:
1319:TP2824/TP2802.c **** 	tmp |= 0x80;
 1017              		.loc 1 1319 2 is_stmt 1 view .LVU300
1319:TP2824/TP2802.c **** 	tmp |= 0x80;
 1018              		.loc 1 1319 8 is_stmt 0 view .LVU301
 1019 01b4 0220     		movs	r0, #2
 1020 01b6 FFF7FEFF 		bl	tp28xx_byte_read
 1021              	.LVL112:
1320:TP2824/TP2802.c **** 	tp28xx_byte_write(0x02, tmp);
 1022              		.loc 1 1320 2 is_stmt 1 view .LVU302
1320:TP2824/TP2802.c **** 	tp28xx_byte_write(0x02, tmp);
 1023              		.loc 1 1320 6 is_stmt 0 view .LVU303
 1024 01ba 60F07F01 		orn	r1, r0, #127
 1025              	.LVL113:
1321:TP2824/TP2802.c **** #endif
 1026              		.loc 1 1321 2 is_stmt 1 view .LVU304
 1027 01be C9B2     		uxtb	r1, r1
1321:TP2824/TP2802.c **** #endif
 1028              		.loc 1 1321 2 is_stmt 0 view .LVU305
 1029 01c0 0220     		movs	r0, #2
 1030 01c2 FFF7FEFF 		bl	tp28xx_byte_write
 1031              	.LVL114:
1323:TP2824/TP2802.c **** 
 1032              		.loc 1 1323 1 view .LVU306
 1033 01c6 70BD     		pop	{r4, r5, r6, pc}
 1034              	.LVL115:
 1035              	.L63:
1283:TP2824/TP2802.c **** 	}
 1036              		.loc 1 1283 3 is_stmt 1 view .LVU307
1283:TP2824/TP2802.c **** 	}
 1037              		.loc 1 1283 62 is_stmt 0 view .LVU308
 1038 01c8 2F48     		ldr	r0, .L69+88
 1039 01ca 04EBC401 		add	r1, r4, r4, lsl #3
1283:TP2824/TP2802.c **** 	}
 1040              		.loc 1 1283 3 view .LVU309
 1041 01ce 00EB4101 		add	r1, r0, r1, lsl #1
 1042 01d2 FFF7FEFF 		bl	I2CDeviceSet2
 1043              	.LVL116:
 1044 01d6 D4E7     		b	.L55
 1045              	.L64:
1287:TP2824/TP2802.c **** 	}
 1046              		.loc 1 1287 3 is_stmt 1 view .LVU310
1287:TP2824/TP2802.c **** 	}
 1047              		.loc 1 1287 60 is_stmt 0 view .LVU311
 1048 01d8 2C48     		ldr	r0, .L69+92
ARM GAS  C:\Users\ryanc.HS\AppData\Local\Temp\ccAQ3CYh.s 			page 53


 1049 01da C4EBC401 		rsb	r1, r4, r4, lsl #3
1287:TP2824/TP2802.c **** 	}
 1050              		.loc 1 1287 3 view .LVU312
 1051 01de 00EB4101 		add	r1, r0, r1, lsl #1
 1052 01e2 FFF7FEFF 		bl	I2CDeviceSet2
 1053              	.LVL117:
 1054 01e6 CCE7     		b	.L55
 1055              	.L65:
1291:TP2824/TP2802.c **** 	}
 1056              		.loc 1 1291 3 is_stmt 1 view .LVU313
1291:TP2824/TP2802.c **** 	}
 1057              		.loc 1 1291 60 is_stmt 0 view .LVU314
 1058 01e8 2948     		ldr	r0, .L69+96
 1059 01ea 04EB4401 		add	r1, r4, r4, lsl #1
 1060 01ee 04EB8101 		add	r1, r4, r1, lsl #2
1291:TP2824/TP2802.c **** 	}
 1061              		.loc 1 1291 3 view .LVU315
 1062 01f2 0144     		add	r1, r1, r0
 1063 01f4 FFF7FEFF 		bl	I2CDeviceSet2
 1064              	.LVL118:
 1065 01f8 C3E7     		b	.L55
 1066              	.L66:
1295:TP2824/TP2802.c **** 		I2CDeviceSet2(TP2826_MODE_DataSet[0], TP2826_MODE_DataSet[sys]);
 1067              		.loc 1 1295 3 is_stmt 1 view .LVU316
 1068 01fa 2648     		ldr	r0, .L69+100
 1069 01fc FFF7FEFF 		bl	puts
 1070              	.LVL119:
1296:TP2824/TP2802.c **** 	}
 1071              		.loc 1 1296 3 view .LVU317
1296:TP2824/TP2802.c **** 	}
 1072              		.loc 1 1296 60 is_stmt 0 view .LVU318
 1073 0200 2548     		ldr	r0, .L69+104
 1074 0202 04EB8401 		add	r1, r4, r4, lsl #2
1296:TP2824/TP2802.c **** 	}
 1075              		.loc 1 1296 3 view .LVU319
 1076 0206 00EB8101 		add	r1, r0, r1, lsl #2
 1077 020a FFF7FEFF 		bl	I2CDeviceSet2
 1078              	.LVL120:
 1079 020e BCE7     		b	.L57
 1080              	.L67:
1300:TP2824/TP2802.c **** 		I2CDeviceSet2(TP2824C_MODE_DataSet[0], TP2824C_MODE_DataSet[sys]);
 1081              		.loc 1 1300 3 is_stmt 1 view .LVU320
 1082 0210 2248     		ldr	r0, .L69+108
 1083 0212 FFF7FEFF 		bl	puts
 1084              	.LVL121:
1301:TP2824/TP2802.c **** 	}
 1085              		.loc 1 1301 3 view .LVU321
1301:TP2824/TP2802.c **** 	}
 1086              		.loc 1 1301 62 is_stmt 0 view .LVU322
 1087 0216 2248     		ldr	r0, .L69+112
 1088 0218 04EB8401 		add	r1, r4, r4, lsl #2
1301:TP2824/TP2802.c **** 	}
 1089              		.loc 1 1301 3 view .LVU323
 1090 021c 00EB8101 		add	r1, r0, r1, lsl #2
 1091 0220 FFF7FEFF 		bl	I2CDeviceSet2
 1092              	.LVL122:
 1093 0224 B5E7     		b	.L58
ARM GAS  C:\Users\ryanc.HS\AppData\Local\Temp\ccAQ3CYh.s 			page 54


 1094              	.L68:
1305:TP2824/TP2802.c **** 	else
 1095              		.loc 1 1305 3 is_stmt 1 view .LVU324
 1096 0226 3046     		mov	r0, r6
 1097 0228 FFF7FEFF 		bl	tp28xx_SYSCLK_V1
 1098              	.LVL123:
 1099 022c B6E7     		b	.L60
 1100              	.L70:
 1101 022e 00BF     		.align	2
 1102              	.L69:
 1103 0230 00000000 		.word	mode
 1104 0234 00000000 		.word	ManVidResRx
 1105 0238 00000000 		.word	.LC0
 1106 023c 08000000 		.word	.LC1
 1107 0240 10000000 		.word	.LC2
 1108 0244 18000000 		.word	.LC3
 1109 0248 24000000 		.word	.LC4
 1110 024c 2C000000 		.word	.LC5
 1111 0250 38000000 		.word	.LC6
 1112 0254 40000000 		.word	.LC7
 1113 0258 48000000 		.word	.LC8
 1114 025c 4C000000 		.word	.LC9
 1115 0260 54000000 		.word	.LC10
 1116 0264 5C000000 		.word	.LC11
 1117 0268 64000000 		.word	.LC12
 1118 026c 6C000000 		.word	.LC13
 1119 0270 74000000 		.word	.LC14
 1120 0274 7C000000 		.word	.LC15
 1121 0278 84000000 		.word	.LC16
 1122 027c 8C000000 		.word	.LC17
 1123 0280 00000000 		.word	.LANCHOR2
 1124 0284 00000000 		.word	chip
 1125 0288 00000000 		.word	.LANCHOR3
 1126 028c 00000000 		.word	.LANCHOR4
 1127 0290 00000000 		.word	.LANCHOR5
 1128 0294 94000000 		.word	.LC18
 1129 0298 00000000 		.word	.LANCHOR6
 1130 029c A8000000 		.word	.LC19
 1131 02a0 00000000 		.word	.LANCHOR7
 1132              		.cfi_endproc
 1133              	.LFE8:
 1135              		.section	.text.Set_HDA,"ax",%progbits
 1136              		.align	1
 1137              		.global	Set_HDA
 1138              		.syntax unified
 1139              		.thumb
 1140              		.thumb_func
 1141              		.fpu softvfp
 1143              	Set_HDA:
 1144              	.LVL124:
 1145              	.LFB9:
1326:TP2824/TP2802.c **** 
 1146              		.loc 1 1326 1 view -0
 1147              		.cfi_startproc
 1148              		@ args = 0, pretend = 0, frame = 0
 1149              		@ frame_needed = 0, uses_anonymous_args = 0
1326:TP2824/TP2802.c **** 
ARM GAS  C:\Users\ryanc.HS\AppData\Local\Temp\ccAQ3CYh.s 			page 55


 1150              		.loc 1 1326 1 is_stmt 0 view .LVU326
 1151 0000 10B5     		push	{r4, lr}
 1152              	.LCFI9:
 1153              		.cfi_def_cfa_offset 8
 1154              		.cfi_offset 4, -8
 1155              		.cfi_offset 14, -4
1328:TP2824/TP2802.c **** 	index = 0;
 1156              		.loc 1 1328 2 is_stmt 1 view .LVU327
1329:TP2824/TP2802.c **** 
 1157              		.loc 1 1329 2 view .LVU328
 1158              	.LVL125:
1331:TP2824/TP2802.c **** 	{
 1159              		.loc 1 1331 2 view .LVU329
1331:TP2824/TP2802.c **** 	{
 1160              		.loc 1 1331 14 is_stmt 0 view .LVU330
 1161 0002 284B     		ldr	r3, .L90
 1162 0004 1B5C     		ldrb	r3, [r3, r0]	@ zero_extendqisi2
 1163 0006 0D2B     		cmp	r3, #13
 1164 0008 4AD8     		bhi	.L83
 1165 000a DFE803F0 		tbb	[pc, r3]
 1166              	.L74:
 1167 000e 09       		.byte	(.L78-.L74)/2
 1168 000f 07       		.byte	(.L73-.L74)/2
 1169 0010 26       		.byte	(.L77-.L74)/2
 1170 0011 24       		.byte	(.L76-.L74)/2
 1171 0012 49       		.byte	(.L83-.L74)/2
 1172 0013 49       		.byte	(.L83-.L74)/2
 1173 0014 49       		.byte	(.L83-.L74)/2
 1174 0015 49       		.byte	(.L83-.L74)/2
 1175 0016 49       		.byte	(.L83-.L74)/2
 1176 0017 49       		.byte	(.L83-.L74)/2
 1177 0018 49       		.byte	(.L83-.L74)/2
 1178 0019 49       		.byte	(.L83-.L74)/2
 1179 001a 28       		.byte	(.L84-.L74)/2
 1180 001b 07       		.byte	(.L73-.L74)/2
 1181              		.p2align 1
 1182              	.L73:
 1183 001c 0224     		movs	r4, #2
 1184 001e 00E0     		b	.L75
 1185              	.L78:
1342:TP2824/TP2802.c **** 		break;
 1186              		.loc 1 1342 3 is_stmt 1 view .LVU331
 1187              	.LVL126:
1343:TP2824/TP2802.c **** 	case R720P30V2:
 1188              		.loc 1 1343 3 view .LVU332
1353:TP2824/TP2802.c **** 	{
 1189              		.loc 1 1353 2 view .LVU333
1342:TP2824/TP2802.c **** 		break;
 1190              		.loc 1 1342 9 is_stmt 0 view .LVU334
 1191 0020 0524     		movs	r4, #5
 1192              	.LVL127:
 1193              	.L75:
1355:TP2824/TP2802.c **** 
 1194              		.loc 1 1355 3 is_stmt 1 view .LVU335
 1195 0022 FFF7FEFF 		bl	Set_VidRes
 1196              	.LVL128:
1357:TP2824/TP2802.c **** 		{
ARM GAS  C:\Users\ryanc.HS\AppData\Local\Temp\ccAQ3CYh.s 			page 56


 1197              		.loc 1 1357 3 view .LVU336
1357:TP2824/TP2802.c **** 		{
 1198              		.loc 1 1357 15 is_stmt 0 view .LVU337
 1199 0026 204B     		ldr	r3, .L90+4
 1200 0028 1B78     		ldrb	r3, [r3]	@ zero_extendqisi2
1357:TP2824/TP2802.c **** 		{
 1201              		.loc 1 1357 6 view .LVU338
 1202 002a 262B     		cmp	r3, #38
 1203 002c 19D0     		beq	.L86
1361:TP2824/TP2802.c **** 		{
 1204              		.loc 1 1361 8 is_stmt 1 view .LVU339
1361:TP2824/TP2802.c **** 		{
 1205              		.loc 1 1361 27 is_stmt 0 view .LVU340
 1206 002e A3F12402 		sub	r2, r3, #36
 1207 0032 D2B2     		uxtb	r2, r2
1361:TP2824/TP2802.c **** 		{
 1208              		.loc 1 1361 11 view .LVU341
 1209 0034 012A     		cmp	r2, #1
 1210 0036 1CD9     		bls	.L87
1365:TP2824/TP2802.c **** 		{
 1211              		.loc 1 1365 8 is_stmt 1 view .LVU342
1365:TP2824/TP2802.c **** 		{
 1212              		.loc 1 1365 11 is_stmt 0 view .LVU343
 1213 0038 2F2B     		cmp	r3, #47
 1214 003a 20D0     		beq	.L88
1369:TP2824/TP2802.c **** 		{
 1215              		.loc 1 1369 8 is_stmt 1 view .LVU344
1369:TP2824/TP2802.c **** 		{
 1216              		.loc 1 1369 11 is_stmt 0 view .LVU345
 1217 003c 272B     		cmp	r3, #39
 1218 003e 26D0     		beq	.L89
 1219              	.L80:
1373:TP2824/TP2802.c **** 		tmp |= 0x40;
 1220              		.loc 1 1373 3 is_stmt 1 view .LVU346
1373:TP2824/TP2802.c **** 		tmp |= 0x40;
 1221              		.loc 1 1373 9 is_stmt 0 view .LVU347
 1222 0040 1420     		movs	r0, #20
 1223 0042 FFF7FEFF 		bl	tp28xx_byte_read
 1224              	.LVL129:
1374:TP2824/TP2802.c **** 		tp28xx_byte_write(0x14, tmp);
 1225              		.loc 1 1374 3 is_stmt 1 view .LVU348
1374:TP2824/TP2802.c **** 		tp28xx_byte_write(0x14, tmp);
 1226              		.loc 1 1374 7 is_stmt 0 view .LVU349
 1227 0046 40F04001 		orr	r1, r0, #64
 1228              	.LVL130:
1375:TP2824/TP2802.c **** 	}
 1229              		.loc 1 1375 3 is_stmt 1 view .LVU350
 1230 004a C9B2     		uxtb	r1, r1
1375:TP2824/TP2802.c **** 	}
 1231              		.loc 1 1375 3 is_stmt 0 view .LVU351
 1232 004c 1420     		movs	r0, #20
 1233 004e FFF7FEFF 		bl	tp28xx_byte_write
 1234              	.LVL131:
 1235              	.L72:
1377:TP2824/TP2802.c **** }
 1236              		.loc 1 1377 2 is_stmt 1 view .LVU352
1378:TP2824/TP2802.c **** 
ARM GAS  C:\Users\ryanc.HS\AppData\Local\Temp\ccAQ3CYh.s 			page 57


 1237              		.loc 1 1378 1 is_stmt 0 view .LVU353
 1238 0052 2046     		mov	r0, r4
 1239 0054 10BD     		pop	{r4, pc}
 1240              	.LVL132:
 1241              	.L76:
1338:TP2824/TP2802.c **** 		break;
 1242              		.loc 1 1338 3 is_stmt 1 view .LVU354
1339:TP2824/TP2802.c **** 
 1243              		.loc 1 1339 3 view .LVU355
1353:TP2824/TP2802.c **** 	{
 1244              		.loc 1 1353 2 view .LVU356
1338:TP2824/TP2802.c **** 		break;
 1245              		.loc 1 1338 9 is_stmt 0 view .LVU357
 1246 0056 0424     		movs	r4, #4
 1247 0058 E3E7     		b	.L75
 1248              	.LVL133:
 1249              	.L77:
1334:TP2824/TP2802.c **** 		break;
 1250              		.loc 1 1334 3 is_stmt 1 view .LVU358
1335:TP2824/TP2802.c **** 
 1251              		.loc 1 1335 3 view .LVU359
1353:TP2824/TP2802.c **** 	{
 1252              		.loc 1 1353 2 view .LVU360
1334:TP2824/TP2802.c **** 		break;
 1253              		.loc 1 1334 9 is_stmt 0 view .LVU361
 1254 005a 0324     		movs	r4, #3
 1255 005c E1E7     		b	.L75
 1256              	.LVL134:
 1257              	.L84:
1345:TP2824/TP2802.c **** 		break;
 1258              		.loc 1 1345 9 view .LVU362
 1259 005e 0124     		movs	r4, #1
 1260 0060 DFE7     		b	.L75
 1261              	.LVL135:
 1262              	.L86:
1359:TP2824/TP2802.c **** 		}
 1263              		.loc 1 1359 4 is_stmt 1 view .LVU363
1359:TP2824/TP2802.c **** 		}
 1264              		.loc 1 1359 61 is_stmt 0 view .LVU364
 1265 0062 1248     		ldr	r0, .L90+8
 1266 0064 04EB8401 		add	r1, r4, r4, lsl #2
1359:TP2824/TP2802.c **** 		}
 1267              		.loc 1 1359 4 view .LVU365
 1268 0068 00EB4101 		add	r1, r0, r1, lsl #1
 1269 006c FFF7FEFF 		bl	I2CDeviceSet2
 1270              	.LVL136:
 1271 0070 E6E7     		b	.L80
 1272              	.L87:
1363:TP2824/TP2802.c **** 		}
 1273              		.loc 1 1363 4 is_stmt 1 view .LVU366
1363:TP2824/TP2802.c **** 		}
 1274              		.loc 1 1363 59 is_stmt 0 view .LVU367
 1275 0072 0F48     		ldr	r0, .L90+12
1363:TP2824/TP2802.c **** 		}
 1276              		.loc 1 1363 4 view .LVU368
 1277 0074 00EBC401 		add	r1, r0, r4, lsl #3
 1278 0078 FFF7FEFF 		bl	I2CDeviceSet2
ARM GAS  C:\Users\ryanc.HS\AppData\Local\Temp\ccAQ3CYh.s 			page 58


 1279              	.LVL137:
 1280 007c E0E7     		b	.L80
 1281              	.L88:
1367:TP2824/TP2802.c **** 		}
 1282              		.loc 1 1367 4 is_stmt 1 view .LVU369
1367:TP2824/TP2802.c **** 		}
 1283              		.loc 1 1367 59 is_stmt 0 view .LVU370
 1284 007e 0D48     		ldr	r0, .L90+16
 1285 0080 04EB4401 		add	r1, r4, r4, lsl #1
1367:TP2824/TP2802.c **** 		}
 1286              		.loc 1 1367 4 view .LVU371
 1287 0084 00EB8101 		add	r1, r0, r1, lsl #2
 1288 0088 FFF7FEFF 		bl	I2CDeviceSet2
 1289              	.LVL138:
 1290 008c D8E7     		b	.L80
 1291              	.L89:
1371:TP2824/TP2802.c **** 		}
 1292              		.loc 1 1371 4 is_stmt 1 view .LVU372
1371:TP2824/TP2802.c **** 		}
 1293              		.loc 1 1371 61 is_stmt 0 view .LVU373
 1294 008e 0A48     		ldr	r0, .L90+20
 1295 0090 04EB4401 		add	r1, r4, r4, lsl #1
 1296 0094 04EB8101 		add	r1, r4, r1, lsl #2
1371:TP2824/TP2802.c **** 		}
 1297              		.loc 1 1371 4 view .LVU374
 1298 0098 0144     		add	r1, r1, r0
 1299 009a FFF7FEFF 		bl	I2CDeviceSet2
 1300              	.LVL139:
 1301 009e CFE7     		b	.L80
 1302              	.LVL140:
 1303              	.L83:
1331:TP2824/TP2802.c **** 	{
 1304              		.loc 1 1331 14 view .LVU375
 1305 00a0 0024     		movs	r4, #0
 1306 00a2 D6E7     		b	.L72
 1307              	.L91:
 1308              		.align	2
 1309              	.L90:
 1310 00a4 00000000 		.word	mode
 1311 00a8 00000000 		.word	chip
 1312 00ac 00000000 		.word	.LANCHOR8
 1313 00b0 00000000 		.word	.LANCHOR9
 1314 00b4 00000000 		.word	.LANCHOR10
 1315 00b8 00000000 		.word	.LANCHOR11
 1316              		.cfi_endproc
 1317              	.LFE9:
 1319              		.section	.text.Set_HDC,"ax",%progbits
 1320              		.align	1
 1321              		.global	Set_HDC
 1322              		.syntax unified
 1323              		.thumb
 1324              		.thumb_func
 1325              		.fpu softvfp
 1327              	Set_HDC:
 1328              	.LVL141:
 1329              	.LFB10:
1381:TP2824/TP2802.c **** 
ARM GAS  C:\Users\ryanc.HS\AppData\Local\Temp\ccAQ3CYh.s 			page 59


 1330              		.loc 1 1381 1 is_stmt 1 view -0
 1331              		.cfi_startproc
 1332              		@ args = 0, pretend = 0, frame = 0
 1333              		@ frame_needed = 0, uses_anonymous_args = 0
1381:TP2824/TP2802.c **** 
 1334              		.loc 1 1381 1 is_stmt 0 view .LVU377
 1335 0000 10B5     		push	{r4, lr}
 1336              	.LCFI10:
 1337              		.cfi_def_cfa_offset 8
 1338              		.cfi_offset 4, -8
 1339              		.cfi_offset 14, -4
1383:TP2824/TP2802.c **** 
 1340              		.loc 1 1383 2 is_stmt 1 view .LVU378
1385:TP2824/TP2802.c **** 
 1341              		.loc 1 1385 2 view .LVU379
 1342              	.LVL142:
1387:TP2824/TP2802.c **** 	{
 1343              		.loc 1 1387 2 view .LVU380
1387:TP2824/TP2802.c **** 	{
 1344              		.loc 1 1387 14 is_stmt 0 view .LVU381
 1345 0002 264B     		ldr	r3, .L110
 1346 0004 1B5C     		ldrb	r3, [r3, r0]	@ zero_extendqisi2
 1347 0006 0D2B     		cmp	r3, #13
 1348 0008 46D8     		bhi	.L103
 1349 000a DFE803F0 		tbb	[pc, r3]
 1350              	.L95:
 1351 000e 0D       		.byte	(.L104-.L95)/2
 1352 000f 07       		.byte	(.L94-.L95)/2
 1353 0010 0B       		.byte	(.L98-.L95)/2
 1354 0011 09       		.byte	(.L97-.L95)/2
 1355 0012 45       		.byte	(.L103-.L95)/2
 1356 0013 45       		.byte	(.L103-.L95)/2
 1357 0014 45       		.byte	(.L103-.L95)/2
 1358 0015 45       		.byte	(.L103-.L95)/2
 1359 0016 45       		.byte	(.L103-.L95)/2
 1360 0017 45       		.byte	(.L103-.L95)/2
 1361 0018 45       		.byte	(.L103-.L95)/2
 1362 0019 45       		.byte	(.L103-.L95)/2
 1363 001a 0D       		.byte	(.L104-.L95)/2
 1364 001b 07       		.byte	(.L94-.L95)/2
 1365              		.p2align 1
 1366              	.L94:
 1367 001c 0224     		movs	r4, #2
 1368 001e 04E0     		b	.L96
 1369              	.L97:
1395:TP2824/TP2802.c **** 		break;
 1370              		.loc 1 1395 3 is_stmt 1 view .LVU382
 1371              	.LVL143:
1396:TP2824/TP2802.c **** 
 1372              		.loc 1 1396 3 view .LVU383
1408:TP2824/TP2802.c **** 	{
 1373              		.loc 1 1408 2 view .LVU384
1395:TP2824/TP2802.c **** 		break;
 1374              		.loc 1 1395 9 is_stmt 0 view .LVU385
 1375 0020 0424     		movs	r4, #4
 1376 0022 02E0     		b	.L96
 1377              	.LVL144:
ARM GAS  C:\Users\ryanc.HS\AppData\Local\Temp\ccAQ3CYh.s 			page 60


 1378              	.L98:
1391:TP2824/TP2802.c **** 		break;
 1379              		.loc 1 1391 3 is_stmt 1 view .LVU386
1392:TP2824/TP2802.c **** 
 1380              		.loc 1 1392 3 view .LVU387
1408:TP2824/TP2802.c **** 	{
 1381              		.loc 1 1408 2 view .LVU388
1391:TP2824/TP2802.c **** 		break;
 1382              		.loc 1 1391 9 is_stmt 0 view .LVU389
 1383 0024 0324     		movs	r4, #3
 1384 0026 00E0     		b	.L96
 1385              	.LVL145:
 1386              	.L104:
1400:TP2824/TP2802.c **** 		break;
 1387              		.loc 1 1400 9 view .LVU390
 1388 0028 0124     		movs	r4, #1
 1389              	.LVL146:
 1390              	.L96:
1410:TP2824/TP2802.c **** 
 1391              		.loc 1 1410 3 is_stmt 1 view .LVU391
 1392 002a FFF7FEFF 		bl	Set_VidRes
 1393              	.LVL147:
1412:TP2824/TP2802.c **** 		{
 1394              		.loc 1 1412 3 view .LVU392
1412:TP2824/TP2802.c **** 		{
 1395              		.loc 1 1412 15 is_stmt 0 view .LVU393
 1396 002e 1C4B     		ldr	r3, .L110+4
 1397 0030 1B78     		ldrb	r3, [r3]	@ zero_extendqisi2
1412:TP2824/TP2802.c **** 		{
 1398              		.loc 1 1412 6 view .LVU394
 1399 0032 262B     		cmp	r3, #38
 1400 0034 0ED0     		beq	.L106
1416:TP2824/TP2802.c **** 		{
 1401              		.loc 1 1416 8 is_stmt 1 view .LVU395
1416:TP2824/TP2802.c **** 		{
 1402              		.loc 1 1416 27 is_stmt 0 view .LVU396
 1403 0036 A3F12402 		sub	r2, r3, #36
 1404 003a D2B2     		uxtb	r2, r2
1416:TP2824/TP2802.c **** 		{
 1405              		.loc 1 1416 11 view .LVU397
 1406 003c 012A     		cmp	r2, #1
 1407 003e 12D9     		bls	.L107
1420:TP2824/TP2802.c **** 		{
 1408              		.loc 1 1420 8 is_stmt 1 view .LVU398
1420:TP2824/TP2802.c **** 		{
 1409              		.loc 1 1420 11 is_stmt 0 view .LVU399
 1410 0040 2F2B     		cmp	r3, #47
 1411 0042 19D0     		beq	.L108
1424:TP2824/TP2802.c **** 		{
 1412              		.loc 1 1424 8 is_stmt 1 view .LVU400
1424:TP2824/TP2802.c **** 		{
 1413              		.loc 1 1424 11 is_stmt 0 view .LVU401
 1414 0044 272B     		cmp	r3, #39
 1415 0046 1FD0     		beq	.L109
 1416              	.L100:
1428:TP2824/TP2802.c **** 	}
 1417              		.loc 1 1428 3 is_stmt 1 view .LVU402
ARM GAS  C:\Users\ryanc.HS\AppData\Local\Temp\ccAQ3CYh.s 			page 61


 1418 0048 4021     		movs	r1, #64
 1419 004a 1320     		movs	r0, #19
 1420 004c FFF7FEFF 		bl	tp28xx_byte_write
 1421              	.LVL148:
 1422              	.L93:
1430:TP2824/TP2802.c **** }
 1423              		.loc 1 1430 2 view .LVU403
1431:TP2824/TP2802.c **** 
 1424              		.loc 1 1431 1 is_stmt 0 view .LVU404
 1425 0050 2046     		mov	r0, r4
 1426 0052 10BD     		pop	{r4, pc}
 1427              	.L106:
1414:TP2824/TP2802.c **** 		}
 1428              		.loc 1 1414 4 is_stmt 1 view .LVU405
1414:TP2824/TP2802.c **** 		}
 1429              		.loc 1 1414 61 is_stmt 0 view .LVU406
 1430 0054 1348     		ldr	r0, .L110+8
 1431 0056 04EB4401 		add	r1, r4, r4, lsl #1
 1432 005a 04EB8101 		add	r1, r4, r1, lsl #2
1414:TP2824/TP2802.c **** 		}
 1433              		.loc 1 1414 4 view .LVU407
 1434 005e 0144     		add	r1, r1, r0
 1435 0060 FFF7FEFF 		bl	I2CDeviceSet2
 1436              	.LVL149:
 1437 0064 F0E7     		b	.L100
 1438              	.L107:
1418:TP2824/TP2802.c **** 		}
 1439              		.loc 1 1418 4 is_stmt 1 view .LVU408
1418:TP2824/TP2802.c **** 		}
 1440              		.loc 1 1418 61 is_stmt 0 view .LVU409
 1441 0066 0F48     		ldr	r0, .L110+8
 1442 0068 04EB4401 		add	r1, r4, r4, lsl #1
 1443 006c 04EB8101 		add	r1, r4, r1, lsl #2
1418:TP2824/TP2802.c **** 		}
 1444              		.loc 1 1418 4 view .LVU410
 1445 0070 0144     		add	r1, r1, r0
 1446 0072 FFF7FEFF 		bl	I2CDeviceSet2
 1447              	.LVL150:
 1448 0076 E7E7     		b	.L100
 1449              	.L108:
1422:TP2824/TP2802.c **** 		}
 1450              		.loc 1 1422 4 is_stmt 1 view .LVU411
1422:TP2824/TP2802.c **** 		}
 1451              		.loc 1 1422 59 is_stmt 0 view .LVU412
 1452 0078 0B48     		ldr	r0, .L110+12
 1453 007a 04EB8401 		add	r1, r4, r4, lsl #2
1422:TP2824/TP2802.c **** 		}
 1454              		.loc 1 1422 4 view .LVU413
 1455 007e 00EB8101 		add	r1, r0, r1, lsl #2
 1456 0082 FFF7FEFF 		bl	I2CDeviceSet2
 1457              	.LVL151:
 1458 0086 DFE7     		b	.L100
 1459              	.L109:
1426:TP2824/TP2802.c **** 		}
 1460              		.loc 1 1426 4 is_stmt 1 view .LVU414
1426:TP2824/TP2802.c **** 		}
 1461              		.loc 1 1426 61 is_stmt 0 view .LVU415
ARM GAS  C:\Users\ryanc.HS\AppData\Local\Temp\ccAQ3CYh.s 			page 62


 1462 0088 0848     		ldr	r0, .L110+16
 1463 008a 04EB8401 		add	r1, r4, r4, lsl #2
1426:TP2824/TP2802.c **** 		}
 1464              		.loc 1 1426 4 view .LVU416
 1465 008e 00EB8101 		add	r1, r0, r1, lsl #2
 1466 0092 FFF7FEFF 		bl	I2CDeviceSet2
 1467              	.LVL152:
 1468 0096 D7E7     		b	.L100
 1469              	.LVL153:
 1470              	.L103:
1387:TP2824/TP2802.c **** 	{
 1471              		.loc 1 1387 14 view .LVU417
 1472 0098 0024     		movs	r4, #0
 1473 009a D9E7     		b	.L93
 1474              	.L111:
 1475              		.align	2
 1476              	.L110:
 1477 009c 00000000 		.word	mode
 1478 00a0 00000000 		.word	chip
 1479 00a4 00000000 		.word	.LANCHOR12
 1480 00a8 00000000 		.word	.LANCHOR13
 1481 00ac 00000000 		.word	.LANCHOR14
 1482              		.cfi_endproc
 1483              	.LFE10:
 1485              		.section	.rodata.Det_VidRes.str1.4,"aMS",%progbits,1
 1486              		.align	2
 1487              	.LC20:
 1488 0000 0D0A4E2F 		.ascii	"\015\012N/P detected\000"
 1488      50206465 
 1488      74656374 
 1488      656400
 1489 000f 00       		.align	2
 1490              	.LC21:
 1491 0010 0D0A4E6F 		.ascii	"\015\012No res detect...\000"
 1491      20726573 
 1491      20646574 
 1491      6563742E 
 1491      2E2E00
 1492              		.section	.text.Det_VidRes,"ax",%progbits
 1493              		.align	1
 1494              		.global	Det_VidRes
 1495              		.syntax unified
 1496              		.thumb
 1497              		.thumb_func
 1498              		.fpu softvfp
 1500              	Det_VidRes:
 1501              	.LFB11:
1434:TP2824/TP2802.c **** 	tByte CVSTD;
 1502              		.loc 1 1434 1 is_stmt 1 view -0
 1503              		.cfi_startproc
 1504              		@ args = 0, pretend = 0, frame = 0
 1505              		@ frame_needed = 0, uses_anonymous_args = 0
 1506 0000 10B5     		push	{r4, lr}
 1507              	.LCFI11:
 1508              		.cfi_def_cfa_offset 8
 1509              		.cfi_offset 4, -8
 1510              		.cfi_offset 14, -4
ARM GAS  C:\Users\ryanc.HS\AppData\Local\Temp\ccAQ3CYh.s 			page 63


1435:TP2824/TP2802.c **** 	tByte RES;
 1511              		.loc 1 1435 2 view .LVU419
1436:TP2824/TP2802.c **** 
 1512              		.loc 1 1436 2 view .LVU420
1438:TP2824/TP2802.c **** 
 1513              		.loc 1 1438 2 view .LVU421
1438:TP2824/TP2802.c **** 
 1514              		.loc 1 1438 10 is_stmt 0 view .LVU422
 1515 0002 0320     		movs	r0, #3
 1516 0004 FFF7FEFF 		bl	tp28xx_byte_read
 1517              	.LVL154:
1438:TP2824/TP2802.c **** 
 1518              		.loc 1 1438 8 view .LVU423
 1519 0008 00F00704 		and	r4, r0, #7
 1520              	.LVL155:
1440:TP2824/TP2802.c **** 	{
 1521              		.loc 1 1440 2 is_stmt 1 view .LVU424
 1522 000c 062C     		cmp	r4, #6
 1523 000e 0AD8     		bhi	.L113
 1524 0010 DFE804F0 		tbb	[pc, r4]
 1525              	.L115:
 1526 0014 07       		.byte	(.L116-.L115)/2
 1527 0015 07       		.byte	(.L116-.L115)/2
 1528 0016 07       		.byte	(.L116-.L115)/2
 1529 0017 07       		.byte	(.L116-.L115)/2
 1530 0018 07       		.byte	(.L116-.L115)/2
 1531 0019 07       		.byte	(.L116-.L115)/2
 1532 001a 04       		.byte	(.L114-.L115)/2
 1533 001b 00       		.p2align 1
 1534              	.L114:
1462:TP2824/TP2802.c **** 		RES = NTPAL;
 1535              		.loc 1 1462 3 view .LVU425
 1536 001c 0448     		ldr	r0, .L118
 1537 001e FFF7FEFF 		bl	printf
 1538              	.LVL156:
1463:TP2824/TP2802.c **** 		break;
 1539              		.loc 1 1463 3 view .LVU426
1464:TP2824/TP2802.c **** 	default:
 1540              		.loc 1 1464 3 view .LVU427
 1541              	.L116:
1471:TP2824/TP2802.c **** }
 1542              		.loc 1 1471 2 view .LVU428
1472:TP2824/TP2802.c **** tByte Det_VideoLoss(tByte ch)
 1543              		.loc 1 1472 1 is_stmt 0 view .LVU429
 1544 0022 2046     		mov	r0, r4
 1545 0024 10BD     		pop	{r4, pc}
 1546              	.LVL157:
 1547              	.L113:
1466:TP2824/TP2802.c **** 		RES = NoDet;
 1548              		.loc 1 1466 3 is_stmt 1 view .LVU430
 1549 0026 0348     		ldr	r0, .L118+4
 1550 0028 FFF7FEFF 		bl	printf
 1551              	.LVL158:
1467:TP2824/TP2802.c **** 		break;
 1552              		.loc 1 1467 3 view .LVU431
1468:TP2824/TP2802.c **** 	}
 1553              		.loc 1 1468 3 view .LVU432
ARM GAS  C:\Users\ryanc.HS\AppData\Local\Temp\ccAQ3CYh.s 			page 64


1467:TP2824/TP2802.c **** 		break;
 1554              		.loc 1 1467 7 is_stmt 0 view .LVU433
 1555 002c 0724     		movs	r4, #7
 1556              	.LVL159:
1468:TP2824/TP2802.c **** 	}
 1557              		.loc 1 1468 3 view .LVU434
 1558 002e F8E7     		b	.L116
 1559              	.L119:
 1560              		.align	2
 1561              	.L118:
 1562 0030 00000000 		.word	.LC20
 1563 0034 10000000 		.word	.LC21
 1564              		.cfi_endproc
 1565              	.LFE11:
 1567              		.section	.rodata.Det_VideoLoss.str1.4,"aMS",%progbits,1
 1568              		.align	2
 1569              	.LC22:
 1570 0000 4E6F2000 		.ascii	"No \000"
 1571              		.align	2
 1572              	.LC23:
 1573 0004 76696465 		.ascii	"video detected\000"
 1573      6F206465 
 1573      74656374 
 1573      656400
 1574              		.section	.text.Det_VideoLoss,"ax",%progbits
 1575              		.align	1
 1576              		.global	Det_VideoLoss
 1577              		.syntax unified
 1578              		.thumb
 1579              		.thumb_func
 1580              		.fpu softvfp
 1582              	Det_VideoLoss:
 1583              	.LVL160:
 1584              	.LFB12:
1474:TP2824/TP2802.c **** 
 1585              		.loc 1 1474 1 is_stmt 1 view -0
 1586              		.cfi_startproc
 1587              		@ args = 0, pretend = 0, frame = 0
 1588              		@ frame_needed = 0, uses_anonymous_args = 0
1474:TP2824/TP2802.c **** 
 1589              		.loc 1 1474 1 is_stmt 0 view .LVU436
 1590 0000 10B5     		push	{r4, lr}
 1591              	.LCFI12:
 1592              		.cfi_def_cfa_offset 8
 1593              		.cfi_offset 4, -8
 1594              		.cfi_offset 14, -4
1476:TP2824/TP2802.c **** 
 1595              		.loc 1 1476 2 is_stmt 1 view .LVU437
1478:TP2824/TP2802.c **** 	VDLOSS = tp28xx_byte_read(0x01);
 1596              		.loc 1 1478 2 view .LVU438
 1597 0002 00F00301 		and	r1, r0, #3
 1598 0006 4020     		movs	r0, #64
 1599              	.LVL161:
1478:TP2824/TP2802.c **** 	VDLOSS = tp28xx_byte_read(0x01);
 1600              		.loc 1 1478 2 is_stmt 0 view .LVU439
 1601 0008 FFF7FEFF 		bl	tp28xx_byte_write
 1602              	.LVL162:
ARM GAS  C:\Users\ryanc.HS\AppData\Local\Temp\ccAQ3CYh.s 			page 65


1479:TP2824/TP2802.c **** 	//	printf("video status 0x%02x on ch%01x\r\n",(tWord)VDLOSS,(tWord)ch);
 1603              		.loc 1 1479 2 is_stmt 1 view .LVU440
1479:TP2824/TP2802.c **** 	//	printf("video status 0x%02x on ch%01x\r\n",(tWord)VDLOSS,(tWord)ch);
 1604              		.loc 1 1479 11 is_stmt 0 view .LVU441
 1605 000c 0120     		movs	r0, #1
 1606 000e FFF7FEFF 		bl	tp28xx_byte_read
 1607              	.LVL163:
1482:TP2824/TP2802.c **** 		printf("No ");
 1608              		.loc 1 1482 2 is_stmt 1 view .LVU442
1482:TP2824/TP2802.c **** 		printf("No ");
 1609              		.loc 1 1482 5 is_stmt 0 view .LVU443
 1610 0012 0446     		mov	r4, r0
 1611 0014 28B9     		cbnz	r0, .L123
 1612              	.LVL164:
 1613              	.L121:
1485:TP2824/TP2802.c **** 
 1614              		.loc 1 1485 2 is_stmt 1 view .LVU444
 1615 0016 0548     		ldr	r0, .L124
 1616 0018 FFF7FEFF 		bl	printf
 1617              	.LVL165:
1487:TP2824/TP2802.c **** 	return VDLOSS;
 1618              		.loc 1 1487 2 view .LVU445
1488:TP2824/TP2802.c **** }
 1619              		.loc 1 1488 2 view .LVU446
1489:TP2824/TP2802.c **** 
 1620              		.loc 1 1489 1 is_stmt 0 view .LVU447
 1621 001c C4F3C710 		ubfx	r0, r4, #7, #8
 1622 0020 10BD     		pop	{r4, pc}
 1623              	.LVL166:
 1624              	.L123:
1483:TP2824/TP2802.c **** 
 1625              		.loc 1 1483 3 is_stmt 1 view .LVU448
 1626 0022 0348     		ldr	r0, .L124+4
 1627              	.LVL167:
1483:TP2824/TP2802.c **** 
 1628              		.loc 1 1483 3 is_stmt 0 view .LVU449
 1629 0024 FFF7FEFF 		bl	printf
 1630              	.LVL168:
 1631 0028 F5E7     		b	.L121
 1632              	.L125:
 1633 002a 00BF     		.align	2
 1634              	.L124:
 1635 002c 04000000 		.word	.LC23
 1636 0030 00000000 		.word	.LC22
 1637              		.cfi_endproc
 1638              	.LFE12:
 1640              		.section	.rodata.ManualAGC.str1.4,"aMS",%progbits,1
 1641              		.align	2
 1642              	.LC24:
 1643 0000 72657375 		.ascii	"result AGC=0X%04x ch%02X\015\012\000"
 1643      6C742041 
 1643      47433D30 
 1643      58253034 
 1643      78206368 
 1644              		.section	.text.ManualAGC,"ax",%progbits
 1645              		.align	1
 1646              		.global	ManualAGC
ARM GAS  C:\Users\ryanc.HS\AppData\Local\Temp\ccAQ3CYh.s 			page 66


 1647              		.syntax unified
 1648              		.thumb
 1649              		.thumb_func
 1650              		.fpu softvfp
 1652              	ManualAGC:
 1653              	.LVL169:
 1654              	.LFB13:
1492:TP2824/TP2802.c **** 	unsigned int agc;
 1655              		.loc 1 1492 1 is_stmt 1 view -0
 1656              		.cfi_startproc
 1657              		@ args = 0, pretend = 0, frame = 0
 1658              		@ frame_needed = 0, uses_anonymous_args = 0
1492:TP2824/TP2802.c **** 	unsigned int agc;
 1659              		.loc 1 1492 1 is_stmt 0 view .LVU451
 1660 0000 38B5     		push	{r3, r4, r5, lr}
 1661              	.LCFI13:
 1662              		.cfi_def_cfa_offset 16
 1663              		.cfi_offset 3, -16
 1664              		.cfi_offset 4, -12
 1665              		.cfi_offset 5, -8
 1666              		.cfi_offset 14, -4
 1667 0002 0546     		mov	r5, r0
1493:TP2824/TP2802.c **** 	unsigned char tmp;
 1668              		.loc 1 1493 2 is_stmt 1 view .LVU452
1494:TP2824/TP2802.c **** 	// unsigned int i;
 1669              		.loc 1 1494 2 view .LVU453
1497:TP2824/TP2802.c **** 	agc = tp28xx_byte_read(0x04);
 1670              		.loc 1 1497 2 view .LVU454
 1671 0004 0221     		movs	r1, #2
 1672 0006 2F20     		movs	r0, #47
 1673              	.LVL170:
1497:TP2824/TP2802.c **** 	agc = tp28xx_byte_read(0x04);
 1674              		.loc 1 1497 2 is_stmt 0 view .LVU455
 1675 0008 FFF7FEFF 		bl	tp28xx_byte_write
 1676              	.LVL171:
1498:TP2824/TP2802.c **** 	agc += tp28xx_byte_read(0x04);
 1677              		.loc 1 1498 2 is_stmt 1 view .LVU456
1498:TP2824/TP2802.c **** 	agc += tp28xx_byte_read(0x04);
 1678              		.loc 1 1498 8 is_stmt 0 view .LVU457
 1679 000c 0420     		movs	r0, #4
 1680 000e FFF7FEFF 		bl	tp28xx_byte_read
 1681              	.LVL172:
 1682 0012 0446     		mov	r4, r0
 1683              	.LVL173:
1499:TP2824/TP2802.c **** 	agc += tp28xx_byte_read(0x04);
 1684              		.loc 1 1499 2 is_stmt 1 view .LVU458
1499:TP2824/TP2802.c **** 	agc += tp28xx_byte_read(0x04);
 1685              		.loc 1 1499 9 is_stmt 0 view .LVU459
 1686 0014 0420     		movs	r0, #4
 1687              	.LVL174:
1499:TP2824/TP2802.c **** 	agc += tp28xx_byte_read(0x04);
 1688              		.loc 1 1499 9 view .LVU460
 1689 0016 FFF7FEFF 		bl	tp28xx_byte_read
 1690              	.LVL175:
1499:TP2824/TP2802.c **** 	agc += tp28xx_byte_read(0x04);
 1691              		.loc 1 1499 6 view .LVU461
 1692 001a 0444     		add	r4, r4, r0
ARM GAS  C:\Users\ryanc.HS\AppData\Local\Temp\ccAQ3CYh.s 			page 67


 1693              	.LVL176:
1500:TP2824/TP2802.c **** 	agc += tp28xx_byte_read(0x04);
 1694              		.loc 1 1500 2 is_stmt 1 view .LVU462
1500:TP2824/TP2802.c **** 	agc += tp28xx_byte_read(0x04);
 1695              		.loc 1 1500 9 is_stmt 0 view .LVU463
 1696 001c 0420     		movs	r0, #4
 1697 001e FFF7FEFF 		bl	tp28xx_byte_read
 1698              	.LVL177:
1500:TP2824/TP2802.c **** 	agc += tp28xx_byte_read(0x04);
 1699              		.loc 1 1500 6 view .LVU464
 1700 0022 0444     		add	r4, r4, r0
 1701              	.LVL178:
1501:TP2824/TP2802.c **** 	agc &= 0x3f0;
 1702              		.loc 1 1501 2 is_stmt 1 view .LVU465
1501:TP2824/TP2802.c **** 	agc &= 0x3f0;
 1703              		.loc 1 1501 9 is_stmt 0 view .LVU466
 1704 0024 0420     		movs	r0, #4
 1705 0026 FFF7FEFF 		bl	tp28xx_byte_read
 1706              	.LVL179:
1501:TP2824/TP2802.c **** 	agc &= 0x3f0;
 1707              		.loc 1 1501 6 view .LVU467
 1708 002a 0119     		adds	r1, r0, r4
 1709              	.LVL180:
1502:TP2824/TP2802.c **** 	agc >>= 1;
 1710              		.loc 1 1502 2 is_stmt 1 view .LVU468
1503:TP2824/TP2802.c **** 	if (agc > 0x1ff)
 1711              		.loc 1 1503 2 view .LVU469
 1712 002c 4908     		lsrs	r1, r1, #1
 1713              	.LVL181:
1503:TP2824/TP2802.c **** 	if (agc > 0x1ff)
 1714              		.loc 1 1503 6 is_stmt 0 view .LVU470
 1715 002e 01F4FC74 		and	r4, r1, #504
 1716              	.LVL182:
1504:TP2824/TP2802.c **** 		agc = 0x1ff;
 1717              		.loc 1 1504 2 is_stmt 1 view .LVU471
1507:TP2824/TP2802.c **** 	tp28xx_byte_write(0x08, agc & 0xff);
 1718              		.loc 1 1507 2 view .LVU472
 1719 0032 2A46     		mov	r2, r5
 1720 0034 2146     		mov	r1, r4
 1721 0036 0B48     		ldr	r0, .L130
 1722 0038 FFF7FEFF 		bl	printf
 1723              	.LVL183:
1508:TP2824/TP2802.c **** 	tmp = tp28xx_byte_read(0x06);
 1724              		.loc 1 1508 2 view .LVU473
 1725 003c 04F0F801 		and	r1, r4, #248
 1726 0040 0820     		movs	r0, #8
 1727 0042 FFF7FEFF 		bl	tp28xx_byte_write
 1728              	.LVL184:
1509:TP2824/TP2802.c **** 	tmp &= 0xf9;
 1729              		.loc 1 1509 2 view .LVU474
1509:TP2824/TP2802.c **** 	tmp &= 0xf9;
 1730              		.loc 1 1509 8 is_stmt 0 view .LVU475
 1731 0046 0620     		movs	r0, #6
 1732 0048 FFF7FEFF 		bl	tp28xx_byte_read
 1733              	.LVL185:
1510:TP2824/TP2802.c **** 	tmp |= (agc >> 7) & 0x02;
 1734              		.loc 1 1510 2 is_stmt 1 view .LVU476
ARM GAS  C:\Users\ryanc.HS\AppData\Local\Temp\ccAQ3CYh.s 			page 68


1510:TP2824/TP2802.c **** 	tmp |= (agc >> 7) & 0x02;
 1735              		.loc 1 1510 6 is_stmt 0 view .LVU477
 1736 004c 00F0F900 		and	r0, r0, #249
 1737              	.LVL186:
1511:TP2824/TP2802.c **** 	tmp |= 0x04;
 1738              		.loc 1 1511 2 is_stmt 1 view .LVU478
1511:TP2824/TP2802.c **** 	tmp |= 0x04;
 1739              		.loc 1 1511 14 is_stmt 0 view .LVU479
 1740 0050 E109     		lsrs	r1, r4, #7
1511:TP2824/TP2802.c **** 	tmp |= 0x04;
 1741              		.loc 1 1511 20 view .LVU480
 1742 0052 01F00201 		and	r1, r1, #2
1511:TP2824/TP2802.c **** 	tmp |= 0x04;
 1743              		.loc 1 1511 6 view .LVU481
 1744 0056 0143     		orrs	r1, r1, r0
 1745              	.LVL187:
1512:TP2824/TP2802.c **** 	tmp &= 0x32; /// ryan@20211028 AHD 720P GDAGCgain
 1746              		.loc 1 1512 2 is_stmt 1 view .LVU482
1513:TP2824/TP2802.c **** 	tp28xx_byte_write(0x06, tmp);
 1747              		.loc 1 1513 2 view .LVU483
1514:TP2824/TP2802.c **** 
 1748              		.loc 1 1514 2 view .LVU484
 1749 0058 01F03201 		and	r1, r1, #50
 1750              	.LVL188:
1514:TP2824/TP2802.c **** 
 1751              		.loc 1 1514 2 is_stmt 0 view .LVU485
 1752 005c 0620     		movs	r0, #6
 1753              	.LVL189:
1514:TP2824/TP2802.c **** 
 1754              		.loc 1 1514 2 view .LVU486
 1755 005e FFF7FEFF 		bl	tp28xx_byte_write
 1756              	.LVL190:
1527:TP2824/TP2802.c **** 
 1757              		.loc 1 1527 1 view .LVU487
 1758 0062 38BD     		pop	{r3, r4, r5, pc}
 1759              	.LVL191:
 1760              	.L131:
1527:TP2824/TP2802.c **** 
 1761              		.loc 1 1527 1 view .LVU488
 1762              		.align	2
 1763              	.L130:
 1764 0064 00000000 		.word	.LC24
 1765              		.cfi_endproc
 1766              	.LFE13:
 1768              		.section	.text.ReadGain,"ax",%progbits
 1769              		.align	1
 1770              		.global	ReadGain
 1771              		.syntax unified
 1772              		.thumb
 1773              		.thumb_func
 1774              		.fpu softvfp
 1776              	ReadGain:
 1777              	.LFB17:
1620:TP2824/TP2802.c **** ////////////////////////////////////////
1621:TP2824/TP2802.c **** tByte ReadGain(void)
1622:TP2824/TP2802.c **** {
 1778              		.loc 1 1622 1 is_stmt 1 view -0
ARM GAS  C:\Users\ryanc.HS\AppData\Local\Temp\ccAQ3CYh.s 			page 69


 1779              		.cfi_startproc
 1780              		@ args = 0, pretend = 0, frame = 0
 1781              		@ frame_needed = 0, uses_anonymous_args = 0
 1782 0000 08B5     		push	{r3, lr}
 1783              	.LCFI14:
 1784              		.cfi_def_cfa_offset 8
 1785              		.cfi_offset 3, -8
 1786              		.cfi_offset 14, -4
1623:TP2824/TP2802.c **** 	tp28xx_byte_write(0x2f, 0x00);
 1787              		.loc 1 1623 2 view .LVU490
 1788 0002 0021     		movs	r1, #0
 1789 0004 2F20     		movs	r0, #47
 1790 0006 FFF7FEFF 		bl	tp28xx_byte_write
 1791              	.LVL192:
1624:TP2824/TP2802.c **** 	return tp28xx_byte_read(0x04);
 1792              		.loc 1 1624 2 view .LVU491
 1793              		.loc 1 1624 9 is_stmt 0 view .LVU492
 1794 000a 0420     		movs	r0, #4
 1795 000c FFF7FEFF 		bl	tp28xx_byte_read
 1796              	.LVL193:
1625:TP2824/TP2802.c **** }
 1797              		.loc 1 1625 1 view .LVU493
 1798 0010 08BD     		pop	{r3, pc}
 1799              		.cfi_endproc
 1800              	.LFE17:
 1802              		.section	.rodata.SetCGain.str1.4,"aMS",%progbits,1
 1803              		.align	2
 1804              	.LC25:
 1805 0000 53657443 		.ascii	"SetCGain\000"
 1805      4761696E 
 1805      00
 1806              		.section	.text.SetCGain,"ax",%progbits
 1807              		.align	1
 1808              		.global	SetCGain
 1809              		.syntax unified
 1810              		.thumb
 1811              		.thumb_func
 1812              		.fpu softvfp
 1814              	SetCGain:
 1815              	.LVL194:
 1816              	.LFB18:
1626:TP2824/TP2802.c **** ////////////////////////////////////////
1627:TP2824/TP2802.c **** void SetCGain(unsigned char CGAIN_STD)
1628:TP2824/TP2802.c **** {
 1817              		.loc 1 1628 1 is_stmt 1 view -0
 1818              		.cfi_startproc
 1819              		@ args = 0, pretend = 0, frame = 0
 1820              		@ frame_needed = 0, uses_anonymous_args = 0
 1821              		.loc 1 1628 1 is_stmt 0 view .LVU495
 1822 0000 F8B5     		push	{r3, r4, r5, r6, r7, lr}
 1823              	.LCFI15:
 1824              		.cfi_def_cfa_offset 24
 1825              		.cfi_offset 3, -24
 1826              		.cfi_offset 4, -20
 1827              		.cfi_offset 5, -16
 1828              		.cfi_offset 6, -12
 1829              		.cfi_offset 7, -8
ARM GAS  C:\Users\ryanc.HS\AppData\Local\Temp\ccAQ3CYh.s 			page 70


 1830              		.cfi_offset 14, -4
 1831 0002 0646     		mov	r6, r0
1629:TP2824/TP2802.c **** 	unsigned char tmp, cgain;
 1832              		.loc 1 1629 2 is_stmt 1 view .LVU496
1630:TP2824/TP2802.c **** 	unsigned char retry = 30;
 1833              		.loc 1 1630 2 view .LVU497
 1834              	.LVL195:
1631:TP2824/TP2802.c **** 
1632:TP2824/TP2802.c **** 	tp28xx_byte_write(0x2f, 0x06);
 1835              		.loc 1 1632 2 view .LVU498
 1836 0004 0621     		movs	r1, #6
 1837 0006 2F20     		movs	r0, #47
 1838              	.LVL196:
 1839              		.loc 1 1632 2 is_stmt 0 view .LVU499
 1840 0008 FFF7FEFF 		bl	tp28xx_byte_write
 1841              	.LVL197:
1633:TP2824/TP2802.c **** 	cgain = tp28xx_byte_read(0x04);
 1842              		.loc 1 1633 2 is_stmt 1 view .LVU500
 1843              		.loc 1 1633 10 is_stmt 0 view .LVU501
 1844 000c 0420     		movs	r0, #4
 1845 000e FFF7FEFF 		bl	tp28xx_byte_read
 1846              	.LVL198:
1634:TP2824/TP2802.c **** 
1635:TP2824/TP2802.c **** 	if (cgain < CGAIN_STD)
 1847              		.loc 1 1635 2 is_stmt 1 view .LVU502
 1848              		.loc 1 1635 5 is_stmt 0 view .LVU503
 1849 0012 B042     		cmp	r0, r6
 1850 0014 42D3     		bcc	.L144
 1851              	.LVL199:
 1852              	.L134:
1636:TP2824/TP2802.c **** 	{
1637:TP2824/TP2802.c **** 		while (retry)
1638:TP2824/TP2802.c **** 		{
1639:TP2824/TP2802.c **** 			retry--;
1640:TP2824/TP2802.c **** 
1641:TP2824/TP2802.c **** 			tmp = tp28xx_byte_read(0x07);
1642:TP2824/TP2802.c **** 			tmp &= 0x3f;
1643:TP2824/TP2802.c **** 			while (abs(CGAIN_STD - cgain))
1644:TP2824/TP2802.c **** 			{
1645:TP2824/TP2802.c **** 				if (tmp)
1646:TP2824/TP2802.c **** 					tmp--;
1647:TP2824/TP2802.c **** 				else
1648:TP2824/TP2802.c **** 					break;
1649:TP2824/TP2802.c **** 				cgain++;
1650:TP2824/TP2802.c **** 			}
1651:TP2824/TP2802.c **** 
1652:TP2824/TP2802.c **** 			tp28xx_byte_write(0x07, 0x80 | tmp);
1653:TP2824/TP2802.c **** 			if (0 == tmp)
1654:TP2824/TP2802.c **** 				break;
1655:TP2824/TP2802.c **** 			delay(8); // delay 40ms
1656:TP2824/TP2802.c **** 			tp28xx_byte_write(0x2f, 0x06);
1657:TP2824/TP2802.c **** 			cgain = tp28xx_byte_read(0x04);
1658:TP2824/TP2802.c **** 
1659:TP2824/TP2802.c **** 			if (cgain > (CGAIN_STD + 1))
1660:TP2824/TP2802.c **** 			{
1661:TP2824/TP2802.c **** 				tmp = tp28xx_byte_read(0x07);
1662:TP2824/TP2802.c **** 				tmp &= 0x3f;
ARM GAS  C:\Users\ryanc.HS\AppData\Local\Temp\ccAQ3CYh.s 			page 71


1663:TP2824/TP2802.c **** 				// tmp +=0x02;
1664:TP2824/TP2802.c **** 				tmp++;
1665:TP2824/TP2802.c **** 				tmp++;
1666:TP2824/TP2802.c **** 				if (tmp > 0x3f)
1667:TP2824/TP2802.c **** 					tmp = 0x3f;
1668:TP2824/TP2802.c **** 				tp28xx_byte_write(0x07, 0x80 | tmp);
1669:TP2824/TP2802.c **** 				if (0x3f == tmp)
1670:TP2824/TP2802.c **** 					break;
1671:TP2824/TP2802.c **** 				delay(8); // delay 40ms
1672:TP2824/TP2802.c **** 				cgain = tp28xx_byte_read(0x04);
1673:TP2824/TP2802.c **** 			}
1674:TP2824/TP2802.c **** 			if (abs(cgain - CGAIN_STD) < 2)
1675:TP2824/TP2802.c **** 				break;
1676:TP2824/TP2802.c **** 		}
1677:TP2824/TP2802.c **** 
1678:TP2824/TP2802.c **** #if (_DEBUG_MESSAGE_TP2824 == ON)
1679:TP2824/TP2802.c **** 		Printf("SetCGain");
1680:TP2824/TP2802.c **** #endif
1681:TP2824/TP2802.c **** 	}
1682:TP2824/TP2802.c **** }
 1853              		.loc 1 1682 1 view .LVU504
 1854 0016 F8BD     		pop	{r3, r4, r5, r6, r7, pc}
 1855              	.LVL200:
 1856              	.L138:
1652:TP2824/TP2802.c **** 			if (0 == tmp)
 1857              		.loc 1 1652 4 is_stmt 1 view .LVU505
 1858 0018 45F08001 		orr	r1, r5, #128
 1859 001c 0720     		movs	r0, #7
 1860 001e FFF7FEFF 		bl	tp28xx_byte_write
 1861              	.LVL201:
1653:TP2824/TP2802.c **** 				break;
 1862              		.loc 1 1653 4 view .LVU506
1653:TP2824/TP2802.c **** 				break;
 1863              		.loc 1 1653 7 is_stmt 0 view .LVU507
 1864 0022 002D     		cmp	r5, #0
 1865 0024 3DD0     		beq	.L140
1655:TP2824/TP2802.c **** 			tp28xx_byte_write(0x2f, 0x06);
 1866              		.loc 1 1655 4 is_stmt 1 view .LVU508
 1867 0026 0820     		movs	r0, #8
 1868 0028 FFF7FEFF 		bl	delay
 1869              	.LVL202:
1656:TP2824/TP2802.c **** 			cgain = tp28xx_byte_read(0x04);
 1870              		.loc 1 1656 4 view .LVU509
 1871 002c 0621     		movs	r1, #6
 1872 002e 2F20     		movs	r0, #47
 1873 0030 FFF7FEFF 		bl	tp28xx_byte_write
 1874              	.LVL203:
1657:TP2824/TP2802.c **** 
 1875              		.loc 1 1657 4 view .LVU510
1657:TP2824/TP2802.c **** 
 1876              		.loc 1 1657 12 is_stmt 0 view .LVU511
 1877 0034 0420     		movs	r0, #4
 1878 0036 FFF7FEFF 		bl	tp28xx_byte_read
 1879              	.LVL204:
 1880 003a 0446     		mov	r4, r0
 1881              	.LVL205:
1659:TP2824/TP2802.c **** 			{
ARM GAS  C:\Users\ryanc.HS\AppData\Local\Temp\ccAQ3CYh.s 			page 72


 1882              		.loc 1 1659 4 is_stmt 1 view .LVU512
1659:TP2824/TP2802.c **** 			{
 1883              		.loc 1 1659 27 is_stmt 0 view .LVU513
 1884 003c 731C     		adds	r3, r6, #1
1659:TP2824/TP2802.c **** 			{
 1885              		.loc 1 1659 7 view .LVU514
 1886 003e 9842     		cmp	r0, r3
 1887 0040 14DC     		bgt	.L147
 1888              	.LVL206:
 1889              	.L141:
1674:TP2824/TP2802.c **** 				break;
 1890              		.loc 1 1674 4 is_stmt 1 view .LVU515
1674:TP2824/TP2802.c **** 				break;
 1891              		.loc 1 1674 18 is_stmt 0 view .LVU516
 1892 0042 A31B     		subs	r3, r4, r6
1674:TP2824/TP2802.c **** 				break;
 1893              		.loc 1 1674 31 view .LVU517
 1894 0044 0133     		adds	r3, r3, #1
1674:TP2824/TP2802.c **** 				break;
 1895              		.loc 1 1674 7 view .LVU518
 1896 0046 022B     		cmp	r3, #2
 1897 0048 2BD9     		bls	.L140
 1898              	.LVL207:
 1899              	.L135:
1637:TP2824/TP2802.c **** 		{
 1900              		.loc 1 1637 9 is_stmt 1 view .LVU519
 1901 004a 57B3     		cbz	r7, .L140
1639:TP2824/TP2802.c **** 
 1902              		.loc 1 1639 4 view .LVU520
1639:TP2824/TP2802.c **** 
 1903              		.loc 1 1639 9 is_stmt 0 view .LVU521
 1904 004c 013F     		subs	r7, r7, #1
 1905              	.LVL208:
1639:TP2824/TP2802.c **** 
 1906              		.loc 1 1639 9 view .LVU522
 1907 004e FFB2     		uxtb	r7, r7
 1908              	.LVL209:
1641:TP2824/TP2802.c **** 			tmp &= 0x3f;
 1909              		.loc 1 1641 4 is_stmt 1 view .LVU523
1641:TP2824/TP2802.c **** 			tmp &= 0x3f;
 1910              		.loc 1 1641 10 is_stmt 0 view .LVU524
 1911 0050 0720     		movs	r0, #7
 1912 0052 FFF7FEFF 		bl	tp28xx_byte_read
 1913              	.LVL210:
1642:TP2824/TP2802.c **** 			while (abs(CGAIN_STD - cgain))
 1914              		.loc 1 1642 4 is_stmt 1 view .LVU525
1642:TP2824/TP2802.c **** 			while (abs(CGAIN_STD - cgain))
 1915              		.loc 1 1642 8 is_stmt 0 view .LVU526
 1916 0056 00F03F05 		and	r5, r0, #63
 1917              	.LVL211:
1643:TP2824/TP2802.c **** 			{
 1918              		.loc 1 1643 4 is_stmt 1 view .LVU527
 1919              	.L137:
1643:TP2824/TP2802.c **** 			{
 1920              		.loc 1 1643 10 view .LVU528
 1921 005a B442     		cmp	r4, r6
 1922 005c DCD0     		beq	.L138
ARM GAS  C:\Users\ryanc.HS\AppData\Local\Temp\ccAQ3CYh.s 			page 73


1645:TP2824/TP2802.c **** 					tmp--;
 1923              		.loc 1 1645 5 view .LVU529
1645:TP2824/TP2802.c **** 					tmp--;
 1924              		.loc 1 1645 8 is_stmt 0 view .LVU530
 1925 005e 002D     		cmp	r5, #0
 1926 0060 DAD0     		beq	.L138
1646:TP2824/TP2802.c **** 				else
 1927              		.loc 1 1646 6 is_stmt 1 view .LVU531
1646:TP2824/TP2802.c **** 				else
 1928              		.loc 1 1646 9 is_stmt 0 view .LVU532
 1929 0062 013D     		subs	r5, r5, #1
 1930              	.LVL212:
1646:TP2824/TP2802.c **** 				else
 1931              		.loc 1 1646 9 view .LVU533
 1932 0064 EDB2     		uxtb	r5, r5
 1933              	.LVL213:
1649:TP2824/TP2802.c **** 			}
 1934              		.loc 1 1649 5 is_stmt 1 view .LVU534
1649:TP2824/TP2802.c **** 			}
 1935              		.loc 1 1649 10 is_stmt 0 view .LVU535
 1936 0066 0134     		adds	r4, r4, #1
 1937              	.LVL214:
1649:TP2824/TP2802.c **** 			}
 1938              		.loc 1 1649 10 view .LVU536
 1939 0068 E4B2     		uxtb	r4, r4
 1940              	.LVL215:
1649:TP2824/TP2802.c **** 			}
 1941              		.loc 1 1649 10 view .LVU537
 1942 006a F6E7     		b	.L137
 1943              	.LVL216:
 1944              	.L147:
1661:TP2824/TP2802.c **** 				tmp &= 0x3f;
 1945              		.loc 1 1661 5 is_stmt 1 view .LVU538
1661:TP2824/TP2802.c **** 				tmp &= 0x3f;
 1946              		.loc 1 1661 11 is_stmt 0 view .LVU539
 1947 006c 0720     		movs	r0, #7
 1948              	.LVL217:
1661:TP2824/TP2802.c **** 				tmp &= 0x3f;
 1949              		.loc 1 1661 11 view .LVU540
 1950 006e FFF7FEFF 		bl	tp28xx_byte_read
 1951              	.LVL218:
1662:TP2824/TP2802.c **** 				// tmp +=0x02;
 1952              		.loc 1 1662 5 is_stmt 1 view .LVU541
1662:TP2824/TP2802.c **** 				// tmp +=0x02;
 1953              		.loc 1 1662 9 is_stmt 0 view .LVU542
 1954 0072 00F03F04 		and	r4, r0, #63
 1955              	.LVL219:
1664:TP2824/TP2802.c **** 				tmp++;
 1956              		.loc 1 1664 5 is_stmt 1 view .LVU543
1665:TP2824/TP2802.c **** 				if (tmp > 0x3f)
 1957              		.loc 1 1665 5 view .LVU544
1665:TP2824/TP2802.c **** 				if (tmp > 0x3f)
 1958              		.loc 1 1665 8 is_stmt 0 view .LVU545
 1959 0076 0234     		adds	r4, r4, #2
 1960              	.LVL220:
1666:TP2824/TP2802.c **** 					tmp = 0x3f;
 1961              		.loc 1 1666 5 is_stmt 1 view .LVU546
ARM GAS  C:\Users\ryanc.HS\AppData\Local\Temp\ccAQ3CYh.s 			page 74


1666:TP2824/TP2802.c **** 					tmp = 0x3f;
 1962              		.loc 1 1666 8 is_stmt 0 view .LVU547
 1963 0078 3F2C     		cmp	r4, #63
 1964 007a 00D9     		bls	.L142
1667:TP2824/TP2802.c **** 				tp28xx_byte_write(0x07, 0x80 | tmp);
 1965              		.loc 1 1667 10 view .LVU548
 1966 007c 3F24     		movs	r4, #63
 1967              	.LVL221:
 1968              	.L142:
1668:TP2824/TP2802.c **** 				if (0x3f == tmp)
 1969              		.loc 1 1668 5 is_stmt 1 view .LVU549
 1970 007e 44F08001 		orr	r1, r4, #128
 1971 0082 0720     		movs	r0, #7
 1972 0084 FFF7FEFF 		bl	tp28xx_byte_write
 1973              	.LVL222:
1669:TP2824/TP2802.c **** 					break;
 1974              		.loc 1 1669 5 view .LVU550
1669:TP2824/TP2802.c **** 					break;
 1975              		.loc 1 1669 8 is_stmt 0 view .LVU551
 1976 0088 3F2C     		cmp	r4, #63
 1977 008a 0AD0     		beq	.L140
1671:TP2824/TP2802.c **** 				cgain = tp28xx_byte_read(0x04);
 1978              		.loc 1 1671 5 is_stmt 1 view .LVU552
 1979 008c 0820     		movs	r0, #8
 1980 008e FFF7FEFF 		bl	delay
 1981              	.LVL223:
1672:TP2824/TP2802.c **** 			}
 1982              		.loc 1 1672 5 view .LVU553
1672:TP2824/TP2802.c **** 			}
 1983              		.loc 1 1672 13 is_stmt 0 view .LVU554
 1984 0092 0420     		movs	r0, #4
 1985 0094 FFF7FEFF 		bl	tp28xx_byte_read
 1986              	.LVL224:
 1987 0098 0446     		mov	r4, r0
 1988              	.LVL225:
1672:TP2824/TP2802.c **** 			}
 1989              		.loc 1 1672 13 view .LVU555
 1990 009a D2E7     		b	.L141
 1991              	.LVL226:
 1992              	.L144:
1672:TP2824/TP2802.c **** 			}
 1993              		.loc 1 1672 13 view .LVU556
 1994 009c 0446     		mov	r4, r0
1630:TP2824/TP2802.c **** 
 1995              		.loc 1 1630 16 view .LVU557
 1996 009e 1E27     		movs	r7, #30
 1997 00a0 D3E7     		b	.L135
 1998              	.LVL227:
 1999              	.L140:
1679:TP2824/TP2802.c **** #endif
 2000              		.loc 1 1679 3 is_stmt 1 view .LVU558
 2001 00a2 0248     		ldr	r0, .L148
 2002 00a4 FFF7FEFF 		bl	Printf
 2003              	.LVL228:
 2004              		.loc 1 1682 1 is_stmt 0 view .LVU559
 2005 00a8 B5E7     		b	.L134
 2006              	.L149:
ARM GAS  C:\Users\ryanc.HS\AppData\Local\Temp\ccAQ3CYh.s 			page 75


 2007 00aa 00BF     		.align	2
 2008              	.L148:
 2009 00ac 00000000 		.word	.LC25
 2010              		.cfi_endproc
 2011              	.LFE18:
 2013              		.section	.text.INPUT_VIDEO_CHECK,"ax",%progbits
 2014              		.align	1
 2015              		.global	INPUT_VIDEO_CHECK
 2016              		.syntax unified
 2017              		.thumb
 2018              		.thumb_func
 2019              		.fpu softvfp
 2021              	INPUT_VIDEO_CHECK:
 2022              	.LVL229:
 2023              	.LFB19:
1683:TP2824/TP2802.c **** ////////////////////////////////////////
1684:TP2824/TP2802.c **** 
1685:TP2824/TP2802.c **** BYTE INPUT_VIDEO_CHECK(BYTE ch)
1686:TP2824/TP2802.c **** {
 2024              		.loc 1 1686 1 is_stmt 1 view -0
 2025              		.cfi_startproc
 2026              		@ args = 0, pretend = 0, frame = 0
 2027              		@ frame_needed = 0, uses_anonymous_args = 0
 2028              		@ link register save eliminated.
 2029              		.loc 1 1686 1 is_stmt 0 view .LVU561
 2030 0000 0346     		mov	r3, r0
1687:TP2824/TP2802.c **** 
1688:TP2824/TP2802.c **** 	BYTE ret = 0;
 2031              		.loc 1 1688 2 is_stmt 1 view .LVU562
 2032              	.LVL230:
1689:TP2824/TP2802.c **** 
1690:TP2824/TP2802.c **** 	switch (CURRENT_CH)
 2033              		.loc 1 1690 2 view .LVU563
 2034 0002 424A     		ldr	r2, .L185
 2035 0004 1078     		ldrb	r0, [r2]	@ zero_extendqisi2
 2036              	.LVL231:
 2037              		.loc 1 1690 2 is_stmt 0 view .LVU564
 2038 0006 2628     		cmp	r0, #38
 2039 0008 5BD8     		bhi	.L167
 2040 000a DFE800F0 		tbb	[pc, r0]
 2041              	.L153:
 2042 000e 14       		.byte	(.L166-.L153)/2
 2043 000f 19       		.byte	(.L165-.L153)/2
 2044 0010 21       		.byte	(.L164-.L153)/2
 2045 0011 27       		.byte	(.L163-.L153)/2
 2046 0012 27       		.byte	(.L163-.L153)/2
 2047 0013 5A       		.byte	(.L167-.L153)/2
 2048 0014 5A       		.byte	(.L167-.L153)/2
 2049 0015 37       		.byte	(.L156-.L153)/2
 2050 0016 37       		.byte	(.L156-.L153)/2
 2051 0017 37       		.byte	(.L156-.L153)/2
 2052 0018 2B       		.byte	(.L160-.L153)/2
 2053 0019 40       		.byte	(.L161-.L153)/2
 2054 001a 31       		.byte	(.L162-.L153)/2
 2055 001b 5A       		.byte	(.L167-.L153)/2
 2056 001c 4A       		.byte	(.L159-.L153)/2
 2057 001d 40       		.byte	(.L161-.L153)/2
ARM GAS  C:\Users\ryanc.HS\AppData\Local\Temp\ccAQ3CYh.s 			page 76


 2058 001e 2B       		.byte	(.L160-.L153)/2
 2059 001f 3B       		.byte	(.L157-.L153)/2
 2060 0020 4A       		.byte	(.L159-.L153)/2
 2061 0021 44       		.byte	(.L158-.L153)/2
 2062 0022 44       		.byte	(.L158-.L153)/2
 2063 0023 3B       		.byte	(.L157-.L153)/2
 2064 0024 4F       		.byte	(.L152-.L153)/2
 2065 0025 37       		.byte	(.L156-.L153)/2
 2066 0026 4F       		.byte	(.L152-.L153)/2
 2067 0027 53       		.byte	(.L155-.L153)/2
 2068 0028 37       		.byte	(.L156-.L153)/2
 2069 0029 4F       		.byte	(.L152-.L153)/2
 2070 002a 57       		.byte	(.L154-.L153)/2
 2071 002b 37       		.byte	(.L156-.L153)/2
 2072 002c 53       		.byte	(.L155-.L153)/2
 2073 002d 57       		.byte	(.L154-.L153)/2
 2074 002e 4F       		.byte	(.L152-.L153)/2
 2075 002f 53       		.byte	(.L155-.L153)/2
 2076 0030 57       		.byte	(.L154-.L153)/2
 2077 0031 53       		.byte	(.L155-.L153)/2
 2078 0032 57       		.byte	(.L154-.L153)/2
 2079 0033 5A       		.byte	(.L167-.L153)/2
 2080 0034 4F       		.byte	(.L152-.L153)/2
 2081 0035 00       		.p2align 1
 2082              	.L166:
1691:TP2824/TP2802.c **** 	{
1692:TP2824/TP2802.c **** 	case VS4210_LOOP_MODE0_w0:
1693:TP2824/TP2802.c **** 		if ((ch == CH2) || (ch == CH3) || (ch == CH4))
 2083              		.loc 1 1693 3 is_stmt 1 view .LVU565
 2084              		.loc 1 1693 34 is_stmt 0 view .LVU566
 2085 0036 013B     		subs	r3, r3, #1
 2086 0038 DBB2     		uxtb	r3, r3
 2087              		.loc 1 1693 6 view .LVU567
 2088 003a 022B     		cmp	r3, #2
 2089 003c 43D9     		bls	.L168
 2090 003e 7047     		bx	lr
 2091              	.L165:
1694:TP2824/TP2802.c **** 			ret = _TRUE;
1695:TP2824/TP2802.c **** 		break;
1696:TP2824/TP2802.c **** 	case VS4210_LOOP_MODE0_w1:
1697:TP2824/TP2802.c **** 		if ((ch == CH1) || (ch == CH3) || (ch == CH4))
 2092              		.loc 1 1697 3 is_stmt 1 view .LVU568
 2093              		.loc 1 1697 6 is_stmt 0 view .LVU569
 2094 0040 002B     		cmp	r3, #0
 2095 0042 61D0     		beq	.L151
 2096              		.loc 1 1697 19 discriminator 1 view .LVU570
 2097 0044 022B     		cmp	r3, #2
 2098 0046 5FD0     		beq	.L151
 2099              		.loc 1 1697 34 discriminator 2 view .LVU571
 2100 0048 032B     		cmp	r3, #3
 2101 004a 5DD0     		beq	.L151
1688:TP2824/TP2802.c **** 
 2102              		.loc 1 1688 7 view .LVU572
 2103 004c 0020     		movs	r0, #0
 2104 004e 7047     		bx	lr
 2105              	.L164:
1698:TP2824/TP2802.c **** 			ret = _TRUE;
ARM GAS  C:\Users\ryanc.HS\AppData\Local\Temp\ccAQ3CYh.s 			page 77


1699:TP2824/TP2802.c **** 		break;
1700:TP2824/TP2802.c **** 	case VS4210_LOOP_MODE0_w2:
1701:TP2824/TP2802.c **** 		if ((ch == CH1) || (ch == CH2) || (ch == CH4))
 2106              		.loc 1 1701 3 is_stmt 1 view .LVU573
 2107              		.loc 1 1701 6 is_stmt 0 view .LVU574
 2108 0050 012B     		cmp	r3, #1
 2109 0052 3AD9     		bls	.L169
 2110              		.loc 1 1701 34 discriminator 1 view .LVU575
 2111 0054 032B     		cmp	r3, #3
 2112 0056 3AD0     		beq	.L170
1688:TP2824/TP2802.c **** 
 2113              		.loc 1 1688 7 view .LVU576
 2114 0058 0020     		movs	r0, #0
 2115 005a 7047     		bx	lr
 2116              	.L163:
1702:TP2824/TP2802.c **** 			ret = _TRUE;
1703:TP2824/TP2802.c **** 		break;
1704:TP2824/TP2802.c **** 	case VS4210_LOOP_MODE0_w3:
1705:TP2824/TP2802.c **** 	case VS4210_LOOP_MODE0_w4:
1706:TP2824/TP2802.c **** 		if ((ch == CH1) || (ch == CH2) || (ch == CH3))
 2117              		.loc 1 1706 3 is_stmt 1 view .LVU577
 2118              		.loc 1 1706 6 is_stmt 0 view .LVU578
 2119 005c 022B     		cmp	r3, #2
 2120 005e 38D9     		bls	.L171
1688:TP2824/TP2802.c **** 
 2121              		.loc 1 1688 7 view .LVU579
 2122 0060 0020     		movs	r0, #0
 2123 0062 7047     		bx	lr
 2124              	.L160:
1707:TP2824/TP2802.c **** 			ret = _TRUE;
1708:TP2824/TP2802.c **** 		break;
1709:TP2824/TP2802.c **** 	case VS4210_LOOP_MODE12_12:
1710:TP2824/TP2802.c **** 	case VS4210_LOOP_MODE12_21:
1711:TP2824/TP2802.c **** 		if ((ch == CH3) || (ch == CH4))
 2125              		.loc 1 1711 3 is_stmt 1 view .LVU580
 2126              		.loc 1 1711 19 is_stmt 0 view .LVU581
 2127 0064 023B     		subs	r3, r3, #2
 2128 0066 DBB2     		uxtb	r3, r3
 2129              		.loc 1 1711 6 view .LVU582
 2130 0068 012B     		cmp	r3, #1
 2131 006a 34D9     		bls	.L172
1688:TP2824/TP2802.c **** 
 2132              		.loc 1 1688 7 view .LVU583
 2133 006c 0020     		movs	r0, #0
 2134 006e 7047     		bx	lr
 2135              	.L162:
1712:TP2824/TP2802.c **** 			ret = _TRUE;
1713:TP2824/TP2802.c **** 		break;
1714:TP2824/TP2802.c **** 	case VS4210_LOOP_MODE12_14:
1715:TP2824/TP2802.c **** 		if ((ch == CH2) || (ch == CH3))
 2136              		.loc 1 1715 3 is_stmt 1 view .LVU584
 2137              		.loc 1 1715 19 is_stmt 0 view .LVU585
 2138 0070 013B     		subs	r3, r3, #1
 2139 0072 DBB2     		uxtb	r3, r3
 2140              		.loc 1 1715 6 view .LVU586
 2141 0074 012B     		cmp	r3, #1
 2142 0076 30D9     		bls	.L173
ARM GAS  C:\Users\ryanc.HS\AppData\Local\Temp\ccAQ3CYh.s 			page 78


1688:TP2824/TP2802.c **** 
 2143              		.loc 1 1688 7 view .LVU587
 2144 0078 0020     		movs	r0, #0
 2145 007a 7047     		bx	lr
 2146              	.L156:
1716:TP2824/TP2802.c **** 			ret = _TRUE;
1717:TP2824/TP2802.c **** 		break;
1718:TP2824/TP2802.c **** 	case VS4210_LOOP_MODE10_123:
1719:TP2824/TP2802.c **** 	case VS4210_LOOP_MODE8:
1720:TP2824/TP2802.c **** 	case VS4210_LOOP_MODE8_123:
1721:TP2824/TP2802.c **** 	case VS4210_LOOP_MODE8_213:
1722:TP2824/TP2802.c **** 	case VS4210_LOOP_MODE8_312:
1723:TP2824/TP2802.c **** 	case VS4210_LOOP_MODE9:
1724:TP2824/TP2802.c **** 		if (ch == CH4)
 2147              		.loc 1 1724 3 is_stmt 1 view .LVU588
 2148              		.loc 1 1724 6 is_stmt 0 view .LVU589
 2149 007c 032B     		cmp	r3, #3
 2150 007e 2ED0     		beq	.L174
1688:TP2824/TP2802.c **** 
 2151              		.loc 1 1688 7 view .LVU590
 2152 0080 0020     		movs	r0, #0
 2153 0082 7047     		bx	lr
 2154              	.L157:
1725:TP2824/TP2802.c **** 			ret = _TRUE;
1726:TP2824/TP2802.c **** 		break;
1727:TP2824/TP2802.c **** 
1728:TP2824/TP2802.c **** 	case VS4210_LOOP_MODE12_23:
1729:TP2824/TP2802.c **** 	case VS4210_LOOP_MODE12_32:
1730:TP2824/TP2802.c **** 		if ((ch == CH1) || (ch == CH4))
 2155              		.loc 1 1730 3 is_stmt 1 view .LVU591
 2156              		.loc 1 1730 6 is_stmt 0 view .LVU592
 2157 0084 6BB3     		cbz	r3, .L175
 2158              		.loc 1 1730 19 discriminator 1 view .LVU593
 2159 0086 032B     		cmp	r3, #3
 2160 0088 2DD0     		beq	.L176
1688:TP2824/TP2802.c **** 
 2161              		.loc 1 1688 7 view .LVU594
 2162 008a 0020     		movs	r0, #0
 2163 008c 7047     		bx	lr
 2164              	.L161:
1731:TP2824/TP2802.c **** 			ret = _TRUE;
1732:TP2824/TP2802.c **** 		break;
1733:TP2824/TP2802.c **** 	case VS4210_LOOP_MODE12_34:
1734:TP2824/TP2802.c **** 	case VS4210_LOOP_MODE12_43:
1735:TP2824/TP2802.c **** 		if ((ch == CH1) || (ch == CH2))
 2165              		.loc 1 1735 3 is_stmt 1 view .LVU595
 2166              		.loc 1 1735 6 is_stmt 0 view .LVU596
 2167 008e 012B     		cmp	r3, #1
 2168 0090 2BD9     		bls	.L177
1688:TP2824/TP2802.c **** 
 2169              		.loc 1 1688 7 view .LVU597
 2170 0092 0020     		movs	r0, #0
 2171 0094 7047     		bx	lr
 2172              	.L158:
1736:TP2824/TP2802.c **** 			ret = _TRUE;
1737:TP2824/TP2802.c **** 		break;
1738:TP2824/TP2802.c **** 	case VS4210_LOOP_MODE12_31:
ARM GAS  C:\Users\ryanc.HS\AppData\Local\Temp\ccAQ3CYh.s 			page 79


1739:TP2824/TP2802.c **** 	case VS4210_LOOP_MODE12_13:
1740:TP2824/TP2802.c **** 		if ((ch == CH2) || (ch == CH4))
 2173              		.loc 1 1740 3 is_stmt 1 view .LVU598
 2174              		.loc 1 1740 6 is_stmt 0 view .LVU599
 2175 0096 012B     		cmp	r3, #1
 2176 0098 29D0     		beq	.L178
 2177              		.loc 1 1740 19 discriminator 1 view .LVU600
 2178 009a 032B     		cmp	r3, #3
 2179 009c 29D0     		beq	.L179
1688:TP2824/TP2802.c **** 
 2180              		.loc 1 1688 7 view .LVU601
 2181 009e 0020     		movs	r0, #0
 2182 00a0 7047     		bx	lr
 2183              	.L159:
1741:TP2824/TP2802.c **** 			ret = _TRUE;
1742:TP2824/TP2802.c **** 		break;
1743:TP2824/TP2802.c **** 	case VS4210_LOOP_MODE1:
1744:TP2824/TP2802.c **** 	case VS4210_LOOP_MODE2:
1745:TP2824/TP2802.c **** 		ret = _FALSE;
1746:TP2824/TP2802.c **** 		break;
1747:TP2824/TP2802.c **** 	case VS4210_LOOP_MODE12_42:
1748:TP2824/TP2802.c **** 	case VS4210_LOOP_MODE12_24:
1749:TP2824/TP2802.c **** 		if ((ch == CH1) || (ch == CH3))
 2184              		.loc 1 1749 3 is_stmt 1 view .LVU602
 2185              		.loc 1 1749 6 is_stmt 0 view .LVU603
 2186 00a2 43B3     		cbz	r3, .L180
 2187              		.loc 1 1749 19 discriminator 1 view .LVU604
 2188 00a4 022B     		cmp	r3, #2
 2189 00a6 28D0     		beq	.L181
1688:TP2824/TP2802.c **** 
 2190              		.loc 1 1688 7 view .LVU605
 2191 00a8 0020     		movs	r0, #0
 2192 00aa 7047     		bx	lr
 2193              	.L152:
1750:TP2824/TP2802.c **** 			ret = _TRUE;
1751:TP2824/TP2802.c **** 		break;
1752:TP2824/TP2802.c **** 	case VS4210_LOOP_MODE8_412:
1753:TP2824/TP2802.c **** 	case VS4210_LOOP_MODE8_124:
1754:TP2824/TP2802.c **** 	case VS4210_LOOP_MODE8_214:
1755:TP2824/TP2802.c **** 	case VS4210_LOOP_MODE10_412:
1756:TP2824/TP2802.c **** 	case VS4210_LOOP_MODE9_412:
1757:TP2824/TP2802.c **** 		if (ch == CH3)
 2194              		.loc 1 1757 3 is_stmt 1 view .LVU606
 2195              		.loc 1 1757 6 is_stmt 0 view .LVU607
 2196 00ac 022B     		cmp	r3, #2
 2197 00ae 26D0     		beq	.L182
1688:TP2824/TP2802.c **** 
 2198              		.loc 1 1688 7 view .LVU608
 2199 00b0 0020     		movs	r0, #0
 2200 00b2 7047     		bx	lr
 2201              	.L155:
1758:TP2824/TP2802.c **** 			ret = _TRUE;
1759:TP2824/TP2802.c **** 		break;
1760:TP2824/TP2802.c **** 	case VS4210_LOOP_MODE8_134:
1761:TP2824/TP2802.c **** 	case VS4210_LOOP_MODE8_314:
1762:TP2824/TP2802.c **** 	case VS4210_LOOP_MODE10_413:
1763:TP2824/TP2802.c **** 	case VS4210_LOOP_MODE8_413:
ARM GAS  C:\Users\ryanc.HS\AppData\Local\Temp\ccAQ3CYh.s 			page 80


1764:TP2824/TP2802.c **** 		if (ch == CH2)
 2202              		.loc 1 1764 3 is_stmt 1 view .LVU609
 2203              		.loc 1 1764 6 is_stmt 0 view .LVU610
 2204 00b4 012B     		cmp	r3, #1
 2205 00b6 24D0     		beq	.L183
1688:TP2824/TP2802.c **** 
 2206              		.loc 1 1688 7 view .LVU611
 2207 00b8 0020     		movs	r0, #0
 2208 00ba 7047     		bx	lr
 2209              	.L154:
1765:TP2824/TP2802.c **** 			ret = _TRUE;
1766:TP2824/TP2802.c **** 		break;
1767:TP2824/TP2802.c **** 	case VS4210_LOOP_MODE8_234:
1768:TP2824/TP2802.c **** 	case VS4210_LOOP_MODE8_324:
1769:TP2824/TP2802.c **** 	case VS4210_LOOP_MODE10_423:
1770:TP2824/TP2802.c **** 	case VS4210_LOOP_MODE8_423:
1771:TP2824/TP2802.c **** 		if (ch == CH1)
 2210              		.loc 1 1771 3 is_stmt 1 view .LVU612
 2211              		.loc 1 1771 6 is_stmt 0 view .LVU613
 2212 00bc 1BB3     		cbz	r3, .L184
1688:TP2824/TP2802.c **** 
 2213              		.loc 1 1688 7 view .LVU614
 2214 00be 0020     		movs	r0, #0
 2215 00c0 7047     		bx	lr
 2216              	.L167:
1690:TP2824/TP2802.c **** 	{
 2217              		.loc 1 1690 2 view .LVU615
 2218 00c2 0020     		movs	r0, #0
 2219 00c4 7047     		bx	lr
 2220              	.L168:
1694:TP2824/TP2802.c **** 		break;
 2221              		.loc 1 1694 8 view .LVU616
 2222 00c6 0120     		movs	r0, #1
 2223 00c8 7047     		bx	lr
 2224              	.L169:
1702:TP2824/TP2802.c **** 		break;
 2225              		.loc 1 1702 8 view .LVU617
 2226 00ca 0120     		movs	r0, #1
 2227 00cc 7047     		bx	lr
 2228              	.L170:
 2229 00ce 0120     		movs	r0, #1
 2230 00d0 7047     		bx	lr
 2231              	.L171:
1707:TP2824/TP2802.c **** 		break;
 2232              		.loc 1 1707 8 view .LVU618
 2233 00d2 0120     		movs	r0, #1
 2234 00d4 7047     		bx	lr
 2235              	.L172:
1712:TP2824/TP2802.c **** 		break;
 2236              		.loc 1 1712 8 view .LVU619
 2237 00d6 0120     		movs	r0, #1
 2238 00d8 7047     		bx	lr
 2239              	.L173:
1716:TP2824/TP2802.c **** 		break;
 2240              		.loc 1 1716 8 view .LVU620
 2241 00da 0120     		movs	r0, #1
 2242 00dc 7047     		bx	lr
ARM GAS  C:\Users\ryanc.HS\AppData\Local\Temp\ccAQ3CYh.s 			page 81


 2243              	.L174:
1725:TP2824/TP2802.c **** 		break;
 2244              		.loc 1 1725 8 view .LVU621
 2245 00de 0120     		movs	r0, #1
 2246 00e0 7047     		bx	lr
 2247              	.L175:
1731:TP2824/TP2802.c **** 		break;
 2248              		.loc 1 1731 8 view .LVU622
 2249 00e2 0120     		movs	r0, #1
 2250 00e4 7047     		bx	lr
 2251              	.L176:
 2252 00e6 0120     		movs	r0, #1
 2253 00e8 7047     		bx	lr
 2254              	.L177:
1736:TP2824/TP2802.c **** 		break;
 2255              		.loc 1 1736 8 view .LVU623
 2256 00ea 0120     		movs	r0, #1
 2257 00ec 7047     		bx	lr
 2258              	.L178:
1741:TP2824/TP2802.c **** 		break;
 2259              		.loc 1 1741 8 view .LVU624
 2260 00ee 0120     		movs	r0, #1
 2261 00f0 7047     		bx	lr
 2262              	.L179:
 2263 00f2 0120     		movs	r0, #1
 2264 00f4 7047     		bx	lr
 2265              	.L180:
1750:TP2824/TP2802.c **** 		break;
 2266              		.loc 1 1750 8 view .LVU625
 2267 00f6 0120     		movs	r0, #1
 2268 00f8 7047     		bx	lr
 2269              	.L181:
 2270 00fa 0120     		movs	r0, #1
 2271 00fc 7047     		bx	lr
 2272              	.L182:
1758:TP2824/TP2802.c **** 		break;
 2273              		.loc 1 1758 8 view .LVU626
 2274 00fe 0120     		movs	r0, #1
 2275 0100 7047     		bx	lr
 2276              	.L183:
1765:TP2824/TP2802.c **** 		break;
 2277              		.loc 1 1765 8 view .LVU627
 2278 0102 1846     		mov	r0, r3
 2279 0104 7047     		bx	lr
 2280              	.L184:
1772:TP2824/TP2802.c **** 			ret = _TRUE;
 2281              		.loc 1 1772 8 view .LVU628
 2282 0106 0120     		movs	r0, #1
 2283              	.L151:
 2284              	.LVL232:
1773:TP2824/TP2802.c **** 		break;
1774:TP2824/TP2802.c **** 	default:
1775:TP2824/TP2802.c **** 		ret = 0;
1776:TP2824/TP2802.c **** 		break;
1777:TP2824/TP2802.c **** 	}
1778:TP2824/TP2802.c **** 
1779:TP2824/TP2802.c **** 	return ret;
ARM GAS  C:\Users\ryanc.HS\AppData\Local\Temp\ccAQ3CYh.s 			page 82


 2285              		.loc 1 1779 2 is_stmt 1 view .LVU629
1780:TP2824/TP2802.c **** }
 2286              		.loc 1 1780 1 is_stmt 0 view .LVU630
 2287 0108 7047     		bx	lr
 2288              	.L186:
 2289 010a 00BF     		.align	2
 2290              	.L185:
 2291 010c 00000000 		.word	CURRENT_CH
 2292              		.cfi_endproc
 2293              	.LFE19:
 2295              		.section	.rodata.SetTP2824CHVloss.str1.4,"aMS",%progbits,1
 2296              		.align	2
 2297              	.LC26:
 2298 0000 0D0A2853 		.ascii	"\015\012(SetTP2824CHVloss ch%02x)\000"
 2298      65745450 
 2298      32383234 
 2298      4348566C 
 2298      6F737320 
 2299              		.section	.text.SetTP2824CHVloss,"ax",%progbits
 2300              		.align	1
 2301              		.global	SetTP2824CHVloss
 2302              		.syntax unified
 2303              		.thumb
 2304              		.thumb_func
 2305              		.fpu softvfp
 2307              	SetTP2824CHVloss:
 2308              	.LVL233:
 2309              	.LFB20:
1781:TP2824/TP2802.c **** void SetTP2824CHVloss(BYTE index)
1782:TP2824/TP2802.c **** {
 2310              		.loc 1 1782 1 is_stmt 1 view -0
 2311              		.cfi_startproc
 2312              		@ args = 0, pretend = 0, frame = 0
 2313              		@ frame_needed = 0, uses_anonymous_args = 0
 2314              		.loc 1 1782 1 is_stmt 0 view .LVU632
 2315 0000 10B5     		push	{r4, lr}
 2316              	.LCFI16:
 2317              		.cfi_def_cfa_offset 8
 2318              		.cfi_offset 4, -8
 2319              		.cfi_offset 14, -4
 2320 0002 0446     		mov	r4, r0
1783:TP2824/TP2802.c **** 	state[index] = VIDEO_UNPLUG;
 2321              		.loc 1 1783 2 is_stmt 1 view .LVU633
 2322              		.loc 1 1783 15 is_stmt 0 view .LVU634
 2323 0004 0023     		movs	r3, #0
 2324 0006 084A     		ldr	r2, .L189
 2325 0008 1354     		strb	r3, [r2, r0]
1784:TP2824/TP2802.c **** 	count[index] = 0;
 2326              		.loc 1 1784 2 is_stmt 1 view .LVU635
 2327              		.loc 1 1784 15 is_stmt 0 view .LVU636
 2328 000a 084A     		ldr	r2, .L189+4
 2329 000c 1354     		strb	r3, [r2, r0]
1785:TP2824/TP2802.c **** 	TP28xx_reset_default(chip, index);
 2330              		.loc 1 1785 2 is_stmt 1 view .LVU637
 2331 000e 0146     		mov	r1, r0
 2332 0010 074B     		ldr	r3, .L189+8
 2333 0012 1878     		ldrb	r0, [r3]	@ zero_extendqisi2
ARM GAS  C:\Users\ryanc.HS\AppData\Local\Temp\ccAQ3CYh.s 			page 83


 2334              	.LVL234:
 2335              		.loc 1 1785 2 is_stmt 0 view .LVU638
 2336 0014 FFF7FEFF 		bl	TP28xx_reset_default
 2337              	.LVL235:
1786:TP2824/TP2802.c **** 	Printf("\r\n(SetTP2824CHVloss ch%02x)", (tWord)index);
 2338              		.loc 1 1786 2 is_stmt 1 view .LVU639
 2339 0018 2146     		mov	r1, r4
 2340 001a 0648     		ldr	r0, .L189+12
 2341 001c FFF7FEFF 		bl	Printf
 2342              	.LVL236:
1787:TP2824/TP2802.c **** 	VS4210_Rx_NoSignal(index); // chunyu
 2343              		.loc 1 1787 2 view .LVU640
 2344 0020 2046     		mov	r0, r4
 2345 0022 FFF7FEFF 		bl	VS4210_Rx_NoSignal
 2346              	.LVL237:
1788:TP2824/TP2802.c **** }
 2347              		.loc 1 1788 1 is_stmt 0 view .LVU641
 2348 0026 10BD     		pop	{r4, pc}
 2349              	.L190:
 2350              		.align	2
 2351              	.L189:
 2352 0028 00000000 		.word	state
 2353 002c 00000000 		.word	count
 2354 0030 00000000 		.word	chip
 2355 0034 00000000 		.word	.LC26
 2356              		.cfi_endproc
 2357              	.LFE20:
 2359              		.section	.rodata.SETChannelReset.str1.4,"aMS",%progbits,1
 2360              		.align	2
 2361              	.LC27:
 2362 0000 0D0A2853 		.ascii	"\015\012(SETChannelReset=%02x)\000"
 2362      45544368 
 2362      616E6E65 
 2362      6C526573 
 2362      65743D25 
 2363              		.section	.text.SETChannelReset,"ax",%progbits
 2364              		.align	1
 2365              		.global	SETChannelReset
 2366              		.syntax unified
 2367              		.thumb
 2368              		.thumb_func
 2369              		.fpu softvfp
 2371              	SETChannelReset:
 2372              	.LVL238:
 2373              	.LFB21:
1789:TP2824/TP2802.c **** void SETChannelReset(BYTE index)
1790:TP2824/TP2802.c **** {
 2374              		.loc 1 1790 1 is_stmt 1 view -0
 2375              		.cfi_startproc
 2376              		@ args = 0, pretend = 0, frame = 0
 2377              		@ frame_needed = 0, uses_anonymous_args = 0
 2378              		.loc 1 1790 1 is_stmt 0 view .LVU643
 2379 0000 10B5     		push	{r4, lr}
 2380              	.LCFI17:
 2381              		.cfi_def_cfa_offset 8
 2382              		.cfi_offset 4, -8
 2383              		.cfi_offset 14, -4
ARM GAS  C:\Users\ryanc.HS\AppData\Local\Temp\ccAQ3CYh.s 			page 84


 2384 0002 0446     		mov	r4, r0
1791:TP2824/TP2802.c **** 	Printf("\r\n(SETChannelReset=%02x)", (WORD)index);
 2385              		.loc 1 1791 2 is_stmt 1 view .LVU644
 2386 0004 0146     		mov	r1, r0
 2387 0006 0D48     		ldr	r0, .L193
 2388              	.LVL239:
 2389              		.loc 1 1791 2 is_stmt 0 view .LVU645
 2390 0008 FFF7FEFF 		bl	Printf
 2391              	.LVL240:
1792:TP2824/TP2802.c **** 
1793:TP2824/TP2802.c **** 	SetRegPage(index);
 2392              		.loc 1 1793 2 is_stmt 1 view .LVU646
 2393 000c 2046     		mov	r0, r4
 2394 000e FFF7FEFF 		bl	SetRegPage
 2395              	.LVL241:
1794:TP2824/TP2802.c **** 	tp2824_reset_default(); // chunyu
 2396              		.loc 1 1794 2 view .LVU647
 2397 0012 FFF7FEFF 		bl	tp2824_reset_default
 2398              	.LVL242:
1795:TP2824/TP2802.c **** 	Set_VidRes(index);
 2399              		.loc 1 1795 2 view .LVU648
 2400 0016 2046     		mov	r0, r4
 2401 0018 FFF7FEFF 		bl	Set_VidRes
 2402              	.LVL243:
1796:TP2824/TP2802.c **** 	// VS4210_Rx_NoSignal(index) ; //chunyu
1797:TP2824/TP2802.c **** 	gbVXIS_InputMode[index] = _OSD_No_Signal;
 2403              		.loc 1 1797 2 view .LVU649
 2404              		.loc 1 1797 26 is_stmt 0 view .LVU650
 2405 001c 0722     		movs	r2, #7
 2406 001e 084B     		ldr	r3, .L193+4
 2407 0020 1A55     		strb	r2, [r3, r4]
1798:TP2824/TP2802.c **** 	bSignal[index] = 0;
 2408              		.loc 1 1798 2 is_stmt 1 view .LVU651
 2409              		.loc 1 1798 17 is_stmt 0 view .LVU652
 2410 0022 0023     		movs	r3, #0
 2411 0024 0749     		ldr	r1, .L193+8
 2412 0026 0B55     		strb	r3, [r1, r4]
1799:TP2824/TP2802.c **** 	mode[index] = 0x07;
 2413              		.loc 1 1799 2 is_stmt 1 view .LVU653
 2414              		.loc 1 1799 14 is_stmt 0 view .LVU654
 2415 0028 0749     		ldr	r1, .L193+12
 2416 002a 0A55     		strb	r2, [r1, r4]
1800:TP2824/TP2802.c **** 	state[index] = 0;
 2417              		.loc 1 1800 2 is_stmt 1 view .LVU655
 2418              		.loc 1 1800 15 is_stmt 0 view .LVU656
 2419 002c 074A     		ldr	r2, .L193+16
 2420 002e 1355     		strb	r3, [r2, r4]
1801:TP2824/TP2802.c **** 	count[index] = 0;
 2421              		.loc 1 1801 2 is_stmt 1 view .LVU657
 2422              		.loc 1 1801 15 is_stmt 0 view .LVU658
 2423 0030 074A     		ldr	r2, .L193+20
 2424 0032 1355     		strb	r3, [r2, r4]
1802:TP2824/TP2802.c **** 	VideoSave[index] = 0;
 2425              		.loc 1 1802 2 is_stmt 1 view .LVU659
 2426              		.loc 1 1802 19 is_stmt 0 view .LVU660
 2427 0034 074A     		ldr	r2, .L193+24
 2428 0036 1355     		strb	r3, [r2, r4]
ARM GAS  C:\Users\ryanc.HS\AppData\Local\Temp\ccAQ3CYh.s 			page 85


1803:TP2824/TP2802.c **** }
 2429              		.loc 1 1803 1 view .LVU661
 2430 0038 10BD     		pop	{r4, pc}
 2431              	.L194:
 2432 003a 00BF     		.align	2
 2433              	.L193:
 2434 003c 00000000 		.word	.LC27
 2435 0040 00000000 		.word	gbVXIS_InputMode
 2436 0044 00000000 		.word	bSignal
 2437 0048 00000000 		.word	mode
 2438 004c 00000000 		.word	state
 2439 0050 00000000 		.word	count
 2440 0054 00000000 		.word	VideoSave
 2441              		.cfi_endproc
 2442              	.LFE21:
 2444              		.section	.rodata.EQ_Detect.str1.4,"aMS",%progbits,1
 2445              		.align	2
 2446              	.LC28:
 2447 0000 0D0A2823 		.ascii	"\015\012(#video loss ch%02x)\000"
 2447      76696465 
 2447      6F206C6F 
 2447      73732063 
 2447      68253032 
 2448 0017 00       		.align	2
 2449              	.LC29:
 2450 0018 76696465 		.ascii	"video loss ch%02x\015\012\000"
 2450      6F206C6F 
 2450      73732063 
 2450      68253032 
 2450      780D0A00 
 2451              		.align	2
 2452              	.LC30:
 2453 002c 31766964 		.ascii	"1video in ch%02x \015\012\000"
 2453      656F2069 
 2453      6E206368 
 2453      25303278 
 2453      200D0A00 
 2454              		.align	2
 2455              	.LC31:
 2456 0040 76696465 		.ascii	"video locked ch%02x \015\012\000"
 2456      6F206C6F 
 2456      636B6564 
 2456      20636825 
 2456      30327820 
 2457 0057 00       		.align	2
 2458              	.LC32:
 2459 0058 76696465 		.ascii	"video in ch%02x \015\012\000"
 2459      6F20696E 
 2459      20636825 
 2459      30327820 
 2459      0D0A00
 2460 006b 00       		.align	2
 2461              	.LC33:
 2462 006c 76696465 		.ascii	"video unstable ch%02x \015\012\000"
 2462      6F20756E 
 2462      73746162 
 2462      6C652063 
ARM GAS  C:\Users\ryanc.HS\AppData\Local\Temp\ccAQ3CYh.s 			page 86


 2462      68253032 
 2463 0085 000000   		.align	2
 2464              	.LC34:
 2465 0088 76696465 		.ascii	"video unlocked ch%02x \015\012\000"
 2465      6F20756E 
 2465      6C6F636B 
 2465      65642063 
 2465      68253032 
 2466 00a1 000000   		.align	2
 2467              	.LC35:
 2468 00a4 5365745F 		.ascii	"Set_VidResmode[%d] =%d\015\012\000"
 2468      56696452 
 2468      65736D6F 
 2468      64655B25 
 2468      645D203D 
 2469 00bd 000000   		.align	2
 2470              	.LC36:
 2471 00c0 2F2F3735 		.ascii	"//75.25M output\015\000"
 2471      2E32354D 
 2471      206F7574 
 2471      7075740D 
 2471      00
 2472 00d1 000000   		.align	2
 2473              	.LC37:
 2474 00d4 4D616E56 		.ascii	"ManVidResRx=0x%02x\015\012\000"
 2474      69645265 
 2474      7352783D 
 2474      30782530 
 2474      32780D0A 
 2475 00e9 000000   		.align	2
 2476              	.LC38:
 2477 00ec 52656730 		.ascii	"Reg01 %02x\015\012\000"
 2477      31202530 
 2477      32780D0A 
 2477      00
 2478 00f9 000000   		.align	2
 2479              	.LC39:
 2480 00fc 43564253 		.ascii	"CVBS  mode:%d\015\012\000"
 2480      20206D6F 
 2480      64653A25 
 2480      640D0A00 
 2481              		.align	2
 2482              	.LC40:
 2483 010c 7475726E 		.ascii	"turn to C ch%02x\015\012\000"
 2483      20746F20 
 2483      43206368 
 2483      25303278 
 2483      0D0A00
 2484 011f 00       		.align	2
 2485              	.LC41:
 2486 0120 28747572 		.ascii	"(turn to AHD ch%02x)\015\012\000"
 2486      6E20746F 
 2486      20414844 
 2486      20636825 
 2486      30327829 
 2487 0137 00       		.align	2
 2488              	.LC42:
ARM GAS  C:\Users\ryanc.HS\AppData\Local\Temp\ccAQ3CYh.s 			page 87


 2489 0138 7475726E 		.ascii	"turn to A ch%02x\015\012\000"
 2489      20746F20 
 2489      41206368 
 2489      25303278 
 2489      0D0A00
 2490 014b 00       		.align	2
 2491              	.LC43:
 2492 014c 41484420 		.ascii	"AHD 1080P30/P25  mode:%d\015\012\000"
 2492      31303830 
 2492      5033302F 
 2492      50323520 
 2492      206D6F64 
 2493 0167 00       		.align	2
 2494              	.LC44:
 2495 0168 54564920 		.ascii	"TVI 1080P30/P25   mode:%d\015\012\000"
 2495      31303830 
 2495      5033302F 
 2495      50323520 
 2495      20206D6F 
 2496              		.align	2
 2497              	.LC45:
 2498 0184 41484420 		.ascii	"AHD 720P30/P25/P60/P50   mode:%d\015\012\000"
 2498      37323050 
 2498      33302F50 
 2498      32352F50 
 2498      36302F50 
 2499 01a7 00       		.align	2
 2500              	.LC46:
 2501 01a8 43564253 		.ascii	"CVBS    mode:%d\015\012\000"
 2501      20202020 
 2501      6D6F6465 
 2501      3A25640D 
 2501      0A00
 2502 01ba 0000     		.align	2
 2503              	.LC47:
 2504 01bc 6261636B 		.ascii	"back to T ch%02x\015\012\000"
 2504      20746F20 
 2504      54206368 
 2504      25303278 
 2504      0D0A00
 2505 01cf 00       		.align	2
 2506              	.LC48:
 2507 01d0 45676169 		.ascii	"Egain=0x%02x ch%02x,std=%d,mode=0x%02X\015\012\000"
 2507      6E3D3078 
 2507      25303278 
 2507      20636825 
 2507      3032782C 
 2508 01f9 000000   		.align	2
 2509              	.LC49:
 2510 01fc 28577269 		.ascii	"(WriteModeDataToEEPROM ch=%02x std=%02x mode=%02x)\015"
 2510      74654D6F 
 2510      64654461 
 2510      7461546F 
 2510      45455052 
 2511 022f 0A00     		.ascii	"\012\000"
 2512 0231 000000   		.align	2
 2513              	.LC50:
ARM GAS  C:\Users\ryanc.HS\AppData\Local\Temp\ccAQ3CYh.s 			page 88


 2514 0234 41484420 		.ascii	"AHD Mode\015\000"
 2514      4D6F6465 
 2514      0D00
 2515 023e 0000     		.align	2
 2516              	.LC51:
 2517 0240 43564920 		.ascii	"CVI Mode\015\000"
 2517      4D6F6465 
 2517      0D00
 2518 024a 0000     		.align	2
 2519              	.LC52:
 2520 024c 43564253 		.ascii	"CVBS NTSC   mode\015\000"
 2520      204E5453 
 2520      43202020 
 2520      6D6F6465 
 2520      0D00
 2521 025e 0000     		.align	2
 2522              	.LC53:
 2523 0260 43564253 		.ascii	"CVBS PAL   mode\015\000"
 2523      2050414C 
 2523      2020206D 
 2523      6F64650D 
 2523      00
 2524 0271 000000   		.align	2
 2525              	.LC54:
 2526 0274 4C494E45 		.ascii	"LINE=%d,TVI Mode\015\012\000"
 2526      3D25642C 
 2526      54564920 
 2526      4D6F6465 
 2526      0D0A00
 2527 0287 00       		.align	2
 2528              	.LC55:
 2529 0288 28545032 		.ascii	"(TP2824C_CVBS_PTZ_DataSet)\000"
 2529      38323443 
 2529      5F435642 
 2529      535F5054 
 2529      5A5F4461 
 2530 02a3 00       		.align	2
 2531              	.LC56:
 2532 02a4 28545032 		.ascii	"(TP2824C_TVI_FHD_PTZ_DataSet)\000"
 2532      38323443 
 2532      5F545649 
 2532      5F464844 
 2532      5F50545A 
 2533 02c2 0000     		.align	2
 2534              	.LC57:
 2535 02c4 45516465 		.ascii	"EQdet %d\015\012\000"
 2535      74202564 
 2535      0D0A00
 2536              		.section	.text.EQ_Detect,"ax",%progbits
 2537              		.align	1
 2538              		.global	EQ_Detect
 2539              		.syntax unified
 2540              		.thumb
 2541              		.thumb_func
 2542              		.fpu softvfp
 2544              	EQ_Detect:
 2545              	.LFB22:
ARM GAS  C:\Users\ryanc.HS\AppData\Local\Temp\ccAQ3CYh.s 			page 89


1804:TP2824/TP2802.c **** void EQ_Detect()
1805:TP2824/TP2802.c **** {
 2546              		.loc 1 1805 1 is_stmt 1 view -0
 2547              		.cfi_startproc
 2548              		@ args = 0, pretend = 0, frame = 0
 2549              		@ frame_needed = 0, uses_anonymous_args = 0
 2550 0000 2DE9F043 		push	{r4, r5, r6, r7, r8, r9, lr}
 2551              	.LCFI18:
 2552              		.cfi_def_cfa_offset 28
 2553              		.cfi_offset 4, -28
 2554              		.cfi_offset 5, -24
 2555              		.cfi_offset 6, -20
 2556              		.cfi_offset 7, -16
 2557              		.cfi_offset 8, -12
 2558              		.cfi_offset 9, -8
 2559              		.cfi_offset 14, -4
 2560 0004 83B0     		sub	sp, sp, #12
 2561              	.LCFI19:
 2562              		.cfi_def_cfa_offset 40
1806:TP2824/TP2802.c **** 	// tByte tmpval;
1807:TP2824/TP2802.c **** 	tByte cvstd, status, i;
 2563              		.loc 1 1807 2 view .LVU663
1808:TP2824/TP2802.c **** 	tByte gain, tmp, fmt, tmpab;
 2564              		.loc 1 1808 2 view .LVU664
1809:TP2824/TP2802.c **** 
1810:TP2824/TP2802.c **** 	for (i = 0; i < CH_PER_CHIP; i++) // scan four inputs:
 2565              		.loc 1 1810 2 view .LVU665
 2566              	.LVL244:
 2567              		.loc 1 1810 9 is_stmt 0 view .LVU666
 2568 0006 0024     		movs	r4, #0
 2569              		.loc 1 1810 2 view .LVU667
 2570 0008 51E0     		b	.L196
 2571              	.LVL245:
 2572              	.L294:
1811:TP2824/TP2802.c **** 	{
1812:TP2824/TP2802.c **** 		//	if((INPUT_VIDEO_CHECK(i))&&(BOOT_ISSUE==ON))
1813:TP2824/TP2802.c **** 		//      continue;
1814:TP2824/TP2802.c **** 
1815:TP2824/TP2802.c **** 		SetRegPage(i);
1816:TP2824/TP2802.c **** 		status = tp28xx_byte_read(0x01);
1817:TP2824/TP2802.c **** 
1818:TP2824/TP2802.c **** 		// state machine for video checking
1819:TP2824/TP2802.c **** 		if (status & FLAG_LOSS)
1820:TP2824/TP2802.c **** 		{
1821:TP2824/TP2802.c **** 
1822:TP2824/TP2802.c **** 			if (VIDEO_UNPLUG == state[i])
 2573              		.loc 1 1822 4 is_stmt 1 view .LVU668
 2574              		.loc 1 1822 29 is_stmt 0 view .LVU669
 2575 000a 2646     		mov	r6, r4
 2576 000c B74B     		ldr	r3, .L352
 2577 000e 1B5D     		ldrb	r3, [r3, r4]	@ zero_extendqisi2
 2578              		.loc 1 1822 7 view .LVU670
 2579 0010 002B     		cmp	r3, #0
 2580 0012 00F08E80 		beq	.L288
1823:TP2824/TP2802.c **** 			{
1824:TP2824/TP2802.c **** 				if (count[i] < MAX_COUNT)
1825:TP2824/TP2802.c **** 					count[i]++;
ARM GAS  C:\Users\ryanc.HS\AppData\Local\Temp\ccAQ3CYh.s 			page 90


1826:TP2824/TP2802.c **** 				continue;
1827:TP2824/TP2802.c **** 			}
1828:TP2824/TP2802.c **** 			else
1829:TP2824/TP2802.c **** 			{
1830:TP2824/TP2802.c **** 
1831:TP2824/TP2802.c **** 				state[i] = VIDEO_UNPLUG;
 2581              		.loc 1 1831 5 is_stmt 1 view .LVU671
 2582              		.loc 1 1831 14 is_stmt 0 view .LVU672
 2583 0016 0023     		movs	r3, #0
 2584 0018 B44A     		ldr	r2, .L352
 2585 001a 1355     		strb	r3, [r2, r4]
1832:TP2824/TP2802.c **** 				count[i] = 0;
 2586              		.loc 1 1832 5 is_stmt 1 view .LVU673
 2587              		.loc 1 1832 14 is_stmt 0 view .LVU674
 2588 001c B44A     		ldr	r2, .L352+4
 2589 001e 1355     		strb	r3, [r2, r4]
1833:TP2824/TP2802.c **** 
1834:TP2824/TP2802.c **** 				VideoSave[i] = 0;
 2590              		.loc 1 1834 5 is_stmt 1 view .LVU675
 2591              		.loc 1 1834 18 is_stmt 0 view .LVU676
 2592 0020 B44A     		ldr	r2, .L352+8
 2593 0022 1355     		strb	r3, [r2, r4]
1835:TP2824/TP2802.c **** 
1836:TP2824/TP2802.c **** #if 0
1837:TP2824/TP2802.c **** 	if(i==2)
1838:TP2824/TP2802.c **** 		{
1839:TP2824/TP2802.c **** 		if(bytSelectCAMRD==SelectCameraR)	
1840:TP2824/TP2802.c **** 		WriteEEP(EEP_TP2824_STD3,0);
1841:TP2824/TP2802.c **** 		else
1842:TP2824/TP2802.c **** 		WriteEEP(EEP_TP2824_STD4,0);
1843:TP2824/TP2802.c **** 		}
1844:TP2824/TP2802.c **** 	else
1845:TP2824/TP2802.c **** 		{
1846:TP2824/TP2802.c **** 		WriteEEP(EEP_TP2824_STD3,0);
1847:TP2824/TP2802.c **** 		}
1848:TP2824/TP2802.c **** 
1849:TP2824/TP2802.c **** #else
1850:TP2824/TP2802.c **** 				if (i == 3)
 2594              		.loc 1 1850 5 is_stmt 1 view .LVU677
 2595              		.loc 1 1850 8 is_stmt 0 view .LVU678
 2596 0024 032C     		cmp	r4, #3
 2597 0026 00F08C80 		beq	.L289
1851:TP2824/TP2802.c **** 				{
1852:TP2824/TP2802.c **** 					if (bytSelectCAMRD == SelectCameraR)
1853:TP2824/TP2802.c **** 					{
1854:TP2824/TP2802.c **** 						WriteEEP(EEP_TP2824_STD0 + (i * 3) + 2, 0xFF);
1855:TP2824/TP2802.c **** 						Printf("\r\n(#video loss ch%02x)", (WORD)i);
1856:TP2824/TP2802.c **** 					}
1857:TP2824/TP2802.c **** 					else
1858:TP2824/TP2802.c **** 					{
1859:TP2824/TP2802.c **** 						WriteEEP(EEP_TP2824_STD0 + ((i + 1) * 3) + 2, 0xFF);
1860:TP2824/TP2802.c **** 						Printf("\r\n(#video loss ch%02x)", (WORD)i);
1861:TP2824/TP2802.c **** 					}
1862:TP2824/TP2802.c **** 				}
1863:TP2824/TP2802.c **** 				else
1864:TP2824/TP2802.c **** 				{
1865:TP2824/TP2802.c **** 					WriteEEP(EEP_TP2824_STD0 + (i * 3) + 2, 0xFF);
ARM GAS  C:\Users\ryanc.HS\AppData\Local\Temp\ccAQ3CYh.s 			page 91


 2598              		.loc 1 1865 6 is_stmt 1 view .LVU679
 2599              		.loc 1 1865 36 is_stmt 0 view .LVU680
 2600 002a 04EB4400 		add	r0, r4, r4, lsl #1
 2601              	.LVL246:
 2602              		.loc 1 1865 6 view .LVU681
 2603 002e FF21     		movs	r1, #255
 2604 0030 C930     		adds	r0, r0, #201
 2605 0032 FFF7FEFF 		bl	WriteEEP
 2606              	.LVL247:
1866:TP2824/TP2802.c **** 					Printf("\r\n(#video loss ch%02x)", (WORD)i);
 2607              		.loc 1 1866 6 is_stmt 1 view .LVU682
 2608 0036 2146     		mov	r1, r4
 2609 0038 AF48     		ldr	r0, .L352+12
 2610 003a FFF7FEFF 		bl	Printf
 2611              	.LVL248:
 2612              	.L203:
1867:TP2824/TP2802.c **** 				}
1868:TP2824/TP2802.c **** 
1869:TP2824/TP2802.c **** #endif
1870:TP2824/TP2802.c **** 				TP28xx_reset_default(chip, i);
 2613              		.loc 1 1870 5 view .LVU683
 2614 003e 2146     		mov	r1, r4
 2615 0040 AE4B     		ldr	r3, .L352+16
 2616 0042 1878     		ldrb	r0, [r3]	@ zero_extendqisi2
 2617 0044 FFF7FEFF 		bl	TP28xx_reset_default
 2618              	.LVL249:
1871:TP2824/TP2802.c **** 				printf("video loss ch%02x\r\n", (tWord)i);
 2619              		.loc 1 1871 5 view .LVU684
 2620 0048 3146     		mov	r1, r6
 2621 004a AD48     		ldr	r0, .L352+20
 2622 004c FFF7FEFF 		bl	printf
 2623              	.LVL250:
1872:TP2824/TP2802.c **** 
1873:TP2824/TP2802.c **** 				mode[i] = NoDet;
 2624              		.loc 1 1873 5 view .LVU685
 2625              		.loc 1 1873 13 is_stmt 0 view .LVU686
 2626 0050 AC4B     		ldr	r3, .L352+24
 2627 0052 0722     		movs	r2, #7
 2628 0054 9A55     		strb	r2, [r3, r6]
1874:TP2824/TP2802.c **** 				Set_VidRes(i);
 2629              		.loc 1 1874 5 is_stmt 1 view .LVU687
 2630 0056 2046     		mov	r0, r4
 2631 0058 FFF7FEFF 		bl	Set_VidRes
 2632              	.LVL251:
1875:TP2824/TP2802.c **** 				VS4210_Rx_NoSignal(i); // chunyu
 2633              		.loc 1 1875 5 view .LVU688
 2634 005c 2046     		mov	r0, r4
 2635 005e FFF7FEFF 		bl	VS4210_Rx_NoSignal
 2636              	.LVL252:
1876:TP2824/TP2802.c **** 				QuadBoxId &= ~(1 << i);
 2637              		.loc 1 1876 5 view .LVU689
 2638              		.loc 1 1876 22 is_stmt 0 view .LVU690
 2639 0062 0123     		movs	r3, #1
 2640 0064 03FA06F2 		lsl	r2, r3, r6
 2641              		.loc 1 1876 15 view .LVU691
 2642 0068 A749     		ldr	r1, .L352+28
 2643 006a 0B78     		ldrb	r3, [r1]	@ zero_extendqisi2
ARM GAS  C:\Users\ryanc.HS\AppData\Local\Temp\ccAQ3CYh.s 			page 92


 2644 006c 23EA0203 		bic	r3, r3, r2
 2645 0070 0B70     		strb	r3, [r1]
1877:TP2824/TP2802.c **** 
1878:TP2824/TP2802.c **** 				Flisheye_CAM[i] = FALSE;
 2646              		.loc 1 1878 5 is_stmt 1 view .LVU692
 2647              		.loc 1 1878 21 is_stmt 0 view .LVU693
 2648 0072 0021     		movs	r1, #0
 2649 0074 A54B     		ldr	r3, .L352+32
 2650 0076 9955     		strb	r1, [r3, r6]
1879:TP2824/TP2802.c **** 				Flisheye_VLOSS_Count[i] = 0;
 2651              		.loc 1 1879 5 is_stmt 1 view .LVU694
 2652              		.loc 1 1879 29 is_stmt 0 view .LVU695
 2653 0078 A54B     		ldr	r3, .L352+36
 2654 007a 43F82610 		str	r1, [r3, r6, lsl #2]
1880:TP2824/TP2802.c **** 				WriteEEP((EEP_FlishCAM1 + i), FALSE);
 2655              		.loc 1 1880 5 is_stmt 1 view .LVU696
 2656 007e 06F1D800 		add	r0, r6, #216
 2657 0082 FFF7FEFF 		bl	WriteEEP
 2658              	.LVL253:
1881:TP2824/TP2802.c **** 
1882:TP2824/TP2802.c **** 				if (GetDisplayedOSD() & (MENU | TVVOL | _COC_OSD | _VERSION_OSD))
 2659              		.loc 1 1882 5 view .LVU697
 2660              		.loc 1 1882 9 is_stmt 0 view .LVU698
 2661 0086 FFF7FEFF 		bl	GetDisplayedOSD
 2662              	.LVL254:
 2663              		.loc 1 1882 8 view .LVU699
 2664 008a 10F0660F 		tst	r0, #102
 2665 008e 73D1     		bne	.L290
 2666              	.L204:
1883:TP2824/TP2802.c **** 					CloseOSDMenu();
1884:TP2824/TP2802.c **** 
1885:TP2824/TP2802.c **** 				ShowJUMPOSD();
 2667              		.loc 1 1885 5 is_stmt 1 view .LVU700
 2668 0090 FFF7FEFF 		bl	ShowJUMPOSD
 2669              	.LVL255:
 2670              	.L205:
1886:TP2824/TP2802.c **** 			}
1887:TP2824/TP2802.c **** 		}
1888:TP2824/TP2802.c **** 		else
1889:TP2824/TP2802.c **** 		{
1890:TP2824/TP2802.c **** 			if (PAL == mode[i] || NTSC == mode[i])
1891:TP2824/TP2802.c **** 				flag_LOCKED = CVBS_FLAG_LOCKED;
1892:TP2824/TP2802.c **** 			else
1893:TP2824/TP2802.c **** 				flag_LOCKED = TVI_FLAG_LOCKED;
1894:TP2824/TP2802.c **** 
1895:TP2824/TP2802.c **** 			if (flag_LOCKED == (status & flag_LOCKED)) // video locked
1896:TP2824/TP2802.c **** 			{
1897:TP2824/TP2802.c **** 				if (VIDEO_LOCKED == state[i])
1898:TP2824/TP2802.c **** 				{
1899:TP2824/TP2802.c **** 					if (count[i] < MAX_COUNT)
1900:TP2824/TP2802.c **** 					{
1901:TP2824/TP2802.c **** 						count[i]++;
1902:TP2824/TP2802.c **** 						// if (i==0)
1903:TP2824/TP2802.c **** 						// Printf("(count[%02x]=%02x)",(tWord)i, (tWord)count[i]);
1904:TP2824/TP2802.c **** 					}
1905:TP2824/TP2802.c **** #if 0
1906:TP2824/TP2802.c **** 				if(VideoSave[i]==_TRUE)
ARM GAS  C:\Users\ryanc.HS\AppData\Local\Temp\ccAQ3CYh.s 			page 93


1907:TP2824/TP2802.c **** 				{
1908:TP2824/TP2802.c **** 			 		if((count[i]==1)&&((mode[i] == NTSC) ||( mode[i] == PAL)))
1909:TP2824/TP2802.c **** 			 		count[i]=20;//ryan@20200903
1910:TP2824/TP2802.c **** 			 		else if((count[i]==1)/*&&(ReadEEP(EEP_TP2824_STD0+(i*3))==HDA)*/)
1911:TP2824/TP2802.c **** 			 			{
1912:TP2824/TP2802.c **** 			 			std[i]=ReadEEP(EEP_TP2824_STD0+(i*3));
1913:TP2824/TP2802.c **** 						
1914:TP2824/TP2802.c **** 		 			 		if(std[i]==HDC)
1915:TP2824/TP2802.c **** 							{
1916:TP2824/TP2802.c **** 							Set_HDC(i);
1917:TP2824/TP2802.c **** 							printf("(Set_HDC)");
1918:TP2824/TP2802.c **** 							}
1919:TP2824/TP2802.c **** 							 if(std[i]==HDA)
1920:TP2824/TP2802.c **** 						 	{
1921:TP2824/TP2802.c **** 						 	Set_HDA(i);
1922:TP2824/TP2802.c **** 							printf("(Set_HDA)");
1923:TP2824/TP2802.c **** 						 	}
1924:TP2824/TP2802.c **** 							 
1925:TP2824/TP2802.c **** 						count[i]=20;
1926:TP2824/TP2802.c **** 			 			}
1927:TP2824/TP2802.c **** 					
1928:TP2824/TP2802.c **** 				}
1929:TP2824/TP2802.c **** #endif
1930:TP2824/TP2802.c **** 				}
1931:TP2824/TP2802.c **** 				else if (VIDEO_UNPLUG == state[i])
1932:TP2824/TP2802.c **** 				{
1933:TP2824/TP2802.c **** 					state[i] = VIDEO_IN;
1934:TP2824/TP2802.c **** 					count[i] = 0;
1935:TP2824/TP2802.c **** 					printf("1video in ch%02x \r\n", (tWord)i);
1936:TP2824/TP2802.c **** 				}
1937:TP2824/TP2802.c **** 				else
1938:TP2824/TP2802.c **** 				{
1939:TP2824/TP2802.c **** 					state[i] = VIDEO_LOCKED;
1940:TP2824/TP2802.c **** 					count[i] = 0;
1941:TP2824/TP2802.c **** 					printf("video locked ch%02x \r\n", (tWord)i);
1942:TP2824/TP2802.c **** 					Flisheye_VLOSS_Count[i] = 0;
1943:TP2824/TP2802.c **** 				}
1944:TP2824/TP2802.c **** 			}
1945:TP2824/TP2802.c **** 			else // video in but unlocked
1946:TP2824/TP2802.c **** 			{
1947:TP2824/TP2802.c **** 
1948:TP2824/TP2802.c **** 				if (VIDEO_UNPLUG == state[i])
1949:TP2824/TP2802.c **** 				{
1950:TP2824/TP2802.c **** 					state[i] = VIDEO_IN;
1951:TP2824/TP2802.c **** 					count[i] = 0;
1952:TP2824/TP2802.c **** 					printf("video in ch%02x \r\n", (tWord)i);
1953:TP2824/TP2802.c **** 				}
1954:TP2824/TP2802.c **** 				else if (VIDEO_LOCKED == state[i])
1955:TP2824/TP2802.c **** 				{
1956:TP2824/TP2802.c **** 
1957:TP2824/TP2802.c **** 					if ((Flisheye_CAM[i] == TRUE) && (Flisheye_VLOSS_Count[i] < 100))
1958:TP2824/TP2802.c **** 					{
1959:TP2824/TP2802.c **** 						Flisheye_VLOSS_Count[i]++;
1960:TP2824/TP2802.c **** 					}
1961:TP2824/TP2802.c **** 					else if ((PAL == mode[i]) && (Flisheye_VLOSS_Count[i] < 2)) ///CAM R PALq
1962:TP2824/TP2802.c **** 					{
1963:TP2824/TP2802.c **** 						Flisheye_VLOSS_Count[i]++;
ARM GAS  C:\Users\ryanc.HS\AppData\Local\Temp\ccAQ3CYh.s 			page 94


1964:TP2824/TP2802.c **** 					}
1965:TP2824/TP2802.c **** 					else
1966:TP2824/TP2802.c **** 					{
1967:TP2824/TP2802.c **** 						VS4210_Rx_NoSignal(i); // chunyu
1968:TP2824/TP2802.c **** 						state[i] = VIDEO_UNLOCK;
1969:TP2824/TP2802.c **** 						count[i] = 0;
1970:TP2824/TP2802.c **** 						Printf("video unstable ch%02x \r\n", (tWord)i);
1971:TP2824/TP2802.c **** 
1972:TP2824/TP2802.c **** 						if (i == 3)
1973:TP2824/TP2802.c **** 						{
1974:TP2824/TP2802.c **** 							if (bytSelectCAMRD == SelectCameraR)
1975:TP2824/TP2802.c **** 							{
1976:TP2824/TP2802.c **** 								WriteEEP(EEP_TP2824_STD0 + (i * 3) + 2, 0xFF);
1977:TP2824/TP2802.c **** 								WriteEEP(EEP_TP2824_SAVE3, 0xFF);
1978:TP2824/TP2802.c **** 								VideoSave[i] = 0;
1979:TP2824/TP2802.c **** 								Printf("\r\n(#video loss ch%02x)", (WORD)i);
1980:TP2824/TP2802.c **** 							}
1981:TP2824/TP2802.c **** 							else
1982:TP2824/TP2802.c **** 							{
1983:TP2824/TP2802.c **** 								WriteEEP(EEP_TP2824_STD0 + ((i + 1) * 3) + 2, 0xFF);
1984:TP2824/TP2802.c **** 								WriteEEP(EEP_TP2824_SAVE4, 0xFF);
1985:TP2824/TP2802.c **** 								VideoSave[i] = 0;
1986:TP2824/TP2802.c **** 								Printf("\r\n(#video loss ch%02x)", (WORD)i);
1987:TP2824/TP2802.c **** 							}
1988:TP2824/TP2802.c **** 						}
1989:TP2824/TP2802.c **** 						else
1990:TP2824/TP2802.c **** 						{
1991:TP2824/TP2802.c **** 							WriteEEP(EEP_TP2824_STD0 + (i * 3) + 2, 0xFF);
1992:TP2824/TP2802.c **** 							VideoSave[i] = 0;
1993:TP2824/TP2802.c **** 							Printf("\r\n(#video loss ch%02x)", (WORD)i);
1994:TP2824/TP2802.c **** 						}
1995:TP2824/TP2802.c **** 					}
1996:TP2824/TP2802.c **** 				}
1997:TP2824/TP2802.c **** 				else
1998:TP2824/TP2802.c **** 				{
1999:TP2824/TP2802.c **** 					if (count[i] < MAX_COUNT)
2000:TP2824/TP2802.c **** 						count[i]++;
2001:TP2824/TP2802.c **** 					if (VIDEO_UNLOCK == state[i] && count[i] > 2)
2002:TP2824/TP2802.c **** 					{
2003:TP2824/TP2802.c **** 						state[i] = VIDEO_IN;
2004:TP2824/TP2802.c **** 						count[i] = 0;
2005:TP2824/TP2802.c **** 						TP28xx_reset_default(chip, i);
2006:TP2824/TP2802.c **** 						printf("video unlocked ch%02x \r\n", (tWord)i);
2007:TP2824/TP2802.c **** 						VS4210_Rx_NoSignal(i); // chunyu
2008:TP2824/TP2802.c **** 					}
2009:TP2824/TP2802.c **** 				}
2010:TP2824/TP2802.c **** 			}
2011:TP2824/TP2802.c **** 		}
2012:TP2824/TP2802.c **** 
2013:TP2824/TP2802.c **** 		if (VIDEO_IN == state[i])
 2671              		.loc 1 2013 3 view .LVU701
 2672              		.loc 1 2013 24 is_stmt 0 view .LVU702
 2673 0094 2646     		mov	r6, r4
 2674 0096 954B     		ldr	r3, .L352
 2675 0098 1B5D     		ldrb	r3, [r3, r4]	@ zero_extendqisi2
 2676              		.loc 1 2013 6 view .LVU703
 2677 009a 012B     		cmp	r3, #1
ARM GAS  C:\Users\ryanc.HS\AppData\Local\Temp\ccAQ3CYh.s 			page 95


 2678 009c 00F00581 		beq	.L291
 2679              	.L218:
2014:TP2824/TP2802.c **** 		{
2015:TP2824/TP2802.c **** 			cvstd = tp28xx_byte_read(0x03);
2016:TP2824/TP2802.c **** 			sywd = cvstd & 0x08;
2017:TP2824/TP2802.c **** 			cvstd &= 0x07;
2018:TP2824/TP2802.c **** 			fmt = mode[i];
2019:TP2824/TP2802.c **** 			if (NTPAL == cvstd && flag_CVBS)
2020:TP2824/TP2802.c **** 			{
2021:TP2824/TP2802.c **** 				// if(count[i] & 0x01)
2022:TP2824/TP2802.c **** 				if (status & 0x04)
2023:TP2824/TP2802.c **** 					fmt = PAL;
2024:TP2824/TP2802.c **** 				else
2025:TP2824/TP2802.c **** 					fmt = NTSC;
2026:TP2824/TP2802.c **** 			}
2027:TP2824/TP2802.c **** 			else if (cvstd == R720P30)
2028:TP2824/TP2802.c **** 			{
2029:TP2824/TP2802.c **** 				if (flag_MEGA && (count[i] & 0x02)) // 3M auto detect test
2030:TP2824/TP2802.c **** 					fmt = R4M12;
2031:TP2824/TP2802.c **** 				else
2032:TP2824/TP2802.c **** 					fmt = R720P30V2;
2033:TP2824/TP2802.c **** 			}
2034:TP2824/TP2802.c **** 			else if (cvstd == R720P25)
2035:TP2824/TP2802.c **** 			{
2036:TP2824/TP2802.c **** 				fmt = R720P25V2;
2037:TP2824/TP2802.c **** 			}
2038:TP2824/TP2802.c **** 			else if (cvstd == R1080P30)
2039:TP2824/TP2802.c **** 			{
2040:TP2824/TP2802.c **** 				if (flag_MEGA && (count[i] & 0x02)) // TP2853C 3M auto detect test
2041:TP2824/TP2802.c **** 					fmt = R3M20;
2042:TP2824/TP2802.c **** 				else
2043:TP2824/TP2802.c **** 					fmt = R1080P30;
2044:TP2824/TP2802.c **** 			}
2045:TP2824/TP2802.c **** 			else if (cvstd == R720P60)
2046:TP2824/TP2802.c **** 			{
2047:TP2824/TP2802.c **** 				if (flag_MEGA && (count[i] & 0x02)) // TP2853C 3M auto detect test
2048:TP2824/TP2802.c **** 					fmt = R4M30;
2049:TP2824/TP2802.c **** 				else
2050:TP2824/TP2802.c **** 					fmt = R720P60;
2051:TP2824/TP2802.c **** 			}
2052:TP2824/TP2802.c **** 			else if (cvstd < 4)
2053:TP2824/TP2802.c **** 			{
2054:TP2824/TP2802.c **** 				fmt = cvstd;
2055:TP2824/TP2802.c **** 			}
2056:TP2824/TP2802.c **** 			else
2057:TP2824/TP2802.c **** 			{
2058:TP2824/TP2802.c **** 				if (flag_MEGA) // TP2853C 3M auto detect test
2059:TP2824/TP2802.c **** 				{
2060:TP2824/TP2802.c **** 					tp28xx_byte_write(0x2f, 0x09);
2061:TP2824/TP2802.c **** 					tmp = tp28xx_byte_read(0x04);
2062:TP2824/TP2802.c **** 					if ((tmp > 0x48) && (tmp < 0x55))
2063:TP2824/TP2802.c **** 					{
2064:TP2824/TP2802.c **** 						fmt = R3M18;
2065:TP2824/TP2802.c **** 					}
2066:TP2824/TP2802.c **** 					else if ((tmp > 0x55) && (tmp < 0x62))
2067:TP2824/TP2802.c **** 					{
2068:TP2824/TP2802.c **** 						fmt = R4M15;
ARM GAS  C:\Users\ryanc.HS\AppData\Local\Temp\ccAQ3CYh.s 			page 96


2069:TP2824/TP2802.c **** 					}
2070:TP2824/TP2802.c **** 					else if ((tmp > 0x70) && (tmp < 0x80))
2071:TP2824/TP2802.c **** 					{
2072:TP2824/TP2802.c **** 						fmt = R6M10;
2073:TP2824/TP2802.c **** 					}
2074:TP2824/TP2802.c **** 				}
2075:TP2824/TP2802.c **** 			}
2076:TP2824/TP2802.c **** 			/*
2077:TP2824/TP2802.c **** 					if(VideoSave[i]==_TRUE)
2078:TP2824/TP2802.c **** 					{
2079:TP2824/TP2802.c **** 					printf("(B)");
2080:TP2824/TP2802.c **** 					Set_VidRes(i);
2081:TP2824/TP2802.c **** 					}
2082:TP2824/TP2802.c **** 					else
2083:TP2824/TP2802.c **** 						*/
2084:TP2824/TP2802.c **** 			{
2085:TP2824/TP2802.c **** 				if (mode[i] != fmt)
2086:TP2824/TP2802.c **** 				{
2087:TP2824/TP2802.c **** 					mode[i] = fmt;
2088:TP2824/TP2802.c **** 					printf("Set_VidResmode[%d] =%d\r\n", (int)i, (int)fmt);
2089:TP2824/TP2802.c **** 					Set_VidRes(i);
2090:TP2824/TP2802.c **** 				}
2091:TP2824/TP2802.c **** 			}
2092:TP2824/TP2802.c **** 		}
2093:TP2824/TP2802.c **** 
2094:TP2824/TP2802.c **** 		if (VIDEO_LOCKED == state[i]) // check signal lock
 2680              		.loc 1 2094 3 is_stmt 1 view .LVU704
 2681              		.loc 1 2094 28 is_stmt 0 view .LVU705
 2682 00a0 924B     		ldr	r3, .L352
 2683 00a2 9B5D     		ldrb	r3, [r3, r6]	@ zero_extendqisi2
 2684              		.loc 1 2094 6 view .LVU706
 2685 00a4 022B     		cmp	r3, #2
 2686 00a6 00F0A081 		beq	.L292
 2687              	.L200:
1810:TP2824/TP2802.c **** 	{
 2688              		.loc 1 1810 31 is_stmt 1 discriminator 2 view .LVU707
1810:TP2824/TP2802.c **** 	{
 2689              		.loc 1 1810 32 is_stmt 0 discriminator 2 view .LVU708
 2690 00aa 0134     		adds	r4, r4, #1
 2691              	.LVL256:
1810:TP2824/TP2802.c **** 	{
 2692              		.loc 1 1810 32 discriminator 2 view .LVU709
 2693 00ac E4B2     		uxtb	r4, r4
 2694              	.LVL257:
 2695              	.L196:
1810:TP2824/TP2802.c **** 	{
 2696              		.loc 1 1810 14 is_stmt 1 discriminator 1 view .LVU710
1810:TP2824/TP2802.c **** 	{
 2697              		.loc 1 1810 2 is_stmt 0 discriminator 1 view .LVU711
 2698 00ae 032C     		cmp	r4, #3
 2699 00b0 00F2CE85 		bhi	.L293
1815:TP2824/TP2802.c **** 		status = tp28xx_byte_read(0x01);
 2700              		.loc 1 1815 3 is_stmt 1 view .LVU712
 2701 00b4 2046     		mov	r0, r4
 2702 00b6 FFF7FEFF 		bl	SetRegPage
 2703              	.LVL258:
1816:TP2824/TP2802.c **** 
ARM GAS  C:\Users\ryanc.HS\AppData\Local\Temp\ccAQ3CYh.s 			page 97


 2704              		.loc 1 1816 3 view .LVU713
1816:TP2824/TP2802.c **** 
 2705              		.loc 1 1816 12 is_stmt 0 view .LVU714
 2706 00ba 0120     		movs	r0, #1
 2707 00bc FFF7FEFF 		bl	tp28xx_byte_read
 2708              	.LVL259:
 2709 00c0 0546     		mov	r5, r0
 2710              	.LVL260:
1819:TP2824/TP2802.c **** 		{
 2711              		.loc 1 1819 3 is_stmt 1 view .LVU715
1819:TP2824/TP2802.c **** 		{
 2712              		.loc 1 1819 6 is_stmt 0 view .LVU716
 2713 00c2 10F0800F 		tst	r0, #128
 2714 00c6 A0D1     		bne	.L294
1890:TP2824/TP2802.c **** 				flag_LOCKED = CVBS_FLAG_LOCKED;
 2715              		.loc 1 1890 4 is_stmt 1 view .LVU717
1890:TP2824/TP2802.c **** 				flag_LOCKED = CVBS_FLAG_LOCKED;
 2716              		.loc 1 1890 19 is_stmt 0 view .LVU718
 2717 00c8 2646     		mov	r6, r4
 2718 00ca 8E4B     		ldr	r3, .L352+24
 2719 00cc 1A5D     		ldrb	r2, [r3, r4]	@ zero_extendqisi2
1890:TP2824/TP2802.c **** 				flag_LOCKED = CVBS_FLAG_LOCKED;
 2720              		.loc 1 1890 23 view .LVU719
 2721 00ce A2F10803 		sub	r3, r2, #8
 2722 00d2 DBB2     		uxtb	r3, r3
1890:TP2824/TP2802.c **** 				flag_LOCKED = CVBS_FLAG_LOCKED;
 2723              		.loc 1 1890 7 view .LVU720
 2724 00d4 012B     		cmp	r3, #1
 2725 00d6 52D9     		bls	.L295
1893:TP2824/TP2802.c **** 
 2726              		.loc 1 1893 5 is_stmt 1 view .LVU721
1893:TP2824/TP2802.c **** 
 2727              		.loc 1 1893 17 is_stmt 0 view .LVU722
 2728 00d8 8E4B     		ldr	r3, .L352+40
 2729 00da 6021     		movs	r1, #96
 2730 00dc 1970     		strb	r1, [r3]
 2731              	.L207:
1895:TP2824/TP2802.c **** 			{
 2732              		.loc 1 1895 4 is_stmt 1 view .LVU723
1895:TP2824/TP2802.c **** 			{
 2733              		.loc 1 1895 20 is_stmt 0 view .LVU724
 2734 00de 8D4B     		ldr	r3, .L352+40
 2735 00e0 1B78     		ldrb	r3, [r3]	@ zero_extendqisi2
1895:TP2824/TP2802.c **** 			{
 2736              		.loc 1 1895 7 view .LVU725
 2737 00e2 AB43     		bics	r3, r3, r5
 2738 00e4 4FD0     		beq	.L296
1948:TP2824/TP2802.c **** 				{
 2739              		.loc 1 1948 5 is_stmt 1 view .LVU726
1948:TP2824/TP2802.c **** 				{
 2740              		.loc 1 1948 30 is_stmt 0 view .LVU727
 2741 00e6 814B     		ldr	r3, .L352
 2742 00e8 9B5D     		ldrb	r3, [r3, r6]	@ zero_extendqisi2
1948:TP2824/TP2802.c **** 				{
 2743              		.loc 1 1948 8 view .LVU728
 2744 00ea 002B     		cmp	r3, #0
 2745 00ec 72D0     		beq	.L297
ARM GAS  C:\Users\ryanc.HS\AppData\Local\Temp\ccAQ3CYh.s 			page 98


1954:TP2824/TP2802.c **** 				{
 2746              		.loc 1 1954 10 is_stmt 1 view .LVU729
1954:TP2824/TP2802.c **** 				{
 2747              		.loc 1 1954 13 is_stmt 0 view .LVU730
 2748 00ee 022B     		cmp	r3, #2
 2749 00f0 7BD0     		beq	.L298
1999:TP2824/TP2802.c **** 						count[i]++;
 2750              		.loc 1 1999 6 is_stmt 1 view .LVU731
1999:TP2824/TP2802.c **** 						count[i]++;
 2751              		.loc 1 1999 15 is_stmt 0 view .LVU732
 2752 00f2 7F4A     		ldr	r2, .L352+4
 2753 00f4 925D     		ldrb	r2, [r2, r6]	@ zero_extendqisi2
1999:TP2824/TP2802.c **** 						count[i]++;
 2754              		.loc 1 1999 9 view .LVU733
 2755 00f6 FF2A     		cmp	r2, #255
 2756 00f8 02D0     		beq	.L217
2000:TP2824/TP2802.c **** 					if (VIDEO_UNLOCK == state[i] && count[i] > 2)
 2757              		.loc 1 2000 7 is_stmt 1 view .LVU734
2000:TP2824/TP2802.c **** 					if (VIDEO_UNLOCK == state[i] && count[i] > 2)
 2758              		.loc 1 2000 15 is_stmt 0 view .LVU735
 2759 00fa 0132     		adds	r2, r2, #1
 2760 00fc 7C49     		ldr	r1, .L352+4
 2761 00fe 8A55     		strb	r2, [r1, r6]
 2762              	.L217:
2001:TP2824/TP2802.c **** 					{
 2763              		.loc 1 2001 6 is_stmt 1 view .LVU736
2001:TP2824/TP2802.c **** 					{
 2764              		.loc 1 2001 9 is_stmt 0 view .LVU737
 2765 0100 032B     		cmp	r3, #3
 2766 0102 C7D1     		bne	.L205
2001:TP2824/TP2802.c **** 					{
 2767              		.loc 1 2001 43 discriminator 1 view .LVU738
 2768 0104 7A4B     		ldr	r3, .L352+4
 2769 0106 9B5D     		ldrb	r3, [r3, r6]	@ zero_extendqisi2
2001:TP2824/TP2802.c **** 					{
 2770              		.loc 1 2001 35 discriminator 1 view .LVU739
 2771 0108 022B     		cmp	r3, #2
 2772 010a C3D9     		bls	.L205
2003:TP2824/TP2802.c **** 						count[i] = 0;
 2773              		.loc 1 2003 7 is_stmt 1 view .LVU740
2003:TP2824/TP2802.c **** 						count[i] = 0;
 2774              		.loc 1 2003 16 is_stmt 0 view .LVU741
 2775 010c 774B     		ldr	r3, .L352
 2776 010e 0122     		movs	r2, #1
 2777 0110 9A55     		strb	r2, [r3, r6]
2004:TP2824/TP2802.c **** 						TP28xx_reset_default(chip, i);
 2778              		.loc 1 2004 7 is_stmt 1 view .LVU742
2004:TP2824/TP2802.c **** 						TP28xx_reset_default(chip, i);
 2779              		.loc 1 2004 16 is_stmt 0 view .LVU743
 2780 0112 774B     		ldr	r3, .L352+4
 2781 0114 0022     		movs	r2, #0
 2782 0116 9A55     		strb	r2, [r3, r6]
2005:TP2824/TP2802.c **** 						printf("video unlocked ch%02x \r\n", (tWord)i);
 2783              		.loc 1 2005 7 is_stmt 1 view .LVU744
 2784 0118 2146     		mov	r1, r4
 2785 011a 784B     		ldr	r3, .L352+16
 2786 011c 1878     		ldrb	r0, [r3]	@ zero_extendqisi2
ARM GAS  C:\Users\ryanc.HS\AppData\Local\Temp\ccAQ3CYh.s 			page 99


 2787              	.LVL261:
2005:TP2824/TP2802.c **** 						printf("video unlocked ch%02x \r\n", (tWord)i);
 2788              		.loc 1 2005 7 is_stmt 0 view .LVU745
 2789 011e FFF7FEFF 		bl	TP28xx_reset_default
 2790              	.LVL262:
2006:TP2824/TP2802.c **** 						VS4210_Rx_NoSignal(i); // chunyu
 2791              		.loc 1 2006 7 is_stmt 1 view .LVU746
 2792 0122 3146     		mov	r1, r6
 2793 0124 7C48     		ldr	r0, .L352+44
 2794 0126 FFF7FEFF 		bl	printf
 2795              	.LVL263:
2007:TP2824/TP2802.c **** 					}
 2796              		.loc 1 2007 7 view .LVU747
 2797 012a 2046     		mov	r0, r4
 2798 012c FFF7FEFF 		bl	VS4210_Rx_NoSignal
 2799              	.LVL264:
 2800 0130 B0E7     		b	.L205
 2801              	.LVL265:
 2802              	.L288:
1824:TP2824/TP2802.c **** 					count[i]++;
 2803              		.loc 1 1824 5 view .LVU748
1824:TP2824/TP2802.c **** 					count[i]++;
 2804              		.loc 1 1824 14 is_stmt 0 view .LVU749
 2805 0132 6F4B     		ldr	r3, .L352+4
 2806 0134 1B5D     		ldrb	r3, [r3, r4]	@ zero_extendqisi2
1824:TP2824/TP2802.c **** 					count[i]++;
 2807              		.loc 1 1824 8 view .LVU750
 2808 0136 FF2B     		cmp	r3, #255
 2809 0138 B7D0     		beq	.L200
1825:TP2824/TP2802.c **** 				continue;
 2810              		.loc 1 1825 6 is_stmt 1 view .LVU751
1825:TP2824/TP2802.c **** 				continue;
 2811              		.loc 1 1825 14 is_stmt 0 view .LVU752
 2812 013a 0133     		adds	r3, r3, #1
 2813 013c 6C4A     		ldr	r2, .L352+4
 2814 013e 1355     		strb	r3, [r2, r4]
1826:TP2824/TP2802.c **** 			}
 2815              		.loc 1 1826 5 is_stmt 1 view .LVU753
 2816 0140 B3E7     		b	.L200
 2817              	.L289:
1852:TP2824/TP2802.c **** 					{
 2818              		.loc 1 1852 6 view .LVU754
1852:TP2824/TP2802.c **** 					{
 2819              		.loc 1 1852 25 is_stmt 0 view .LVU755
 2820 0142 764B     		ldr	r3, .L352+48
 2821 0144 1B78     		ldrb	r3, [r3]	@ zero_extendqisi2
1852:TP2824/TP2802.c **** 					{
 2822              		.loc 1 1852 9 view .LVU756
 2823 0146 032B     		cmp	r3, #3
 2824 0148 0BD0     		beq	.L299
1859:TP2824/TP2802.c **** 						Printf("\r\n(#video loss ch%02x)", (WORD)i);
 2825              		.loc 1 1859 7 is_stmt 1 view .LVU757
1859:TP2824/TP2802.c **** 						Printf("\r\n(#video loss ch%02x)", (WORD)i);
 2826              		.loc 1 1859 38 is_stmt 0 view .LVU758
 2827 014a 601C     		adds	r0, r4, #1
 2828              	.LVL266:
1859:TP2824/TP2802.c **** 						Printf("\r\n(#video loss ch%02x)", (WORD)i);
ARM GAS  C:\Users\ryanc.HS\AppData\Local\Temp\ccAQ3CYh.s 			page 100


 2829              		.loc 1 1859 43 view .LVU759
 2830 014c 00EB4000 		add	r0, r0, r0, lsl #1
1859:TP2824/TP2802.c **** 						Printf("\r\n(#video loss ch%02x)", (WORD)i);
 2831              		.loc 1 1859 7 view .LVU760
 2832 0150 FF21     		movs	r1, #255
 2833 0152 C930     		adds	r0, r0, #201
 2834 0154 FFF7FEFF 		bl	WriteEEP
 2835              	.LVL267:
1860:TP2824/TP2802.c **** 					}
 2836              		.loc 1 1860 7 is_stmt 1 view .LVU761
 2837 0158 2146     		mov	r1, r4
 2838 015a 6748     		ldr	r0, .L352+12
 2839 015c FFF7FEFF 		bl	Printf
 2840              	.LVL268:
 2841 0160 6DE7     		b	.L203
 2842              	.LVL269:
 2843              	.L299:
1854:TP2824/TP2802.c **** 						Printf("\r\n(#video loss ch%02x)", (WORD)i);
 2844              		.loc 1 1854 7 view .LVU762
1854:TP2824/TP2802.c **** 						Printf("\r\n(#video loss ch%02x)", (WORD)i);
 2845              		.loc 1 1854 37 is_stmt 0 view .LVU763
 2846 0162 04EB4400 		add	r0, r4, r4, lsl #1
 2847              	.LVL270:
1854:TP2824/TP2802.c **** 						Printf("\r\n(#video loss ch%02x)", (WORD)i);
 2848              		.loc 1 1854 7 view .LVU764
 2849 0166 FF21     		movs	r1, #255
 2850 0168 C930     		adds	r0, r0, #201
 2851 016a FFF7FEFF 		bl	WriteEEP
 2852              	.LVL271:
1855:TP2824/TP2802.c **** 					}
 2853              		.loc 1 1855 7 is_stmt 1 view .LVU765
 2854 016e 2146     		mov	r1, r4
 2855 0170 6148     		ldr	r0, .L352+12
 2856 0172 FFF7FEFF 		bl	Printf
 2857              	.LVL272:
 2858 0176 62E7     		b	.L203
 2859              	.L290:
1883:TP2824/TP2802.c **** 
 2860              		.loc 1 1883 6 view .LVU766
 2861 0178 FFF7FEFF 		bl	CloseOSDMenu
 2862              	.LVL273:
 2863 017c 88E7     		b	.L204
 2864              	.LVL274:
 2865              	.L295:
1891:TP2824/TP2802.c **** 			else
 2866              		.loc 1 1891 5 view .LVU767
1891:TP2824/TP2802.c **** 			else
 2867              		.loc 1 1891 17 is_stmt 0 view .LVU768
 2868 017e 654B     		ldr	r3, .L352+40
 2869 0180 6021     		movs	r1, #96
 2870 0182 1970     		strb	r1, [r3]
 2871 0184 ABE7     		b	.L207
 2872              	.L296:
1897:TP2824/TP2802.c **** 				{
 2873              		.loc 1 1897 5 is_stmt 1 view .LVU769
1897:TP2824/TP2802.c **** 				{
 2874              		.loc 1 1897 30 is_stmt 0 view .LVU770
ARM GAS  C:\Users\ryanc.HS\AppData\Local\Temp\ccAQ3CYh.s 			page 101


 2875 0186 594B     		ldr	r3, .L352
 2876 0188 9B5D     		ldrb	r3, [r3, r6]	@ zero_extendqisi2
1897:TP2824/TP2802.c **** 				{
 2877              		.loc 1 1897 8 view .LVU771
 2878 018a 022B     		cmp	r3, #2
 2879 018c 0BD0     		beq	.L300
1931:TP2824/TP2802.c **** 				{
 2880              		.loc 1 1931 10 is_stmt 1 view .LVU772
1931:TP2824/TP2802.c **** 				{
 2881              		.loc 1 1931 13 is_stmt 0 view .LVU773
 2882 018e 9BB9     		cbnz	r3, .L210
1933:TP2824/TP2802.c **** 					count[i] = 0;
 2883              		.loc 1 1933 6 is_stmt 1 view .LVU774
1933:TP2824/TP2802.c **** 					count[i] = 0;
 2884              		.loc 1 1933 15 is_stmt 0 view .LVU775
 2885 0190 564B     		ldr	r3, .L352
 2886 0192 0122     		movs	r2, #1
 2887 0194 9A55     		strb	r2, [r3, r6]
1934:TP2824/TP2802.c **** 					printf("1video in ch%02x \r\n", (tWord)i);
 2888              		.loc 1 1934 6 is_stmt 1 view .LVU776
1934:TP2824/TP2802.c **** 					printf("1video in ch%02x \r\n", (tWord)i);
 2889              		.loc 1 1934 15 is_stmt 0 view .LVU777
 2890 0196 564B     		ldr	r3, .L352+4
 2891 0198 0022     		movs	r2, #0
 2892 019a 9A55     		strb	r2, [r3, r6]
1935:TP2824/TP2802.c **** 				}
 2893              		.loc 1 1935 6 is_stmt 1 view .LVU778
 2894 019c 3146     		mov	r1, r6
 2895 019e 6048     		ldr	r0, .L352+52
 2896              	.LVL275:
1935:TP2824/TP2802.c **** 				}
 2897              		.loc 1 1935 6 is_stmt 0 view .LVU779
 2898 01a0 FFF7FEFF 		bl	printf
 2899              	.LVL276:
 2900 01a4 76E7     		b	.L205
 2901              	.LVL277:
 2902              	.L300:
1899:TP2824/TP2802.c **** 					{
 2903              		.loc 1 1899 6 is_stmt 1 view .LVU780
1899:TP2824/TP2802.c **** 					{
 2904              		.loc 1 1899 15 is_stmt 0 view .LVU781
 2905 01a6 524B     		ldr	r3, .L352+4
 2906 01a8 9B5D     		ldrb	r3, [r3, r6]	@ zero_extendqisi2
1899:TP2824/TP2802.c **** 					{
 2907              		.loc 1 1899 9 view .LVU782
 2908 01aa FF2B     		cmp	r3, #255
 2909 01ac 3FF472AF 		beq	.L205
1901:TP2824/TP2802.c **** 						// if (i==0)
 2910              		.loc 1 1901 7 is_stmt 1 view .LVU783
1901:TP2824/TP2802.c **** 						// if (i==0)
 2911              		.loc 1 1901 15 is_stmt 0 view .LVU784
 2912 01b0 0133     		adds	r3, r3, #1
 2913 01b2 4F4A     		ldr	r2, .L352+4
 2914 01b4 9355     		strb	r3, [r2, r6]
 2915 01b6 6DE7     		b	.L205
 2916              	.L210:
1939:TP2824/TP2802.c **** 					count[i] = 0;
ARM GAS  C:\Users\ryanc.HS\AppData\Local\Temp\ccAQ3CYh.s 			page 102


 2917              		.loc 1 1939 6 is_stmt 1 view .LVU785
1939:TP2824/TP2802.c **** 					count[i] = 0;
 2918              		.loc 1 1939 15 is_stmt 0 view .LVU786
 2919 01b8 4C4B     		ldr	r3, .L352
 2920 01ba 0222     		movs	r2, #2
 2921 01bc 9A55     		strb	r2, [r3, r6]
1940:TP2824/TP2802.c **** 					printf("video locked ch%02x \r\n", (tWord)i);
 2922              		.loc 1 1940 6 is_stmt 1 view .LVU787
1940:TP2824/TP2802.c **** 					printf("video locked ch%02x \r\n", (tWord)i);
 2923              		.loc 1 1940 15 is_stmt 0 view .LVU788
