Archive member included to satisfy reference by file (symbol)

c:/program files (x86)/gnu tools arm embedded/9 2019-q4-major/bin/../lib/gcc/arm-none-eabi/9.2.1/../../../../arm-none-eabi/lib/thumb/v7-m/nofp\libc_nano.a(lib_a-errno.o)
                              build/main.o (__errno)
c:/program files (x86)/gnu tools arm embedded/9 2019-q4-major/bin/../lib/gcc/arm-none-eabi/9.2.1/../../../../arm-none-eabi/lib/thumb/v7-m/nofp\libc_nano.a(lib_a-exit.o)
                              c:/program files (x86)/gnu tools arm embedded/9 2019-q4-major/bin/../lib/gcc/arm-none-eabi/9.2.1/../../../../arm-none-eabi/lib/thumb/v7-m/nofp/crt0.o (exit)
c:/program files (x86)/gnu tools arm embedded/9 2019-q4-major/bin/../lib/gcc/arm-none-eabi/9.2.1/../../../../arm-none-eabi/lib/thumb/v7-m/nofp\libc_nano.a(lib_a-impure.o)
                              c:/program files (x86)/gnu tools arm embedded/9 2019-q4-major/bin/../lib/gcc/arm-none-eabi/9.2.1/../../../../arm-none-eabi/lib/thumb/v7-m/nofp\libc_nano.a(lib_a-exit.o) (_global_impure_ptr)
c:/program files (x86)/gnu tools arm embedded/9 2019-q4-major/bin/../lib/gcc/arm-none-eabi/9.2.1/../../../../arm-none-eabi/lib/thumb/v7-m/nofp\libc_nano.a(lib_a-init.o)
                              c:/program files (x86)/gnu tools arm embedded/9 2019-q4-major/bin/../lib/gcc/arm-none-eabi/9.2.1/../../../../arm-none-eabi/lib/thumb/v7-m/nofp/crt0.o (__libc_init_array)
c:/program files (x86)/gnu tools arm embedded/9 2019-q4-major/bin/../lib/gcc/arm-none-eabi/9.2.1/../../../../arm-none-eabi/lib/thumb/v7-m/nofp\libc_nano.a(lib_a-memcpy-stub.o)
                              build/VX_swi2c.o (memcpy)
c:/program files (x86)/gnu tools arm embedded/9 2019-q4-major/bin/../lib/gcc/arm-none-eabi/9.2.1/../../../../arm-none-eabi/lib/thumb/v7-m/nofp\libc_nano.a(lib_a-memset.o)
                              c:/program files (x86)/gnu tools arm embedded/9 2019-q4-major/bin/../lib/gcc/arm-none-eabi/9.2.1/../../../../arm-none-eabi/lib/thumb/v7-m/nofp/crt0.o (memset)
c:/program files (x86)/gnu tools arm embedded/9 2019-q4-major/bin/../lib/gcc/arm-none-eabi/9.2.1/../../../../arm-none-eabi/lib/thumb/v7-m/nofp\libc_nano.a(lib_a-printf.o)
                              build/main.o (printf)
c:/program files (x86)/gnu tools arm embedded/9 2019-q4-major/bin/../lib/gcc/arm-none-eabi/9.2.1/../../../../arm-none-eabi/lib/thumb/v7-m/nofp\libc_nano.a(lib_a-puts.o)
                              build/main.o (puts)
c:/program files (x86)/gnu tools arm embedded/9 2019-q4-major/bin/../lib/gcc/arm-none-eabi/9.2.1/../../../../arm-none-eabi/lib/thumb/v7-m/nofp\libc_nano.a(lib_a-strcmp.o)
                              build/GT911.o (strcmp)
c:/program files (x86)/gnu tools arm embedded/9 2019-q4-major/bin/../lib/gcc/arm-none-eabi/9.2.1/../../../../arm-none-eabi/lib/thumb/v7-m/nofp\libc_nano.a(lib_a-strtol.o)
                              build/main.o (strtol)
c:/program files (x86)/gnu tools arm embedded/9 2019-q4-major/bin/../lib/gcc/arm-none-eabi/9.2.1/../../../../arm-none-eabi/lib/thumb/v7-m/nofp\libc_nano.a(lib_a-wbuf.o)
                              c:/program files (x86)/gnu tools arm embedded/9 2019-q4-major/bin/../lib/gcc/arm-none-eabi/9.2.1/../../../../arm-none-eabi/lib/thumb/v7-m/nofp\libc_nano.a(lib_a-puts.o) (__swbuf_r)
c:/program files (x86)/gnu tools arm embedded/9 2019-q4-major/bin/../lib/gcc/arm-none-eabi/9.2.1/../../../../arm-none-eabi/lib/thumb/v7-m/nofp\libc_nano.a(lib_a-wsetup.o)
                              c:/program files (x86)/gnu tools arm embedded/9 2019-q4-major/bin/../lib/gcc/arm-none-eabi/9.2.1/../../../../arm-none-eabi/lib/thumb/v7-m/nofp\libc_nano.a(lib_a-puts.o) (__swsetup_r)
c:/program files (x86)/gnu tools arm embedded/9 2019-q4-major/bin/../lib/gcc/arm-none-eabi/9.2.1/../../../../arm-none-eabi/lib/thumb/v7-m/nofp\libc_nano.a(lib_a-ctype_.o)
                              c:/program files (x86)/gnu tools arm embedded/9 2019-q4-major/bin/../lib/gcc/arm-none-eabi/9.2.1/../../../../arm-none-eabi/lib/thumb/v7-m/nofp\libc_nano.a(lib_a-strtol.o) (_ctype_)
c:/program files (x86)/gnu tools arm embedded/9 2019-q4-major/bin/../lib/gcc/arm-none-eabi/9.2.1/../../../../arm-none-eabi/lib/thumb/v7-m/nofp\libc_nano.a(lib_a-fflush.o)
                              c:/program files (x86)/gnu tools arm embedded/9 2019-q4-major/bin/../lib/gcc/arm-none-eabi/9.2.1/../../../../arm-none-eabi/lib/thumb/v7-m/nofp\libc_nano.a(lib_a-wbuf.o) (_fflush_r)
c:/program files (x86)/gnu tools arm embedded/9 2019-q4-major/bin/../lib/gcc/arm-none-eabi/9.2.1/../../../../arm-none-eabi/lib/thumb/v7-m/nofp\libc_nano.a(lib_a-findfp.o)
                              c:/program files (x86)/gnu tools arm embedded/9 2019-q4-major/bin/../lib/gcc/arm-none-eabi/9.2.1/../../../../arm-none-eabi/lib/thumb/v7-m/nofp\libc_nano.a(lib_a-printf.o) (__sinit)
c:/program files (x86)/gnu tools arm embedded/9 2019-q4-major/bin/../lib/gcc/arm-none-eabi/9.2.1/../../../../arm-none-eabi/lib/thumb/v7-m/nofp\libc_nano.a(lib_a-fwalk.o)
                              c:/program files (x86)/gnu tools arm embedded/9 2019-q4-major/bin/../lib/gcc/arm-none-eabi/9.2.1/../../../../arm-none-eabi/lib/thumb/v7-m/nofp\libc_nano.a(lib_a-findfp.o) (_fwalk)
c:/program files (x86)/gnu tools arm embedded/9 2019-q4-major/bin/../lib/gcc/arm-none-eabi/9.2.1/../../../../arm-none-eabi/lib/thumb/v7-m/nofp\libc_nano.a(lib_a-lock.o)
                              c:/program files (x86)/gnu tools arm embedded/9 2019-q4-major/bin/../lib/gcc/arm-none-eabi/9.2.1/../../../../arm-none-eabi/lib/thumb/v7-m/nofp\libc_nano.a(lib_a-findfp.o) (__retarget_lock_init_recursive)
c:/program files (x86)/gnu tools arm embedded/9 2019-q4-major/bin/../lib/gcc/arm-none-eabi/9.2.1/../../../../arm-none-eabi/lib/thumb/v7-m/nofp\libc_nano.a(lib_a-makebuf.o)
                              c:/program files (x86)/gnu tools arm embedded/9 2019-q4-major/bin/../lib/gcc/arm-none-eabi/9.2.1/../../../../arm-none-eabi/lib/thumb/v7-m/nofp\libc_nano.a(lib_a-wsetup.o) (__smakebuf_r)
c:/program files (x86)/gnu tools arm embedded/9 2019-q4-major/bin/../lib/gcc/arm-none-eabi/9.2.1/../../../../arm-none-eabi/lib/thumb/v7-m/nofp\libc_nano.a(lib_a-nano-freer.o)
                              c:/program files (x86)/gnu tools arm embedded/9 2019-q4-major/bin/../lib/gcc/arm-none-eabi/9.2.1/../../../../arm-none-eabi/lib/thumb/v7-m/nofp\libc_nano.a(lib_a-wsetup.o) (_free_r)
c:/program files (x86)/gnu tools arm embedded/9 2019-q4-major/bin/../lib/gcc/arm-none-eabi/9.2.1/../../../../arm-none-eabi/lib/thumb/v7-m/nofp\libc_nano.a(lib_a-nano-mallocr.o)
                              c:/program files (x86)/gnu tools arm embedded/9 2019-q4-major/bin/../lib/gcc/arm-none-eabi/9.2.1/../../../../arm-none-eabi/lib/thumb/v7-m/nofp\libc_nano.a(lib_a-findfp.o) (_malloc_r)
c:/program files (x86)/gnu tools arm embedded/9 2019-q4-major/bin/../lib/gcc/arm-none-eabi/9.2.1/../../../../arm-none-eabi/lib/thumb/v7-m/nofp\libc_nano.a(lib_a-nano-vfprintf.o)
                              c:/program files (x86)/gnu tools arm embedded/9 2019-q4-major/bin/../lib/gcc/arm-none-eabi/9.2.1/../../../../arm-none-eabi/lib/thumb/v7-m/nofp\libc_nano.a(lib_a-printf.o) (_vfprintf_r)
c:/program files (x86)/gnu tools arm embedded/9 2019-q4-major/bin/../lib/gcc/arm-none-eabi/9.2.1/../../../../arm-none-eabi/lib/thumb/v7-m/nofp\libc_nano.a(lib_a-nano-vfprintf_i.o)
                              c:/program files (x86)/gnu tools arm embedded/9 2019-q4-major/bin/../lib/gcc/arm-none-eabi/9.2.1/../../../../arm-none-eabi/lib/thumb/v7-m/nofp\libc_nano.a(lib_a-nano-vfprintf.o) (_printf_i)
c:/program files (x86)/gnu tools arm embedded/9 2019-q4-major/bin/../lib/gcc/arm-none-eabi/9.2.1/../../../../arm-none-eabi/lib/thumb/v7-m/nofp\libc_nano.a(lib_a-sbrkr.o)
                              c:/program files (x86)/gnu tools arm embedded/9 2019-q4-major/bin/../lib/gcc/arm-none-eabi/9.2.1/../../../../arm-none-eabi/lib/thumb/v7-m/nofp\libc_nano.a(lib_a-nano-mallocr.o) (_sbrk_r)
c:/program files (x86)/gnu tools arm embedded/9 2019-q4-major/bin/../lib/gcc/arm-none-eabi/9.2.1/../../../../arm-none-eabi/lib/thumb/v7-m/nofp\libc_nano.a(lib_a-stdio.o)
                              c:/program files (x86)/gnu tools arm embedded/9 2019-q4-major/bin/../lib/gcc/arm-none-eabi/9.2.1/../../../../arm-none-eabi/lib/thumb/v7-m/nofp\libc_nano.a(lib_a-findfp.o) (__sread)
c:/program files (x86)/gnu tools arm embedded/9 2019-q4-major/bin/../lib/gcc/arm-none-eabi/9.2.1/../../../../arm-none-eabi/lib/thumb/v7-m/nofp\libc_nano.a(lib_a-writer.o)
                              c:/program files (x86)/gnu tools arm embedded/9 2019-q4-major/bin/../lib/gcc/arm-none-eabi/9.2.1/../../../../arm-none-eabi/lib/thumb/v7-m/nofp\libc_nano.a(lib_a-stdio.o) (_write_r)
c:/program files (x86)/gnu tools arm embedded/9 2019-q4-major/bin/../lib/gcc/arm-none-eabi/9.2.1/../../../../arm-none-eabi/lib/thumb/v7-m/nofp\libc_nano.a(lib_a-closer.o)
                              c:/program files (x86)/gnu tools arm embedded/9 2019-q4-major/bin/../lib/gcc/arm-none-eabi/9.2.1/../../../../arm-none-eabi/lib/thumb/v7-m/nofp\libc_nano.a(lib_a-stdio.o) (_close_r)
c:/program files (x86)/gnu tools arm embedded/9 2019-q4-major/bin/../lib/gcc/arm-none-eabi/9.2.1/../../../../arm-none-eabi/lib/thumb/v7-m/nofp\libc_nano.a(lib_a-fstatr.o)
                              c:/program files (x86)/gnu tools arm embedded/9 2019-q4-major/bin/../lib/gcc/arm-none-eabi/9.2.1/../../../../arm-none-eabi/lib/thumb/v7-m/nofp\libc_nano.a(lib_a-makebuf.o) (_fstat_r)
c:/program files (x86)/gnu tools arm embedded/9 2019-q4-major/bin/../lib/gcc/arm-none-eabi/9.2.1/../../../../arm-none-eabi/lib/thumb/v7-m/nofp\libc_nano.a(lib_a-fvwrite.o)
                              c:/program files (x86)/gnu tools arm embedded/9 2019-q4-major/bin/../lib/gcc/arm-none-eabi/9.2.1/../../../../arm-none-eabi/lib/thumb/v7-m/nofp\libc_nano.a(lib_a-nano-vfprintf.o) (__sfvwrite_r)
c:/program files (x86)/gnu tools arm embedded/9 2019-q4-major/bin/../lib/gcc/arm-none-eabi/9.2.1/../../../../arm-none-eabi/lib/thumb/v7-m/nofp\libc_nano.a(lib_a-isattyr.o)
                              c:/program files (x86)/gnu tools arm embedded/9 2019-q4-major/bin/../lib/gcc/arm-none-eabi/9.2.1/../../../../arm-none-eabi/lib/thumb/v7-m/nofp\libc_nano.a(lib_a-makebuf.o) (_isatty_r)
c:/program files (x86)/gnu tools arm embedded/9 2019-q4-major/bin/../lib/gcc/arm-none-eabi/9.2.1/../../../../arm-none-eabi/lib/thumb/v7-m/nofp\libc_nano.a(lib_a-lseekr.o)
                              c:/program files (x86)/gnu tools arm embedded/9 2019-q4-major/bin/../lib/gcc/arm-none-eabi/9.2.1/../../../../arm-none-eabi/lib/thumb/v7-m/nofp\libc_nano.a(lib_a-stdio.o) (_lseek_r)
c:/program files (x86)/gnu tools arm embedded/9 2019-q4-major/bin/../lib/gcc/arm-none-eabi/9.2.1/../../../../arm-none-eabi/lib/thumb/v7-m/nofp\libc_nano.a(lib_a-memchr-stub.o)
                              c:/program files (x86)/gnu tools arm embedded/9 2019-q4-major/bin/../lib/gcc/arm-none-eabi/9.2.1/../../../../arm-none-eabi/lib/thumb/v7-m/nofp\libc_nano.a(lib_a-nano-vfprintf.o) (memchr)
c:/program files (x86)/gnu tools arm embedded/9 2019-q4-major/bin/../lib/gcc/arm-none-eabi/9.2.1/../../../../arm-none-eabi/lib/thumb/v7-m/nofp\libc_nano.a(lib_a-memmove.o)
                              c:/program files (x86)/gnu tools arm embedded/9 2019-q4-major/bin/../lib/gcc/arm-none-eabi/9.2.1/../../../../arm-none-eabi/lib/thumb/v7-m/nofp\libc_nano.a(lib_a-fvwrite.o) (memmove)
c:/program files (x86)/gnu tools arm embedded/9 2019-q4-major/bin/../lib/gcc/arm-none-eabi/9.2.1/../../../../arm-none-eabi/lib/thumb/v7-m/nofp\libc_nano.a(lib_a-mlock.o)
                              c:/program files (x86)/gnu tools arm embedded/9 2019-q4-major/bin/../lib/gcc/arm-none-eabi/9.2.1/../../../../arm-none-eabi/lib/thumb/v7-m/nofp\libc_nano.a(lib_a-nano-freer.o) (__malloc_lock)
c:/program files (x86)/gnu tools arm embedded/9 2019-q4-major/bin/../lib/gcc/arm-none-eabi/9.2.1/../../../../arm-none-eabi/lib/thumb/v7-m/nofp\libc_nano.a(lib_a-nano-reallocr.o)
                              c:/program files (x86)/gnu tools arm embedded/9 2019-q4-major/bin/../lib/gcc/arm-none-eabi/9.2.1/../../../../arm-none-eabi/lib/thumb/v7-m/nofp\libc_nano.a(lib_a-fvwrite.o) (_realloc_r)
c:/program files (x86)/gnu tools arm embedded/9 2019-q4-major/bin/../lib/gcc/arm-none-eabi/9.2.1/../../../../arm-none-eabi/lib/thumb/v7-m/nofp\libc_nano.a(lib_a-readr.o)
                              c:/program files (x86)/gnu tools arm embedded/9 2019-q4-major/bin/../lib/gcc/arm-none-eabi/9.2.1/../../../../arm-none-eabi/lib/thumb/v7-m/nofp\libc_nano.a(lib_a-stdio.o) (_read_r)
c:/program files (x86)/gnu tools arm embedded/9 2019-q4-major/bin/../lib/gcc/arm-none-eabi/9.2.1/../../../../arm-none-eabi/lib/thumb/v7-m/nofp\libc_nano.a(lib_a-reent.o)
                              c:/program files (x86)/gnu tools arm embedded/9 2019-q4-major/bin/../lib/gcc/arm-none-eabi/9.2.1/../../../../arm-none-eabi/lib/thumb/v7-m/nofp\libc_nano.a(lib_a-sbrkr.o) (errno)
c:/program files (x86)/gnu tools arm embedded/9 2019-q4-major/bin/../lib/gcc/arm-none-eabi/9.2.1/../../../../arm-none-eabi/lib/thumb/v7-m/nofp\libc_nano.a(lib_a-nano-msizer.o)
                              c:/program files (x86)/gnu tools arm embedded/9 2019-q4-major/bin/../lib/gcc/arm-none-eabi/9.2.1/../../../../arm-none-eabi/lib/thumb/v7-m/nofp\libc_nano.a(lib_a-nano-reallocr.o) (_malloc_usable_size_r)
c:/program files (x86)/gnu tools arm embedded/9 2019-q4-major/bin/../lib/gcc/arm-none-eabi/9.2.1/../../../../arm-none-eabi/lib/thumb/v7-m/nofp\libnosys.a(close.o)
                              c:/program files (x86)/gnu tools arm embedded/9 2019-q4-major/bin/../lib/gcc/arm-none-eabi/9.2.1/../../../../arm-none-eabi/lib/thumb/v7-m/nofp\libc_nano.a(lib_a-closer.o) (_close)
c:/program files (x86)/gnu tools arm embedded/9 2019-q4-major/bin/../lib/gcc/arm-none-eabi/9.2.1/../../../../arm-none-eabi/lib/thumb/v7-m/nofp\libnosys.a(fstat.o)
                              c:/program files (x86)/gnu tools arm embedded/9 2019-q4-major/bin/../lib/gcc/arm-none-eabi/9.2.1/../../../../arm-none-eabi/lib/thumb/v7-m/nofp\libc_nano.a(lib_a-fstatr.o) (_fstat)
c:/program files (x86)/gnu tools arm embedded/9 2019-q4-major/bin/../lib/gcc/arm-none-eabi/9.2.1/../../../../arm-none-eabi/lib/thumb/v7-m/nofp\libnosys.a(isatty.o)
                              c:/program files (x86)/gnu tools arm embedded/9 2019-q4-major/bin/../lib/gcc/arm-none-eabi/9.2.1/../../../../arm-none-eabi/lib/thumb/v7-m/nofp\libc_nano.a(lib_a-isattyr.o) (_isatty)
c:/program files (x86)/gnu tools arm embedded/9 2019-q4-major/bin/../lib/gcc/arm-none-eabi/9.2.1/../../../../arm-none-eabi/lib/thumb/v7-m/nofp\libnosys.a(lseek.o)
                              c:/program files (x86)/gnu tools arm embedded/9 2019-q4-major/bin/../lib/gcc/arm-none-eabi/9.2.1/../../../../arm-none-eabi/lib/thumb/v7-m/nofp\libc_nano.a(lib_a-lseekr.o) (_lseek)
c:/program files (x86)/gnu tools arm embedded/9 2019-q4-major/bin/../lib/gcc/arm-none-eabi/9.2.1/../../../../arm-none-eabi/lib/thumb/v7-m/nofp\libnosys.a(read.o)
                              c:/program files (x86)/gnu tools arm embedded/9 2019-q4-major/bin/../lib/gcc/arm-none-eabi/9.2.1/../../../../arm-none-eabi/lib/thumb/v7-m/nofp\libc_nano.a(lib_a-readr.o) (_read)
c:/program files (x86)/gnu tools arm embedded/9 2019-q4-major/bin/../lib/gcc/arm-none-eabi/9.2.1/../../../../arm-none-eabi/lib/thumb/v7-m/nofp\libnosys.a(sbrk.o)
                              c:/program files (x86)/gnu tools arm embedded/9 2019-q4-major/bin/../lib/gcc/arm-none-eabi/9.2.1/../../../../arm-none-eabi/lib/thumb/v7-m/nofp\libc_nano.a(lib_a-sbrkr.o) (_sbrk)
c:/program files (x86)/gnu tools arm embedded/9 2019-q4-major/bin/../lib/gcc/arm-none-eabi/9.2.1/../../../../arm-none-eabi/lib/thumb/v7-m/nofp\libnosys.a(_exit.o)
                              c:/program files (x86)/gnu tools arm embedded/9 2019-q4-major/bin/../lib/gcc/arm-none-eabi/9.2.1/../../../../arm-none-eabi/lib/thumb/v7-m/nofp\libc_nano.a(lib_a-exit.o) (_exit)
./Lib\libsw_i2c0.a(sw_i2c0.o)
                              build/main.o (SW_I2C0_Init)
./Lib\libsw_i2c1.a(sw_i2c1.o)
                              build/main.o (SW_I2C1_Init)
./Lib\libsw_i2c2.a(sw_i2c2.o)
                              build/main.o (SW_I2C2_Init)
./Lib\libsw_i2c3.a(sw_i2c3.o)
                              build/main.o (SW_I2C3_Init)

Allocating common symbols
Common symbol       size              file

COCRX4              0xc               build/TP2802.o
gaHDMI_MapWindowIndex
                    0x4               build/VS4210.o
__lock___atexit_recursive_mutex
                    0x1               c:/program files (x86)/gnu tools arm embedded/9 2019-q4-major/bin/../lib/gcc/arm-none-eabi/9.2.1/../../../../arm-none-eabi/lib/thumb/v7-m/nofp\libc_nano.a(lib_a-lock.o)
MenuChild           0x4               build/VX_OSD_Simple.o
argv                0x1c              build/monitor.o
CurCH               0x1               build/TP2802.o
__lock___arc4random_mutex
                    0x1               c:/program files (x86)/gnu tools arm embedded/9 2019-q4-major/bin/../lib/gcc/arm-none-eabi/9.2.1/../../../../arm-none-eabi/lib/thumb/v7-m/nofp\libc_nano.a(lib_a-lock.o)
gWindowNum          0x1               build/VS4210.o
Priority            0x1               build/main.o
errno               0x4               c:/program files (x86)/gnu tools arm embedded/9 2019-q4-major/bin/../lib/gcc/arm-none-eabi/9.2.1/../../../../arm-none-eabi/lib/thumb/v7-m/nofp\libc_nano.a(lib_a-reent.o)
std                 0x4               build/TP2802.o
monstr              0x1e              build/monitor.o
AHDcmd2             0x1               build/TP2802.o
TVI_Chksum          0x1               build/TP2802.o
coc_cursor          0x1               build/keyremo.o
presetNum           0x1               build/TP2802.o
ManVidResRx         0x1               build/TP2802.o
cur_osdwin          0x1               build/keyremo.o
flag_AUDIO          0x4               build/TP2802.o
KeyReady            0x4               build/keyremo.o
CAMR_M              0x1               build/main.o
COCRX2              0xc               build/TP2802.o
PTZ_buf             0x10              build/TP2802.o
g4210VinIndex       0x1               build/VS4210.o
uwTick              0x4               build/stm32f1xx_hal.o
pFlash              0x20              build/stm32f1xx_hal_flash.o
__lock___env_recursive_mutex
                    0x1               c:/program files (x86)/gnu tools arm embedded/9 2019-q4-major/bin/../lib/gcc/arm-none-eabi/9.2.1/../../../../arm-none-eabi/lib/thumb/v7-m/nofp\libc_nano.a(lib_a-lock.o)
buf_tpms            0x63              build/TD5300.o
__lock___sinit_recursive_mutex
                    0x1               c:/program files (x86)/gnu tools arm embedded/9 2019-q4-major/bin/../lib/gcc/arm-none-eabi/9.2.1/../../../../arm-none-eabi/lib/thumb/v7-m/nofp\libc_nano.a(lib_a-lock.o)
CAMC_M              0x1               build/main.o
htim3               0x40              build/main.o
state               0x4               build/TP2802.o
egain               0x10              build/TP2802.o
gskipsleepflg       0x1               build/VX_swi2c.o
flag_MEGA           0x4               build/TP2802.o
crc                 0x1               build/TP2802.o
__lock___malloc_recursive_mutex
                    0x1               c:/program files (x86)/gnu tools arm embedded/9 2019-q4-major/bin/../lib/gcc/arm-none-eabi/9.2.1/../../../../arm-none-eabi/lib/thumb/v7-m/nofp\libc_nano.a(lib_a-lock.o)
bSignal             0x4               build/VS4210.o
tpRxD               0x1a              build/TP2802.o
bytGarbberLiner     0x1               build/main.o
AHDcmd4             0x1               build/TP2802.o
hadc1               0x30              build/main.o
flag_LOCKED         0x1               build/TP2802.o
g_stTimerEvent      0x50              build/SysTimer.o
mode                0x4               build/TP2802.o
sywd                0x4               build/TP2802.o
flag_CVBS           0x4               build/TP2802.o
BatteryVoltage      0x4               build/SysTimer.o
NowModeState        0x1               build/keyremo.o
TVII2CAddress       0x1               build/TP2802.o
huart1              0x40              build/main.o
MonIndex            0x1               build/monitor.o
MenuTouchSel        0x1               build/main.o
BarRange            0x4               build/VX_OSD_Simple.o
ptztxflag           0x4               build/TP2802.o
TouchP              0x1               build/keyremo.o
TVI_Command         0x1               build/TP2802.o
CameraVolt          0x1               build/SysTimer.o
SelectModeType      0x1               build/main.o
MenuTitle           0x4               build/VX_OSD_Simple.o
COCRX1              0xc               build/TP2802.o
DebugLevel          0x1               build/main.o
gbVXIS_InputMode    0x4               build/VS4210.o
COCRX3              0xc               build/TP2802.o
CAM_PTZ_RUN_flag    0x4               build/keyremo.o
revision            0x1               build/TP2802.o
RS_buf              0x1e              build/monitor.o
DVR_buf             0x1e              build/monitor.o
RS2_buf             0x1e              build/monitor.o
cursor_change       0x1               build/keyremo.o
CAMD_M              0x1               build/main.o
RepeatKey           0x4               build/keyremo.o
PtzTxChNum          0x1               build/TP2802.o
TriggerMode         0x1               build/keyremo.o
count               0x4               build/TP2802.o
MenuStack           0x10              build/VX_OSD_Simple.o
PTZ_pelco           0x2               build/TP2802.o
cursor_item         0x1               build/keyremo.o
MonWdata            0x1               build/monitor.o
AHDcmd1             0x1               build/TP2802.o
CAMB_M              0x1               build/main.o
htim2               0x40              build/main.o
gbVXIS_OuputSize    0x1               build/VS4210.o
title_item          0x1               build/keyremo.o
huart2              0x40              build/main.o
__lock___at_quick_exit_mutex
                    0x1               c:/program files (x86)/gnu tools arm embedded/9 2019-q4-major/bin/../lib/gcc/arm-none-eabi/9.2.1/../../../../arm-none-eabi/lib/thumb/v7-m/nofp\libc_nano.a(lib_a-lock.o)
CAMA_M              0x1               build/main.o
Key                 0x1               build/keyremo.o
g_stPowerInfo       0x2               build/SysTimer.o
AHDcmd3             0x1               build/TP2802.o
VideoSave           0x4               build/TP2802.o
TVI_speed           0x1               build/TP2802.o
__lock___dd_hash_mutex
                    0x1               c:/program files (x86)/gnu tools arm embedded/9 2019-q4-major/bin/../lib/gcc/arm-none-eabi/9.2.1/../../../../arm-none-eabi/lib/thumb/v7-m/nofp\libc_nano.a(lib_a-lock.o)
__lock___tz_mutex   0x1               c:/program files (x86)/gnu tools arm embedded/9 2019-q4-major/bin/../lib/gcc/arm-none-eabi/9.2.1/../../../../arm-none-eabi/lib/thumb/v7-m/nofp\libc_nano.a(lib_a-lock.o)
MonRdata            0x1               build/monitor.o
CurRes              0x1               build/TP2802.o
chip                0x1               build/TP2802.o
ManVidRes           0x1               build/main.o
lock_keycnt         0x1               build/keyremo.o
OSDMenuLevel        0x1               build/keyremo.o
ChangeKey           0x4               build/keyremo.o
pVS4210_JointKind1  0xa               build/main.o
BatteryBTH          0x4               build/SysTimer.o
__lock___sfp_recursive_mutex
                    0x1               c:/program files (x86)/gnu tools arm embedded/9 2019-q4-major/bin/../lib/gcc/arm-none-eabi/9.2.1/../../../../arm-none-eabi/lib/thumb/v7-m/nofp\libc_nano.a(lib_a-lock.o)
TimeStep            0x1               build/main.o

Discarded input sections

 .text          0x00000000        0x0 c:/program files (x86)/gnu tools arm embedded/9 2019-q4-major/bin/../lib/gcc/arm-none-eabi/9.2.1/thumb/v7-m/nofp/crti.o
 .data          0x00000000        0x0 c:/program files (x86)/gnu tools arm embedded/9 2019-q4-major/bin/../lib/gcc/arm-none-eabi/9.2.1/thumb/v7-m/nofp/crti.o
 .bss           0x00000000        0x0 c:/program files (x86)/gnu tools arm embedded/9 2019-q4-major/bin/../lib/gcc/arm-none-eabi/9.2.1/thumb/v7-m/nofp/crti.o
 .data          0x00000000        0x4 c:/program files (x86)/gnu tools arm embedded/9 2019-q4-major/bin/../lib/gcc/arm-none-eabi/9.2.1/thumb/v7-m/nofp/crtbegin.o
 .text          0x00000000       0x74 c:/program files (x86)/gnu tools arm embedded/9 2019-q4-major/bin/../lib/gcc/arm-none-eabi/9.2.1/../../../../arm-none-eabi/lib/thumb/v7-m/nofp/crt0.o
 .data          0x00000000        0x0 c:/program files (x86)/gnu tools arm embedded/9 2019-q4-major/bin/../lib/gcc/arm-none-eabi/9.2.1/../../../../arm-none-eabi/lib/thumb/v7-m/nofp/crt0.o
 .bss           0x00000000        0x0 c:/program files (x86)/gnu tools arm embedded/9 2019-q4-major/bin/../lib/gcc/arm-none-eabi/9.2.1/../../../../arm-none-eabi/lib/thumb/v7-m/nofp/crt0.o
 .ARM.extab     0x00000000        0x0 c:/program files (x86)/gnu tools arm embedded/9 2019-q4-major/bin/../lib/gcc/arm-none-eabi/9.2.1/../../../../arm-none-eabi/lib/thumb/v7-m/nofp/crt0.o
 .ARM.exidx     0x00000000        0x8 c:/program files (x86)/gnu tools arm embedded/9 2019-q4-major/bin/../lib/gcc/arm-none-eabi/9.2.1/../../../../arm-none-eabi/lib/thumb/v7-m/nofp/crt0.o
 .ARM.attributes
                0x00000000       0x1b c:/program files (x86)/gnu tools arm embedded/9 2019-q4-major/bin/../lib/gcc/arm-none-eabi/9.2.1/../../../../arm-none-eabi/lib/thumb/v7-m/nofp/crt0.o
 .text          0x00000000        0x0 build/main.o
 .data          0x00000000        0x0 build/main.o
 .bss           0x00000000        0x0 build/main.o
 .rodata.GetRS232_CMD.str1.4
                0x00000000       0x27 build/main.o
 .text.GetRS232_CMD
                0x00000000       0x74 build/main.o
 .text.Error_Handler
                0x00000000        0x2 build/main.o
 .bss.DebugFlg  0x00000000        0x4 build/main.o
 .bss.IR_Code   0x00000000        0x1 build/main.o
 .bss.PreIR_Code
                0x00000000        0x1 build/main.o
 .bss.RxBufIndex
                0x00000000        0x4 build/main.o
 .bss.Rx_indx   0x00000000        0x4 build/main.o
 .bss.RxiCount  0x00000000        0x4 build/main.o
 .bss.Transfer_cplt
                0x00000000        0x1 build/main.o
 .bss.TxiCount  0x00000000        0x4 build/main.o
 .bss.gRxbuf    0x00000000       0x32 build/main.o
 .bss.u8PowerFlg
                0x00000000        0x1 build/main.o
 .data.gRxLoopFlg
                0x00000000        0x1 build/main.o
 .text          0x00000000        0x0 build/stm32f1xx_it.o
 .data          0x00000000        0x0 build/stm32f1xx_it.o
 .bss           0x00000000        0x0 build/stm32f1xx_it.o
 .text          0x00000000        0x0 build/stm32f1xx_hal_msp.o
 .data          0x00000000        0x0 build/stm32f1xx_hal_msp.o
 .bss           0x00000000        0x0 build/stm32f1xx_hal_msp.o
 .text.HAL_TIM_Base_MspDeInit
                0x00000000       0x28 build/stm32f1xx_hal_msp.o
 .text.HAL_UART_MspDeInit
                0x00000000       0x5c build/stm32f1xx_hal_msp.o
 .text.HAL_ADC_MspDeInit
                0x00000000       0x2c build/stm32f1xx_hal_msp.o
 .text.HAL_TIM_PWM_MspDeInit
                0x00000000       0x1c build/stm32f1xx_hal_msp.o
 .text          0x00000000        0x0 build/stm32f1xx_hal_gpio_ex.o
 .data          0x00000000        0x0 build/stm32f1xx_hal_gpio_ex.o
 .bss           0x00000000        0x0 build/stm32f1xx_hal_gpio_ex.o
 .text.HAL_GPIOEx_ConfigEventout
                0x00000000       0x14 build/stm32f1xx_hal_gpio_ex.o
 .text.HAL_GPIOEx_EnableEventout
                0x00000000       0x10 build/stm32f1xx_hal_gpio_ex.o
 .text.HAL_GPIOEx_DisableEventout
                0x00000000       0x10 build/stm32f1xx_hal_gpio_ex.o
 .debug_info    0x00000000      0x262 build/stm32f1xx_hal_gpio_ex.o
 .debug_abbrev  0x00000000      0x125 build/stm32f1xx_hal_gpio_ex.o
 .debug_loc     0x00000000       0x25 build/stm32f1xx_hal_gpio_ex.o
 .debug_aranges
                0x00000000       0x30 build/stm32f1xx_hal_gpio_ex.o
 .debug_ranges  0x00000000       0x20 build/stm32f1xx_hal_gpio_ex.o
 .debug_line    0x00000000      0x225 build/stm32f1xx_hal_gpio_ex.o
 .debug_str     0x00000000      0x315 build/stm32f1xx_hal_gpio_ex.o
 .comment       0x00000000       0x7a build/stm32f1xx_hal_gpio_ex.o
 .debug_frame   0x00000000       0x40 build/stm32f1xx_hal_gpio_ex.o
 .ARM.attributes
                0x00000000       0x2d build/stm32f1xx_hal_gpio_ex.o
 .text          0x00000000        0x0 build/stm32f1xx_hal_tim.o
 .data          0x00000000        0x0 build/stm32f1xx_hal_tim.o
 .bss           0x00000000        0x0 build/stm32f1xx_hal_tim.o
 .text.TIM_TI2_SetConfig
                0x00000000       0x34 build/stm32f1xx_hal_tim.o
 .text.TIM_TI3_SetConfig
                0x00000000       0x32 build/stm32f1xx_hal_tim.o
 .text.TIM_TI4_SetConfig
                0x00000000       0x34 build/stm32f1xx_hal_tim.o
 .text.HAL_TIM_Base_MspInit
                0x00000000        0x2 build/stm32f1xx_hal_tim.o
 .text.HAL_TIM_Base_MspDeInit
                0x00000000        0x2 build/stm32f1xx_hal_tim.o
 .text.HAL_TIM_Base_DeInit
                0x00000000       0x3a build/stm32f1xx_hal_tim.o
 .text.HAL_TIM_Base_Start
                0x00000000       0x24 build/stm32f1xx_hal_tim.o
 .text.HAL_TIM_Base_Stop
                0x00000000       0x2e build/stm32f1xx_hal_tim.o
 .text.HAL_TIM_Base_Stop_IT
                0x00000000       0x2c build/stm32f1xx_hal_tim.o
 .text.HAL_TIM_Base_Start_DMA
                0x00000000       0x78 build/stm32f1xx_hal_tim.o
 .text.HAL_TIM_Base_Stop_DMA
                0x00000000       0x3c build/stm32f1xx_hal_tim.o
 .text.HAL_TIM_OC_MspInit
                0x00000000        0x2 build/stm32f1xx_hal_tim.o
 .text.HAL_TIM_OC_MspDeInit
                0x00000000        0x2 build/stm32f1xx_hal_tim.o
 .text.HAL_TIM_OC_DeInit
                0x00000000       0x3a build/stm32f1xx_hal_tim.o
 .text.HAL_TIM_PWM_MspInit
                0x00000000        0x2 build/stm32f1xx_hal_tim.o
 .text.HAL_TIM_PWM_MspDeInit
                0x00000000        0x2 build/stm32f1xx_hal_tim.o
 .text.HAL_TIM_PWM_DeInit
                0x00000000       0x3a build/stm32f1xx_hal_tim.o
 .text.HAL_TIM_IC_MspInit
                0x00000000        0x2 build/stm32f1xx_hal_tim.o
 .text.HAL_TIM_IC_MspDeInit
                0x00000000        0x2 build/stm32f1xx_hal_tim.o
 .text.HAL_TIM_IC_DeInit
                0x00000000       0x3a build/stm32f1xx_hal_tim.o
 .text.HAL_TIM_OnePulse_MspInit
                0x00000000        0x2 build/stm32f1xx_hal_tim.o
 .text.HAL_TIM_OnePulse_MspDeInit
                0x00000000        0x2 build/stm32f1xx_hal_tim.o
 .text.HAL_TIM_OnePulse_DeInit
                0x00000000       0x3a build/stm32f1xx_hal_tim.o
 .text.HAL_TIM_Encoder_MspInit
                0x00000000        0x2 build/stm32f1xx_hal_tim.o
 .text.HAL_TIM_Encoder_MspDeInit
                0x00000000        0x2 build/stm32f1xx_hal_tim.o
 .text.HAL_TIM_Encoder_DeInit
                0x00000000       0x3a build/stm32f1xx_hal_tim.o
 .text.HAL_TIM_DMABurst_WriteStart
                0x00000000      0x1b0 build/stm32f1xx_hal_tim.o
 .text.HAL_TIM_DMABurst_WriteStop
                0x00000000       0x7e build/stm32f1xx_hal_tim.o
 .text.HAL_TIM_DMABurst_ReadStart
                0x00000000      0x1b0 build/stm32f1xx_hal_tim.o
 .text.HAL_TIM_DMABurst_ReadStop
                0x00000000       0x7e build/stm32f1xx_hal_tim.o
 .text.HAL_TIM_GenerateEvent
                0x00000000       0x26 build/stm32f1xx_hal_tim.o
 .text.HAL_TIM_ConfigTI1Input
                0x00000000       0x10 build/stm32f1xx_hal_tim.o
 .text.HAL_TIM_ReadCapturedValue
                0x00000000       0x32 build/stm32f1xx_hal_tim.o
 .text.HAL_TIM_PeriodElapsedCallback
                0x00000000        0x2 build/stm32f1xx_hal_tim.o
 .text.TIM_DMAPeriodElapsedCplt
                0x00000000       0x10 build/stm32f1xx_hal_tim.o
 .text.HAL_TIM_PeriodElapsedHalfCpltCallback
                0x00000000        0x2 build/stm32f1xx_hal_tim.o
 .text.TIM_DMAPeriodElapsedHalfCplt
                0x00000000       0x10 build/stm32f1xx_hal_tim.o
 .text.TIM_DMACaptureCplt
                0x00000000       0x44 build/stm32f1xx_hal_tim.o
 .text.HAL_TIM_IC_CaptureHalfCpltCallback
                0x00000000        0x2 build/stm32f1xx_hal_tim.o
 .text.TIM_DMACaptureHalfCplt
                0x00000000       0x44 build/stm32f1xx_hal_tim.o
 .text.TIM_DMADelayPulseCplt
                0x00000000       0x44 build/stm32f1xx_hal_tim.o
 .text.HAL_TIM_PWM_PulseFinishedHalfCpltCallback
                0x00000000        0x2 build/stm32f1xx_hal_tim.o
 .text.TIM_DMADelayPulseHalfCplt
                0x00000000       0x44 build/stm32f1xx_hal_tim.o
 .text.TIM_DMATriggerCplt
                0x00000000       0x10 build/stm32f1xx_hal_tim.o
 .text.HAL_TIM_TriggerHalfCpltCallback
                0x00000000        0x2 build/stm32f1xx_hal_tim.o
 .text.TIM_DMATriggerHalfCplt
                0x00000000       0x10 build/stm32f1xx_hal_tim.o
 .text.HAL_TIM_ErrorCallback
                0x00000000        0x2 build/stm32f1xx_hal_tim.o
 .text.TIM_DMAError
                0x00000000       0x10 build/stm32f1xx_hal_tim.o
 .text.HAL_TIM_Base_GetState
                0x00000000        0x6 build/stm32f1xx_hal_tim.o
 .text.HAL_TIM_OC_GetState
                0x00000000        0x6 build/stm32f1xx_hal_tim.o
 .text.HAL_TIM_PWM_GetState
                0x00000000        0x6 build/stm32f1xx_hal_tim.o
 .text.HAL_TIM_IC_GetState
                0x00000000        0x6 build/stm32f1xx_hal_tim.o
 .text.HAL_TIM_OnePulse_GetState
                0x00000000        0x6 build/stm32f1xx_hal_tim.o
 .text.HAL_TIM_Encoder_GetState
                0x00000000        0x6 build/stm32f1xx_hal_tim.o
 .text.HAL_TIM_OC_Init
                0x00000000       0x34 build/stm32f1xx_hal_tim.o
 .text.HAL_TIM_IC_Init
                0x00000000       0x34 build/stm32f1xx_hal_tim.o
 .text.HAL_TIM_OnePulse_Init
                0x00000000       0x48 build/stm32f1xx_hal_tim.o
 .text.HAL_TIM_Encoder_Init
                0x00000000       0x9c build/stm32f1xx_hal_tim.o
 .text.HAL_TIM_OC_ConfigChannel
                0x00000000       0x5e build/stm32f1xx_hal_tim.o
 .text.TIM_TI1_SetConfig
                0x00000000       0x58 build/stm32f1xx_hal_tim.o
 .text.HAL_TIM_IC_ConfigChannel
                0x00000000       0xc0 build/stm32f1xx_hal_tim.o
 .text.HAL_TIM_OnePulse_ConfigChannel
                0x00000000       0xf2 build/stm32f1xx_hal_tim.o
 .text.HAL_TIM_ConfigOCrefClear
                0x00000000       0xe4 build/stm32f1xx_hal_tim.o
 .text.TIM_SlaveTimer_SetConfig
                0x00000000       0x8e build/stm32f1xx_hal_tim.o
 .text.HAL_TIM_SlaveConfigSynchro
                0x00000000       0x52 build/stm32f1xx_hal_tim.o
 .text.HAL_TIM_SlaveConfigSynchro_IT
                0x00000000       0x52 build/stm32f1xx_hal_tim.o
 .text.HAL_TIM_OC_Start
                0x00000000       0x3c build/stm32f1xx_hal_tim.o
 .text.HAL_TIM_OC_Stop
                0x00000000       0x58 build/stm32f1xx_hal_tim.o
 .text.HAL_TIM_OC_Start_IT
                0x00000000       0x80 build/stm32f1xx_hal_tim.o
 .text.HAL_TIM_OC_Stop_IT
                0x00000000       0x9c build/stm32f1xx_hal_tim.o
 .text.HAL_TIM_OC_Start_DMA
                0x00000000      0x144 build/stm32f1xx_hal_tim.o
 .text.HAL_TIM_OC_Stop_DMA
                0x00000000       0xc0 build/stm32f1xx_hal_tim.o
 .text.HAL_TIM_PWM_Stop
                0x00000000       0x60 build/stm32f1xx_hal_tim.o
 .text.HAL_TIM_PWM_Start_IT
                0x00000000       0x80 build/stm32f1xx_hal_tim.o
 .text.HAL_TIM_PWM_Stop_IT
                0x00000000       0x9c build/stm32f1xx_hal_tim.o
 .text.HAL_TIM_PWM_Start_DMA
                0x00000000      0x144 build/stm32f1xx_hal_tim.o
 .text.HAL_TIM_PWM_Stop_DMA
                0x00000000       0xc0 build/stm32f1xx_hal_tim.o
 .text.HAL_TIM_IC_Start
                0x00000000       0x24 build/stm32f1xx_hal_tim.o
 .text.HAL_TIM_IC_Stop
                0x00000000       0x2e build/stm32f1xx_hal_tim.o
 .text.HAL_TIM_IC_Start_IT
                0x00000000       0x68 build/stm32f1xx_hal_tim.o
 .text.HAL_TIM_IC_Stop_IT
                0x00000000       0x72 build/stm32f1xx_hal_tim.o
 .text.HAL_TIM_IC_Start_DMA
                0x00000000      0x12c build/stm32f1xx_hal_tim.o
 .text.HAL_TIM_IC_Stop_DMA
                0x00000000       0x94 build/stm32f1xx_hal_tim.o
 .text.HAL_TIM_OnePulse_Start
                0x00000000       0x34 build/stm32f1xx_hal_tim.o
 .text.HAL_TIM_OnePulse_Stop
                0x00000000       0x64 build/stm32f1xx_hal_tim.o
 .text.HAL_TIM_OnePulse_Start_IT
                0x00000000       0x48 build/stm32f1xx_hal_tim.o
 .text.HAL_TIM_OnePulse_Stop_IT
                0x00000000       0x78 build/stm32f1xx_hal_tim.o
 .text.HAL_TIM_Encoder_Start
                0x00000000       0x44 build/stm32f1xx_hal_tim.o
 .text.HAL_TIM_Encoder_Stop
                0x00000000       0x58 build/stm32f1xx_hal_tim.o
 .text.HAL_TIM_Encoder_Start_IT
                0x00000000       0x6c build/stm32f1xx_hal_tim.o
 .text.HAL_TIM_Encoder_Stop_IT
                0x00000000       0x86 build/stm32f1xx_hal_tim.o
 .text.HAL_TIM_Encoder_Start_DMA
                0x00000000      0x15c build/stm32f1xx_hal_tim.o
 .text.HAL_TIM_Encoder_Stop_DMA
                0x00000000       0xa0 build/stm32f1xx_hal_tim.o
 .text          0x00000000        0x0 build/stm32f1xx_hal_tim_ex.o
 .data          0x00000000        0x0 build/stm32f1xx_hal_tim_ex.o
 .bss           0x00000000        0x0 build/stm32f1xx_hal_tim_ex.o
 .text.TIM_CCxNChannelCmd
                0x00000000       0x22 build/stm32f1xx_hal_tim_ex.o
 .text.HAL_TIMEx_HallSensor_MspInit
                0x00000000        0x2 build/stm32f1xx_hal_tim_ex.o
 .text.HAL_TIMEx_HallSensor_Init
                0x00000000       0xc0 build/stm32f1xx_hal_tim_ex.o
 .text.HAL_TIMEx_HallSensor_MspDeInit
                0x00000000        0x2 build/stm32f1xx_hal_tim_ex.o
 .text.HAL_TIMEx_HallSensor_DeInit
                0x00000000       0x3a build/stm32f1xx_hal_tim_ex.o
 .text.HAL_TIMEx_HallSensor_Start
                0x00000000       0x26 build/stm32f1xx_hal_tim_ex.o
 .text.HAL_TIMEx_HallSensor_Stop
                0x00000000       0x30 build/stm32f1xx_hal_tim_ex.o
 .text.HAL_TIMEx_HallSensor_Start_IT
                0x00000000       0x30 build/stm32f1xx_hal_tim_ex.o
 .text.HAL_TIMEx_HallSensor_Stop_IT
                0x00000000       0x3a build/stm32f1xx_hal_tim_ex.o
 .text.HAL_TIMEx_HallSensor_Start_DMA
                0x00000000       0x88 build/stm32f1xx_hal_tim_ex.o
 .text.HAL_TIMEx_HallSensor_Stop_DMA
                0x00000000       0x40 build/stm32f1xx_hal_tim_ex.o
 .text.HAL_TIMEx_OCN_Start
                0x00000000       0x2e build/stm32f1xx_hal_tim_ex.o
 .text.HAL_TIMEx_OCN_Stop
                0x00000000       0x4c build/stm32f1xx_hal_tim_ex.o
 .text.HAL_TIMEx_OCN_Start_IT
                0x00000000       0x66 build/stm32f1xx_hal_tim_ex.o
 .text.HAL_TIMEx_OCN_Stop_IT
                0x00000000       0x90 build/stm32f1xx_hal_tim_ex.o
 .text.HAL_TIMEx_OCN_Start_DMA
                0x00000000      0x100 build/stm32f1xx_hal_tim_ex.o
 .text.HAL_TIMEx_OCN_Stop_DMA
                0x00000000       0x96 build/stm32f1xx_hal_tim_ex.o
 .text.HAL_TIMEx_PWMN_Start
                0x00000000       0x2e build/stm32f1xx_hal_tim_ex.o
 .text.HAL_TIMEx_PWMN_Stop
                0x00000000       0x4c build/stm32f1xx_hal_tim_ex.o
 .text.HAL_TIMEx_PWMN_Start_IT
                0x00000000       0x66 build/stm32f1xx_hal_tim_ex.o
 .text.HAL_TIMEx_PWMN_Stop_IT
                0x00000000       0x90 build/stm32f1xx_hal_tim_ex.o
 .text.HAL_TIMEx_PWMN_Start_DMA
                0x00000000      0x100 build/stm32f1xx_hal_tim_ex.o
 .text.HAL_TIMEx_PWMN_Stop_DMA
                0x00000000       0x96 build/stm32f1xx_hal_tim_ex.o
 .text.HAL_TIMEx_OnePulseN_Start
                0x00000000       0x1a build/stm32f1xx_hal_tim_ex.o
 .text.HAL_TIMEx_OnePulseN_Stop
                0x00000000       0x4c build/stm32f1xx_hal_tim_ex.o
 .text.HAL_TIMEx_OnePulseN_Start_IT
                0x00000000       0x2e build/stm32f1xx_hal_tim_ex.o
 .text.HAL_TIMEx_OnePulseN_Stop_IT
                0x00000000       0x60 build/stm32f1xx_hal_tim_ex.o
 .text.HAL_TIMEx_ConfigCommutEvent
                0x00000000       0x70 build/stm32f1xx_hal_tim_ex.o
 .text.HAL_TIMEx_ConfigCommutEvent_IT
                0x00000000       0x70 build/stm32f1xx_hal_tim_ex.o
 .text.HAL_TIMEx_ConfigCommutEvent_DMA
                0x00000000       0x90 build/stm32f1xx_hal_tim_ex.o
 .text.HAL_TIMEx_ConfigBreakDeadTime
                0x00000000       0x52 build/stm32f1xx_hal_tim_ex.o
 .text.HAL_TIMEx_RemapConfig
                0x00000000        0x4 build/stm32f1xx_hal_tim_ex.o
 .text.TIMEx_DMACommutationCplt
                0x00000000       0x10 build/stm32f1xx_hal_tim_ex.o
 .text.HAL_TIMEx_CommutHalfCpltCallback
                0x00000000        0x2 build/stm32f1xx_hal_tim_ex.o
 .text.TIMEx_DMACommutationHalfCplt
                0x00000000       0x10 build/stm32f1xx_hal_tim_ex.o
 .text.HAL_TIMEx_HallSensor_GetState
                0x00000000        0x6 build/stm32f1xx_hal_tim_ex.o
 .text          0x00000000        0x0 build/stm32f1xx_hal_uart.o
 .data          0x00000000        0x0 build/stm32f1xx_hal_uart.o
 .bss           0x00000000        0x0 build/stm32f1xx_hal_uart.o
 .text.UART_EndTxTransfer
                0x00000000       0x12 build/stm32f1xx_hal_uart.o
 .text.HAL_UART_MspInit
                0x00000000        0x2 build/stm32f1xx_hal_uart.o
 .text.HAL_HalfDuplex_Init
                0x00000000       0x6a build/stm32f1xx_hal_uart.o
 .text.HAL_LIN_Init
                0x00000000       0x80 build/stm32f1xx_hal_uart.o
 .text.HAL_MultiProcessor_Init
                0x00000000       0x8a build/stm32f1xx_hal_uart.o
 .text.HAL_UART_MspDeInit
                0x00000000        0x2 build/stm32f1xx_hal_uart.o
 .text.HAL_UART_DeInit
                0x00000000       0x30 build/stm32f1xx_hal_uart.o
 .text.HAL_UART_Receive
                0x00000000       0xe6 build/stm32f1xx_hal_uart.o
 .text.HAL_UART_Transmit_IT
                0x00000000       0x48 build/stm32f1xx_hal_uart.o
 .text.HAL_UART_Transmit_DMA
                0x00000000       0x8c build/stm32f1xx_hal_uart.o
 .text.HAL_UART_Receive_DMA
                0x00000000       0xa8 build/stm32f1xx_hal_uart.o
 .text.HAL_UART_DMAPause
                0x00000000       0x70 build/stm32f1xx_hal_uart.o
 .text.HAL_UART_DMAResume
                0x00000000       0x76 build/stm32f1xx_hal_uart.o
 .text.HAL_UART_DMAStop
                0x00000000       0x64 build/stm32f1xx_hal_uart.o
 .text.HAL_UART_Abort
                0x00000000       0x94 build/stm32f1xx_hal_uart.o
 .text.HAL_UART_AbortTransmit
                0x00000000       0x4e build/stm32f1xx_hal_uart.o
 .text.HAL_UART_AbortReceive
                0x00000000       0x58 build/stm32f1xx_hal_uart.o
 .text.UART_DMATransmitCplt
                0x00000000       0x30 build/stm32f1xx_hal_uart.o
 .text.HAL_UART_TxHalfCpltCallback
                0x00000000        0x2 build/stm32f1xx_hal_uart.o
 .text.UART_DMATxHalfCplt
                0x00000000        0xa build/stm32f1xx_hal_uart.o
 .text.HAL_UART_RxCpltCallback
                0x00000000        0x2 build/stm32f1xx_hal_uart.o
 .text.UART_DMAReceiveCplt
                0x00000000       0x3e build/stm32f1xx_hal_uart.o
 .text.HAL_UART_RxHalfCpltCallback
                0x00000000        0x2 build/stm32f1xx_hal_uart.o
 .text.UART_DMARxHalfCplt
                0x00000000        0xa build/stm32f1xx_hal_uart.o
 .text.UART_DMAError
                0x00000000       0x58 build/stm32f1xx_hal_uart.o
 .text.HAL_UART_AbortCpltCallback
                0x00000000        0x2 build/stm32f1xx_hal_uart.o
 .text.HAL_UART_Abort_IT
                0x00000000       0xc4 build/stm32f1xx_hal_uart.o
 .text.UART_DMARxAbortCallback
                0x00000000       0x2a build/stm32f1xx_hal_uart.o
 .text.UART_DMATxAbortCallback
                0x00000000       0x2a build/stm32f1xx_hal_uart.o
 .text.HAL_UART_AbortTransmitCpltCallback
                0x00000000        0x2 build/stm32f1xx_hal_uart.o
 .text.HAL_UART_AbortTransmit_IT
                0x00000000       0x60 build/stm32f1xx_hal_uart.o
 .text.UART_DMATxOnlyAbortCallback
                0x00000000       0x14 build/stm32f1xx_hal_uart.o
 .text.HAL_UART_AbortReceiveCpltCallback
                0x00000000        0x2 build/stm32f1xx_hal_uart.o
 .text.HAL_UART_AbortReceive_IT
                0x00000000       0x68 build/stm32f1xx_hal_uart.o
 .text.UART_DMARxOnlyAbortCallback
                0x00000000       0x14 build/stm32f1xx_hal_uart.o
 .text.HAL_LIN_SendBreak
                0x00000000       0x32 build/stm32f1xx_hal_uart.o
 .text.HAL_MultiProcessor_EnterMuteMode
                0x00000000       0x32 build/stm32f1xx_hal_uart.o
 .text.HAL_MultiProcessor_ExitMuteMode
                0x00000000       0x32 build/stm32f1xx_hal_uart.o
 .text.HAL_HalfDuplex_EnableTransmitter
                0x00000000       0x36 build/stm32f1xx_hal_uart.o
 .text.HAL_HalfDuplex_EnableReceiver
                0x00000000       0x36 build/stm32f1xx_hal_uart.o
 .text.HAL_UART_GetState
                0x00000000        0xc build/stm32f1xx_hal_uart.o
 .text.HAL_UART_GetError
                0x00000000        0x4 build/stm32f1xx_hal_uart.o
 .text          0x00000000        0x0 build/stm32f1xx_hal.o
 .data          0x00000000        0x0 build/stm32f1xx_hal.o
 .bss           0x00000000        0x0 build/stm32f1xx_hal.o
 .text.HAL_MspInit
                0x00000000        0x2 build/stm32f1xx_hal.o
 .text.HAL_MspDeInit
                0x00000000        0x2 build/stm32f1xx_hal.o
 .text.HAL_DeInit
                0x00000000       0x20 build/stm32f1xx_hal.o
 .text.HAL_GetTickPrio
                0x00000000        0xc build/stm32f1xx_hal.o
 .text.HAL_SetTickFreq
                0x00000000       0x28 build/stm32f1xx_hal.o
 .text.HAL_GetTickFreq
                0x00000000        0xc build/stm32f1xx_hal.o
 .text.HAL_SuspendTick
                0x00000000       0x10 build/stm32f1xx_hal.o
 .text.HAL_ResumeTick
                0x00000000       0x10 build/stm32f1xx_hal.o
 .text.HAL_GetHalVersion
                0x00000000        0x8 build/stm32f1xx_hal.o
 .text.HAL_GetREVID
                0x00000000        0xc build/stm32f1xx_hal.o
 .text.HAL_GetDEVID
                0x00000000       0x10 build/stm32f1xx_hal.o
 .text.HAL_GetUIDw0
                0x00000000        0xc build/stm32f1xx_hal.o
 .text.HAL_GetUIDw1
                0x00000000        0xc build/stm32f1xx_hal.o
 .text.HAL_GetUIDw2
                0x00000000        0xc build/stm32f1xx_hal.o
 .text.HAL_DBGMCU_EnableDBGSleepMode
                0x00000000       0x10 build/stm32f1xx_hal.o
 .text.HAL_DBGMCU_DisableDBGSleepMode
                0x00000000       0x10 build/stm32f1xx_hal.o
 .text.HAL_DBGMCU_EnableDBGStopMode
                0x00000000       0x10 build/stm32f1xx_hal.o
 .text.HAL_DBGMCU_DisableDBGStopMode
                0x00000000       0x10 build/stm32f1xx_hal.o
 .text.HAL_DBGMCU_EnableDBGStandbyMode
                0x00000000       0x10 build/stm32f1xx_hal.o
 .text.HAL_DBGMCU_DisableDBGStandbyMode
                0x00000000       0x10 build/stm32f1xx_hal.o
 .text          0x00000000        0x0 build/stm32f1xx_hal_rcc.o
 .data          0x00000000        0x0 build/stm32f1xx_hal_rcc.o
 .bss           0x00000000        0x0 build/stm32f1xx_hal_rcc.o
 .text.HAL_RCC_DeInit
                0x00000000       0xf4 build/stm32f1xx_hal_rcc.o
 .text.HAL_RCC_MCOConfig
                0x00000000       0x4c build/stm32f1xx_hal_rcc.o
 .text.HAL_RCC_EnableCSS
                0x00000000        0xc build/stm32f1xx_hal_rcc.o
 .text.HAL_RCC_DisableCSS
                0x00000000        0xc build/stm32f1xx_hal_rcc.o
 .text.HAL_RCC_GetOscConfig
                0x00000000       0xb4 build/stm32f1xx_hal_rcc.o
 .text.HAL_RCC_GetClockConfig
                0x00000000       0x3c build/stm32f1xx_hal_rcc.o
 .text.HAL_RCC_CSSCallback
                0x00000000        0x2 build/stm32f1xx_hal_rcc.o
 .text.HAL_RCC_NMI_IRQHandler
                0x00000000       0x24 build/stm32f1xx_hal_rcc.o
 .text          0x00000000        0x0 build/stm32f1xx_hal_rcc_ex.o
 .data          0x00000000        0x0 build/stm32f1xx_hal_rcc_ex.o
 .bss           0x00000000        0x0 build/stm32f1xx_hal_rcc_ex.o
 .text.HAL_RCCEx_PeriphCLKConfig
                0x00000000      0x114 build/stm32f1xx_hal_rcc_ex.o
 .text.HAL_RCCEx_GetPeriphCLKConfig
                0x00000000       0x2c build/stm32f1xx_hal_rcc_ex.o
 .text          0x00000000        0x0 build/stm32f1xx_hal_gpio.o
 .data          0x00000000        0x0 build/stm32f1xx_hal_gpio.o
 .bss           0x00000000        0x0 build/stm32f1xx_hal_gpio.o
 .text.HAL_GPIO_DeInit
                0x00000000       0xfc build/stm32f1xx_hal_gpio.o
 .text.HAL_GPIO_ReadPin
                0x00000000        0xe build/stm32f1xx_hal_gpio.o
 .text.HAL_GPIO_TogglePin
                0x00000000        0xe build/stm32f1xx_hal_gpio.o
 .text.HAL_GPIO_LockPin
                0x00000000       0x2e build/stm32f1xx_hal_gpio.o
 .text.HAL_GPIO_EXTI_Callback
                0x00000000        0x2 build/stm32f1xx_hal_gpio.o
 .text          0x00000000        0x0 build/stm32f1xx_hal_dma.o
 .data          0x00000000        0x0 build/stm32f1xx_hal_dma.o
 .bss           0x00000000        0x0 build/stm32f1xx_hal_dma.o
 .text.DMA_SetConfig
                0x00000000       0x2c build/stm32f1xx_hal_dma.o
 .text.HAL_DMA_Init
                0x00000000       0x6c build/stm32f1xx_hal_dma.o
 .text.HAL_DMA_DeInit
                0x00000000       0x68 build/stm32f1xx_hal_dma.o
 .text.HAL_DMA_Start
                0x00000000       0x50 build/stm32f1xx_hal_dma.o
 .text.HAL_DMA_Start_IT
                0x00000000       0x74 build/stm32f1xx_hal_dma.o
 .text.HAL_DMA_Abort
                0x00000000       0x44 build/stm32f1xx_hal_dma.o
 .text.HAL_DMA_PollForTransfer
                0x00000000      0x22c build/stm32f1xx_hal_dma.o
 .text.HAL_DMA_IRQHandler
                0x00000000      0x144 build/stm32f1xx_hal_dma.o
 .text.HAL_DMA_RegisterCallback
                0x00000000       0x44 build/stm32f1xx_hal_dma.o
 .text.HAL_DMA_UnRegisterCallback
                0x00000000       0x5a build/stm32f1xx_hal_dma.o
 .text.HAL_DMA_GetState
                0x00000000        0x6 build/stm32f1xx_hal_dma.o
 .text.HAL_DMA_GetError
                0x00000000        0x4 build/stm32f1xx_hal_dma.o
 .text          0x00000000        0x0 build/stm32f1xx_hal_cortex.o
 .data          0x00000000        0x0 build/stm32f1xx_hal_cortex.o
 .bss           0x00000000        0x0 build/stm32f1xx_hal_cortex.o
 .text.HAL_NVIC_DisableIRQ
                0x00000000       0x24 build/stm32f1xx_hal_cortex.o
 .text.HAL_NVIC_SystemReset
                0x00000000       0x24 build/stm32f1xx_hal_cortex.o
 .text.HAL_NVIC_GetPriorityGrouping
                0x00000000       0x10 build/stm32f1xx_hal_cortex.o
 .text.HAL_NVIC_GetPriority
                0x00000000       0x60 build/stm32f1xx_hal_cortex.o
 .text.HAL_NVIC_SetPendingIRQ
                0x00000000       0x1c build/stm32f1xx_hal_cortex.o
 .text.HAL_NVIC_GetPendingIRQ
                0x00000000       0x24 build/stm32f1xx_hal_cortex.o
 .text.HAL_NVIC_ClearPendingIRQ
                0x00000000       0x1c build/stm32f1xx_hal_cortex.o
 .text.HAL_NVIC_GetActive
                0x00000000       0x24 build/stm32f1xx_hal_cortex.o
 .text.HAL_SYSTICK_CLKSourceConfig
                0x00000000       0x20 build/stm32f1xx_hal_cortex.o
 .text.HAL_SYSTICK_Callback
                0x00000000        0x2 build/stm32f1xx_hal_cortex.o
 .text.HAL_SYSTICK_IRQHandler
                0x00000000        0x8 build/stm32f1xx_hal_cortex.o
 .text          0x00000000        0x0 build/stm32f1xx_hal_pwr.o
 .data          0x00000000        0x0 build/stm32f1xx_hal_pwr.o
 .bss           0x00000000        0x0 build/stm32f1xx_hal_pwr.o
 .text.PWR_OverloadWfe
                0x00000000        0x6 build/stm32f1xx_hal_pwr.o
 .text.HAL_PWR_DeInit
                0x00000000       0x18 build/stm32f1xx_hal_pwr.o
 .text.HAL_PWR_EnableBkUpAccess
                0x00000000        0xc build/stm32f1xx_hal_pwr.o
 .text.HAL_PWR_DisableBkUpAccess
                0x00000000        0xc build/stm32f1xx_hal_pwr.o
 .text.HAL_PWR_ConfigPVD
                0x00000000       0x84 build/stm32f1xx_hal_pwr.o
 .text.HAL_PWR_EnablePVD
                0x00000000        0xc build/stm32f1xx_hal_pwr.o
 .text.HAL_PWR_DisablePVD
                0x00000000        0xc build/stm32f1xx_hal_pwr.o
 .text.HAL_PWR_EnableWakeUpPin
                0x00000000       0x18 build/stm32f1xx_hal_pwr.o
 .text.HAL_PWR_DisableWakeUpPin
                0x00000000       0x18 build/stm32f1xx_hal_pwr.o
 .text.HAL_PWR_EnterSLEEPMode
                0x00000000       0x20 build/stm32f1xx_hal_pwr.o
 .text.HAL_PWR_EnterSTOPMode
                0x00000000       0x48 build/stm32f1xx_hal_pwr.o
 .text.HAL_PWR_EnterSTANDBYMode
                0x00000000       0x20 build/stm32f1xx_hal_pwr.o
 .text.HAL_PWR_EnableSleepOnExit
                0x00000000       0x10 build/stm32f1xx_hal_pwr.o
 .text.HAL_PWR_DisableSleepOnExit
                0x00000000       0x10 build/stm32f1xx_hal_pwr.o
 .text.HAL_PWR_EnableSEVOnPend
                0x00000000       0x10 build/stm32f1xx_hal_pwr.o
 .text.HAL_PWR_DisableSEVOnPend
                0x00000000       0x10 build/stm32f1xx_hal_pwr.o
 .text.HAL_PWR_PVDCallback
                0x00000000        0x2 build/stm32f1xx_hal_pwr.o
 .text.HAL_PWR_PVD_IRQHandler
                0x00000000       0x20 build/stm32f1xx_hal_pwr.o
 .debug_info    0x00000000      0x81c build/stm32f1xx_hal_pwr.o
 .debug_abbrev  0x00000000      0x222 build/stm32f1xx_hal_pwr.o
 .debug_loc     0x00000000      0x182 build/stm32f1xx_hal_pwr.o
 .debug_aranges
                0x00000000       0xa8 build/stm32f1xx_hal_pwr.o
 .debug_ranges  0x00000000       0x98 build/stm32f1xx_hal_pwr.o
 .debug_line    0x00000000      0x483 build/stm32f1xx_hal_pwr.o
 .debug_str     0x00000000      0x547 build/stm32f1xx_hal_pwr.o
 .comment       0x00000000       0x7a build/stm32f1xx_hal_pwr.o
 .debug_frame   0x00000000      0x148 build/stm32f1xx_hal_pwr.o
 .ARM.attributes
                0x00000000       0x2d build/stm32f1xx_hal_pwr.o
 .text          0x00000000        0x0 build/stm32f1xx_hal_flash.o
 .data          0x00000000        0x0 build/stm32f1xx_hal_flash.o
 .bss           0x00000000        0x0 build/stm32f1xx_hal_flash.o
 .text.FLASH_Program_HalfWord
                0x00000000       0x1c build/stm32f1xx_hal_flash.o
 .text.FLASH_SetErrorCode
                0x00000000       0x70 build/stm32f1xx_hal_flash.o
 .text.HAL_FLASH_Program_IT
                0x00000000       0x68 build/stm32f1xx_hal_flash.o
 .text.HAL_FLASH_EndOfOperationCallback
                0x00000000        0x2 build/stm32f1xx_hal_flash.o
 .text.HAL_FLASH_OperationErrorCallback
                0x00000000        0x2 build/stm32f1xx_hal_flash.o
 .text.HAL_FLASH_IRQHandler
                0x00000000      0x154 build/stm32f1xx_hal_flash.o
 .text.HAL_FLASH_Unlock
                0x00000000       0x34 build/stm32f1xx_hal_flash.o
 .text.HAL_FLASH_Lock
                0x00000000       0x14 build/stm32f1xx_hal_flash.o
 .text.HAL_FLASH_OB_Unlock
                0x00000000       0x28 build/stm32f1xx_hal_flash.o
 .text.HAL_FLASH_OB_Lock
                0x00000000       0x14 build/stm32f1xx_hal_flash.o
 .text.HAL_FLASH_OB_Launch
                0x00000000        0x8 build/stm32f1xx_hal_flash.o
 .text.HAL_FLASH_GetError
                0x00000000        0xc build/stm32f1xx_hal_flash.o
 .text.FLASH_WaitForLastOperation
                0x00000000       0x68 build/stm32f1xx_hal_flash.o
 .text.HAL_FLASH_Program
                0x00000000       0x9c build/stm32f1xx_hal_flash.o
 .debug_info    0x00000000      0x7d0 build/stm32f1xx_hal_flash.o
 .debug_abbrev  0x00000000      0x2aa build/stm32f1xx_hal_flash.o
 .debug_loc     0x00000000      0x443 build/stm32f1xx_hal_flash.o
 .debug_aranges
                0x00000000       0x88 build/stm32f1xx_hal_flash.o
 .debug_ranges  0x00000000       0x78 build/stm32f1xx_hal_flash.o
 .debug_line    0x00000000      0x7c0 build/stm32f1xx_hal_flash.o
 .debug_str     0x00000000      0x5db build/stm32f1xx_hal_flash.o
 .comment       0x00000000       0x7a build/stm32f1xx_hal_flash.o
 .debug_frame   0x00000000      0x150 build/stm32f1xx_hal_flash.o
 .ARM.attributes
                0x00000000       0x2d build/stm32f1xx_hal_flash.o
 COMMON         0x00000000       0x20 build/stm32f1xx_hal_flash.o
 .text          0x00000000        0x0 build/stm32f1xx_hal_flash_ex.o
 .data          0x00000000        0x0 build/stm32f1xx_hal_flash_ex.o
 .bss           0x00000000        0x0 build/stm32f1xx_hal_flash_ex.o
 .text.FLASH_MassErase
                0x00000000       0x24 build/stm32f1xx_hal_flash_ex.o
 .text.FLASH_OB_GetWRP
                0x00000000        0xc build/stm32f1xx_hal_flash_ex.o
 .text.FLASH_OB_GetRDP
                0x00000000       0x18 build/stm32f1xx_hal_flash_ex.o
 .text.FLASH_OB_GetUser
                0x00000000       0x10 build/stm32f1xx_hal_flash_ex.o
 .text.FLASH_OB_RDP_LevelConfig
                0x00000000       0x68 build/stm32f1xx_hal_flash_ex.o
 .text.FLASH_OB_UserConfig
                0x00000000       0x48 build/stm32f1xx_hal_flash_ex.o
 .text.FLASH_OB_ProgramData
                0x00000000       0x40 build/stm32f1xx_hal_flash_ex.o
 .text.HAL_FLASHEx_OBErase
                0x00000000       0x50 build/stm32f1xx_hal_flash_ex.o
 .text.FLASH_OB_EnableWRP
                0x00000000       0xc0 build/stm32f1xx_hal_flash_ex.o
 .text.FLASH_OB_DisableWRP
                0x00000000       0xc8 build/stm32f1xx_hal_flash_ex.o
 .text.HAL_FLASHEx_OBProgram
                0x00000000       0x9c build/stm32f1xx_hal_flash_ex.o
 .text.HAL_FLASHEx_OBGetConfig
                0x00000000       0x1c build/stm32f1xx_hal_flash_ex.o
 .text.HAL_FLASHEx_OBGetUserData
                0x00000000       0x24 build/stm32f1xx_hal_flash_ex.o
 .text.FLASH_PageErase
                0x00000000       0x24 build/stm32f1xx_hal_flash_ex.o
 .text.HAL_FLASHEx_Erase
                0x00000000       0xa4 build/stm32f1xx_hal_flash_ex.o
 .text.HAL_FLASHEx_Erase_IT
                0x00000000       0x60 build/stm32f1xx_hal_flash_ex.o
 .debug_info    0x00000000      0xc5d build/stm32f1xx_hal_flash_ex.o
 .debug_abbrev  0x00000000      0x2b9 build/stm32f1xx_hal_flash_ex.o
 .debug_loc     0x00000000      0x9d7 build/stm32f1xx_hal_flash_ex.o
 .debug_aranges
                0x00000000       0x98 build/stm32f1xx_hal_flash_ex.o
 .debug_ranges  0x00000000       0x88 build/stm32f1xx_hal_flash_ex.o
 .debug_line    0x00000000      0x961 build/stm32f1xx_hal_flash_ex.o
 .debug_str     0x00000000      0x6f1 build/stm32f1xx_hal_flash_ex.o
 .comment       0x00000000       0x7a build/stm32f1xx_hal_flash_ex.o
 .debug_frame   0x00000000      0x1c8 build/stm32f1xx_hal_flash_ex.o
 .ARM.attributes
                0x00000000       0x2d build/stm32f1xx_hal_flash_ex.o
 .text          0x00000000        0x0 build/stm32f1xx_hal_exti.o
 .data          0x00000000        0x0 build/stm32f1xx_hal_exti.o
 .bss           0x00000000        0x0 build/stm32f1xx_hal_exti.o
 .text.HAL_EXTI_SetConfigLine
                0x00000000       0xd8 build/stm32f1xx_hal_exti.o
 .text.HAL_EXTI_GetConfigLine
                0x00000000       0xa8 build/stm32f1xx_hal_exti.o
 .text.HAL_EXTI_ClearConfigLine
                0x00000000       0x80 build/stm32f1xx_hal_exti.o
 .text.HAL_EXTI_RegisterCallback
                0x00000000        0xe build/stm32f1xx_hal_exti.o
 .text.HAL_EXTI_GetHandle
                0x00000000        0xc build/stm32f1xx_hal_exti.o
 .text.HAL_EXTI_IRQHandler
                0x00000000       0x24 build/stm32f1xx_hal_exti.o
 .text.HAL_EXTI_GetPending
                0x00000000       0x1c build/stm32f1xx_hal_exti.o
 .text.HAL_EXTI_ClearPending
                0x00000000       0x14 build/stm32f1xx_hal_exti.o
 .text.HAL_EXTI_GenerateSWI
                0x00000000       0x14 build/stm32f1xx_hal_exti.o
 .debug_info    0x00000000      0x6ef build/stm32f1xx_hal_exti.o
 .debug_abbrev  0x00000000      0x22d build/stm32f1xx_hal_exti.o
 .debug_loc     0x00000000      0x5b5 build/stm32f1xx_hal_exti.o
 .debug_aranges
                0x00000000       0x60 build/stm32f1xx_hal_exti.o
 .debug_ranges  0x00000000       0x50 build/stm32f1xx_hal_exti.o
 .debug_line    0x00000000      0x659 build/stm32f1xx_hal_exti.o
 .debug_str     0x00000000      0x494 build/stm32f1xx_hal_exti.o
 .comment       0x00000000       0x7a build/stm32f1xx_hal_exti.o
 .debug_frame   0x00000000      0x108 build/stm32f1xx_hal_exti.o
 .ARM.attributes
                0x00000000       0x2d build/stm32f1xx_hal_exti.o
 .text          0x00000000        0x0 build/stm32f1xx_hal_adc.o
 .data          0x00000000        0x0 build/stm32f1xx_hal_adc.o
 .bss           0x00000000        0x0 build/stm32f1xx_hal_adc.o
 .text.HAL_ADC_MspInit
                0x00000000        0x2 build/stm32f1xx_hal_adc.o
 .text.HAL_ADC_MspDeInit
                0x00000000        0x2 build/stm32f1xx_hal_adc.o
 .text.HAL_ADC_PollForEvent
                0x00000000       0x54 build/stm32f1xx_hal_adc.o
 .text.HAL_ADC_ConvCpltCallback
                0x00000000        0x2 build/stm32f1xx_hal_adc.o
 .text.ADC_DMAConvCplt
                0x00000000       0x52 build/stm32f1xx_hal_adc.o
 .text.HAL_ADC_ConvHalfCpltCallback
                0x00000000        0x2 build/stm32f1xx_hal_adc.o
 .text.ADC_DMAHalfConvCplt
                0x00000000        0xa build/stm32f1xx_hal_adc.o
 .text.HAL_ADC_LevelOutOfWindowCallback
                0x00000000        0x2 build/stm32f1xx_hal_adc.o
 .text.HAL_ADC_IRQHandler
                0x00000000      0x10c build/stm32f1xx_hal_adc.o
 .text.HAL_ADC_ErrorCallback
                0x00000000        0x2 build/stm32f1xx_hal_adc.o
 .text.ADC_DMAError
                0x00000000       0x1a build/stm32f1xx_hal_adc.o
 .text.HAL_ADC_AnalogWDGConfig
                0x00000000       0x60 build/stm32f1xx_hal_adc.o
 .text.HAL_ADC_GetError
                0x00000000        0x4 build/stm32f1xx_hal_adc.o
 .text.HAL_ADC_Start_IT
                0x00000000       0xf0 build/stm32f1xx_hal_adc.o
 .text.HAL_ADC_Start_DMA
                0x00000000      0x130 build/stm32f1xx_hal_adc.o
 .text.HAL_ADC_DeInit
                0x00000000       0xfc build/stm32f1xx_hal_adc.o
 .text.HAL_ADC_Stop
                0x00000000       0x34 build/stm32f1xx_hal_adc.o
 .text.HAL_ADC_Stop_IT
                0x00000000       0x3e build/stm32f1xx_hal_adc.o
 .text.HAL_ADC_Stop_DMA
                0x00000000       0x52 build/stm32f1xx_hal_adc.o
 .text          0x00000000        0x0 build/stm32f1xx_hal_adc_ex.o
 .data          0x00000000        0x0 build/stm32f1xx_hal_adc_ex.o
 .bss           0x00000000        0x0 build/stm32f1xx_hal_adc_ex.o
 .text.HAL_ADCEx_Calibration_Start
                0x00000000       0xe8 build/stm32f1xx_hal_adc_ex.o
 .text.HAL_ADCEx_InjectedStart
                0x00000000       0xb8 build/stm32f1xx_hal_adc_ex.o
 .text.HAL_ADCEx_InjectedStop
                0x00000000       0x54 build/stm32f1xx_hal_adc_ex.o
 .text.HAL_ADCEx_InjectedPollForConversion
                0x00000000      0x168 build/stm32f1xx_hal_adc_ex.o
 .text.HAL_ADCEx_InjectedStart_IT
                0x00000000       0xc0 build/stm32f1xx_hal_adc_ex.o
 .text.HAL_ADCEx_InjectedStop_IT
                0x00000000       0x5e build/stm32f1xx_hal_adc_ex.o
 .text.HAL_ADCEx_MultiModeStart_DMA
                0x00000000       0xf4 build/stm32f1xx_hal_adc_ex.o
 .text.HAL_ADCEx_MultiModeStop_DMA
                0x00000000       0x78 build/stm32f1xx_hal_adc_ex.o
 .text.HAL_ADCEx_InjectedGetValue
                0x00000000       0x24 build/stm32f1xx_hal_adc_ex.o
 .text.HAL_ADCEx_MultiModeGetValue
                0x00000000       0x20 build/stm32f1xx_hal_adc_ex.o
 .text.HAL_ADCEx_InjectedConvCpltCallback
                0x00000000        0x2 build/stm32f1xx_hal_adc_ex.o
 .text.HAL_ADCEx_InjectedConfigChannel
                0x00000000      0x220 build/stm32f1xx_hal_adc_ex.o
 .text.HAL_ADCEx_MultiModeConfigChannel
                0x00000000       0x58 build/stm32f1xx_hal_adc_ex.o
 .debug_info    0x00000000      0xd7d build/stm32f1xx_hal_adc_ex.o
 .debug_abbrev  0x00000000      0x293 build/stm32f1xx_hal_adc_ex.o
 .debug_loc     0x00000000      0xb01 build/stm32f1xx_hal_adc_ex.o
 .debug_aranges
                0x00000000       0x80 build/stm32f1xx_hal_adc_ex.o
 .debug_ranges  0x00000000       0x70 build/stm32f1xx_hal_adc_ex.o
 .debug_line    0x00000000      0xb9f build/stm32f1xx_hal_adc_ex.o
 .debug_str     0x00000000      0x922 build/stm32f1xx_hal_adc_ex.o
 .comment       0x00000000       0x7a build/stm32f1xx_hal_adc_ex.o
 .debug_frame   0x00000000      0x1c4 build/stm32f1xx_hal_adc_ex.o
 .ARM.attributes
                0x00000000       0x2d build/stm32f1xx_hal_adc_ex.o
 .text          0x00000000        0x0 build/system_stm32f1xx.o
 .data          0x00000000        0x0 build/system_stm32f1xx.o
 .bss           0x00000000        0x0 build/system_stm32f1xx.o
 .text.SystemCoreClockUpdate
                0x00000000       0x94 build/system_stm32f1xx.o
 .text          0x00000000        0x0 build/VX_swi2c.o
 .data          0x00000000        0x0 build/VX_swi2c.o
 .bss           0x00000000        0x0 build/VX_swi2c.o
 .text.delayTX1ms
                0x00000000        0x8 build/VX_swi2c.o
 .text.HDMITX_ReadI2C_Byte
                0x00000000        0xc build/VX_swi2c.o
 .text.HDMITX_WriteI2C_Byte
                0x00000000       0x10 build/VX_swi2c.o
 .text.HDMITX_ReadI2C_ByteN
                0x00000000       0x12 build/VX_swi2c.o
 .text.HDMITX_SetI2C_Byte
                0x00000000       0x28 build/VX_swi2c.o
 .text.SET_PCA9554PW
                0x00000000       0x74 build/VX_swi2c.o
 .text.SET_LTC2451
                0x00000000        0x2 build/VX_swi2c.o
 .text          0x00000000        0x0 build/VS4210_param_Mode88.o
 .data          0x00000000        0x0 build/VS4210_param_Mode88.o
 .bss           0x00000000        0x0 build/VS4210_param_Mode88.o
 .text          0x00000000        0x0 build/VS4210_param_Modex26.o
 .data          0x00000000        0x0 build/VS4210_param_Modex26.o
 .bss           0x00000000        0x0 build/VS4210_param_Modex26.o
 .text          0x00000000        0x0 build/VX_OSD.o
 .data          0x00000000        0x0 build/VX_OSD.o
 .bss           0x00000000        0x0 build/VX_OSD.o
 .text          0x00000000        0x0 build/VX_OSD_Simple.o
 .data          0x00000000        0x0 build/VX_OSD_Simple.o
 .bss           0x00000000        0x0 build/VX_OSD_Simple.o
 .text.ClearCursor
                0x00000000       0x24 build/VX_OSD_Simple.o
 .bss.OSD_DAY   0x00000000        0x1 build/VX_OSD_Simple.o
 .bss.SEQTime   0x00000000        0x1 build/VX_OSD_Simple.o
 .data.OSD_Diapley
                0x00000000        0x1 build/VX_OSD_Simple.o
 .data.PanelBrightnessRange
                0x00000000        0x1 build/VX_OSD_Simple.o
 .rodata.Mode0S_800x480_param
                0x00000000        0x4 build/VX_OSD_Simple.o
 .rodata.Mode0_1080P_param
                0x00000000        0x4 build/VX_OSD_Simple.o
 .rodata.Mode0_720P_param
                0x00000000        0x4 build/VX_OSD_Simple.o
 .rodata.Mode0_800x480_param
                0x00000000        0x4 build/VX_OSD_Simple.o
 .rodata.Mode10S_w0_800x480_param
                0x00000000        0x4 build/VX_OSD_Simple.o
 .rodata.Mode10S_w1_800x480_param
                0x00000000        0x4 build/VX_OSD_Simple.o
 .rodata.Mode10S_w2_800x480_param
                0x00000000        0x4 build/VX_OSD_Simple.o
 .rodata.Mode10_w0_1080P_param
                0x00000000        0x4 build/VX_OSD_Simple.o
 .rodata.Mode10_w0_720P_param
                0x00000000        0x4 build/VX_OSD_Simple.o
 .rodata.Mode10_w0_800x480_param
                0x00000000        0x4 build/VX_OSD_Simple.o
 .rodata.Mode10_w1_1080P_param
                0x00000000        0x4 build/VX_OSD_Simple.o
 .rodata.Mode10_w1_720P_param
                0x00000000        0x4 build/VX_OSD_Simple.o
 .rodata.Mode10_w1_800x480_param
                0x00000000        0x4 build/VX_OSD_Simple.o
 .rodata.Mode10_w2_1080P_param
                0x00000000        0x4 build/VX_OSD_Simple.o
 .rodata.Mode10_w2_720P_param
                0x00000000        0x4 build/VX_OSD_Simple.o
 .rodata.Mode10_w2_800x480_param
                0x00000000        0x4 build/VX_OSD_Simple.o
 .rodata.Mode12S_w0_800x480_param
                0x00000000        0x4 build/VX_OSD_Simple.o
 .rodata.Mode12S_w1_800x480_param
                0x00000000        0x4 build/VX_OSD_Simple.o
 .rodata.Mode12_w0_1080P_param
                0x00000000        0x4 build/VX_OSD_Simple.o
 .rodata.Mode12_w0_720P_param
                0x00000000        0x4 build/VX_OSD_Simple.o
 .rodata.Mode12_w0_800x480_param
                0x00000000        0x4 build/VX_OSD_Simple.o
 .rodata.Mode12_w1_1080P_param
                0x00000000        0x4 build/VX_OSD_Simple.o
 .rodata.Mode12_w1_720P_param
                0x00000000        0x4 build/VX_OSD_Simple.o
 .rodata.Mode12_w1_800x480_param
                0x00000000        0x4 build/VX_OSD_Simple.o
 .rodata.Mode14_w0_1080P_param
                0x00000000        0x4 build/VX_OSD_Simple.o
 .rodata.Mode14_w0_720P_param
                0x00000000        0x4 build/VX_OSD_Simple.o
 .rodata.Mode14_w0_800x480_param
                0x00000000        0x4 build/VX_OSD_Simple.o
 .rodata.Mode14_w1_1080P_param
                0x00000000        0x4 build/VX_OSD_Simple.o
 .rodata.Mode14_w1_720P_param
                0x00000000        0x4 build/VX_OSD_Simple.o
 .rodata.Mode14_w1_800x480_param
                0x00000000        0x4 build/VX_OSD_Simple.o
 .rodata.Mode14_w2_1080P_param
                0x00000000        0x4 build/VX_OSD_Simple.o
 .rodata.Mode14_w2_720P_param
                0x00000000        0x4 build/VX_OSD_Simple.o
 .rodata.Mode14_w2_800x480_param
                0x00000000        0x4 build/VX_OSD_Simple.o
 .rodata.Mode1S_w0_800x480_param
                0x00000000        0x4 build/VX_OSD_Simple.o
 .rodata.Mode1S_w1_800x480_param
                0x00000000        0x4 build/VX_OSD_Simple.o
 .rodata.Mode1S_w2_800x480_param
                0x00000000        0x4 build/VX_OSD_Simple.o
 .rodata.Mode1S_w3_800x480_param
                0x00000000        0x4 build/VX_OSD_Simple.o
 .rodata.Mode1_w0_1080P_param
                0x00000000        0x4 build/VX_OSD_Simple.o
 .rodata.Mode1_w0_720P_param
                0x00000000        0x4 build/VX_OSD_Simple.o
 .rodata.Mode1_w0_800x480_param
                0x00000000        0x4 build/VX_OSD_Simple.o
 .rodata.Mode1_w1_1080P_param
                0x00000000        0x4 build/VX_OSD_Simple.o
 .rodata.Mode1_w1_720P_param
                0x00000000        0x4 build/VX_OSD_Simple.o
 .rodata.Mode1_w1_800x480_param
                0x00000000        0x4 build/VX_OSD_Simple.o
 .rodata.Mode1_w2_1080P_param
                0x00000000        0x4 build/VX_OSD_Simple.o
 .rodata.Mode1_w2_720P_param
                0x00000000        0x4 build/VX_OSD_Simple.o
 .rodata.Mode1_w2_800x480_param
                0x00000000        0x4 build/VX_OSD_Simple.o
 .rodata.Mode1_w3_1080P_param
                0x00000000        0x4 build/VX_OSD_Simple.o
 .rodata.Mode1_w3_720P_param
                0x00000000        0x4 build/VX_OSD_Simple.o
 .rodata.Mode1_w3_800x480_param
                0x00000000        0x4 build/VX_OSD_Simple.o
 .rodata.Mode2_w0_1080P_param
                0x00000000        0x4 build/VX_OSD_Simple.o
 .rodata.Mode2_w0_720P_param
                0x00000000        0x4 build/VX_OSD_Simple.o
 .rodata.Mode2_w0_800x480_param
                0x00000000        0x4 build/VX_OSD_Simple.o
 .rodata.Mode2_w1_1080P_param
                0x00000000        0x4 build/VX_OSD_Simple.o
 .rodata.Mode2_w1_720P_param
                0x00000000        0x4 build/VX_OSD_Simple.o
 .rodata.Mode2_w1_800x480_param
                0x00000000        0x4 build/VX_OSD_Simple.o
 .rodata.Mode2_w2_1080P_param
                0x00000000        0x4 build/VX_OSD_Simple.o
 .rodata.Mode2_w2_720P_param
                0x00000000        0x4 build/VX_OSD_Simple.o
 .rodata.Mode2_w2_800x480_param
                0x00000000        0x4 build/VX_OSD_Simple.o
 .rodata.Mode2_w3_1080P_param
                0x00000000        0x4 build/VX_OSD_Simple.o
 .rodata.Mode2_w3_720P_param
                0x00000000        0x4 build/VX_OSD_Simple.o
 .rodata.Mode2_w3_800x480_param
                0x00000000        0x4 build/VX_OSD_Simple.o
 .rodata.Mode8S_w0_800x480_param
                0x00000000        0x4 build/VX_OSD_Simple.o
 .rodata.Mode8S_w1_800x480_param
                0x00000000        0x4 build/VX_OSD_Simple.o
 .rodata.Mode8S_w2_800x480_param
                0x00000000        0x4 build/VX_OSD_Simple.o
 .rodata.Mode8_w0_1080P_param
                0x00000000        0x4 build/VX_OSD_Simple.o
 .rodata.Mode8_w0_720P_param
                0x00000000        0x4 build/VX_OSD_Simple.o
 .rodata.Mode8_w0_800x480_param
                0x00000000        0x4 build/VX_OSD_Simple.o
 .rodata.Mode8_w1_1080P_param
                0x00000000        0x4 build/VX_OSD_Simple.o
 .rodata.Mode8_w1_720P_param
                0x00000000        0x4 build/VX_OSD_Simple.o
 .rodata.Mode8_w1_800x480_param
                0x00000000        0x4 build/VX_OSD_Simple.o
 .rodata.Mode8_w2_1080P_param
                0x00000000        0x4 build/VX_OSD_Simple.o
 .rodata.Mode8_w2_720P_param
                0x00000000        0x4 build/VX_OSD_Simple.o
 .rodata.Mode8_w2_800x480_param
                0x00000000        0x4 build/VX_OSD_Simple.o
 .rodata.Mode9S_w0_800x480_param
                0x00000000        0x4 build/VX_OSD_Simple.o
 .rodata.Mode9S_w1_800x480_param
                0x00000000        0x4 build/VX_OSD_Simple.o
 .rodata.Mode9S_w2_800x480_param
                0x00000000        0x4 build/VX_OSD_Simple.o
 .rodata.Mode9_w0_1080P_param
                0x00000000        0x4 build/VX_OSD_Simple.o
 .rodata.Mode9_w0_720P_param
                0x00000000        0x4 build/VX_OSD_Simple.o
 .rodata.Mode9_w0_800x480_param
                0x00000000        0x4 build/VX_OSD_Simple.o
 .rodata.Mode9_w1_1080P_param
                0x00000000        0x4 build/VX_OSD_Simple.o
 .rodata.Mode9_w1_720P_param
                0x00000000        0x4 build/VX_OSD_Simple.o
 .rodata.Mode9_w1_800x480_param
                0x00000000        0x4 build/VX_OSD_Simple.o
 .rodata.Mode9_w2_1080P_param
                0x00000000        0x4 build/VX_OSD_Simple.o
 .rodata.Mode9_w2_720P_param
                0x00000000        0x4 build/VX_OSD_Simple.o
 .rodata.Mode9_w2_800x480_param
                0x00000000        0x4 build/VX_OSD_Simple.o
 .rodata.Str_OSD_Channel_CAMD
                0x00000000        0x2 build/VX_OSD_Simple.o
 .rodata.aLineMode1080PMode2Lin1
                0x00000000        0x7 build/VX_OSD_Simple.o
 .rodata.aLineMode1080PMode2Lin2
                0x00000000        0x7 build/VX_OSD_Simple.o
 .rodata.aLineMode1080PMode2Lin3
                0x00000000        0x7 build/VX_OSD_Simple.o
 .rodata.aLineMode720PMode2Lin1
                0x00000000        0x7 build/VX_OSD_Simple.o
 .rodata.aLineMode720PMode2Lin2
                0x00000000        0x7 build/VX_OSD_Simple.o
 .rodata.aLineMode720PMode2Lin3
                0x00000000        0x7 build/VX_OSD_Simple.o
 .rodata.aLineMode800x480Mode2Lin1
                0x00000000        0x7 build/VX_OSD_Simple.o
 .rodata.aLineMode800x480Mode2Lin2
                0x00000000        0x7 build/VX_OSD_Simple.o
 .rodata.aLineMode800x480Mode2Lin3
                0x00000000        0x7 build/VX_OSD_Simple.o
 .text          0x00000000        0x0 build/VS4210.o
 .data          0x00000000        0x0 build/VS4210.o
 .bss           0x00000000        0x0 build/VS4210.o
 .text.VS4210_CLRCamMirror
                0x00000000       0x38 build/VS4210.o
 .text          0x00000000        0x0 build/TP2802.o
 .data          0x00000000        0x0 build/TP2802.o
 .bss           0x00000000        0x0 build/TP2802.o
 .rodata.Det_VidRes.str1.4
                0x00000000       0x23 build/TP2802.o
 .text.Det_VidRes
                0x00000000       0x38 build/TP2802.o
 .rodata.Det_VideoLoss.str1.4
                0x00000000       0x13 build/TP2802.o
 .text.Det_VideoLoss
                0x00000000       0x34 build/TP2802.o
 .rodata.SetTP2824CHVloss.str1.4
                0x00000000       0x1c build/TP2802.o
 .text.SetTP2824CHVloss
                0x00000000       0x38 build/TP2802.o
 .text.Det_HLock
                0x00000000       0x18 build/TP2802.o
 .rodata.Set_ResWithAutoDet.str1.4
                0x00000000       0x13 build/TP2802.o
 .text.Set_ResWithAutoDet
                0x00000000       0x48 build/TP2802.o
 .text.Scan_Channels
                0x00000000       0x2a build/TP2802.o
 .text.ConvertData
                0x00000000       0x58 build/TP2802.o
 .text.SwapBit  0x00000000       0x60 build/TP2802.o
 .text.HDC_SetData
                0x00000000       0x48 build/TP2802.o
 .text.HDA_SetData
                0x00000000       0x30 build/TP2802.o
 .bss.ch_boot_reset
                0x00000000        0x4 build/TP2802.o
 .rodata.REG_F7
                0x00000000        0x4 build/TP2802.o
 .rodata.REG_FA
                0x00000000        0x4 build/TP2802.o
 .rodata.TP2802D_DataSet
                0x00000000       0x50 build/TP2802.o
 .rodata.TP2822_DataSet
                0x00000000       0x18 build/TP2802.o
 .rodata.TP2823_MODE_DataSet
                0x00000000       0x41 build/TP2802.o
 .rodata.TP2824C_DataSetRD
                0x00000000       0x18 build/TP2802.o
 .rodata.TP2834_Audio_DataSetRD
                0x00000000       0x22 build/TP2802.o
 .text          0x00000000        0x0 build/monitor.o
 .data          0x00000000        0x0 build/monitor.o
 .bss           0x00000000        0x0 build/monitor.o
 .text.a2i      0x00000000       0x1e build/monitor.o
 .text.MonReadI2C
                0x00000000        0x2 build/monitor.o
 .text.MonWriteI2C
                0x00000000        0x2 build/monitor.o
 .text.MonDumpI2C
                0x00000000        0x2 build/monitor.o
 .text.MonNewReadI2C
                0x00000000        0x2 build/monitor.o
 .text.MonNewWriteI2C
                0x00000000        0x2 build/monitor.o
 .text.MonNewDumpI2C
                0x00000000        0x2 build/monitor.o
 .text.MonWriteBit
                0x00000000        0x2 build/monitor.o
 .text.MonTxDump
                0x00000000        0x2 build/monitor.o
 .bss.RS2_Xbusy
                0x00000000        0x4 build/monitor.o
 .bss.RS2_out   0x00000000        0x1 build/monitor.o
 .bss.RS_Xbusy  0x00000000        0x4 build/monitor.o
 .data.MonAddress
                0x00000000        0x1 build/monitor.o
 .data.echo     0x00000000        0x4 build/monitor.o
 .text          0x00000000        0x0 build/Printf.o
 .data          0x00000000        0x0 build/Printf.o
 .bss           0x00000000        0x0 build/Printf.o
 .text.Puts     0x00000000       0x12 build/Printf.o
 .text          0x00000000        0x0 build/SysTimer.o
 .data          0x00000000        0x0 build/SysTimer.o
 .bss           0x00000000        0x0 build/SysTimer.o
 .text.MCUTimerEventProc
                0x00000000        0x2 build/SysTimer.o
 .bss.WDT_Echo_Count
                0x00000000        0x1 build/SysTimer.o
 .bss.led_Flag  0x00000000        0x1 build/SysTimer.o
 .bss.month     0x00000000        0x1 build/SysTimer.o
 .bss.year1     0x00000000        0x1 build/SysTimer.o
 .bss.year2     0x00000000        0x1 build/SysTimer.o
 .text          0x00000000        0x0 build/etc_eep.o
 .data          0x00000000        0x0 build/etc_eep.o
 .bss           0x00000000        0x0 build/etc_eep.o
 .text.GetDebugLevelEE
                0x00000000        0xa build/etc_eep.o
 .text.GetPCAudioVolEE
                0x00000000        0xa build/etc_eep.o
 .text.SetPCAudioVolEE
                0x00000000        0xc build/etc_eep.o
 .text          0x00000000        0x0 build/keyremo.o
 .data          0x00000000        0x0 build/keyremo.o
 .bss           0x00000000        0x0 build/keyremo.o
 .text.RemoMenu_MenuKey
                0x00000000        0x2 build/keyremo.o
 .text.RemoChnUp_UpKey
                0x00000000        0x2 build/keyremo.o
 .text.RemoChnDn_DnKey
                0x00000000        0x2 build/keyremo.o
 .text.RemoVolUp_RightKey
                0x00000000        0x2 build/keyremo.o
 .text.RemoVolDn_LeftKey
                0x00000000        0x2 build/keyremo.o
 .text.ActionRemo
                0x00000000        0x4 build/keyremo.o
 .text.CheckGarbberLiner
                0x00000000       0x34 build/keyremo.o
 .bss.BookMarkState
                0x00000000        0x1 build/keyremo.o
 .bss.KeyBuffer
                0x00000000        0x1 build/keyremo.o
 .bss.LockKeyState
                0x00000000        0x1 build/keyremo.o
 .bss.RELEASE_TR_JUMP_Flag
                0x00000000        0x1 build/keyremo.o
 .bss.TR_JUMP_Flag
                0x00000000        0x1 build/keyremo.o
 .bss.TR_JUMP_HOLD
                0x00000000        0x1 build/keyremo.o
 .bss.val_index
                0x00000000        0x1 build/keyremo.o
 .data.Time5ms  0x00000000        0x1 build/keyremo.o
 .data.val_osdwin
                0x00000000        0x1 build/keyremo.o
 .text          0x00000000        0x0 build/audio.o
 .data          0x00000000        0x0 build/audio.o
 .bss           0x00000000        0x0 build/audio.o
 .data.PCAudioVol
                0x00000000        0x1 build/audio.o
 .text          0x00000000        0x0 build/exosd.o
 .data          0x00000000        0x0 build/exosd.o
 .bss           0x00000000        0x0 build/exosd.o
 .text          0x00000000        0x0 build/GT911.o
 .data          0x00000000        0x0 build/GT911.o
 .bss           0x00000000        0x0 build/GT911.o
 .rodata.GT9147_Send_Cfg.str1.4
                0x00000000       0x12 build/GT911.o
 .text.GT9147_Send_Cfg
                0x00000000       0x60 build/GT911.o
 .rodata.GT9147_Init.str1.4
                0x00000000       0x44 build/GT911.o
 .text.GT9147_Init
                0x00000000       0xfc build/GT911.o
 .rodata.GT9147_Scan.str1.4
                0x00000000       0x2c build/GT911.o
 .text.GT9147_Scan
                0x00000000      0x610 build/GT911.o
 .bss.TP_CATH_PRES
                0x00000000        0x1 build/GT911.o
 .bss.t.9370    0x00000000        0x1 build/GT911.o
 .bss.tic.9371  0x00000000        0x1 build/GT911.o
 .rodata.GT9147_CFG_TBL
                0x00000000       0xb8 build/GT911.o
 .rodata.GT9147_TPX_TBL
                0x00000000       0x14 build/GT911.o
 .text          0x00000000        0x0 build/VX8812.o
 .data          0x00000000        0x0 build/VX8812.o
 .bss           0x00000000        0x0 build/VX8812.o
 .text.VX8812_BlueScreen
                0x00000000        0x2 build/VX8812.o
 .text.VXIS_fVX8812_Set_HDMI_in_OutCCIR656_NTSC
                0x00000000        0x2 build/VX8812.o
 .text.VXIS_fVX8812_Set_HDMI_in_OutCCIR656_PAL
                0x00000000        0x2 build/VX8812.o
 .text.VXIS_fVX8812_Set_HDMI_in_SD_Video_Out
                0x00000000        0x2 build/VX8812.o
 .text          0x00000000        0x0 build/TD5300.o
 .data          0x00000000        0x0 build/TD5300.o
 .bss           0x00000000        0x0 build/TD5300.o
 .text.TPMS_redraw
                0x00000000        0x2 build/TD5300.o
 .text.TPMS_Keyin_Mode
                0x00000000        0x4 build/TD5300.o
 .text.TPMS_Change_Mode
                0x00000000        0x2 build/TD5300.o
 .text.TPMS_Read_eeprom
                0x00000000       0x20 build/TD5300.o
 .text.TPMS_Write_eeprom
                0x00000000       0x38 build/TD5300.o
 .text.TPMS_Default_Setting
                0x00000000       0x60 build/TD5300.o
 .text.Init_TPMS_OSD
                0x00000000        0x2 build/TD5300.o
 .text.Display_TPMS_info
                0x00000000        0x2 build/TD5300.o
 .text.Draw_CAR
                0x00000000        0x2 build/TD5300.o
 .text.putch    0x00000000        0x2 build/TD5300.o
 .text.getch    0x00000000        0x4 build/TD5300.o
 .text.getche   0x00000000        0x4 build/TD5300.o
 .text.GetData  0x00000000        0x4 build/TD5300.o
 .text.AsciiToData
                0x00000000       0x20 build/TD5300.o
 .text.DataToAscii
                0x00000000        0x4 build/TD5300.o
 .text.Check_Tire_Data
                0x00000000        0x4 build/TD5300.o
 .text.Check_Data
                0x00000000        0x2 build/TD5300.o
 .text.GetTireDatawhole
                0x00000000        0x4 build/TD5300.o
 .text.Get_Tire_Data
                0x00000000        0x4 build/TD5300.o
 .text.Get_Relay_Data
                0x00000000       0x44 build/TD5300.o
 .text.Input    0x00000000        0x4 build/TD5300.o
 .text.Read_RX  0x00000000       0x28 build/TD5300.o
 .bss.SB_Press_Error_Flag
                0x00000000        0x1 build/TD5300.o
 .bss.SB_Temper_Error_Flag
                0x00000000        0x1 build/TD5300.o
 .bss.SB_Work_Error_Flag
                0x00000000        0x1 build/TD5300.o
 .bss.SB_Work_Flag
                0x00000000        0x1 build/TD5300.o
 .bss.SB_Work_Flag_F
                0x00000000        0x1 build/TD5300.o
 .bss.TPMS_Count
                0x00000000        0x1 build/TD5300.o
 .bss.TPMS_Cursor
                0x00000000        0x1 build/TD5300.o
 .bss.TPMS_Flag
                0x00000000        0x1 build/TD5300.o
 .bss.TPMS_LED  0x00000000        0x1 build/TD5300.o
 .bss.TPMS_OSD  0x00000000        0x1 build/TD5300.o
 .bss.TPMS_P    0x00000000        0x1 build/TD5300.o
 .bss.TPMS_Pop_Flag
                0x00000000        0x1 build/TD5300.o
 .bss.TPMS_Ready
                0x00000000        0x1 build/TD5300.o
 .bss.TPMS_Relay_Battery
                0x00000000        0x1 build/TD5300.o
 .bss.TPMS_Reset_Flag
                0x00000000        0x1 build/TD5300.o
 .bss.TPMS_Setting_Mode
                0x00000000        0x1 build/TD5300.o
 .bss.TPMS_Start
                0x00000000        0x1 build/TD5300.o
 .bss.TPMS_val  0x00000000        0x1 build/TD5300.o
 .bss.change_keyon
                0x00000000        0x1 build/TD5300.o
 .bss.cursor_p  0x00000000        0x1 build/TD5300.o
 .bss.loop_flag
                0x00000000        0x1 build/TD5300.o
 .bss.sb_data   0x00000000        0x3 build/TD5300.o
 .data.Ascii    0x00000000       0x10 build/TD5300.o
 .data.Device_Mask
                0x00000000        0x8 build/TD5300.o
 .data.sb_p_data_max
                0x00000000        0x6 build/TD5300.o
 .data.sb_tp_data
                0x00000000        0xc build/TD5300.o
 .debug_info    0x00000000     0x3773 build/TD5300.o
 .debug_abbrev  0x00000000      0x364 build/TD5300.o
 .debug_loc     0x00000000      0x38f build/TD5300.o
 .debug_aranges
                0x00000000       0xc8 build/TD5300.o
 .debug_ranges  0x00000000       0xb8 build/TD5300.o
 .debug_line    0x00000000      0x776 build/TD5300.o
 .debug_str     0x00000000     0x76d1 build/TD5300.o
 .comment       0x00000000       0x7a build/TD5300.o
 .debug_frame   0x00000000      0x1b0 build/TD5300.o
 .ARM.attributes
                0x00000000       0x2d build/TD5300.o
 COMMON         0x00000000       0x63 build/TD5300.o
 .text          0x00000000       0x14 build/startup_stm32f103xb.o
 .data          0x00000000        0x0 build/startup_stm32f103xb.o
 .bss           0x00000000        0x0 build/startup_stm32f103xb.o
 .text          0x00000000        0x0 c:/program files (x86)/gnu tools arm embedded/9 2019-q4-major/bin/../lib/gcc/arm-none-eabi/9.2.1/../../../../arm-none-eabi/lib/thumb/v7-m/nofp\libc_nano.a(lib_a-errno.o)
 .data          0x00000000        0x0 c:/program files (x86)/gnu tools arm embedded/9 2019-q4-major/bin/../lib/gcc/arm-none-eabi/9.2.1/../../../../arm-none-eabi/lib/thumb/v7-m/nofp\libc_nano.a(lib_a-errno.o)
 .bss           0x00000000        0x0 c:/program files (x86)/gnu tools arm embedded/9 2019-q4-major/bin/../lib/gcc/arm-none-eabi/9.2.1/../../../../arm-none-eabi/lib/thumb/v7-m/nofp\libc_nano.a(lib_a-errno.o)
 .text          0x00000000        0x0 c:/program files (x86)/gnu tools arm embedded/9 2019-q4-major/bin/../lib/gcc/arm-none-eabi/9.2.1/../../../../arm-none-eabi/lib/thumb/v7-m/nofp\libc_nano.a(lib_a-exit.o)
 .data          0x00000000        0x0 c:/program files (x86)/gnu tools arm embedded/9 2019-q4-major/bin/../lib/gcc/arm-none-eabi/9.2.1/../../../../arm-none-eabi/lib/thumb/v7-m/nofp\libc_nano.a(lib_a-exit.o)
 .bss           0x00000000        0x0 c:/program files (x86)/gnu tools arm embedded/9 2019-q4-major/bin/../lib/gcc/arm-none-eabi/9.2.1/../../../../arm-none-eabi/lib/thumb/v7-m/nofp\libc_nano.a(lib_a-exit.o)
 .text.exit     0x00000000       0x28 c:/program files (x86)/gnu tools arm embedded/9 2019-q4-major/bin/../lib/gcc/arm-none-eabi/9.2.1/../../../../arm-none-eabi/lib/thumb/v7-m/nofp\libc_nano.a(lib_a-exit.o)
 .debug_frame   0x00000000       0x28 c:/program files (x86)/gnu tools arm embedded/9 2019-q4-major/bin/../lib/gcc/arm-none-eabi/9.2.1/../../../../arm-none-eabi/lib/thumb/v7-m/nofp\libc_nano.a(lib_a-exit.o)
 .ARM.attributes
                0x00000000       0x2d c:/program files (x86)/gnu tools arm embedded/9 2019-q4-major/bin/../lib/gcc/arm-none-eabi/9.2.1/../../../../arm-none-eabi/lib/thumb/v7-m/nofp\libc_nano.a(lib_a-exit.o)
 .text          0x00000000        0x0 c:/program files (x86)/gnu tools arm embedded/9 2019-q4-major/bin/../lib/gcc/arm-none-eabi/9.2.1/../../../../arm-none-eabi/lib/thumb/v7-m/nofp\libc_nano.a(lib_a-impure.o)
 .data          0x00000000        0x0 c:/program files (x86)/gnu tools arm embedded/9 2019-q4-major/bin/../lib/gcc/arm-none-eabi/9.2.1/../../../../arm-none-eabi/lib/thumb/v7-m/nofp\libc_nano.a(lib_a-impure.o)
 .bss           0x00000000        0x0 c:/program files (x86)/gnu tools arm embedded/9 2019-q4-major/bin/../lib/gcc/arm-none-eabi/9.2.1/../../../../arm-none-eabi/lib/thumb/v7-m/nofp\libc_nano.a(lib_a-impure.o)
 .text          0x00000000        0x0 c:/program files (x86)/gnu tools arm embedded/9 2019-q4-major/bin/../lib/gcc/arm-none-eabi/9.2.1/../../../../arm-none-eabi/lib/thumb/v7-m/nofp\libc_nano.a(lib_a-init.o)
 .data          0x00000000        0x0 c:/program files (x86)/gnu tools arm embedded/9 2019-q4-major/bin/../lib/gcc/arm-none-eabi/9.2.1/../../../../arm-none-eabi/lib/thumb/v7-m/nofp\libc_nano.a(lib_a-init.o)
 .bss           0x00000000        0x0 c:/program files (x86)/gnu tools arm embedded/9 2019-q4-major/bin/../lib/gcc/arm-none-eabi/9.2.1/../../../../arm-none-eabi/lib/thumb/v7-m/nofp\libc_nano.a(lib_a-init.o)
 .text          0x00000000        0x0 c:/program files (x86)/gnu tools arm embedded/9 2019-q4-major/bin/../lib/gcc/arm-none-eabi/9.2.1/../../../../arm-none-eabi/lib/thumb/v7-m/nofp\libc_nano.a(lib_a-memcpy-stub.o)
 .data          0x00000000        0x0 c:/program files (x86)/gnu tools arm embedded/9 2019-q4-major/bin/../lib/gcc/arm-none-eabi/9.2.1/../../../../arm-none-eabi/lib/thumb/v7-m/nofp\libc_nano.a(lib_a-memcpy-stub.o)
 .bss           0x00000000        0x0 c:/program files (x86)/gnu tools arm embedded/9 2019-q4-major/bin/../lib/gcc/arm-none-eabi/9.2.1/../../../../arm-none-eabi/lib/thumb/v7-m/nofp\libc_nano.a(lib_a-memcpy-stub.o)
 .text          0x00000000        0x0 c:/program files (x86)/gnu tools arm embedded/9 2019-q4-major/bin/../lib/gcc/arm-none-eabi/9.2.1/../../../../arm-none-eabi/lib/thumb/v7-m/nofp\libc_nano.a(lib_a-memset.o)
 .data          0x00000000        0x0 c:/program files (x86)/gnu tools arm embedded/9 2019-q4-major/bin/../lib/gcc/arm-none-eabi/9.2.1/../../../../arm-none-eabi/lib/thumb/v7-m/nofp\libc_nano.a(lib_a-memset.o)
 .bss           0x00000000        0x0 c:/program files (x86)/gnu tools arm embedded/9 2019-q4-major/bin/../lib/gcc/arm-none-eabi/9.2.1/../../../../arm-none-eabi/lib/thumb/v7-m/nofp\libc_nano.a(lib_a-memset.o)
 .text          0x00000000        0x0 c:/program files (x86)/gnu tools arm embedded/9 2019-q4-major/bin/../lib/gcc/arm-none-eabi/9.2.1/../../../../arm-none-eabi/lib/thumb/v7-m/nofp\libc_nano.a(lib_a-printf.o)
 .data          0x00000000        0x0 c:/program files (x86)/gnu tools arm embedded/9 2019-q4-major/bin/../lib/gcc/arm-none-eabi/9.2.1/../../../../arm-none-eabi/lib/thumb/v7-m/nofp\libc_nano.a(lib_a-printf.o)
 .bss           0x00000000        0x0 c:/program files (x86)/gnu tools arm embedded/9 2019-q4-major/bin/../lib/gcc/arm-none-eabi/9.2.1/../../../../arm-none-eabi/lib/thumb/v7-m/nofp\libc_nano.a(lib_a-printf.o)
 .text._printf_r
                0x00000000       0x28 c:/program files (x86)/gnu tools arm embedded/9 2019-q4-major/bin/../lib/gcc/arm-none-eabi/9.2.1/../../../../arm-none-eabi/lib/thumb/v7-m/nofp\libc_nano.a(lib_a-printf.o)
 .text          0x00000000        0x0 c:/program files (x86)/gnu tools arm embedded/9 2019-q4-major/bin/../lib/gcc/arm-none-eabi/9.2.1/../../../../arm-none-eabi/lib/thumb/v7-m/nofp\libc_nano.a(lib_a-puts.o)
 .data          0x00000000        0x0 c:/program files (x86)/gnu tools arm embedded/9 2019-q4-major/bin/../lib/gcc/arm-none-eabi/9.2.1/../../../../arm-none-eabi/lib/thumb/v7-m/nofp\libc_nano.a(lib_a-puts.o)
 .bss           0x00000000        0x0 c:/program files (x86)/gnu tools arm embedded/9 2019-q4-major/bin/../lib/gcc/arm-none-eabi/9.2.1/../../../../arm-none-eabi/lib/thumb/v7-m/nofp\libc_nano.a(lib_a-puts.o)
 .text          0x00000000       0x14 c:/program files (x86)/gnu tools arm embedded/9 2019-q4-major/bin/../lib/gcc/arm-none-eabi/9.2.1/../../../../arm-none-eabi/lib/thumb/v7-m/nofp\libc_nano.a(lib_a-strcmp.o)
 .data          0x00000000        0x0 c:/program files (x86)/gnu tools arm embedded/9 2019-q4-major/bin/../lib/gcc/arm-none-eabi/9.2.1/../../../../arm-none-eabi/lib/thumb/v7-m/nofp\libc_nano.a(lib_a-strcmp.o)
 .bss           0x00000000        0x0 c:/program files (x86)/gnu tools arm embedded/9 2019-q4-major/bin/../lib/gcc/arm-none-eabi/9.2.1/../../../../arm-none-eabi/lib/thumb/v7-m/nofp\libc_nano.a(lib_a-strcmp.o)
 .debug_frame   0x00000000       0x20 c:/program files (x86)/gnu tools arm embedded/9 2019-q4-major/bin/../lib/gcc/arm-none-eabi/9.2.1/../../../../arm-none-eabi/lib/thumb/v7-m/nofp\libc_nano.a(lib_a-strcmp.o)
 .ARM.attributes
                0x00000000       0x1b c:/program files (x86)/gnu tools arm embedded/9 2019-q4-major/bin/../lib/gcc/arm-none-eabi/9.2.1/../../../../arm-none-eabi/lib/thumb/v7-m/nofp\libc_nano.a(lib_a-strcmp.o)
 .text          0x00000000        0x0 c:/program files (x86)/gnu tools arm embedded/9 2019-q4-major/bin/../lib/gcc/arm-none-eabi/9.2.1/../../../../arm-none-eabi/lib/thumb/v7-m/nofp\libc_nano.a(lib_a-strtol.o)
 .data          0x00000000        0x0 c:/program files (x86)/gnu tools arm embedded/9 2019-q4-major/bin/../lib/gcc/arm-none-eabi/9.2.1/../../../../arm-none-eabi/lib/thumb/v7-m/nofp\libc_nano.a(lib_a-strtol.o)
 .bss           0x00000000        0x0 c:/program files (x86)/gnu tools arm embedded/9 2019-q4-major/bin/../lib/gcc/arm-none-eabi/9.2.1/../../../../arm-none-eabi/lib/thumb/v7-m/nofp\libc_nano.a(lib_a-strtol.o)
 .text._strtol_l.isra.0
                0x00000000       0xf4 c:/program files (x86)/gnu tools arm embedded/9 2019-q4-major/bin/../lib/gcc/arm-none-eabi/9.2.1/../../../../arm-none-eabi/lib/thumb/v7-m/nofp\libc_nano.a(lib_a-strtol.o)
 .text._strtol_r
                0x00000000        0x4 c:/program files (x86)/gnu tools arm embedded/9 2019-q4-major/bin/../lib/gcc/arm-none-eabi/9.2.1/../../../../arm-none-eabi/lib/thumb/v7-m/nofp\libc_nano.a(lib_a-strtol.o)
 .text.strtol_l
                0x00000000       0x14 c:/program files (x86)/gnu tools arm embedded/9 2019-q4-major/bin/../lib/gcc/arm-none-eabi/9.2.1/../../../../arm-none-eabi/lib/thumb/v7-m/nofp\libc_nano.a(lib_a-strtol.o)
 .text.strtol   0x00000000       0x14 c:/program files (x86)/gnu tools arm embedded/9 2019-q4-major/bin/../lib/gcc/arm-none-eabi/9.2.1/../../../../arm-none-eabi/lib/thumb/v7-m/nofp\libc_nano.a(lib_a-strtol.o)
 .debug_frame   0x00000000       0x64 c:/program files (x86)/gnu tools arm embedded/9 2019-q4-major/bin/../lib/gcc/arm-none-eabi/9.2.1/../../../../arm-none-eabi/lib/thumb/v7-m/nofp\libc_nano.a(lib_a-strtol.o)
 .ARM.attributes
                0x00000000       0x2d c:/program files (x86)/gnu tools arm embedded/9 2019-q4-major/bin/../lib/gcc/arm-none-eabi/9.2.1/../../../../arm-none-eabi/lib/thumb/v7-m/nofp\libc_nano.a(lib_a-strtol.o)
 .text          0x00000000        0x0 c:/program files (x86)/gnu tools arm embedded/9 2019-q4-major/bin/../lib/gcc/arm-none-eabi/9.2.1/../../../../arm-none-eabi/lib/thumb/v7-m/nofp\libc_nano.a(lib_a-wbuf.o)
 .data          0x00000000        0x0 c:/program files (x86)/gnu tools arm embedded/9 2019-q4-major/bin/../lib/gcc/arm-none-eabi/9.2.1/../../../../arm-none-eabi/lib/thumb/v7-m/nofp\libc_nano.a(lib_a-wbuf.o)
 .bss           0x00000000        0x0 c:/program files (x86)/gnu tools arm embedded/9 2019-q4-major/bin/../lib/gcc/arm-none-eabi/9.2.1/../../../../arm-none-eabi/lib/thumb/v7-m/nofp\libc_nano.a(lib_a-wbuf.o)
 .text.__swbuf  0x00000000       0x10 c:/program files (x86)/gnu tools arm embedded/9 2019-q4-major/bin/../lib/gcc/arm-none-eabi/9.2.1/../../../../arm-none-eabi/lib/thumb/v7-m/nofp\libc_nano.a(lib_a-wbuf.o)
 .text          0x00000000        0x0 c:/program files (x86)/gnu tools arm embedded/9 2019-q4-major/bin/../lib/gcc/arm-none-eabi/9.2.1/../../../../arm-none-eabi/lib/thumb/v7-m/nofp\libc_nano.a(lib_a-wsetup.o)
 .data          0x00000000        0x0 c:/program files (x86)/gnu tools arm embedded/9 2019-q4-major/bin/../lib/gcc/arm-none-eabi/9.2.1/../../../../arm-none-eabi/lib/thumb/v7-m/nofp\libc_nano.a(lib_a-wsetup.o)
 .bss           0x00000000        0x0 c:/program files (x86)/gnu tools arm embedded/9 2019-q4-major/bin/../lib/gcc/arm-none-eabi/9.2.1/../../../../arm-none-eabi/lib/thumb/v7-m/nofp\libc_nano.a(lib_a-wsetup.o)
 .text          0x00000000        0x0 c:/program files (x86)/gnu tools arm embedded/9 2019-q4-major/bin/../lib/gcc/arm-none-eabi/9.2.1/../../../../arm-none-eabi/lib/thumb/v7-m/nofp\libc_nano.a(lib_a-ctype_.o)
 .data          0x00000000        0x0 c:/program files (x86)/gnu tools arm embedded/9 2019-q4-major/bin/../lib/gcc/arm-none-eabi/9.2.1/../../../../arm-none-eabi/lib/thumb/v7-m/nofp\libc_nano.a(lib_a-ctype_.o)
 .bss           0x00000000        0x0 c:/program files (x86)/gnu tools arm embedded/9 2019-q4-major/bin/../lib/gcc/arm-none-eabi/9.2.1/../../../../arm-none-eabi/lib/thumb/v7-m/nofp\libc_nano.a(lib_a-ctype_.o)
 .rodata._ctype_
                0x00000000      0x101 c:/program files (x86)/gnu tools arm embedded/9 2019-q4-major/bin/../lib/gcc/arm-none-eabi/9.2.1/../../../../arm-none-eabi/lib/thumb/v7-m/nofp\libc_nano.a(lib_a-ctype_.o)
 .ARM.attributes
                0x00000000       0x2d c:/program files (x86)/gnu tools arm embedded/9 2019-q4-major/bin/../lib/gcc/arm-none-eabi/9.2.1/../../../../arm-none-eabi/lib/thumb/v7-m/nofp\libc_nano.a(lib_a-ctype_.o)
 .text          0x00000000        0x0 c:/program files (x86)/gnu tools arm embedded/9 2019-q4-major/bin/../lib/gcc/arm-none-eabi/9.2.1/../../../../arm-none-eabi/lib/thumb/v7-m/nofp\libc_nano.a(lib_a-fflush.o)
 .data          0x00000000        0x0 c:/program files (x86)/gnu tools arm embedded/9 2019-q4-major/bin/../lib/gcc/arm-none-eabi/9.2.1/../../../../arm-none-eabi/lib/thumb/v7-m/nofp\libc_nano.a(lib_a-fflush.o)
 .bss           0x00000000        0x0 c:/program files (x86)/gnu tools arm embedded/9 2019-q4-major/bin/../lib/gcc/arm-none-eabi/9.2.1/../../../../arm-none-eabi/lib/thumb/v7-m/nofp\libc_nano.a(lib_a-fflush.o)
 .text.fflush   0x00000000       0x24 c:/program files (x86)/gnu tools arm embedded/9 2019-q4-major/bin/../lib/gcc/arm-none-eabi/9.2.1/../../../../arm-none-eabi/lib/thumb/v7-m/nofp\libc_nano.a(lib_a-fflush.o)
 .text          0x00000000        0x0 c:/program files (x86)/gnu tools arm embedded/9 2019-q4-major/bin/../lib/gcc/arm-none-eabi/9.2.1/../../../../arm-none-eabi/lib/thumb/v7-m/nofp\libc_nano.a(lib_a-findfp.o)
 .data          0x00000000        0x0 c:/program files (x86)/gnu tools arm embedded/9 2019-q4-major/bin/../lib/gcc/arm-none-eabi/9.2.1/../../../../arm-none-eabi/lib/thumb/v7-m/nofp\libc_nano.a(lib_a-findfp.o)
 .bss           0x00000000        0x0 c:/program files (x86)/gnu tools arm embedded/9 2019-q4-major/bin/../lib/gcc/arm-none-eabi/9.2.1/../../../../arm-none-eabi/lib/thumb/v7-m/nofp\libc_nano.a(lib_a-findfp.o)
 .text.__fp_lock
                0x00000000       0x18 c:/program files (x86)/gnu tools arm embedded/9 2019-q4-major/bin/../lib/gcc/arm-none-eabi/9.2.1/../../../../arm-none-eabi/lib/thumb/v7-m/nofp\libc_nano.a(lib_a-findfp.o)
 .text.__fp_unlock
                0x00000000       0x18 c:/program files (x86)/gnu tools arm embedded/9 2019-q4-major/bin/../lib/gcc/arm-none-eabi/9.2.1/../../../../arm-none-eabi/lib/thumb/v7-m/nofp\libc_nano.a(lib_a-findfp.o)
 .text._cleanup
                0x00000000        0xc c:/program files (x86)/gnu tools arm embedded/9 2019-q4-major/bin/../lib/gcc/arm-none-eabi/9.2.1/../../../../arm-none-eabi/lib/thumb/v7-m/nofp\libc_nano.a(lib_a-findfp.o)
 .text.__fp_lock_all
                0x00000000       0x1c c:/program files (x86)/gnu tools arm embedded/9 2019-q4-major/bin/../lib/gcc/arm-none-eabi/9.2.1/../../../../arm-none-eabi/lib/thumb/v7-m/nofp\libc_nano.a(lib_a-findfp.o)
 .text.__fp_unlock_all
                0x00000000       0x1c c:/program files (x86)/gnu tools arm embedded/9 2019-q4-major/bin/../lib/gcc/arm-none-eabi/9.2.1/../../../../arm-none-eabi/lib/thumb/v7-m/nofp\libc_nano.a(lib_a-findfp.o)
 .text          0x00000000        0x0 c:/program files (x86)/gnu tools arm embedded/9 2019-q4-major/bin/../lib/gcc/arm-none-eabi/9.2.1/../../../../arm-none-eabi/lib/thumb/v7-m/nofp\libc_nano.a(lib_a-fwalk.o)
 .data          0x00000000        0x0 c:/program files (x86)/gnu tools arm embedded/9 2019-q4-major/bin/../lib/gcc/arm-none-eabi/9.2.1/../../../../arm-none-eabi/lib/thumb/v7-m/nofp\libc_nano.a(lib_a-fwalk.o)
 .bss           0x00000000        0x0 c:/program files (x86)/gnu tools arm embedded/9 2019-q4-major/bin/../lib/gcc/arm-none-eabi/9.2.1/../../../../arm-none-eabi/lib/thumb/v7-m/nofp\libc_nano.a(lib_a-fwalk.o)
 .text._fwalk   0x00000000       0x3a c:/program files (x86)/gnu tools arm embedded/9 2019-q4-major/bin/../lib/gcc/arm-none-eabi/9.2.1/../../../../arm-none-eabi/lib/thumb/v7-m/nofp\libc_nano.a(lib_a-fwalk.o)
 .text          0x00000000        0x0 c:/program files (x86)/gnu tools arm embedded/9 2019-q4-major/bin/../lib/gcc/arm-none-eabi/9.2.1/../../../../arm-none-eabi/lib/thumb/v7-m/nofp\libc_nano.a(lib_a-lock.o)
 .data          0x00000000        0x0 c:/program files (x86)/gnu tools arm embedded/9 2019-q4-major/bin/../lib/gcc/arm-none-eabi/9.2.1/../../../../arm-none-eabi/lib/thumb/v7-m/nofp\libc_nano.a(lib_a-lock.o)
 .bss           0x00000000        0x0 c:/program files (x86)/gnu tools arm embedded/9 2019-q4-major/bin/../lib/gcc/arm-none-eabi/9.2.1/../../../../arm-none-eabi/lib/thumb/v7-m/nofp\libc_nano.a(lib_a-lock.o)
 .text.__retarget_lock_init
                0x00000000        0x2 c:/program files (x86)/gnu tools arm embedded/9 2019-q4-major/bin/../lib/gcc/arm-none-eabi/9.2.1/../../../../arm-none-eabi/lib/thumb/v7-m/nofp\libc_nano.a(lib_a-lock.o)
 .text.__retarget_lock_close
                0x00000000        0x2 c:/program files (x86)/gnu tools arm embedded/9 2019-q4-major/bin/../lib/gcc/arm-none-eabi/9.2.1/../../../../arm-none-eabi/lib/thumb/v7-m/nofp\libc_nano.a(lib_a-lock.o)
 .text.__retarget_lock_close_recursive
                0x00000000        0x2 c:/program files (x86)/gnu tools arm embedded/9 2019-q4-major/bin/../lib/gcc/arm-none-eabi/9.2.1/../../../../arm-none-eabi/lib/thumb/v7-m/nofp\libc_nano.a(lib_a-lock.o)
 .text.__retarget_lock_acquire
                0x00000000        0x2 c:/program files (x86)/gnu tools arm embedded/9 2019-q4-major/bin/../lib/gcc/arm-none-eabi/9.2.1/../../../../arm-none-eabi/lib/thumb/v7-m/nofp\libc_nano.a(lib_a-lock.o)
 .text.__retarget_lock_try_acquire
                0x00000000        0x4 c:/program files (x86)/gnu tools arm embedded/9 2019-q4-major/bin/../lib/gcc/arm-none-eabi/9.2.1/../../../../arm-none-eabi/lib/thumb/v7-m/nofp\libc_nano.a(lib_a-lock.o)
 .text.__retarget_lock_try_acquire_recursive
                0x00000000        0x4 c:/program files (x86)/gnu tools arm embedded/9 2019-q4-major/bin/../lib/gcc/arm-none-eabi/9.2.1/../../../../arm-none-eabi/lib/thumb/v7-m/nofp\libc_nano.a(lib_a-lock.o)
 .text.__retarget_lock_release
                0x00000000        0x2 c:/program files (x86)/gnu tools arm embedded/9 2019-q4-major/bin/../lib/gcc/arm-none-eabi/9.2.1/../../../../arm-none-eabi/lib/thumb/v7-m/nofp\libc_nano.a(lib_a-lock.o)
 .text          0x00000000        0x0 c:/program files (x86)/gnu tools arm embedded/9 2019-q4-major/bin/../lib/gcc/arm-none-eabi/9.2.1/../../../../arm-none-eabi/lib/thumb/v7-m/nofp\libc_nano.a(lib_a-makebuf.o)
 .data          0x00000000        0x0 c:/program files (x86)/gnu tools arm embedded/9 2019-q4-major/bin/../lib/gcc/arm-none-eabi/9.2.1/../../../../arm-none-eabi/lib/thumb/v7-m/nofp\libc_nano.a(lib_a-makebuf.o)
 .bss           0x00000000        0x0 c:/program files (x86)/gnu tools arm embedded/9 2019-q4-major/bin/../lib/gcc/arm-none-eabi/9.2.1/../../../../arm-none-eabi/lib/thumb/v7-m/nofp\libc_nano.a(lib_a-makebuf.o)
 .text          0x00000000        0x0 c:/program files (x86)/gnu tools arm embedded/9 2019-q4-major/bin/../lib/gcc/arm-none-eabi/9.2.1/../../../../arm-none-eabi/lib/thumb/v7-m/nofp\libc_nano.a(lib_a-nano-freer.o)
 .data          0x00000000        0x0 c:/program files (x86)/gnu tools arm embedded/9 2019-q4-major/bin/../lib/gcc/arm-none-eabi/9.2.1/../../../../arm-none-eabi/lib/thumb/v7-m/nofp\libc_nano.a(lib_a-nano-freer.o)
 .bss           0x00000000        0x0 c:/program files (x86)/gnu tools arm embedded/9 2019-q4-major/bin/../lib/gcc/arm-none-eabi/9.2.1/../../../../arm-none-eabi/lib/thumb/v7-m/nofp\libc_nano.a(lib_a-nano-freer.o)
 .text          0x00000000        0x0 c:/program files (x86)/gnu tools arm embedded/9 2019-q4-major/bin/../lib/gcc/arm-none-eabi/9.2.1/../../../../arm-none-eabi/lib/thumb/v7-m/nofp\libc_nano.a(lib_a-nano-mallocr.o)
 .data          0x00000000        0x0 c:/program files (x86)/gnu tools arm embedded/9 2019-q4-major/bin/../lib/gcc/arm-none-eabi/9.2.1/../../../../arm-none-eabi/lib/thumb/v7-m/nofp\libc_nano.a(lib_a-nano-mallocr.o)
 .bss           0x00000000        0x0 c:/program files (x86)/gnu tools arm embedded/9 2019-q4-major/bin/../lib/gcc/arm-none-eabi/9.2.1/../../../../arm-none-eabi/lib/thumb/v7-m/nofp\libc_nano.a(lib_a-nano-mallocr.o)
 .text          0x00000000        0x0 c:/program files (x86)/gnu tools arm embedded/9 2019-q4-major/bin/../lib/gcc/arm-none-eabi/9.2.1/../../../../arm-none-eabi/lib/thumb/v7-m/nofp\libc_nano.a(lib_a-nano-vfprintf.o)
 .data          0x00000000        0x0 c:/program files (x86)/gnu tools arm embedded/9 2019-q4-major/bin/../lib/gcc/arm-none-eabi/9.2.1/../../../../arm-none-eabi/lib/thumb/v7-m/nofp\libc_nano.a(lib_a-nano-vfprintf.o)
 .bss           0x00000000        0x0 c:/program files (x86)/gnu tools arm embedded/9 2019-q4-major/bin/../lib/gcc/arm-none-eabi/9.2.1/../../../../arm-none-eabi/lib/thumb/v7-m/nofp\libc_nano.a(lib_a-nano-vfprintf.o)
 .text.__sprint_r
                0x00000000       0x1a c:/program files (x86)/gnu tools arm embedded/9 2019-q4-major/bin/../lib/gcc/arm-none-eabi/9.2.1/../../../../arm-none-eabi/lib/thumb/v7-m/nofp\libc_nano.a(lib_a-nano-vfprintf.o)
 .text.vfprintf
                0x00000000       0x14 c:/program files (x86)/gnu tools arm embedded/9 2019-q4-major/bin/../lib/gcc/arm-none-eabi/9.2.1/../../../../arm-none-eabi/lib/thumb/v7-m/nofp\libc_nano.a(lib_a-nano-vfprintf.o)
 .text          0x00000000        0x0 c:/program files (x86)/gnu tools arm embedded/9 2019-q4-major/bin/../lib/gcc/arm-none-eabi/9.2.1/../../../../arm-none-eabi/lib/thumb/v7-m/nofp\libc_nano.a(lib_a-nano-vfprintf_i.o)
 .data          0x00000000        0x0 c:/program files (x86)/gnu tools arm embedded/9 2019-q4-major/bin/../lib/gcc/arm-none-eabi/9.2.1/../../../../arm-none-eabi/lib/thumb/v7-m/nofp\libc_nano.a(lib_a-nano-vfprintf_i.o)
 .bss           0x00000000        0x0 c:/program files (x86)/gnu tools arm embedded/9 2019-q4-major/bin/../lib/gcc/arm-none-eabi/9.2.1/../../../../arm-none-eabi/lib/thumb/v7-m/nofp\libc_nano.a(lib_a-nano-vfprintf_i.o)
 .text          0x00000000        0x0 c:/program files (x86)/gnu tools arm embedded/9 2019-q4-major/bin/../lib/gcc/arm-none-eabi/9.2.1/../../../../arm-none-eabi/lib/thumb/v7-m/nofp\libc_nano.a(lib_a-sbrkr.o)
 .data          0x00000000        0x0 c:/program files (x86)/gnu tools arm embedded/9 2019-q4-major/bin/../lib/gcc/arm-none-eabi/9.2.1/../../../../arm-none-eabi/lib/thumb/v7-m/nofp\libc_nano.a(lib_a-sbrkr.o)
 .bss           0x00000000        0x0 c:/program files (x86)/gnu tools arm embedded/9 2019-q4-major/bin/../lib/gcc/arm-none-eabi/9.2.1/../../../../arm-none-eabi/lib/thumb/v7-m/nofp\libc_nano.a(lib_a-sbrkr.o)
 .text          0x00000000        0x0 c:/program files (x86)/gnu tools arm embedded/9 2019-q4-major/bin/../lib/gcc/arm-none-eabi/9.2.1/../../../../arm-none-eabi/lib/thumb/v7-m/nofp\libc_nano.a(lib_a-stdio.o)
 .data          0x00000000        0x0 c:/program files (x86)/gnu tools arm embedded/9 2019-q4-major/bin/../lib/gcc/arm-none-eabi/9.2.1/../../../../arm-none-eabi/lib/thumb/v7-m/nofp\libc_nano.a(lib_a-stdio.o)
 .bss           0x00000000        0x0 c:/program files (x86)/gnu tools arm embedded/9 2019-q4-major/bin/../lib/gcc/arm-none-eabi/9.2.1/../../../../arm-none-eabi/lib/thumb/v7-m/nofp\libc_nano.a(lib_a-stdio.o)
 .text.__seofread
                0x00000000        0x4 c:/program files (x86)/gnu tools arm embedded/9 2019-q4-major/bin/../lib/gcc/arm-none-eabi/9.2.1/../../../../arm-none-eabi/lib/thumb/v7-m/nofp\libc_nano.a(lib_a-stdio.o)
 .text          0x00000000        0x0 c:/program files (x86)/gnu tools arm embedded/9 2019-q4-major/bin/../lib/gcc/arm-none-eabi/9.2.1/../../../../arm-none-eabi/lib/thumb/v7-m/nofp\libc_nano.a(lib_a-writer.o)
 .data          0x00000000        0x0 c:/program files (x86)/gnu tools arm embedded/9 2019-q4-major/bin/../lib/gcc/arm-none-eabi/9.2.1/../../../../arm-none-eabi/lib/thumb/v7-m/nofp\libc_nano.a(lib_a-writer.o)
 .bss           0x00000000        0x0 c:/program files (x86)/gnu tools arm embedded/9 2019-q4-major/bin/../lib/gcc/arm-none-eabi/9.2.1/../../../../arm-none-eabi/lib/thumb/v7-m/nofp\libc_nano.a(lib_a-writer.o)
 .text          0x00000000        0x0 c:/program files (x86)/gnu tools arm embedded/9 2019-q4-major/bin/../lib/gcc/arm-none-eabi/9.2.1/../../../../arm-none-eabi/lib/thumb/v7-m/nofp\libc_nano.a(lib_a-closer.o)
 .data          0x00000000        0x0 c:/program files (x86)/gnu tools arm embedded/9 2019-q4-major/bin/../lib/gcc/arm-none-eabi/9.2.1/../../../../arm-none-eabi/lib/thumb/v7-m/nofp\libc_nano.a(lib_a-closer.o)
 .bss           0x00000000        0x0 c:/program files (x86)/gnu tools arm embedded/9 2019-q4-major/bin/../lib/gcc/arm-none-eabi/9.2.1/../../../../arm-none-eabi/lib/thumb/v7-m/nofp\libc_nano.a(lib_a-closer.o)
 .text          0x00000000        0x0 c:/program files (x86)/gnu tools arm embedded/9 2019-q4-major/bin/../lib/gcc/arm-none-eabi/9.2.1/../../../../arm-none-eabi/lib/thumb/v7-m/nofp\libc_nano.a(lib_a-fstatr.o)
 .data          0x00000000        0x0 c:/program files (x86)/gnu tools arm embedded/9 2019-q4-major/bin/../lib/gcc/arm-none-eabi/9.2.1/../../../../arm-none-eabi/lib/thumb/v7-m/nofp\libc_nano.a(lib_a-fstatr.o)
 .bss           0x00000000        0x0 c:/program files (x86)/gnu tools arm embedded/9 2019-q4-major/bin/../lib/gcc/arm-none-eabi/9.2.1/../../../../arm-none-eabi/lib/thumb/v7-m/nofp\libc_nano.a(lib_a-fstatr.o)
 .text          0x00000000        0x0 c:/program files (x86)/gnu tools arm embedded/9 2019-q4-major/bin/../lib/gcc/arm-none-eabi/9.2.1/../../../../arm-none-eabi/lib/thumb/v7-m/nofp\libc_nano.a(lib_a-fvwrite.o)
 .data          0x00000000        0x0 c:/program files (x86)/gnu tools arm embedded/9 2019-q4-major/bin/../lib/gcc/arm-none-eabi/9.2.1/../../../../arm-none-eabi/lib/thumb/v7-m/nofp\libc_nano.a(lib_a-fvwrite.o)
 .bss           0x00000000        0x0 c:/program files (x86)/gnu tools arm embedded/9 2019-q4-major/bin/../lib/gcc/arm-none-eabi/9.2.1/../../../../arm-none-eabi/lib/thumb/v7-m/nofp\libc_nano.a(lib_a-fvwrite.o)
 .text.__sfvwrite_r
                0x00000000      0x294 c:/program files (x86)/gnu tools arm embedded/9 2019-q4-major/bin/../lib/gcc/arm-none-eabi/9.2.1/../../../../arm-none-eabi/lib/thumb/v7-m/nofp\libc_nano.a(lib_a-fvwrite.o)
 .debug_frame   0x00000000       0x3c c:/program files (x86)/gnu tools arm embedded/9 2019-q4-major/bin/../lib/gcc/arm-none-eabi/9.2.1/../../../../arm-none-eabi/lib/thumb/v7-m/nofp\libc_nano.a(lib_a-fvwrite.o)
 .ARM.attributes
                0x00000000       0x2d c:/program files (x86)/gnu tools arm embedded/9 2019-q4-major/bin/../lib/gcc/arm-none-eabi/9.2.1/../../../../arm-none-eabi/lib/thumb/v7-m/nofp\libc_nano.a(lib_a-fvwrite.o)
 .text          0x00000000        0x0 c:/program files (x86)/gnu tools arm embedded/9 2019-q4-major/bin/../lib/gcc/arm-none-eabi/9.2.1/../../../../arm-none-eabi/lib/thumb/v7-m/nofp\libc_nano.a(lib_a-isattyr.o)
 .data          0x00000000        0x0 c:/program files (x86)/gnu tools arm embedded/9 2019-q4-major/bin/../lib/gcc/arm-none-eabi/9.2.1/../../../../arm-none-eabi/lib/thumb/v7-m/nofp\libc_nano.a(lib_a-isattyr.o)
 .bss           0x00000000        0x0 c:/program files (x86)/gnu tools arm embedded/9 2019-q4-major/bin/../lib/gcc/arm-none-eabi/9.2.1/../../../../arm-none-eabi/lib/thumb/v7-m/nofp\libc_nano.a(lib_a-isattyr.o)
 .text          0x00000000        0x0 c:/program files (x86)/gnu tools arm embedded/9 2019-q4-major/bin/../lib/gcc/arm-none-eabi/9.2.1/../../../../arm-none-eabi/lib/thumb/v7-m/nofp\libc_nano.a(lib_a-lseekr.o)
 .data          0x00000000        0x0 c:/program files (x86)/gnu tools arm embedded/9 2019-q4-major/bin/../lib/gcc/arm-none-eabi/9.2.1/../../../../arm-none-eabi/lib/thumb/v7-m/nofp\libc_nano.a(lib_a-lseekr.o)
 .bss           0x00000000        0x0 c:/program files (x86)/gnu tools arm embedded/9 2019-q4-major/bin/../lib/gcc/arm-none-eabi/9.2.1/../../../../arm-none-eabi/lib/thumb/v7-m/nofp\libc_nano.a(lib_a-lseekr.o)
 .text          0x00000000        0x0 c:/program files (x86)/gnu tools arm embedded/9 2019-q4-major/bin/../lib/gcc/arm-none-eabi/9.2.1/../../../../arm-none-eabi/lib/thumb/v7-m/nofp\libc_nano.a(lib_a-memchr-stub.o)
 .data          0x00000000        0x0 c:/program files (x86)/gnu tools arm embedded/9 2019-q4-major/bin/../lib/gcc/arm-none-eabi/9.2.1/../../../../arm-none-eabi/lib/thumb/v7-m/nofp\libc_nano.a(lib_a-memchr-stub.o)
 .bss           0x00000000        0x0 c:/program files (x86)/gnu tools arm embedded/9 2019-q4-major/bin/../lib/gcc/arm-none-eabi/9.2.1/../../../../arm-none-eabi/lib/thumb/v7-m/nofp\libc_nano.a(lib_a-memchr-stub.o)
 .text          0x00000000        0x0 c:/program files (x86)/gnu tools arm embedded/9 2019-q4-major/bin/../lib/gcc/arm-none-eabi/9.2.1/../../../../arm-none-eabi/lib/thumb/v7-m/nofp\libc_nano.a(lib_a-memmove.o)
 .data          0x00000000        0x0 c:/program files (x86)/gnu tools arm embedded/9 2019-q4-major/bin/../lib/gcc/arm-none-eabi/9.2.1/../../../../arm-none-eabi/lib/thumb/v7-m/nofp\libc_nano.a(lib_a-memmove.o)
 .bss           0x00000000        0x0 c:/program files (x86)/gnu tools arm embedded/9 2019-q4-major/bin/../lib/gcc/arm-none-eabi/9.2.1/../../../../arm-none-eabi/lib/thumb/v7-m/nofp\libc_nano.a(lib_a-memmove.o)
 .text.memmove  0x00000000       0x34 c:/program files (x86)/gnu tools arm embedded/9 2019-q4-major/bin/../lib/gcc/arm-none-eabi/9.2.1/../../../../arm-none-eabi/lib/thumb/v7-m/nofp\libc_nano.a(lib_a-memmove.o)
 .debug_frame   0x00000000       0x28 c:/program files (x86)/gnu tools arm embedded/9 2019-q4-major/bin/../lib/gcc/arm-none-eabi/9.2.1/../../../../arm-none-eabi/lib/thumb/v7-m/nofp\libc_nano.a(lib_a-memmove.o)
 .ARM.attributes
                0x00000000       0x2d c:/program files (x86)/gnu tools arm embedded/9 2019-q4-major/bin/../lib/gcc/arm-none-eabi/9.2.1/../../../../arm-none-eabi/lib/thumb/v7-m/nofp\libc_nano.a(lib_a-memmove.o)
 .text          0x00000000        0x0 c:/program files (x86)/gnu tools arm embedded/9 2019-q4-major/bin/../lib/gcc/arm-none-eabi/9.2.1/../../../../arm-none-eabi/lib/thumb/v7-m/nofp\libc_nano.a(lib_a-mlock.o)
 .data          0x00000000        0x0 c:/program files (x86)/gnu tools arm embedded/9 2019-q4-major/bin/../lib/gcc/arm-none-eabi/9.2.1/../../../../arm-none-eabi/lib/thumb/v7-m/nofp\libc_nano.a(lib_a-mlock.o)
 .bss           0x00000000        0x0 c:/program files (x86)/gnu tools arm embedded/9 2019-q4-major/bin/../lib/gcc/arm-none-eabi/9.2.1/../../../../arm-none-eabi/lib/thumb/v7-m/nofp\libc_nano.a(lib_a-mlock.o)
 .text          0x00000000        0x0 c:/program files (x86)/gnu tools arm embedded/9 2019-q4-major/bin/../lib/gcc/arm-none-eabi/9.2.1/../../../../arm-none-eabi/lib/thumb/v7-m/nofp\libc_nano.a(lib_a-nano-reallocr.o)
 .data          0x00000000        0x0 c:/program files (x86)/gnu tools arm embedded/9 2019-q4-major/bin/../lib/gcc/arm-none-eabi/9.2.1/../../../../arm-none-eabi/lib/thumb/v7-m/nofp\libc_nano.a(lib_a-nano-reallocr.o)
 .bss           0x00000000        0x0 c:/program files (x86)/gnu tools arm embedded/9 2019-q4-major/bin/../lib/gcc/arm-none-eabi/9.2.1/../../../../arm-none-eabi/lib/thumb/v7-m/nofp\libc_nano.a(lib_a-nano-reallocr.o)
 .text._realloc_r
                0x00000000       0x4c c:/program files (x86)/gnu tools arm embedded/9 2019-q4-major/bin/../lib/gcc/arm-none-eabi/9.2.1/../../../../arm-none-eabi/lib/thumb/v7-m/nofp\libc_nano.a(lib_a-nano-reallocr.o)
 .debug_frame   0x00000000       0x3c c:/program files (x86)/gnu tools arm embedded/9 2019-q4-major/bin/../lib/gcc/arm-none-eabi/9.2.1/../../../../arm-none-eabi/lib/thumb/v7-m/nofp\libc_nano.a(lib_a-nano-reallocr.o)
 .ARM.attributes
                0x00000000       0x2d c:/program files (x86)/gnu tools arm embedded/9 2019-q4-major/bin/../lib/gcc/arm-none-eabi/9.2.1/../../../../arm-none-eabi/lib/thumb/v7-m/nofp\libc_nano.a(lib_a-nano-reallocr.o)
 .text          0x00000000        0x0 c:/program files (x86)/gnu tools arm embedded/9 2019-q4-major/bin/../lib/gcc/arm-none-eabi/9.2.1/../../../../arm-none-eabi/lib/thumb/v7-m/nofp\libc_nano.a(lib_a-readr.o)
 .data          0x00000000        0x0 c:/program files (x86)/gnu tools arm embedded/9 2019-q4-major/bin/../lib/gcc/arm-none-eabi/9.2.1/../../../../arm-none-eabi/lib/thumb/v7-m/nofp\libc_nano.a(lib_a-readr.o)
 .bss           0x00000000        0x0 c:/program files (x86)/gnu tools arm embedded/9 2019-q4-major/bin/../lib/gcc/arm-none-eabi/9.2.1/../../../../arm-none-eabi/lib/thumb/v7-m/nofp\libc_nano.a(lib_a-readr.o)
 .text          0x00000000        0x0 c:/program files (x86)/gnu tools arm embedded/9 2019-q4-major/bin/../lib/gcc/arm-none-eabi/9.2.1/../../../../arm-none-eabi/lib/thumb/v7-m/nofp\libc_nano.a(lib_a-reent.o)
 .data          0x00000000        0x0 c:/program files (x86)/gnu tools arm embedded/9 2019-q4-major/bin/../lib/gcc/arm-none-eabi/9.2.1/../../../../arm-none-eabi/lib/thumb/v7-m/nofp\libc_nano.a(lib_a-reent.o)
 .bss           0x00000000        0x0 c:/program files (x86)/gnu tools arm embedded/9 2019-q4-major/bin/../lib/gcc/arm-none-eabi/9.2.1/../../../../arm-none-eabi/lib/thumb/v7-m/nofp\libc_nano.a(lib_a-reent.o)
 .text.cleanup_glue
                0x00000000       0x1a c:/program files (x86)/gnu tools arm embedded/9 2019-q4-major/bin/../lib/gcc/arm-none-eabi/9.2.1/../../../../arm-none-eabi/lib/thumb/v7-m/nofp\libc_nano.a(lib_a-reent.o)
 .text._reclaim_reent
                0x00000000       0xb8 c:/program files (x86)/gnu tools arm embedded/9 2019-q4-major/bin/../lib/gcc/arm-none-eabi/9.2.1/../../../../arm-none-eabi/lib/thumb/v7-m/nofp\libc_nano.a(lib_a-reent.o)
 .text          0x00000000        0x0 c:/program files (x86)/gnu tools arm embedded/9 2019-q4-major/bin/../lib/gcc/arm-none-eabi/9.2.1/../../../../arm-none-eabi/lib/thumb/v7-m/nofp\libc_nano.a(lib_a-nano-msizer.o)
 .data          0x00000000        0x0 c:/program files (x86)/gnu tools arm embedded/9 2019-q4-major/bin/../lib/gcc/arm-none-eabi/9.2.1/../../../../arm-none-eabi/lib/thumb/v7-m/nofp\libc_nano.a(lib_a-nano-msizer.o)
 .bss           0x00000000        0x0 c:/program files (x86)/gnu tools arm embedded/9 2019-q4-major/bin/../lib/gcc/arm-none-eabi/9.2.1/../../../../arm-none-eabi/lib/thumb/v7-m/nofp\libc_nano.a(lib_a-nano-msizer.o)
 .text._malloc_usable_size_r
                0x00000000       0x10 c:/program files (x86)/gnu tools arm embedded/9 2019-q4-major/bin/../lib/gcc/arm-none-eabi/9.2.1/../../../../arm-none-eabi/lib/thumb/v7-m/nofp\libc_nano.a(lib_a-nano-msizer.o)
 .debug_frame   0x00000000       0x20 c:/program files (x86)/gnu tools arm embedded/9 2019-q4-major/bin/../lib/gcc/arm-none-eabi/9.2.1/../../../../arm-none-eabi/lib/thumb/v7-m/nofp\libc_nano.a(lib_a-nano-msizer.o)
 .ARM.attributes
                0x00000000       0x2d c:/program files (x86)/gnu tools arm embedded/9 2019-q4-major/bin/../lib/gcc/arm-none-eabi/9.2.1/../../../../arm-none-eabi/lib/thumb/v7-m/nofp\libc_nano.a(lib_a-nano-msizer.o)
 .text          0x00000000        0x0 c:/program files (x86)/gnu tools arm embedded/9 2019-q4-major/bin/../lib/gcc/arm-none-eabi/9.2.1/../../../../arm-none-eabi/lib/thumb/v7-m/nofp\libnosys.a(close.o)
 .data          0x00000000        0x0 c:/program files (x86)/gnu tools arm embedded/9 2019-q4-major/bin/../lib/gcc/arm-none-eabi/9.2.1/../../../../arm-none-eabi/lib/thumb/v7-m/nofp\libnosys.a(close.o)
 .bss           0x00000000        0x0 c:/program files (x86)/gnu tools arm embedded/9 2019-q4-major/bin/../lib/gcc/arm-none-eabi/9.2.1/../../../../arm-none-eabi/lib/thumb/v7-m/nofp\libnosys.a(close.o)
 .text          0x00000000        0x0 c:/program files (x86)/gnu tools arm embedded/9 2019-q4-major/bin/../lib/gcc/arm-none-eabi/9.2.1/../../../../arm-none-eabi/lib/thumb/v7-m/nofp\libnosys.a(fstat.o)
 .data          0x00000000        0x0 c:/program files (x86)/gnu tools arm embedded/9 2019-q4-major/bin/../lib/gcc/arm-none-eabi/9.2.1/../../../../arm-none-eabi/lib/thumb/v7-m/nofp\libnosys.a(fstat.o)
 .bss           0x00000000        0x0 c:/program files (x86)/gnu tools arm embedded/9 2019-q4-major/bin/../lib/gcc/arm-none-eabi/9.2.1/../../../../arm-none-eabi/lib/thumb/v7-m/nofp\libnosys.a(fstat.o)
 .text          0x00000000        0x0 c:/program files (x86)/gnu tools arm embedded/9 2019-q4-major/bin/../lib/gcc/arm-none-eabi/9.2.1/../../../../arm-none-eabi/lib/thumb/v7-m/nofp\libnosys.a(isatty.o)
 .data          0x00000000        0x0 c:/program files (x86)/gnu tools arm embedded/9 2019-q4-major/bin/../lib/gcc/arm-none-eabi/9.2.1/../../../../arm-none-eabi/lib/thumb/v7-m/nofp\libnosys.a(isatty.o)
 .bss           0x00000000        0x0 c:/program files (x86)/gnu tools arm embedded/9 2019-q4-major/bin/../lib/gcc/arm-none-eabi/9.2.1/../../../../arm-none-eabi/lib/thumb/v7-m/nofp\libnosys.a(isatty.o)
 .text          0x00000000        0x0 c:/program files (x86)/gnu tools arm embedded/9 2019-q4-major/bin/../lib/gcc/arm-none-eabi/9.2.1/../../../../arm-none-eabi/lib/thumb/v7-m/nofp\libnosys.a(lseek.o)
 .data          0x00000000        0x0 c:/program files (x86)/gnu tools arm embedded/9 2019-q4-major/bin/../lib/gcc/arm-none-eabi/9.2.1/../../../../arm-none-eabi/lib/thumb/v7-m/nofp\libnosys.a(lseek.o)
 .bss           0x00000000        0x0 c:/program files (x86)/gnu tools arm embedded/9 2019-q4-major/bin/../lib/gcc/arm-none-eabi/9.2.1/../../../../arm-none-eabi/lib/thumb/v7-m/nofp\libnosys.a(lseek.o)
 .text          0x00000000        0x0 c:/program files (x86)/gnu tools arm embedded/9 2019-q4-major/bin/../lib/gcc/arm-none-eabi/9.2.1/../../../../arm-none-eabi/lib/thumb/v7-m/nofp\libnosys.a(read.o)
 .data          0x00000000        0x0 c:/program files (x86)/gnu tools arm embedded/9 2019-q4-major/bin/../lib/gcc/arm-none-eabi/9.2.1/../../../../arm-none-eabi/lib/thumb/v7-m/nofp\libnosys.a(read.o)
 .bss           0x00000000        0x0 c:/program files (x86)/gnu tools arm embedded/9 2019-q4-major/bin/../lib/gcc/arm-none-eabi/9.2.1/../../../../arm-none-eabi/lib/thumb/v7-m/nofp\libnosys.a(read.o)
 .text          0x00000000        0x0 c:/program files (x86)/gnu tools arm embedded/9 2019-q4-major/bin/../lib/gcc/arm-none-eabi/9.2.1/../../../../arm-none-eabi/lib/thumb/v7-m/nofp\libnosys.a(sbrk.o)
 .data          0x00000000        0x0 c:/program files (x86)/gnu tools arm embedded/9 2019-q4-major/bin/../lib/gcc/arm-none-eabi/9.2.1/../../../../arm-none-eabi/lib/thumb/v7-m/nofp\libnosys.a(sbrk.o)
 .bss           0x00000000        0x0 c:/program files (x86)/gnu tools arm embedded/9 2019-q4-major/bin/../lib/gcc/arm-none-eabi/9.2.1/../../../../arm-none-eabi/lib/thumb/v7-m/nofp\libnosys.a(sbrk.o)
 .text          0x00000000        0x0 c:/program files (x86)/gnu tools arm embedded/9 2019-q4-major/bin/../lib/gcc/arm-none-eabi/9.2.1/../../../../arm-none-eabi/lib/thumb/v7-m/nofp\libnosys.a(_exit.o)
 .data          0x00000000        0x0 c:/program files (x86)/gnu tools arm embedded/9 2019-q4-major/bin/../lib/gcc/arm-none-eabi/9.2.1/../../../../arm-none-eabi/lib/thumb/v7-m/nofp\libnosys.a(_exit.o)
 .bss           0x00000000        0x0 c:/program files (x86)/gnu tools arm embedded/9 2019-q4-major/bin/../lib/gcc/arm-none-eabi/9.2.1/../../../../arm-none-eabi/lib/thumb/v7-m/nofp\libnosys.a(_exit.o)
 .text._exit    0x00000000        0x4 c:/program files (x86)/gnu tools arm embedded/9 2019-q4-major/bin/../lib/gcc/arm-none-eabi/9.2.1/../../../../arm-none-eabi/lib/thumb/v7-m/nofp\libnosys.a(_exit.o)
 .debug_frame   0x00000000       0x20 c:/program files (x86)/gnu tools arm embedded/9 2019-q4-major/bin/../lib/gcc/arm-none-eabi/9.2.1/../../../../arm-none-eabi/lib/thumb/v7-m/nofp\libnosys.a(_exit.o)
 .ARM.attributes
                0x00000000       0x2d c:/program files (x86)/gnu tools arm embedded/9 2019-q4-major/bin/../lib/gcc/arm-none-eabi/9.2.1/../../../../arm-none-eabi/lib/thumb/v7-m/nofp\libnosys.a(_exit.o)
 .text          0x00000000        0x0 ./Lib\libsw_i2c0.a(sw_i2c0.o)
 .data          0x00000000        0x0 ./Lib\libsw_i2c0.a(sw_i2c0.o)
 .bss           0x00000000        0x0 ./Lib\libsw_i2c0.a(sw_i2c0.o)
 .rodata.TWI_ACK
                0x00000000        0x1 ./Lib\libsw_i2c0.a(sw_i2c0.o)
 .rodata.TWI_READY
                0x00000000        0x1 ./Lib\libsw_i2c0.a(sw_i2c0.o)
 .rodata.TWI_NACK
                0x00000000        0x1 ./Lib\libsw_i2c0.a(sw_i2c0.o)
 .rodata.TWI_BUS_BUSY
                0x00000000        0x1 ./Lib\libsw_i2c0.a(sw_i2c0.o)
 .rodata.TWI_BUS_ERROR
                0x00000000        0x1 ./Lib\libsw_i2c0.a(sw_i2c0.o)
 .text.TWI_SendACK
                0x00000000       0x24 ./Lib\libsw_i2c0.a(sw_i2c0.o)
 .text.I2C0_WriteNByte
                0x00000000       0x5c ./Lib\libsw_i2c0.a(sw_i2c0.o)
 .text.I2C0_nRead
                0x00000000       0x88 ./Lib\libsw_i2c0.a(sw_i2c0.o)
 .text          0x00000000        0x0 ./Lib\libsw_i2c1.a(sw_i2c1.o)
 .data          0x00000000        0x0 ./Lib\libsw_i2c1.a(sw_i2c1.o)
 .bss           0x00000000        0x0 ./Lib\libsw_i2c1.a(sw_i2c1.o)
 .rodata.TWI_ACK
                0x00000000        0x1 ./Lib\libsw_i2c1.a(sw_i2c1.o)
 .rodata.TWI_READY
                0x00000000        0x1 ./Lib\libsw_i2c1.a(sw_i2c1.o)
 .rodata.TWI_NACK
                0x00000000        0x1 ./Lib\libsw_i2c1.a(sw_i2c1.o)
 .rodata.TWI_BUS_BUSY
                0x00000000        0x1 ./Lib\libsw_i2c1.a(sw_i2c1.o)
 .rodata.TWI_BUS_ERROR
                0x00000000        0x1 ./Lib\libsw_i2c1.a(sw_i2c1.o)
 .text.TWI_SendACK
                0x00000000       0x24 ./Lib\libsw_i2c1.a(sw_i2c1.o)
 .text.SW_I2C1nRead
                0x00000000       0x88 ./Lib\libsw_i2c1.a(sw_i2c1.o)
 .text.I2CReStart2
                0x00000000       0x20 ./Lib\libsw_i2c1.a(sw_i2c1.o)
 .text          0x00000000        0x0 ./Lib\libsw_i2c2.a(sw_i2c2.o)
 .data          0x00000000        0x0 ./Lib\libsw_i2c2.a(sw_i2c2.o)
 .bss           0x00000000        0x0 ./Lib\libsw_i2c2.a(sw_i2c2.o)
 .rodata.TWI_ACK
                0x00000000        0x1 ./Lib\libsw_i2c2.a(sw_i2c2.o)
 .rodata.TWI_READY
                0x00000000        0x1 ./Lib\libsw_i2c2.a(sw_i2c2.o)
 .rodata.TWI_NACK
                0x00000000        0x1 ./Lib\libsw_i2c2.a(sw_i2c2.o)
 .rodata.TWI_BUS_BUSY
                0x00000000        0x1 ./Lib\libsw_i2c2.a(sw_i2c2.o)
 .rodata.TWI_BUS_ERROR
                0x00000000        0x1 ./Lib\libsw_i2c2.a(sw_i2c2.o)
 .text.TWI_START
                0x00000000       0x46 ./Lib\libsw_i2c2.a(sw_i2c2.o)
 .text.TWI_STOP
                0x00000000       0x20 ./Lib\libsw_i2c2.a(sw_i2c2.o)
 .text.TWI_SendACK
                0x00000000       0x24 ./Lib\libsw_i2c2.a(sw_i2c2.o)
 .text.TWI_SendNACK
                0x00000000       0x20 ./Lib\libsw_i2c2.a(sw_i2c2.o)
 .text.TWI_SendByte
                0x00000000       0x80 ./Lib\libsw_i2c2.a(sw_i2c2.o)
 .text.TWI_ReceiveByte
                0x00000000       0x56 ./Lib\libsw_i2c2.a(sw_i2c2.o)
 .text.SW_I2C2Write
                0x00000000       0x3a ./Lib\libsw_i2c2.a(sw_i2c2.o)
 .text.SW_I2C2WriteNByte
                0x00000000       0x5c ./Lib\libsw_i2c2.a(sw_i2c2.o)
 .text.SW_I2C2Read
                0x00000000       0x5c ./Lib\libsw_i2c2.a(sw_i2c2.o)
 .text.SW_I2C2nRead
                0x00000000       0x88 ./Lib\libsw_i2c2.a(sw_i2c2.o)
 .text.WriteI2C
                0x00000000       0x3a ./Lib\libsw_i2c2.a(sw_i2c2.o)
 .text          0x00000000        0x0 ./Lib\libsw_i2c3.a(sw_i2c3.o)
 .data          0x00000000        0x0 ./Lib\libsw_i2c3.a(sw_i2c3.o)
 .bss           0x00000000        0x0 ./Lib\libsw_i2c3.a(sw_i2c3.o)
 .rodata.TWI_ACK
                0x00000000        0x1 ./Lib\libsw_i2c3.a(sw_i2c3.o)
 .rodata.TWI_READY
                0x00000000        0x1 ./Lib\libsw_i2c3.a(sw_i2c3.o)
 .rodata.TWI_NACK
                0x00000000        0x1 ./Lib\libsw_i2c3.a(sw_i2c3.o)
 .rodata.TWI_BUS_BUSY
                0x00000000        0x1 ./Lib\libsw_i2c3.a(sw_i2c3.o)
 .rodata.TWI_BUS_ERROR
                0x00000000        0x1 ./Lib\libsw_i2c3.a(sw_i2c3.o)
 .text.TWI_START
                0x00000000       0x46 ./Lib\libsw_i2c3.a(sw_i2c3.o)
 .text.TWI_STOP
                0x00000000       0x20 ./Lib\libsw_i2c3.a(sw_i2c3.o)
 .text.TWI_SendACK
                0x00000000       0x24 ./Lib\libsw_i2c3.a(sw_i2c3.o)
 .text.TWI_SendNACK
                0x00000000       0x20 ./Lib\libsw_i2c3.a(sw_i2c3.o)
 .text.TWI_SendByte
                0x00000000       0x80 ./Lib\libsw_i2c3.a(sw_i2c3.o)
 .text.TWI_ReceiveByte
                0x00000000       0x56 ./Lib\libsw_i2c3.a(sw_i2c3.o)
 .text.I2C3_Write
                0x00000000       0x46 ./Lib\libsw_i2c3.a(sw_i2c3.o)
 .text.I2C3_Read
                0x00000000       0x54 ./Lib\libsw_i2c3.a(sw_i2c3.o)
 .text.I2C3_nRead
                0x00000000       0xa0 ./Lib\libsw_i2c3.a(sw_i2c3.o)
 .text.I2CReStart3
                0x00000000       0x20 ./Lib\libsw_i2c3.a(sw_i2c3.o)
 .text.I2CWriteData6
                0x00000000       0x58 ./Lib\libsw_i2c3.a(sw_i2c3.o)
 .text          0x00000000        0x0 c:/program files (x86)/gnu tools arm embedded/9 2019-q4-major/bin/../lib/gcc/arm-none-eabi/9.2.1/thumb/v7-m/nofp/crtend.o
 .data          0x00000000        0x0 c:/program files (x86)/gnu tools arm embedded/9 2019-q4-major/bin/../lib/gcc/arm-none-eabi/9.2.1/thumb/v7-m/nofp/crtend.o
 .bss           0x00000000        0x0 c:/program files (x86)/gnu tools arm embedded/9 2019-q4-major/bin/../lib/gcc/arm-none-eabi/9.2.1/thumb/v7-m/nofp/crtend.o
 .eh_frame      0x00000000        0x4 c:/program files (x86)/gnu tools arm embedded/9 2019-q4-major/bin/../lib/gcc/arm-none-eabi/9.2.1/thumb/v7-m/nofp/crtend.o
 .ARM.attributes
                0x00000000       0x2d c:/program files (x86)/gnu tools arm embedded/9 2019-q4-major/bin/../lib/gcc/arm-none-eabi/9.2.1/thumb/v7-m/nofp/crtend.o
 .text          0x00000000        0x0 c:/program files (x86)/gnu tools arm embedded/9 2019-q4-major/bin/../lib/gcc/arm-none-eabi/9.2.1/thumb/v7-m/nofp/crtn.o
 .data          0x00000000        0x0 c:/program files (x86)/gnu tools arm embedded/9 2019-q4-major/bin/../lib/gcc/arm-none-eabi/9.2.1/thumb/v7-m/nofp/crtn.o
 .bss           0x00000000        0x0 c:/program files (x86)/gnu tools arm embedded/9 2019-q4-major/bin/../lib/gcc/arm-none-eabi/9.2.1/thumb/v7-m/nofp/crtn.o

Memory Configuration

Name             Origin             Length             Attributes
RAM              0x20000000         0x00005000         xrw
FLASH            0x08000000         0x00020000         xr
*default*        0x00000000         0xffffffff

Linker script and memory map

LOAD c:/program files (x86)/gnu tools arm embedded/9 2019-q4-major/bin/../lib/gcc/arm-none-eabi/9.2.1/thumb/v7-m/nofp/crti.o
LOAD c:/program files (x86)/gnu tools arm embedded/9 2019-q4-major/bin/../lib/gcc/arm-none-eabi/9.2.1/thumb/v7-m/nofp/crtbegin.o
LOAD c:/program files (x86)/gnu tools arm embedded/9 2019-q4-major/bin/../lib/gcc/arm-none-eabi/9.2.1/../../../../arm-none-eabi/lib/thumb/v7-m/nofp/crt0.o
LOAD build/main.o
LOAD build/stm32f1xx_it.o
LOAD build/stm32f1xx_hal_msp.o
LOAD build/stm32f1xx_hal_gpio_ex.o
LOAD build/stm32f1xx_hal_tim.o
LOAD build/stm32f1xx_hal_tim_ex.o
LOAD build/stm32f1xx_hal_uart.o
LOAD build/stm32f1xx_hal.o
LOAD build/stm32f1xx_hal_rcc.o
LOAD build/stm32f1xx_hal_rcc_ex.o
LOAD build/stm32f1xx_hal_gpio.o
LOAD build/stm32f1xx_hal_dma.o
LOAD build/stm32f1xx_hal_cortex.o
LOAD build/stm32f1xx_hal_pwr.o
LOAD build/stm32f1xx_hal_flash.o
LOAD build/stm32f1xx_hal_flash_ex.o
LOAD build/stm32f1xx_hal_exti.o
LOAD build/stm32f1xx_hal_adc.o
LOAD build/stm32f1xx_hal_adc_ex.o
LOAD build/system_stm32f1xx.o
LOAD build/VX_swi2c.o
LOAD build/VS4210_param_Mode88.o
LOAD build/VS4210_param_Modex26.o
LOAD build/VX_OSD.o
LOAD build/VX_OSD_Simple.o
LOAD build/VS4210.o
LOAD build/TP2802.o
LOAD build/monitor.o
LOAD build/Printf.o
LOAD build/SysTimer.o
LOAD build/etc_eep.o
LOAD build/keyremo.o
LOAD build/audio.o
LOAD build/exosd.o
LOAD build/GT911.o
LOAD build/VX8812.o
LOAD build/TD5300.o
LOAD build/startup_stm32f103xb.o
LOAD c:/program files (x86)/gnu tools arm embedded/9 2019-q4-major/bin/../lib/gcc/arm-none-eabi/9.2.1/../../../../arm-none-eabi/lib/thumb/v7-m/nofp\libc_nano.a
LOAD c:/program files (x86)/gnu tools arm embedded/9 2019-q4-major/bin/../lib/gcc/arm-none-eabi/9.2.1/../../../../arm-none-eabi/lib/thumb/v7-m/nofp\libm.a
LOAD c:/program files (x86)/gnu tools arm embedded/9 2019-q4-major/bin/../lib/gcc/arm-none-eabi/9.2.1/../../../../arm-none-eabi/lib/thumb/v7-m/nofp\libnosys.a
LOAD ./Lib\libsw_i2c0.a
LOAD ./Lib\libsw_i2c1.a
LOAD ./Lib\libsw_i2c2.a
LOAD ./Lib\libsw_i2c3.a
LOAD ./Lib\libite66121dvi.a
START GROUP
LOAD c:/program files (x86)/gnu tools arm embedded/9 2019-q4-major/bin/../lib/gcc/arm-none-eabi/9.2.1/thumb/v7-m/nofp\libgcc.a
LOAD c:/program files (x86)/gnu tools arm embedded/9 2019-q4-major/bin/../lib/gcc/arm-none-eabi/9.2.1/../../../../arm-none-eabi/lib/thumb/v7-m/nofp\libc_nano.a
END GROUP
START GROUP
LOAD c:/program files (x86)/gnu tools arm embedded/9 2019-q4-major/bin/../lib/gcc/arm-none-eabi/9.2.1/thumb/v7-m/nofp\libgcc.a
LOAD c:/program files (x86)/gnu tools arm embedded/9 2019-q4-major/bin/../lib/gcc/arm-none-eabi/9.2.1/../../../../arm-none-eabi/lib/thumb/v7-m/nofp\libc_nano.a
END GROUP
LOAD c:/program files (x86)/gnu tools arm embedded/9 2019-q4-major/bin/../lib/gcc/arm-none-eabi/9.2.1/thumb/v7-m/nofp/crtend.o
LOAD c:/program files (x86)/gnu tools arm embedded/9 2019-q4-major/bin/../lib/gcc/arm-none-eabi/9.2.1/thumb/v7-m/nofp/crtn.o
                0x20005000                _estack = 0x20005000
                0x00000200                _Min_Heap_Size = 0x200
                0x00000400                _Min_Stack_Size = 0x400

.isr_vector     0x08000000      0x10c
                0x08000000                . = ALIGN (0x4)
 *(.isr_vector)
 .isr_vector    0x08000000      0x10c build/startup_stm32f103xb.o
                0x08000000                g_pfnVectors
                0x0800010c                . = ALIGN (0x4)

.text           0x0800010c    0x17080
                0x0800010c                . = ALIGN (0x4)
 *(.text)
 .text          0x0800010c       0x40 c:/program files (x86)/gnu tools arm embedded/9 2019-q4-major/bin/../lib/gcc/arm-none-eabi/9.2.1/thumb/v7-m/nofp/crtbegin.o
 *(.text*)
 .text.MX_GPIO_Init
                0x0800014c      0x12c build/main.o
 .text.MX_TIM2_Init
                0x08000278       0x64 build/main.o
 .text.MX_TIM3_Init
                0x080002dc       0x54 build/main.o
 .text.MX_USART1_UART_Init
                0x08000330       0x2c build/main.o
 .text.MX_USART2_UART_Init
                0x0800035c       0x2c build/main.o
 .text.MX_ADC1_Init
                0x08000388       0x4c build/main.o
 .text._write   0x080003d4       0x34 build/main.o
                0x080003d4                _write
 .text.RS2_tx   0x08000408       0x24 build/main.o
                0x08000408                RS2_tx
 .text.InitialTimerEvent
                0x0800042c       0x26 build/main.o
                0x0800042c                InitialTimerEvent
 *fill*         0x08000452        0x2 
 .text.setloopoutmode
                0x08000454      0xfac build/main.o
                0x08000454                setloopoutmode
 .text.main_init
                0x08001400       0x98 build/main.o
                0x08001400                main_init
 .text.LCDPowerON
                0x08001498       0xd0 build/main.o
                0x08001498                LCDPowerON
 .text.LCDPowerOFF
                0x08001568       0x64 build/main.o
                0x08001568                LCDPowerOFF
 .text.SETTW8812OFF
                0x080015cc        0xc build/main.o
                0x080015cc                SETTW8812OFF
 .text.BackLightOFF
                0x080015d8       0x20 build/main.o
                0x080015d8                BackLightOFF
 .text.SETTW8812ON
                0x080015f8        0xc build/main.o
                0x080015f8                SETTW8812ON
 .text.BackLightON
                0x08001604       0x24 build/main.o
                0x08001604                BackLightON
 .text.uComOnChipInitial
                0x08001628       0x28 build/main.o
                0x08001628                uComOnChipInitial
 .text.user_pwm_setvalue
                0x08001650       0x2c build/main.o
                0x08001650                user_pwm_setvalue
 .text.AdjustAutoDayNight
                0x0800167c       0xb0 build/main.o
                0x0800167c                AdjustAutoDayNight
 .text.LoadEEPROM
                0x0800172c      0x194 build/main.o
                0x0800172c                LoadEEPROM
 .text.WaitPowerOn
                0x080018c0      0x10c build/main.o
                0x080018c0                WaitPowerOn
 .text.main_loop
                0x080019cc       0xb4 build/main.o
                0x080019cc                main_loop
 .text.SystemClock_Config
                0x08001a80       0x4c build/main.o
                0x08001a80                SystemClock_Config
 .text.main     0x08001acc      0x1f4 build/main.o
                0x08001acc                main
 .text.HAL_TIM_PeriodElapsedCallback
                0x08001cc0      0x368 build/main.o
                0x08001cc0                HAL_TIM_PeriodElapsedCallback
 .text.HAL_UART_RxCpltCallback
                0x08002028       0x90 build/main.o
                0x08002028                HAL_UART_RxCpltCallback
 .text.HAL_GPIO_EXTI_Callback
                0x080020b8       0x20 build/main.o
                0x080020b8                HAL_GPIO_EXTI_Callback
 .text.NMI_Handler
                0x080020d8        0x2 build/stm32f1xx_it.o
                0x080020d8                NMI_Handler
 .text.HardFault_Handler
                0x080020da        0x2 build/stm32f1xx_it.o
                0x080020da                HardFault_Handler
 .text.MemManage_Handler
                0x080020dc        0x2 build/stm32f1xx_it.o
                0x080020dc                MemManage_Handler
 .text.BusFault_Handler
                0x080020de        0x2 build/stm32f1xx_it.o
                0x080020de                BusFault_Handler
 .text.UsageFault_Handler
                0x080020e0        0x2 build/stm32f1xx_it.o
                0x080020e0                UsageFault_Handler
 .text.SVC_Handler
                0x080020e2        0x2 build/stm32f1xx_it.o
                0x080020e2                SVC_Handler
 .text.DebugMon_Handler
                0x080020e4        0x2 build/stm32f1xx_it.o
                0x080020e4                DebugMon_Handler
 .text.PendSV_Handler
                0x080020e6        0x2 build/stm32f1xx_it.o
                0x080020e6                PendSV_Handler
 .text.SysTick_Handler
                0x080020e8        0x8 build/stm32f1xx_it.o
                0x080020e8                SysTick_Handler
 .text.EXTI0_IRQHandler
                0x080020f0        0xa build/stm32f1xx_it.o
                0x080020f0                EXTI0_IRQHandler
 *fill*         0x080020fa        0x2 
 .text.TIM3_IRQHandler
                0x080020fc       0x10 build/stm32f1xx_it.o
                0x080020fc                TIM3_IRQHandler
 .text.USART1_IRQHandler
                0x0800210c       0x10 build/stm32f1xx_it.o
                0x0800210c                USART1_IRQHandler
 .text.USART2_IRQHandler
                0x0800211c       0x10 build/stm32f1xx_it.o
                0x0800211c                USART2_IRQHandler
 .text.HAL_MspInit
                0x0800212c       0x44 build/stm32f1xx_hal_msp.o
                0x0800212c                HAL_MspInit
 .text.HAL_TIM_Base_MspInit
                0x08002170       0x40 build/stm32f1xx_hal_msp.o
                0x08002170                HAL_TIM_Base_MspInit
 .text.HAL_UART_MspInit
                0x080021b0       0xf8 build/stm32f1xx_hal_msp.o
                0x080021b0                HAL_UART_MspInit
 .text.HAL_ADC_MspInit
                0x080022a8       0x60 build/stm32f1xx_hal_msp.o
                0x080022a8                HAL_ADC_MspInit
 .text.HAL_TIM_PWM_MspInit
                0x08002308       0x26 build/stm32f1xx_hal_msp.o
                0x08002308                HAL_TIM_PWM_MspInit
 *fill*         0x0800232e        0x2 
 .text.HAL_TIM_MspPostInit
                0x08002330       0x64 build/stm32f1xx_hal_msp.o
                0x08002330                HAL_TIM_MspPostInit
 .text.TIM_OC1_SetConfig
                0x08002394       0x5c build/stm32f1xx_hal_tim.o
 .text.TIM_OC3_SetConfig
                0x080023f0       0x64 build/stm32f1xx_hal_tim.o
 .text.TIM_OC4_SetConfig
                0x08002454       0x48 build/stm32f1xx_hal_tim.o
 .text.TIM_TI1_ConfigInputStage
                0x0800249c       0x24 build/stm32f1xx_hal_tim.o
 .text.TIM_TI2_ConfigInputStage
                0x080024c0       0x26 build/stm32f1xx_hal_tim.o
 .text.TIM_ITRx_SetConfig
                0x080024e6       0x10 build/stm32f1xx_hal_tim.o
 .text.HAL_TIM_Base_Start_IT
                0x080024f6       0x22 build/stm32f1xx_hal_tim.o
                0x080024f6                HAL_TIM_Base_Start_IT
 .text.HAL_TIM_OC_DelayElapsedCallback
                0x08002518        0x2 build/stm32f1xx_hal_tim.o
                0x08002518                HAL_TIM_OC_DelayElapsedCallback
 .text.HAL_TIM_IC_CaptureCallback
                0x0800251a        0x2 build/stm32f1xx_hal_tim.o
                0x0800251a                HAL_TIM_IC_CaptureCallback
 .text.HAL_TIM_PWM_PulseFinishedCallback
                0x0800251c        0x2 build/stm32f1xx_hal_tim.o
                0x0800251c                HAL_TIM_PWM_PulseFinishedCallback
 .text.HAL_TIM_TriggerCallback
                0x0800251e        0x2 build/stm32f1xx_hal_tim.o
                0x0800251e                HAL_TIM_TriggerCallback
 .text.HAL_TIM_IRQHandler
                0x08002520      0x17a build/stm32f1xx_hal_tim.o
                0x08002520                HAL_TIM_IRQHandler
 *fill*         0x0800269a        0x2 
 .text.TIM_Base_SetConfig
                0x0800269c       0x74 build/stm32f1xx_hal_tim.o
                0x0800269c                TIM_Base_SetConfig
 .text.HAL_TIM_Base_Init
                0x08002710       0x34 build/stm32f1xx_hal_tim.o
                0x08002710                HAL_TIM_Base_Init
 .text.HAL_TIM_PWM_Init
                0x08002744       0x34 build/stm32f1xx_hal_tim.o
                0x08002744                HAL_TIM_PWM_Init
 .text.TIM_OC2_SetConfig
                0x08002778       0x64 build/stm32f1xx_hal_tim.o
                0x08002778                TIM_OC2_SetConfig
 .text.HAL_TIM_PWM_ConfigChannel
                0x080027dc       0xdc build/stm32f1xx_hal_tim.o
                0x080027dc                HAL_TIM_PWM_ConfigChannel
 .text.TIM_ETR_SetConfig
                0x080028b8       0x16 build/stm32f1xx_hal_tim.o
                0x080028b8                TIM_ETR_SetConfig
 .text.HAL_TIM_ConfigClockSource
                0x080028ce       0xda build/stm32f1xx_hal_tim.o
                0x080028ce                HAL_TIM_ConfigClockSource
 .text.TIM_CCxChannelCmd
                0x080029a8       0x22 build/stm32f1xx_hal_tim.o
                0x080029a8                TIM_CCxChannelCmd
 *fill*         0x080029ca        0x2 
 .text.HAL_TIM_PWM_Start
                0x080029cc       0x3c build/stm32f1xx_hal_tim.o
                0x080029cc                HAL_TIM_PWM_Start
 .text.HAL_TIMEx_MasterConfigSynchronization
                0x08002a08       0x46 build/stm32f1xx_hal_tim_ex.o
                0x08002a08                HAL_TIMEx_MasterConfigSynchronization
 .text.HAL_TIMEx_CommutCallback
                0x08002a4e        0x2 build/stm32f1xx_hal_tim_ex.o
                0x08002a4e                HAL_TIMEx_CommutCallback
 .text.HAL_TIMEx_BreakCallback
                0x08002a50        0x2 build/stm32f1xx_hal_tim_ex.o
                0x08002a50                HAL_TIMEx_BreakCallback
 .text.UART_EndRxTransfer
                0x08002a52       0x1c build/stm32f1xx_hal_uart.o
 .text.UART_Transmit_IT
                0x08002a6e       0x66 build/stm32f1xx_hal_uart.o
 .text.UART_SetConfig
                0x08002ad4       0xcc build/stm32f1xx_hal_uart.o
 .text.UART_WaitOnFlagUntilTimeout
                0x08002ba0       0x68 build/stm32f1xx_hal_uart.o
 .text.HAL_UART_Init
                0x08002c08       0x5e build/stm32f1xx_hal_uart.o
                0x08002c08                HAL_UART_Init
 .text.HAL_UART_Transmit
                0x08002c66       0xe0 build/stm32f1xx_hal_uart.o
                0x08002c66                HAL_UART_Transmit
 .text.HAL_UART_Receive_IT
                0x08002d46       0x5c build/stm32f1xx_hal_uart.o
                0x08002d46                HAL_UART_Receive_IT
 .text.HAL_UART_TxCpltCallback
                0x08002da2        0x2 build/stm32f1xx_hal_uart.o
                0x08002da2                HAL_UART_TxCpltCallback
 .text.UART_EndTransmit_IT
                0x08002da4       0x1a build/stm32f1xx_hal_uart.o
 .text.UART_Receive_IT
                0x08002dbe       0x9e build/stm32f1xx_hal_uart.o
 .text.HAL_UART_ErrorCallback
                0x08002e5c        0x2 build/stm32f1xx_hal_uart.o
                0x08002e5c                HAL_UART_ErrorCallback
 *fill*         0x08002e5e        0x2 
 .text.HAL_UART_IRQHandler
                0x08002e60      0x120 build/stm32f1xx_hal_uart.o
                0x08002e60                HAL_UART_IRQHandler
 .text.UART_DMAAbortOnError
                0x08002f80       0x10 build/stm32f1xx_hal_uart.o
 .text.HAL_InitTick
                0x08002f90       0x4c build/stm32f1xx_hal.o
                0x08002f90                HAL_InitTick
 .text.HAL_Init
                0x08002fdc       0x24 build/stm32f1xx_hal.o
                0x08002fdc                HAL_Init
 .text.HAL_IncTick
                0x08003000       0x18 build/stm32f1xx_hal.o
                0x08003000                HAL_IncTick
 .text.HAL_GetTick
                0x08003018        0xc build/stm32f1xx_hal.o
                0x08003018                HAL_GetTick
 .text.HAL_Delay
                0x08003024       0x28 build/stm32f1xx_hal.o
                0x08003024                HAL_Delay
 .text.RCC_Delay
                0x0800304c       0x2c build/stm32f1xx_hal_rcc.o
 .text.HAL_RCC_OscConfig
                0x08003078      0x414 build/stm32f1xx_hal_rcc.o
                0x08003078                HAL_RCC_OscConfig
 .text.HAL_RCC_GetSysClockFreq
                0x0800348c       0x6c build/stm32f1xx_hal_rcc.o
                0x0800348c                HAL_RCC_GetSysClockFreq
 .text.HAL_RCC_ClockConfig
                0x080034f8      0x16c build/stm32f1xx_hal_rcc.o
                0x080034f8                HAL_RCC_ClockConfig
 .text.HAL_RCC_GetHCLKFreq
                0x08003664        0xc build/stm32f1xx_hal_rcc.o
                0x08003664                HAL_RCC_GetHCLKFreq
 .text.HAL_RCC_GetPCLK1Freq
                0x08003670       0x20 build/stm32f1xx_hal_rcc.o
                0x08003670                HAL_RCC_GetPCLK1Freq
 .text.HAL_RCC_GetPCLK2Freq
                0x08003690       0x20 build/stm32f1xx_hal_rcc.o
                0x08003690                HAL_RCC_GetPCLK2Freq
 .text.HAL_RCCEx_GetPeriphCLKFreq
                0x080036b0       0xf4 build/stm32f1xx_hal_rcc_ex.o
                0x080036b0                HAL_RCCEx_GetPeriphCLKFreq
 .text.HAL_GPIO_Init
                0x080037a4      0x220 build/stm32f1xx_hal_gpio.o
                0x080037a4                HAL_GPIO_Init
 .text.HAL_GPIO_WritePin
                0x080039c4        0xc build/stm32f1xx_hal_gpio.o
                0x080039c4                HAL_GPIO_WritePin
 .text.HAL_GPIO_EXTI_IRQHandler
                0x080039d0       0x1c build/stm32f1xx_hal_gpio.o
                0x080039d0                HAL_GPIO_EXTI_IRQHandler
 .text.HAL_DMA_Abort_IT
                0x080039ec       0x98 build/stm32f1xx_hal_dma.o
                0x080039ec                HAL_DMA_Abort_IT
 .text.HAL_NVIC_SetPriorityGrouping
                0x08003a84       0x24 build/stm32f1xx_hal_cortex.o
                0x08003a84                HAL_NVIC_SetPriorityGrouping
 .text.HAL_NVIC_SetPriority
                0x08003aa8       0x68 build/stm32f1xx_hal_cortex.o
                0x08003aa8                HAL_NVIC_SetPriority
 .text.HAL_NVIC_EnableIRQ
                0x08003b10       0x1c build/stm32f1xx_hal_cortex.o
                0x08003b10                HAL_NVIC_EnableIRQ
 .text.HAL_SYSTICK_Config
                0x08003b2c       0x2c build/stm32f1xx_hal_cortex.o
                0x08003b2c                HAL_SYSTICK_Config
 .text.HAL_ADC_PollForConversion
                0x08003b58      0x16c build/stm32f1xx_hal_adc.o
                0x08003b58                HAL_ADC_PollForConversion
 .text.HAL_ADC_GetValue
                0x08003cc4        0x6 build/stm32f1xx_hal_adc.o
                0x08003cc4                HAL_ADC_GetValue
 *fill*         0x08003cca        0x2 
 .text.HAL_ADC_ConfigChannel
                0x08003ccc      0x138 build/stm32f1xx_hal_adc.o
                0x08003ccc                HAL_ADC_ConfigChannel
 .text.HAL_ADC_GetState
                0x08003e04        0x4 build/stm32f1xx_hal_adc.o
                0x08003e04                HAL_ADC_GetState
 .text.ADC_Enable
                0x08003e08       0x7c build/stm32f1xx_hal_adc.o
                0x08003e08                ADC_Enable
 .text.HAL_ADC_Start
                0x08003e84       0xe8 build/stm32f1xx_hal_adc.o
                0x08003e84                HAL_ADC_Start
 .text.ADC_ConversionStop_Disable
                0x08003f6c       0x4c build/stm32f1xx_hal_adc.o
                0x08003f6c                ADC_ConversionStop_Disable
 .text.HAL_ADC_Init
                0x08003fb8      0x108 build/stm32f1xx_hal_adc.o
                0x08003fb8                HAL_ADC_Init
 .text.SystemInit
                0x080040c0       0x4c build/system_stm32f1xx.o
                0x080040c0                SystemInit
 .text.msleep   0x0800410c       0x14 build/VX_swi2c.o
                0x0800410c                msleep
 .text.VXISI2CRead
                0x08004120       0x14 build/VX_swi2c.o
                0x08004120                VXISI2CRead
 .text.VXISI2CWrite
                0x08004134       0x18 build/VX_swi2c.o
                0x08004134                VXISI2CWrite
 .text.VS8812Read
                0x0800414c       0x14 build/VX_swi2c.o
                0x0800414c                VS8812Read
 .text.VS8812Write
                0x08004160       0x18 build/VX_swi2c.o
                0x08004160                VS8812Write
 .text.ReadEEP  0x08004178        0x8 build/VX_swi2c.o
                0x08004178                ReadEEP
 .text.WriteEEP
                0x08004180        0x8 build/VX_swi2c.o
                0x08004180                WriteEEP
 .text.I2CMultiWrite
                0x08004188        0xe build/VX_swi2c.o
                0x08004188                I2CMultiWrite
 .text.I2CMultiAttribute
                0x08004196       0x22 build/VX_swi2c.o
                0x08004196                I2CMultiAttribute
 .text.osd_cont_write
                0x080041b8       0x30 build/VX_swi2c.o
                0x080041b8                osd_cont_write
 .text.delay    0x080041e8       0x18 build/VX_swi2c.o
                0x080041e8                delay
 .text.tp28xx_byte_read
                0x08004200       0x14 build/VX_swi2c.o
                0x08004200                tp28xx_byte_read
 .text.tp28xx_byte_write
                0x08004214       0x14 build/VX_swi2c.o
                0x08004214                tp28xx_byte_write
 .text.delay1ms
                0x08004228        0x8 build/VX_swi2c.o
                0x08004228                delay1ms
 .text.GET_PCA9554PW
                0x08004230        0xc build/VX_swi2c.o
                0x08004230                GET_PCA9554PW
 .text.GET_LTC2451
                0x0800423c       0x58 build/VX_swi2c.o
                0x0800423c                GET_LTC2451
 .text.GET_ALC122
                0x08004294        0xc build/VX_swi2c.o
                0x08004294                GET_ALC122
 .text.SET_ALC122
                0x080042a0        0xe build/VX_swi2c.o
                0x080042a0                SET_ALC122
 .text.GET_nGT911
                0x080042ae       0x10 build/VX_swi2c.o
                0x080042ae                GET_nGT911
 .text.SET_nGT911
                0x080042be       0x10 build/VX_swi2c.o
                0x080042be                SET_nGT911
 *fill*         0x080042ce        0x2 
 .text.ClearDisplayedOSD
                0x080042d0       0x10 build/VX_OSD.o
                0x080042d0                ClearDisplayedOSD
 .text.SetDisplayedOSD
                0x080042e0       0x10 build/VX_OSD.o
                0x080042e0                SetDisplayedOSD
 .text.GetDisplayedOSD
                0x080042f0        0xc build/VX_OSD.o
                0x080042f0                GetDisplayedOSD
 .text.SetOsdStartAddress
                0x080042fc       0x2a build/VX_OSD.o
                0x080042fc                SetOsdStartAddress
 .text.SetOsdSize
                0x08004326       0xec build/VX_OSD.o
                0x08004326                SetOsdSize
 .text.SetOsdPosition
                0x08004412       0x70 build/VX_OSD.o
                0x08004412                SetOsdPosition
 *fill*         0x08004482        0x2 
 .text.OsdDumpString
                0x08004484       0x30 build/VX_OSD.o
                0x08004484                OsdDumpString
 .text.OsdDumpAttribute
                0x080044b4       0x34 build/VX_OSD.o
                0x080044b4                OsdDumpAttribute
 .text.OsdDumpAttributeHS
                0x080044e8       0x34 build/VX_OSD.o
                0x080044e8                OsdDumpAttributeHS
 .text.VXIS_fSetOsdOnOff
                0x0800451c       0x58 build/VX_OSD.o
                0x0800451c                VXIS_fSetOsdOnOff
 .text.VXIS_fSetContentOsdOnOff
                0x08004574       0x20 build/VX_OSD.o
                0x08004574                VXIS_fSetContentOsdOnOff
 .text.setTransParentIndex
                0x08004594       0x24 build/VX_OSD.o
                0x08004594                setTransParentIndex
 .text.GetconvertBarStr
                0x080045b8       0x7c build/VX_OSD_Simple.o
 .text.Mapping1
                0x08004634       0x4e build/VX_OSD_Simple.o
                0x08004634                Mapping1
 *fill*         0x08004682        0x2 
 .text.GetItemValue
                0x08004684      0x1d4 build/VX_OSD_Simple.o
                0x08004684                GetItemValue
 .text.SetOSDStep
                0x08004858       0xd4 build/VX_OSD_Simple.o
                0x08004858                SetOSDStep
 .text.GetOSDStep
                0x0800492c       0x4c build/VX_OSD_Simple.o
                0x0800492c                GetOSDStep
 .text.GetBackLightLevel
                0x08004978       0x2c build/VX_OSD_Simple.o
                0x08004978                GetBackLightLevel
 .text.ChangeVideoData
                0x080049a4      0x140 build/VX_OSD_Simple.o
                0x080049a4                ChangeVideoData
 .text.LoadVideoData
                0x08004ae4       0x8c build/VX_OSD_Simple.o
                0x08004ae4                LoadVideoData
 .text.Reset_OSD_SPEAKER
                0x08004b70       0xfc build/VX_OSD_Simple.o
                0x08004b70                Reset_OSD_SPEAKER
 .text.CloseOSDINFO
                0x08004c6c      0x1b0 build/VX_OSD_Simple.o
                0x08004c6c                CloseOSDINFO
 .text.DisplayVolumebar
                0x08004e1c      0x170 build/VX_OSD_Simple.o
                0x08004e1c                DisplayVolumebar
 .text.ShowGaugeOSD
                0x08004f8c      0x35c build/VX_OSD_Simple.o
                0x08004f8c                ShowGaugeOSD
 .text.ShowGrabberLinerOSD
                0x080052e8      0x32c build/VX_OSD_Simple.o
                0x080052e8                ShowGrabberLinerOSD
 .text.SetGarbberLinerMode
                0x08005614       0x78 build/VX_OSD_Simple.o
                0x08005614                SetGarbberLinerMode
 .text.CLRGrabberMessage
                0x0800568c       0x1c build/VX_OSD_Simple.o
                0x0800568c                CLRGrabberMessage
 .text.ShowCOCOSD2
                0x080056a8       0xb8 build/VX_OSD_Simple.o
                0x080056a8                ShowCOCOSD2
 .text.ShowJUMPOSD
                0x08005760      0x13c build/VX_OSD_Simple.o
                0x08005760                ShowJUMPOSD
 .text.ShowTRIGOSD
                0x0800589c       0xe0 build/VX_OSD_Simple.o
                0x0800589c                ShowTRIGOSD
 .text.VX_Write_OSD_In_OutString
                0x0800597c      0x930 build/VX_OSD_Simple.o
 .text.SetItemValue
                0x080062ac      0x874 build/VX_OSD_Simple.o
                0x080062ac                SetItemValue
 .text.DisplayOSDMenuOneItem
                0x08006b20      0x178 build/VX_OSD_Simple.o
                0x08006b20                DisplayOSDMenuOneItem
 .text.DrawMenulist
                0x08006c98       0xa8 build/VX_OSD_Simple.o
                0x08006c98                DrawMenulist
 .text.SET_CROSS_LINE
                0x08006d40       0x54 build/VX_OSD_Simple.o
                0x08006d40                SET_CROSS_LINE
 .text.SHOWOSDINFO
                0x08006d94       0xa0 build/VX_OSD_Simple.o
                0x08006d94                SHOWOSDINFO
 .text.CloseOSDMenu
                0x08006e34      0x16c build/VX_OSD_Simple.o
                0x08006e34                CloseOSDMenu
 .text.DoAction
                0x08006fa0      0x194 build/VX_OSD_Simple.o
                0x08006fa0                DoAction
 .text.DisplayVol
                0x08007134      0x110 build/VX_OSD_Simple.o
                0x08007134                DisplayVol
 .text.ShowOSDLOCK
                0x08007244       0xb8 build/VX_OSD_Simple.o
                0x08007244                ShowOSDLOCK
 .text.ShowOSDVersion
                0x080072fc       0xa0 build/VX_OSD_Simple.o
                0x080072fc                ShowOSDVersion
 .text.ShowTPMSOSD
                0x0800739c      0x35c build/VX_OSD_Simple.o
                0x0800739c                ShowTPMSOSD
 .text.ShowCOCOSD
                0x080076f8       0x8c build/VX_OSD_Simple.o
                0x080076f8                ShowCOCOSD
 .text.OpenOSDMenu
                0x08007784      0x17c build/VX_OSD_Simple.o
                0x08007784                OpenOSDMenu
 .text.OSDValueUpDn
                0x08007900       0x68 build/VX_OSD_Simple.o
                0x08007900                OSDValueUpDn
 .text.GetOSDMenu
                0x08007968       0x6c build/VX_OSD_Simple.o
                0x08007968                GetOSDMenu
 .text.TouchDisplayCursor
                0x080079d4      0x544 build/VX_OSD_Simple.o
                0x080079d4                TouchDisplayCursor
 .text.DisplayCursor
                0x08007f18       0x90 build/VX_OSD_Simple.o
                0x08007f18                DisplayCursor
 .text.OSDSelect
                0x08007fa8      0x2ec build/VX_OSD_Simple.o
                0x08007fa8                OSDSelect
 .text.GrabberModeTrigger
                0x08008294       0x78 build/VX_OSD_Simple.o
                0x08008294                GrabberModeTrigger
 .text.OSDCursorMove
                0x0800830c       0xa0 build/VX_OSD_Simple.o
                0x0800830c                OSDCursorMove
 .text.VXIS_fShowInOutMode
                0x080083ac       0xe4 build/VX_OSD_Simple.o
                0x080083ac                VXIS_fShowInOutMode
 .text.VXIS_fShowInOutMode0OSD
                0x08008490      0x10c build/VX_OSD_Simple.o
                0x08008490                VXIS_fShowInOutMode0OSD
 .text.OSD_Clear
                0x0800859c       0x88 build/VX_OSD_Simple.o
                0x0800859c                OSD_Clear
 .text.OSD_Clear_4
                0x08008624        0xa build/VX_OSD_Simple.o
                0x08008624                OSD_Clear_4
 .text.OSD_Clear_34
                0x0800862e       0x16 build/VX_OSD_Simple.o
                0x0800862e                OSD_Clear_34
 .text.OSD_Clear_234
                0x08008644       0x16 build/VX_OSD_Simple.o
                0x08008644                OSD_Clear_234
 .text.OSD_Clear_All
                0x0800865a       0x16 build/VX_OSD_Simple.o
                0x0800865a                OSD_Clear_All
 .text.VXOSD_UseFont_init
                0x08008670       0x48 build/VX_OSD_Simple.o
                0x08008670                VXOSD_UseFont_init
 .text.Get_WindowNum
                0x080086b8       0x34 build/VS4210.o
 .text.VS4210_FULL88init
                0x080086ec       0x20 build/VS4210.o
 .text.VS4210_init
                0x0800870c       0x44 build/VS4210.o
 .text.VS4210_init_Input_MODE1_w0
                0x08008750       0xe8 build/VS4210.o
 .text.VS4210_init_Input_MODE1_w0_mirrorH
                0x08008838       0xe8 build/VS4210.o
 .text.VS4210_init_Input_MODE1_w1
                0x08008920       0xe8 build/VS4210.o
 .text.VS4210_init_Input_MODE1_w1_mirrorH
                0x08008a08       0xe8 build/VS4210.o
 .text.VS4210_init_Input_MODE1_w2
                0x08008af0       0xe8 build/VS4210.o
 .text.VS4210_init_Input_MODE1_w2_mirrorH
                0x08008bd8       0xe8 build/VS4210.o
 .text.VS4210_init_Input_MODE1_w3
                0x08008cc0       0xe8 build/VS4210.o
 .text.VS4210_init_Input_MODE1_w3_mirrorH
                0x08008da8       0xe8 build/VS4210.o
 .text.VS4210_init_Input_MODE2_w0
                0x08008e90       0xe8 build/VS4210.o
 .text.VS4210_init_Input_MODE2_w0_mirrorH
                0x08008f78       0xe8 build/VS4210.o
 .text.VS4210_init_Input_MODE2_w1
                0x08009060       0xe8 build/VS4210.o
 .text.VS4210_init_Input_MODE2_w1_mirrorH
                0x08009148       0xe8 build/VS4210.o
 .text.VS4210_init_Input_MODE2_w2
                0x08009230       0xe8 build/VS4210.o
 .text.VS4210_init_Input_MODE2_w2_mirrorH
                0x08009318       0xe8 build/VS4210.o
 .text.VS4210_init_Input_MODE2_w3
                0x08009400       0xe8 build/VS4210.o
 .text.VS4210_init_Input_MODE2_w3_mirrorH
                0x080094e8       0xe8 build/VS4210.o
 .text.VS4210_init_Input_MODE8_w0
                0x080095d0       0xe8 build/VS4210.o
 .text.VS4210_init_Input_MODE8_w0_mirrorH
                0x080096b8       0xe8 build/VS4210.o
 .text.VS4210_init_Input_MODE8_w1
                0x080097a0       0xe8 build/VS4210.o
 .text.VS4210_init_Input_MODE8_w1_mirrorH
                0x08009888       0xe8 build/VS4210.o
 .text.VS4210_init_Input_MODE8_w2
                0x08009970       0xe8 build/VS4210.o
 .text.VS4210_init_Input_MODE8_w2_mirrorH
                0x08009a58       0xe8 build/VS4210.o
 .text.VS4210_init_Input_MODE10_w0
                0x08009b40       0xe8 build/VS4210.o
 .text.VS4210_init_Input_MODE10_w0_mirrorH
                0x08009c28       0xe8 build/VS4210.o
 .text.VS4210_init_Input_MODE10_w1
                0x08009d10       0xe8 build/VS4210.o
 .text.VS4210_init_Input_MODE10_w1_mirrorH
                0x08009df8       0xe8 build/VS4210.o
 .text.VS4210_init_Input_MODE10_w2
                0x08009ee0       0xe8 build/VS4210.o
 .text.VS4210_init_Input_MODE10_w2_mirrorH
                0x08009fc8       0xe8 build/VS4210.o
 .text.VS4210_init_Input_MODE9_w0
                0x0800a0b0       0xe8 build/VS4210.o
 .text.VS4210_init_Input_MODE9_w0_mirrorH
                0x0800a198       0xe8 build/VS4210.o
 .text.VS4210_init_Input_MODE9_w1
                0x0800a280       0xe8 build/VS4210.o
 .text.VS4210_init_Input_MODE9_w1_mirrorH
                0x0800a368       0xe8 build/VS4210.o
 .text.VS4210_init_Input_MODE9_w2
                0x0800a450       0xe8 build/VS4210.o
 .text.VS4210_init_Input_MODE9_w2_mirrorH
                0x0800a538       0xe8 build/VS4210.o
 .text.VS4210_init_Input_MODE12_w0
                0x0800a620       0xe8 build/VS4210.o
 .text.VS4210_init_Input_MODE12_w0_mirrorH
                0x0800a708       0xe8 build/VS4210.o
 .text.VS4210_init_Input_MODE12_w1
                0x0800a7f0       0xe8 build/VS4210.o
 .text.VS4210_init_Input_MODE12_w1_mirrorH
                0x0800a8d8       0xe8 build/VS4210.o
 .text.VS4210_init_Input_MODE14_w0
                0x0800a9c0       0xe8 build/VS4210.o
 .text.VS4210_init_Input_MODE14_w0_mirrorH
                0x0800aaa8       0xe8 build/VS4210.o
 .text.VS4210_init_Input_MODE14_w1
                0x0800ab90       0xe8 build/VS4210.o
 .text.VS4210_init_Input_MODE14_w1_mirrorH
                0x0800ac78       0xe8 build/VS4210.o
 .text.VS4210_init_Input_MODE14_w2
                0x0800ad60       0xe8 build/VS4210.o
 .text.VS4210_init_Input_MODE14_w2_mirrorH
                0x0800ae48       0xe8 build/VS4210.o
 .text.VS4210_init_Input_MODE88
                0x0800af30       0x70 build/VS4210.o
                0x0800af30                VS4210_init_Input_MODE88
 .text.VS4210_Line_Clear
                0x0800afa0       0x14 build/VS4210.o
                0x0800afa0                VS4210_Line_Clear
 .text.VS4210_Line_Draw
                0x0800afb4      0x378 build/VS4210.o
                0x0800afb4                VS4210_Line_Draw
 .text.VS4210_SwitchChannel
                0x0800b32c       0x36 build/VS4210.o
                0x0800b32c                VS4210_SwitchChannel
 .text.VS4210_SetCamMirror
                0x0800b362       0x3a build/VS4210.o
                0x0800b362                VS4210_SetCamMirror
 .text.VS4210_ResetCamMirror
                0x0800b39c      0x120 build/VS4210.o
                0x0800b39c                VS4210_ResetCamMirror
 .text.VS4210_CloseWindowsX
                0x0800b4bc       0x46 build/VS4210.o
                0x0800b4bc                VS4210_CloseWindowsX
 .text.VS4210_CloseAllWindows
                0x0800b502       0x4a build/VS4210.o
                0x0800b502                VS4210_CloseAllWindows
 .text.VS4210_ch0_NoSignal_Rst
                0x0800b54c       0x68 build/VS4210.o
                0x0800b54c                VS4210_ch0_NoSignal_Rst
 .text.VS4210_OpenWindowsX
                0x0800b5b4       0x84 build/VS4210.o
                0x0800b5b4                VS4210_OpenWindowsX
 .text.VS4210_clearAllsignal
                0x0800b638       0x48 build/VS4210.o
                0x0800b638                VS4210_clearAllsignal
 .text.VS4210_displayoff
                0x0800b680       0x1c build/VS4210.o
                0x0800b680                VS4210_displayoff
 .text.VS4210_init_Input_MODE0_w0
                0x0800b69c      0x104 build/VS4210.o
 .text.VS4210_init_Input_MODE0_w0_mirrorH
                0x0800b7a0      0x104 build/VS4210.o
 .text.VS4210_displayon
                0x0800b8a4       0x18 build/VS4210.o
                0x0800b8a4                VS4210_displayon
 .text.VS4210_init_mode
                0x0800b8bc      0x45c build/VS4210.o
                0x0800b8bc                VS4210_init_mode
 .text.VS4210_SetInModeOutMode
                0x0800bd18      0x180 build/VS4210.o
                0x0800bd18                VS4210_SetInModeOutMode
 .text.VS4210_StartInit
                0x0800be98       0xd8 build/VS4210.o
                0x0800be98                VS4210_StartInit
 .text.VS4210_No_Signal_Init
                0x0800bf70       0x24 build/VS4210.o
                0x0800bf70                VS4210_No_Signal_Init
 .text.VS4210_Rx_NoSignal
                0x0800bf94       0xb8 build/VS4210.o
                0x0800bf94                VS4210_Rx_NoSignal
 .text.VS4210_PowerDown
                0x0800c04c        0xc build/VS4210.o
                0x0800c04c                VS4210_PowerDown
 .text.VS4210_PowerResume
                0x0800c058        0xc build/VS4210.o
                0x0800c058                VS4210_PowerResume
 .text.VS4210_SetMutiWindows
                0x0800c064      0x678 build/VS4210.o
                0x0800c064                VS4210_SetMutiWindows
 .text.tp2824_reset_default
                0x0800c6dc        0xc build/TP2802.o
 .text.tp28xx_SYSCLK_V1
                0x0800c6e8       0x2c build/TP2802.o
 .text.tp28xx_SYSCLK_V2
                0x0800c714       0x30 build/TP2802.o
 .text.tp2853C_reset_default
                0x0800c744       0x34 build/TP2802.o
 .text.TP28xx_reset_default
                0x0800c778       0x26 build/TP2802.o
 .text.I2CDeviceSet1
                0x0800c79e       0x1c build/TP2802.o
                0x0800c79e                I2CDeviceSet1
 .text.I2CDeviceSet2
                0x0800c7ba       0x20 build/TP2802.o
                0x0800c7ba                I2CDeviceSet2
 .text.SetRegPage
                0x0800c7da        0xc build/TP2802.o
                0x0800c7da                SetRegPage
 *fill*         0x0800c7e6        0x2 
 .text.Set_VidRes
                0x0800c7e8      0x2a4 build/TP2802.o
                0x0800c7e8                Set_VidRes
 .text.Set_HDA  0x0800ca8c       0xbc build/TP2802.o
                0x0800ca8c                Set_HDA
 .text.Set_HDC  0x0800cb48       0xb0 build/TP2802.o
                0x0800cb48                Set_HDC
 .text.ManualAGC
                0x0800cbf8       0x68 build/TP2802.o
                0x0800cbf8                ManualAGC
 .text.ReadGain
                0x0800cc60       0x12 build/TP2802.o
                0x0800cc60                ReadGain
 *fill*         0x0800cc72        0x2 
 .text.SetCGain
                0x0800cc74       0xb0 build/TP2802.o
                0x0800cc74                SetCGain
 .text.INPUT_VIDEO_CHECK
                0x0800cd24      0x110 build/TP2802.o
                0x0800cd24                INPUT_VIDEO_CHECK
 .text.SETChannelReset
                0x0800ce34       0x58 build/TP2802.o
                0x0800ce34                SETChannelReset
 .text.EQ_Detect
                0x0800ce8c      0xcb8 build/TP2802.o
                0x0800ce8c                EQ_Detect
 .text.Set_PLL_StartUp
                0x0800db44       0x22 build/TP2802.o
                0x0800db44                Set_PLL_StartUp
 *fill*         0x0800db66        0x2 
 .text.Init_TP280x_CHx_RegSet
                0x0800db68      0x7b0 build/TP2802.o
                0x0800db68                Init_TP280x_CHx_RegSet
 .text.Boot_Trigger_Function
                0x0800e318       0x68 build/TP2802.o
                0x0800e318                Boot_Trigger_Function
 .text.Init_TP280x_RegSet
                0x0800e380      0x278 build/TP2802.o
                0x0800e380                Init_TP280x_RegSet
 .text.AHDBitsReverse
                0x0800e5f8       0x52 build/TP2802.o
                0x0800e5f8                AHDBitsReverse
 *fill*         0x0800e64a        0x2 
 .text.TVICommandToAHData
                0x0800e64c      0x15c build/TP2802.o
                0x0800e64c                TVICommandToAHData
 .text.Get_2824cIrq
                0x0800e7a8      0x454 build/TP2802.o
                0x0800e7a8                Get_2824cIrq
 .text.SetCOCCom
                0x0800ebfc      0x1f0 build/TP2802.o
                0x0800ebfc                SetCOCCom
 .text.TVI_BOX_Set
                0x0800edec       0x90 build/TP2802.o
                0x0800edec                TVI_BOX_Set
 .text.RS_ready
                0x0800ee7c       0x1c build/monitor.o
                0x0800ee7c                RS_ready
 .text.RS_rx    0x0800ee98       0x24 build/monitor.o
                0x0800ee98                RS_rx
 .text.RS_tx    0x0800eebc       0x14 build/monitor.o
                0x0800eebc                RS_tx
 .text.Prompt   0x0800eed0       0x90 build/monitor.o
                0x0800eed0                Prompt
 .text.Mon_tx   0x0800ef60        0x8 build/monitor.o
                0x0800ef60                Mon_tx
 .text.Asc1Bin  0x0800ef68       0x2e build/monitor.o
                0x0800ef68                Asc1Bin
 .text.Asc2Bin  0x0800ef96       0x1e build/monitor.o
                0x0800ef96                Asc2Bin
 .text.hs_toupper
                0x0800efb4       0x12 build/monitor.o
                0x0800efb4                hs_toupper
 .text.stricmp  0x0800efc6       0x20 build/monitor.o
                0x0800efc6                stricmp
 *fill*         0x0800efe6        0x2 
 .text.MonIncDecI2C
                0x0800efe8       0xec build/monitor.o
                0x0800efe8                MonIncDecI2C
 .text.MonHelp  0x0800f0d4       0xd0 build/monitor.o
                0x0800f0d4                MonHelp
 .text.MonGetCommand
                0x0800f1a4      0x278 build/monitor.o
                0x0800f1a4                MonGetCommand
 .text.Monitor  0x0800f41c      0xf9c build/monitor.o
                0x0800f41c                Monitor
 .text.DoPrint  0x080103b8      0x230 build/Printf.o
                0x080103b8                DoPrint
 .text.Printf   0x080105e8       0x1c build/Printf.o
                0x080105e8                Printf
 .text.DEBUG_MESSAGE
                0x08010604       0x1c build/Printf.o
                0x08010604                DEBUG_MESSAGE
 .text.GraphicsPrint
                0x08010620       0x40 build/Printf.o
                0x08010620                GraphicsPrint
 .text.MCUTimerDelayXms
                0x08010660       0x24 build/SysTimer.o
                0x08010660                MCUTimerDelayXms
 .text.MCUTimerGetEventTime
                0x08010684       0x10 build/SysTimer.o
                0x08010684                MCUTimerGetEventTime
 .text.MCUTimerGetEventID
                0x08010694       0x10 build/SysTimer.o
                0x08010694                MCUTimerGetEventID
 .text.MCUTimerClrEventValid
                0x080106a4       0x14 build/SysTimer.o
                0x080106a4                MCUTimerClrEventValid
 .text.MCUTimerCheckEventValid
                0x080106b8       0x10 build/SysTimer.o
                0x080106b8                MCUTimerCheckEventValid
 .text.MCUTimerGetTimerCounter
                0x080106c8       0x1c build/SysTimer.o
                0x080106c8                MCUTimerGetTimerCounter
 .text.MCUTimerCheckTimerEvent
                0x080106e4       0x6c build/SysTimer.o
                0x080106e4                MCUTimerCheckTimerEvent
 .text.MCUTimerInitialTimerEvent
                0x08010750       0x20 build/SysTimer.o
                0x08010750                MCUTimerInitialTimerEvent
 .text.MCUTimerActiveTimerEvent
                0x08010770       0x74 build/SysTimer.o
                0x08010770                MCUTimerActiveTimerEvent
 .text.MCUTimerCancelTimerEvent
                0x080107e4       0x3c build/SysTimer.o
                0x080107e4                MCUTimerCancelTimerEvent
 .text.MCUTimerReactiveTimerEvent
                0x08010820       0x78 build/SysTimer.o
                0x08010820                MCUTimerReactiveTimerEvent
 .text.PowerLED
                0x08010898       0x68 build/SysTimer.o
                0x08010898                PowerLED
 .text.UserInterfaceTimerEventProc
                0x08010900      0x1a8 build/SysTimer.o
                0x08010900                UserInterfaceTimerEventProc
 .text.ShowWorkingTimer
                0x08010aa8       0x84 build/SysTimer.o
                0x08010aa8                ShowWorkingTimer
 .text.SysTimerEventProc
                0x08010b2c      0x54c build/SysTimer.o
                0x08010b2c                SysTimerEventProc
 .text.SysTimerHandler
                0x08011078       0x48 build/SysTimer.o
                0x08011078                SysTimerHandler
 .text.GetFWRevEE
                0x080110c0       0x4c build/etc_eep.o
                0x080110c0                GetFWRevEE
 .text.SaveFWRevEE
                0x0801110c       0x38 build/etc_eep.o
                0x0801110c                SaveFWRevEE
 .text.ResetOSDValue
                0x08011144      0x2ac build/etc_eep.o
                0x08011144                ResetOSDValue
 .text.ClearBasicEE
                0x080113f0       0x24 build/etc_eep.o
                0x080113f0                ClearBasicEE
 .text.GetAudioVolEE
                0x08011414        0xa build/etc_eep.o
                0x08011414                GetAudioVolEE
 .text.SetAudioVolEE
                0x0801141e        0xc build/etc_eep.o
                0x0801141e                SetAudioVolEE
 *fill*         0x0801142a        0x2 
 .text.BOX_SELECT_CHANNEL
                0x0801142c       0x74 build/keyremo.o
                0x0801142c                BOX_SELECT_CHANNEL
 .text.BOX_SET_CHANNEL
                0x080114a0       0x34 build/keyremo.o
                0x080114a0                BOX_SET_CHANNEL
 .text.TouchSliderSetSelectMode
                0x080114d4      0x1d8 build/keyremo.o
                0x080114d4                TouchSliderSetSelectMode
 .text.TouchSetSelectMode
                0x080116ac      0x234 build/keyremo.o
                0x080116ac                TouchSetSelectMode
 .text.TouchResetSelectMode
                0x080118e0       0xb8 build/keyremo.o
                0x080118e0                TouchResetSelectMode
 .text.GetKey   0x08011998       0xa8 build/keyremo.o
                0x08011998                GetKey
 .text.SetSelectCAMRD
                0x08011a40      0x230 build/keyremo.o
                0x08011a40                SetSelectCAMRD
 .text.SEQMode  0x08011c70       0xac build/keyremo.o
                0x08011c70                SEQMode
 .text.SetJumpMode
                0x08011d1c      0x18c build/keyremo.o
                0x08011d1c                SetJumpMode
 .text.SetSelectMode
                0x08011ea8      0x1ec build/keyremo.o
                0x08011ea8                SetSelectMode
 .text.CheckKeyIn
                0x08012094      0x784 build/keyremo.o
                0x08012094                CheckKeyIn
 .text.CheckCAMDInputVideo
                0x08012818       0x3c build/keyremo.o
                0x08012818                CheckCAMDInputVideo
 .text.SetNowMode
                0x08012854      0x174 build/keyremo.o
                0x08012854                SetNowMode
 .text.SetRearSource
                0x080129c8       0xa4 build/keyremo.o
                0x080129c8                SetRearSource
 .text.SetLeftSource
                0x08012a6c       0x94 build/keyremo.o
                0x08012a6c                SetLeftSource
 .text.SetTriggerDSource
                0x08012b00       0x44 build/keyremo.o
                0x08012b00                SetTriggerDSource
 .text.SetTriggerCSource
                0x08012b44       0x98 build/keyremo.o
                0x08012b44                SetTriggerCSource
 .text.SetRightSource
                0x08012bdc       0x94 build/keyremo.o
                0x08012bdc                SetRightSource
 .text.CheckTrigger
                0x08012c70      0x5a8 build/keyremo.o
                0x08012c70                CheckTrigger
 .text.TriggerHandler
                0x08013218      0x248 build/keyremo.o
                0x08013218                TriggerHandler
 .text.CheckTouchScreen
                0x08013460      0x2e4 build/keyremo.o
                0x08013460                CheckTouchScreen
 .text.COMMAND_OSD
                0x08013744      0x344 build/keyremo.o
                0x08013744                COMMAND_OSD
 .text.ChangeVol
                0x08013a88       0x8c build/audio.o
                0x08013a88                ChangeVol
 .text.AudioMute
                0x08013b14       0x1a build/audio.o
                0x08013b14                AudioMute
 *fill*         0x08013b2e        0x2 
 .text.AUDIO_SELECT
                0x08013b30       0xbc build/audio.o
                0x08013b30                AUDIO_SELECT
 .text.AUDIO_SELECT_MUTE
                0x08013bec       0xc8 build/audio.o
                0x08013bec                AUDIO_SELECT_MUTE
 .text.TOUCH_ADDR_OFFSET
                0x08013cb4       0xd0 build/GT911.o
                0x08013cb4                TOUCH_ADDR_OFFSET
 .text.Touch_Screen_Handler
                0x08013d84      0x434 build/GT911.o
                0x08013d84                Touch_Screen_Handler
 .text.SET_VX8812_SD_Video_Out
                0x080141b8      0xdec build/VX8812.o
                0x080141b8                SET_VX8812_SD_Video_Out
 .text.Reset_Handler
                0x08014fa4       0x48 build/startup_stm32f103xb.o
                0x08014fa4                Reset_Handler
 .text.Default_Handler
                0x08014fec        0x2 build/startup_stm32f103xb.o
                0x08014fec                RTC_Alarm_IRQHandler
                0x08014fec                EXTI2_IRQHandler
                0x08014fec                TIM1_CC_IRQHandler
                0x08014fec                PVD_IRQHandler
                0x08014fec                EXTI3_IRQHandler
                0x08014fec                I2C2_EV_IRQHandler
                0x08014fec                ADC1_2_IRQHandler
                0x08014fec                SPI1_IRQHandler
                0x08014fec                TAMPER_IRQHandler
                0x08014fec                DMA1_Channel4_IRQHandler
                0x08014fec                USART3_IRQHandler
                0x08014fec                RTC_IRQHandler
                0x08014fec                DMA1_Channel7_IRQHandler
                0x08014fec                CAN1_RX1_IRQHandler
                0x08014fec                TIM4_IRQHandler
                0x08014fec                I2C1_EV_IRQHandler
                0x08014fec                DMA1_Channel6_IRQHandler
                0x08014fec                RCC_IRQHandler
                0x08014fec                TIM1_TRG_COM_IRQHandler
                0x08014fec                DMA1_Channel1_IRQHandler
                0x08014fec                Default_Handler
                0x08014fec                EXTI15_10_IRQHandler
                0x08014fec                EXTI9_5_IRQHandler
                0x08014fec                SPI2_IRQHandler
                0x08014fec                DMA1_Channel5_IRQHandler
                0x08014fec                EXTI4_IRQHandler
                0x08014fec                USB_LP_CAN1_RX0_IRQHandler
                0x08014fec                USB_HP_CAN1_TX_IRQHandler
                0x08014fec                DMA1_Channel3_IRQHandler
                0x08014fec                TIM1_UP_IRQHandler
                0x08014fec                WWDG_IRQHandler
                0x08014fec                TIM2_IRQHandler
                0x08014fec                TIM1_BRK_IRQHandler
                0x08014fec                EXTI1_IRQHandler
                0x08014fec                I2C2_ER_IRQHandler
                0x08014fec                DMA1_Channel2_IRQHandler
                0x08014fec                CAN1_SCE_IRQHandler
                0x08014fec                FLASH_IRQHandler
                0x08014fec                I2C1_ER_IRQHandler
                0x08014fec                USBWakeUp_IRQHandler
 *fill*         0x08014fee        0x2 
 .text.__errno  0x08014ff0        0xc c:/program files (x86)/gnu tools arm embedded/9 2019-q4-major/bin/../lib/gcc/arm-none-eabi/9.2.1/../../../../arm-none-eabi/lib/thumb/v7-m/nofp\libc_nano.a(lib_a-errno.o)
                0x08014ff0                __errno
 .text.__libc_init_array
                0x08014ffc       0x48 c:/program files (x86)/gnu tools arm embedded/9 2019-q4-major/bin/../lib/gcc/arm-none-eabi/9.2.1/../../../../arm-none-eabi/lib/thumb/v7-m/nofp\libc_nano.a(lib_a-init.o)
                0x08014ffc                __libc_init_array
 .text.memcpy   0x08015044       0x1c c:/program files (x86)/gnu tools arm embedded/9 2019-q4-major/bin/../lib/gcc/arm-none-eabi/9.2.1/../../../../arm-none-eabi/lib/thumb/v7-m/nofp\libc_nano.a(lib_a-memcpy-stub.o)
                0x08015044                memcpy
 .text.memset   0x08015060       0x10 c:/program files (x86)/gnu tools arm embedded/9 2019-q4-major/bin/../lib/gcc/arm-none-eabi/9.2.1/../../../../arm-none-eabi/lib/thumb/v7-m/nofp\libc_nano.a(lib_a-memset.o)
                0x08015060                memset
 .text.printf   0x08015070       0x30 c:/program files (x86)/gnu tools arm embedded/9 2019-q4-major/bin/../lib/gcc/arm-none-eabi/9.2.1/../../../../arm-none-eabi/lib/thumb/v7-m/nofp\libc_nano.a(lib_a-printf.o)
                0x08015070                iprintf
                0x08015070                printf
 .text._puts_r  0x080150a0       0xdc c:/program files (x86)/gnu tools arm embedded/9 2019-q4-major/bin/../lib/gcc/arm-none-eabi/9.2.1/../../../../arm-none-eabi/lib/thumb/v7-m/nofp\libc_nano.a(lib_a-puts.o)
                0x080150a0                _puts_r
 .text.puts     0x0801517c       0x10 c:/program files (x86)/gnu tools arm embedded/9 2019-q4-major/bin/../lib/gcc/arm-none-eabi/9.2.1/../../../../arm-none-eabi/lib/thumb/v7-m/nofp\libc_nano.a(lib_a-puts.o)
                0x0801517c                puts
 .text.__swbuf_r
                0x0801518c       0xa4 c:/program files (x86)/gnu tools arm embedded/9 2019-q4-major/bin/../lib/gcc/arm-none-eabi/9.2.1/../../../../arm-none-eabi/lib/thumb/v7-m/nofp\libc_nano.a(lib_a-wbuf.o)
                0x0801518c                __swbuf_r
 .text.__swsetup_r
                0x08015230       0xdc c:/program files (x86)/gnu tools arm embedded/9 2019-q4-major/bin/../lib/gcc/arm-none-eabi/9.2.1/../../../../arm-none-eabi/lib/thumb/v7-m/nofp\libc_nano.a(lib_a-wsetup.o)
                0x08015230                __swsetup_r
 .text.__sflush_r
                0x0801530c      0x10c c:/program files (x86)/gnu tools arm embedded/9 2019-q4-major/bin/../lib/gcc/arm-none-eabi/9.2.1/../../../../arm-none-eabi/lib/thumb/v7-m/nofp\libc_nano.a(lib_a-fflush.o)
                0x0801530c                __sflush_r
 .text._fflush_r
                0x08015418       0x78 c:/program files (x86)/gnu tools arm embedded/9 2019-q4-major/bin/../lib/gcc/arm-none-eabi/9.2.1/../../../../arm-none-eabi/lib/thumb/v7-m/nofp\libc_nano.a(lib_a-fflush.o)
                0x08015418                _fflush_r
 .text.std      0x08015490       0x48 c:/program files (x86)/gnu tools arm embedded/9 2019-q4-major/bin/../lib/gcc/arm-none-eabi/9.2.1/../../../../arm-none-eabi/lib/thumb/v7-m/nofp\libc_nano.a(lib_a-findfp.o)
 .text._cleanup_r
                0x080154d8        0xc c:/program files (x86)/gnu tools arm embedded/9 2019-q4-major/bin/../lib/gcc/arm-none-eabi/9.2.1/../../../../arm-none-eabi/lib/thumb/v7-m/nofp\libc_nano.a(lib_a-findfp.o)
                0x080154d8                _cleanup_r
 .text.__sfmoreglue
                0x080154e4       0x2c c:/program files (x86)/gnu tools arm embedded/9 2019-q4-major/bin/../lib/gcc/arm-none-eabi/9.2.1/../../../../arm-none-eabi/lib/thumb/v7-m/nofp\libc_nano.a(lib_a-findfp.o)
                0x080154e4                __sfmoreglue
 .text.__sfp_lock_acquire
                0x08015510        0xc c:/program files (x86)/gnu tools arm embedded/9 2019-q4-major/bin/../lib/gcc/arm-none-eabi/9.2.1/../../../../arm-none-eabi/lib/thumb/v7-m/nofp\libc_nano.a(lib_a-findfp.o)
                0x08015510                __sfp_lock_acquire
 .text.__sfp_lock_release
                0x0801551c        0xc c:/program files (x86)/gnu tools arm embedded/9 2019-q4-major/bin/../lib/gcc/arm-none-eabi/9.2.1/../../../../arm-none-eabi/lib/thumb/v7-m/nofp\libc_nano.a(lib_a-findfp.o)
                0x0801551c                __sfp_lock_release
 .text.__sinit_lock_acquire
                0x08015528        0xc c:/program files (x86)/gnu tools arm embedded/9 2019-q4-major/bin/../lib/gcc/arm-none-eabi/9.2.1/../../../../arm-none-eabi/lib/thumb/v7-m/nofp\libc_nano.a(lib_a-findfp.o)
                0x08015528                __sinit_lock_acquire
 .text.__sinit_lock_release
                0x08015534        0xc c:/program files (x86)/gnu tools arm embedded/9 2019-q4-major/bin/../lib/gcc/arm-none-eabi/9.2.1/../../../../arm-none-eabi/lib/thumb/v7-m/nofp\libc_nano.a(lib_a-findfp.o)
                0x08015534                __sinit_lock_release
 .text.__sinit  0x08015540       0x70 c:/program files (x86)/gnu tools arm embedded/9 2019-q4-major/bin/../lib/gcc/arm-none-eabi/9.2.1/../../../../arm-none-eabi/lib/thumb/v7-m/nofp\libc_nano.a(lib_a-findfp.o)
                0x08015540                __sinit
 .text.__sfp    0x080155b0       0x8c c:/program files (x86)/gnu tools arm embedded/9 2019-q4-major/bin/../lib/gcc/arm-none-eabi/9.2.1/../../../../arm-none-eabi/lib/thumb/v7-m/nofp\libc_nano.a(lib_a-findfp.o)
                0x080155b0                __sfp
 .text._fwalk_reent
                0x0801563c       0x3e c:/program files (x86)/gnu tools arm embedded/9 2019-q4-major/bin/../lib/gcc/arm-none-eabi/9.2.1/../../../../arm-none-eabi/lib/thumb/v7-m/nofp\libc_nano.a(lib_a-fwalk.o)
                0x0801563c                _fwalk_reent
 .text.__retarget_lock_init_recursive
                0x0801567a        0x2 c:/program files (x86)/gnu tools arm embedded/9 2019-q4-major/bin/../lib/gcc/arm-none-eabi/9.2.1/../../../../arm-none-eabi/lib/thumb/v7-m/nofp\libc_nano.a(lib_a-lock.o)
                0x0801567a                __retarget_lock_init_recursive
 .text.__retarget_lock_acquire_recursive
                0x0801567c        0x2 c:/program files (x86)/gnu tools arm embedded/9 2019-q4-major/bin/../lib/gcc/arm-none-eabi/9.2.1/../../../../arm-none-eabi/lib/thumb/v7-m/nofp\libc_nano.a(lib_a-lock.o)
                0x0801567c                __retarget_lock_acquire_recursive
 .text.__retarget_lock_release_recursive
                0x0801567e        0x2 c:/program files (x86)/gnu tools arm embedded/9 2019-q4-major/bin/../lib/gcc/arm-none-eabi/9.2.1/../../../../arm-none-eabi/lib/thumb/v7-m/nofp\libc_nano.a(lib_a-lock.o)
                0x0801567e                __retarget_lock_release_recursive
 .text.__swhatbuf_r
                0x08015680       0x48 c:/program files (x86)/gnu tools arm embedded/9 2019-q4-major/bin/../lib/gcc/arm-none-eabi/9.2.1/../../../../arm-none-eabi/lib/thumb/v7-m/nofp\libc_nano.a(lib_a-makebuf.o)
                0x08015680                __swhatbuf_r
 .text.__smakebuf_r
                0x080156c8       0x80 c:/program files (x86)/gnu tools arm embedded/9 2019-q4-major/bin/../lib/gcc/arm-none-eabi/9.2.1/../../../../arm-none-eabi/lib/thumb/v7-m/nofp\libc_nano.a(lib_a-makebuf.o)
                0x080156c8                __smakebuf_r
 .text._free_r  0x08015748       0x98 c:/program files (x86)/gnu tools arm embedded/9 2019-q4-major/bin/../lib/gcc/arm-none-eabi/9.2.1/../../../../arm-none-eabi/lib/thumb/v7-m/nofp\libc_nano.a(lib_a-nano-freer.o)
                0x08015748                _free_r
 .text._malloc_r
                0x080157e0       0xb4 c:/program files (x86)/gnu tools arm embedded/9 2019-q4-major/bin/../lib/gcc/arm-none-eabi/9.2.1/../../../../arm-none-eabi/lib/thumb/v7-m/nofp\libc_nano.a(lib_a-nano-mallocr.o)
                0x080157e0                _malloc_r
 .text.__sfputc_r
                0x08015894       0x2a c:/program files (x86)/gnu tools arm embedded/9 2019-q4-major/bin/../lib/gcc/arm-none-eabi/9.2.1/../../../../arm-none-eabi/lib/thumb/v7-m/nofp\libc_nano.a(lib_a-nano-vfprintf.o)
 .text.__sfputs_r
                0x080158be       0x24 c:/program files (x86)/gnu tools arm embedded/9 2019-q4-major/bin/../lib/gcc/arm-none-eabi/9.2.1/../../../../arm-none-eabi/lib/thumb/v7-m/nofp\libc_nano.a(lib_a-nano-vfprintf.o)
                0x080158be                __sfputs_r
 *fill*         0x080158e2        0x2 
 .text._vfprintf_r
                0x080158e4      0x260 c:/program files (x86)/gnu tools arm embedded/9 2019-q4-major/bin/../lib/gcc/arm-none-eabi/9.2.1/../../../../arm-none-eabi/lib/thumb/v7-m/nofp\libc_nano.a(lib_a-nano-vfprintf.o)
                0x080158e4                _vfprintf_r
                0x080158e4                _vfiprintf_r
 .text._printf_common
                0x08015b44       0xde c:/program files (x86)/gnu tools arm embedded/9 2019-q4-major/bin/../lib/gcc/arm-none-eabi/9.2.1/../../../../arm-none-eabi/lib/thumb/v7-m/nofp\libc_nano.a(lib_a-nano-vfprintf_i.o)
                0x08015b44                _printf_common
 *fill*         0x08015c22        0x2 
 .text._printf_i
                0x08015c24      0x24c c:/program files (x86)/gnu tools arm embedded/9 2019-q4-major/bin/../lib/gcc/arm-none-eabi/9.2.1/../../../../arm-none-eabi/lib/thumb/v7-m/nofp\libc_nano.a(lib_a-nano-vfprintf_i.o)
                0x08015c24                _printf_i
 .text._sbrk_r  0x08015e70       0x20 c:/program files (x86)/gnu tools arm embedded/9 2019-q4-major/bin/../lib/gcc/arm-none-eabi/9.2.1/../../../../arm-none-eabi/lib/thumb/v7-m/nofp\libc_nano.a(lib_a-sbrkr.o)
                0x08015e70                _sbrk_r
 .text.__sread  0x08015e90       0x22 c:/program files (x86)/gnu tools arm embedded/9 2019-q4-major/bin/../lib/gcc/arm-none-eabi/9.2.1/../../../../arm-none-eabi/lib/thumb/v7-m/nofp\libc_nano.a(lib_a-stdio.o)
                0x08015e90                __sread
 .text.__swrite
                0x08015eb2       0x38 c:/program files (x86)/gnu tools arm embedded/9 2019-q4-major/bin/../lib/gcc/arm-none-eabi/9.2.1/../../../../arm-none-eabi/lib/thumb/v7-m/nofp\libc_nano.a(lib_a-stdio.o)
                0x08015eb2                __swrite
 .text.__sseek  0x08015eea       0x24 c:/program files (x86)/gnu tools arm embedded/9 2019-q4-major/bin/../lib/gcc/arm-none-eabi/9.2.1/../../../../arm-none-eabi/lib/thumb/v7-m/nofp\libc_nano.a(lib_a-stdio.o)
                0x08015eea                __sseek
 .text.__sclose
                0x08015f0e        0x8 c:/program files (x86)/gnu tools arm embedded/9 2019-q4-major/bin/../lib/gcc/arm-none-eabi/9.2.1/../../../../arm-none-eabi/lib/thumb/v7-m/nofp\libc_nano.a(lib_a-stdio.o)
                0x08015f0e                __sclose
 *fill*         0x08015f16        0x2 
 .text._write_r
                0x08015f18       0x24 c:/program files (x86)/gnu tools arm embedded/9 2019-q4-major/bin/../lib/gcc/arm-none-eabi/9.2.1/../../../../arm-none-eabi/lib/thumb/v7-m/nofp\libc_nano.a(lib_a-writer.o)
                0x08015f18                _write_r
 .text._close_r
                0x08015f3c       0x20 c:/program files (x86)/gnu tools arm embedded/9 2019-q4-major/bin/../lib/gcc/arm-none-eabi/9.2.1/../../../../arm-none-eabi/lib/thumb/v7-m/nofp\libc_nano.a(lib_a-closer.o)
                0x08015f3c                _close_r
 .text._fstat_r
                0x08015f5c       0x24 c:/program files (x86)/gnu tools arm embedded/9 2019-q4-major/bin/../lib/gcc/arm-none-eabi/9.2.1/../../../../arm-none-eabi/lib/thumb/v7-m/nofp\libc_nano.a(lib_a-fstatr.o)
                0x08015f5c                _fstat_r
 .text._isatty_r
                0x08015f80       0x20 c:/program files (x86)/gnu tools arm embedded/9 2019-q4-major/bin/../lib/gcc/arm-none-eabi/9.2.1/../../../../arm-none-eabi/lib/thumb/v7-m/nofp\libc_nano.a(lib_a-isattyr.o)
                0x08015f80                _isatty_r
 .text._lseek_r
                0x08015fa0       0x24 c:/program files (x86)/gnu tools arm embedded/9 2019-q4-major/bin/../lib/gcc/arm-none-eabi/9.2.1/../../../../arm-none-eabi/lib/thumb/v7-m/nofp\libc_nano.a(lib_a-lseekr.o)
                0x08015fa0                _lseek_r
 .text.memchr   0x08015fc4       0x1c c:/program files (x86)/gnu tools arm embedded/9 2019-q4-major/bin/../lib/gcc/arm-none-eabi/9.2.1/../../../../arm-none-eabi/lib/thumb/v7-m/nofp\libc_nano.a(lib_a-memchr-stub.o)
                0x08015fc4                memchr
 .text.__malloc_lock
                0x08015fe0        0xc c:/program files (x86)/gnu tools arm embedded/9 2019-q4-major/bin/../lib/gcc/arm-none-eabi/9.2.1/../../../../arm-none-eabi/lib/thumb/v7-m/nofp\libc_nano.a(lib_a-mlock.o)
                0x08015fe0                __malloc_lock
 .text.__malloc_unlock
                0x08015fec        0xc c:/program files (x86)/gnu tools arm embedded/9 2019-q4-major/bin/../lib/gcc/arm-none-eabi/9.2.1/../../../../arm-none-eabi/lib/thumb/v7-m/nofp\libc_nano.a(lib_a-mlock.o)
                0x08015fec                __malloc_unlock
 .text._read_r  0x08015ff8       0x24 c:/program files (x86)/gnu tools arm embedded/9 2019-q4-major/bin/../lib/gcc/arm-none-eabi/9.2.1/../../../../arm-none-eabi/lib/thumb/v7-m/nofp\libc_nano.a(lib_a-readr.o)
                0x08015ff8                _read_r
 .text._close   0x0801601c       0x10 c:/program files (x86)/gnu tools arm embedded/9 2019-q4-major/bin/../lib/gcc/arm-none-eabi/9.2.1/../../../../arm-none-eabi/lib/thumb/v7-m/nofp\libnosys.a(close.o)
                0x0801601c                _close
 .text._fstat   0x0801602c       0x10 c:/program files (x86)/gnu tools arm embedded/9 2019-q4-major/bin/../lib/gcc/arm-none-eabi/9.2.1/../../../../arm-none-eabi/lib/thumb/v7-m/nofp\libnosys.a(fstat.o)
                0x0801602c                _fstat
 .text._isatty  0x0801603c       0x10 c:/program files (x86)/gnu tools arm embedded/9 2019-q4-major/bin/../lib/gcc/arm-none-eabi/9.2.1/../../../../arm-none-eabi/lib/thumb/v7-m/nofp\libnosys.a(isatty.o)
                0x0801603c                _isatty
 .text._lseek   0x0801604c       0x10 c:/program files (x86)/gnu tools arm embedded/9 2019-q4-major/bin/../lib/gcc/arm-none-eabi/9.2.1/../../../../arm-none-eabi/lib/thumb/v7-m/nofp\libnosys.a(lseek.o)
                0x0801604c                _lseek
 .text._read    0x0801605c       0x10 c:/program files (x86)/gnu tools arm embedded/9 2019-q4-major/bin/../lib/gcc/arm-none-eabi/9.2.1/../../../../arm-none-eabi/lib/thumb/v7-m/nofp\libnosys.a(read.o)
                0x0801605c                _read
 .text._sbrk    0x0801606c       0x1c c:/program files (x86)/gnu tools arm embedded/9 2019-q4-major/bin/../lib/gcc/arm-none-eabi/9.2.1/../../../../arm-none-eabi/lib/thumb/v7-m/nofp\libnosys.a(sbrk.o)
                0x0801606c                _sbrk
 .text.TWI_SCL_0
                0x08016088       0x18 ./Lib\libsw_i2c0.a(sw_i2c0.o)
 .text.TWI_SCL_1
                0x080160a0       0x18 ./Lib\libsw_i2c0.a(sw_i2c0.o)
 .text.TWI_SDA_0
                0x080160b8       0x18 ./Lib\libsw_i2c0.a(sw_i2c0.o)
 .text.TWI_SDA_1
                0x080160d0       0x18 ./Lib\libsw_i2c0.a(sw_i2c0.o)
 .text.TWI_SDA_STATE
                0x080160e8       0x24 ./Lib\libsw_i2c0.a(sw_i2c0.o)
 .text.TWI_NOP  0x0801610c       0x22 ./Lib\libsw_i2c0.a(sw_i2c0.o)
 *fill*         0x0801612e        0x2 
 .text.TWI_Initialize
                0x08016130       0x48 ./Lib\libsw_i2c0.a(sw_i2c0.o)
 .text.TWI_START
                0x08016178       0x46 ./Lib\libsw_i2c0.a(sw_i2c0.o)
 .text.TWI_STOP
                0x080161be       0x20 ./Lib\libsw_i2c0.a(sw_i2c0.o)
 .text.TWI_SendNACK
                0x080161de       0x20 ./Lib\libsw_i2c0.a(sw_i2c0.o)
 .text.TWI_SendByte
                0x080161fe       0x80 ./Lib\libsw_i2c0.a(sw_i2c0.o)
 .text.TWI_ReceiveByte
                0x0801627e       0x56 ./Lib\libsw_i2c0.a(sw_i2c0.o)
 .text.SW_I2C0_Init
                0x080162d4        0xc ./Lib\libsw_i2c0.a(sw_i2c0.o)
                0x080162d4                SW_I2C0_Init
 .text.I2C0_Write
                0x080162e0       0x46 ./Lib\libsw_i2c0.a(sw_i2c0.o)
                0x080162e0                I2C0_Write
 .text.I2C0_Read
                0x08016326       0x54 ./Lib\libsw_i2c0.a(sw_i2c0.o)
                0x08016326                I2C0_Read
 *fill*         0x0801637a        0x2 
 .text.TWI_SCL_0
                0x0801637c       0x18 ./Lib\libsw_i2c1.a(sw_i2c1.o)
 .text.TWI_SCL_1
                0x08016394       0x18 ./Lib\libsw_i2c1.a(sw_i2c1.o)
 .text.TWI_SDA_0
                0x080163ac       0x18 ./Lib\libsw_i2c1.a(sw_i2c1.o)
 .text.TWI_SDA_1
                0x080163c4       0x18 ./Lib\libsw_i2c1.a(sw_i2c1.o)
 .text.TWI_SDA_STATE
                0x080163dc       0x24 ./Lib\libsw_i2c1.a(sw_i2c1.o)
 .text.TWI_NOP  0x08016400       0x22 ./Lib\libsw_i2c1.a(sw_i2c1.o)
 *fill*         0x08016422        0x2 
 .text.TWI_Initialize
                0x08016424       0x4c ./Lib\libsw_i2c1.a(sw_i2c1.o)
 .text.TWI_START
                0x08016470       0x46 ./Lib\libsw_i2c1.a(sw_i2c1.o)
 .text.TWI_STOP
                0x080164b6       0x20 ./Lib\libsw_i2c1.a(sw_i2c1.o)
 .text.TWI_SendNACK
                0x080164d6       0x20 ./Lib\libsw_i2c1.a(sw_i2c1.o)
 .text.TWI_SendByte
                0x080164f6       0x80 ./Lib\libsw_i2c1.a(sw_i2c1.o)
 .text.TWI_ReceiveByte
                0x08016576       0x56 ./Lib\libsw_i2c1.a(sw_i2c1.o)
 .text.SW_I2C1_Init
                0x080165cc        0xc ./Lib\libsw_i2c1.a(sw_i2c1.o)
                0x080165cc                SW_I2C1_Init
 .text.SW_I2C1Write
                0x080165d8       0x3a ./Lib\libsw_i2c1.a(sw_i2c1.o)
                0x080165d8                SW_I2C1Write
 .text.SW_I2C1WriteNByte
                0x08016612       0x5c ./Lib\libsw_i2c1.a(sw_i2c1.o)
                0x08016612                SW_I2C1WriteNByte
 .text.SW_I2C1Read
                0x0801666e       0x5c ./Lib\libsw_i2c1.a(sw_i2c1.o)
                0x0801666e                SW_I2C1Read
 .text.I2Cdelay2
                0x080166ca       0x22 ./Lib\libsw_i2c1.a(sw_i2c1.o)
                0x080166ca                I2Cdelay2
 .text.I2CStart2
                0x080166ec       0x20 ./Lib\libsw_i2c1.a(sw_i2c1.o)
                0x080166ec                I2CStart2
 .text.I2CStop2
                0x0801670c       0x28 ./Lib\libsw_i2c1.a(sw_i2c1.o)
                0x0801670c                I2CStop2
 .text.I2CWriteData2
                0x08016734       0x70 ./Lib\libsw_i2c1.a(sw_i2c1.o)
                0x08016734                I2CWriteData2
 .text.I2CReadData2
                0x080167a4       0x66 ./Lib\libsw_i2c1.a(sw_i2c1.o)
                0x080167a4                I2CReadData2
 .text.ReadI2C2
                0x0801680a       0x4c ./Lib\libsw_i2c1.a(sw_i2c1.o)
                0x0801680a                ReadI2C2
 .text.EEPWrite
                0x08016856       0x4e ./Lib\libsw_i2c1.a(sw_i2c1.o)
                0x08016856                EEPWrite
 .text.EEPRead  0x080168a4       0x3c ./Lib\libsw_i2c1.a(sw_i2c1.o)
                0x080168a4                EEPRead
 .text.TWI_SCL_0
                0x080168e0       0x18 ./Lib\libsw_i2c2.a(sw_i2c2.o)
 .text.TWI_SCL_1
                0x080168f8       0x18 ./Lib\libsw_i2c2.a(sw_i2c2.o)
 .text.TWI_SDA_0
                0x08016910       0x18 ./Lib\libsw_i2c2.a(sw_i2c2.o)
 .text.TWI_SDA_1
                0x08016928       0x18 ./Lib\libsw_i2c2.a(sw_i2c2.o)
 .text.TWI_SDA_STATE
                0x08016940       0x24 ./Lib\libsw_i2c2.a(sw_i2c2.o)
 .text.TWI_NOP  0x08016964       0x22 ./Lib\libsw_i2c2.a(sw_i2c2.o)
 *fill*         0x08016986        0x2 
 .text.TWI_Initialize
                0x08016988       0x4c ./Lib\libsw_i2c2.a(sw_i2c2.o)
 .text.SW_I2C2_Init
                0x080169d4        0xc ./Lib\libsw_i2c2.a(sw_i2c2.o)
                0x080169d4                SW_I2C2_Init
 .text.I2Cdelay
                0x080169e0       0x22 ./Lib\libsw_i2c2.a(sw_i2c2.o)
                0x080169e0                I2Cdelay
 .text.I2CStart
                0x08016a02       0x20 ./Lib\libsw_i2c2.a(sw_i2c2.o)
                0x08016a02                I2CStart
 .text.I2CReStart
                0x08016a22       0x20 ./Lib\libsw_i2c2.a(sw_i2c2.o)
                0x08016a22                I2CReStart
 .text.I2CStop  0x08016a42       0x28 ./Lib\libsw_i2c2.a(sw_i2c2.o)
                0x08016a42                I2CStop
 .text.I2CWriteData
                0x08016a6a       0x70 ./Lib\libsw_i2c2.a(sw_i2c2.o)
                0x08016a6a                I2CWriteData
 .text.I2CReadData
                0x08016ada       0x6e ./Lib\libsw_i2c2.a(sw_i2c2.o)
                0x08016ada                I2CReadData
 .text.I2CWriteData3
                0x08016b48       0x70 ./Lib\libsw_i2c2.a(sw_i2c2.o)
                0x08016b48                I2CWriteData3
 .text.I2CWriteData4
                0x08016bb8       0x58 ./Lib\libsw_i2c2.a(sw_i2c2.o)
                0x08016bb8                I2CWriteData4
 .text.I2CReadData3
                0x08016c10       0x56 ./Lib\libsw_i2c2.a(sw_i2c2.o)
                0x08016c10                I2CReadData3
 .text.ReadI2C  0x08016c66       0x4c ./Lib\libsw_i2c2.a(sw_i2c2.o)
                0x08016c66                ReadI2C
 .text.I2CACK   0x08016cb2       0x28 ./Lib\libsw_i2c2.a(sw_i2c2.o)
 .text.I2CNACK  0x08016cda       0x24 ./Lib\libsw_i2c2.a(sw_i2c2.o)
 .text.ReadI2C3
                0x08016cfe       0x68 ./Lib\libsw_i2c2.a(sw_i2c2.o)
                0x08016cfe                ReadI2C3
 .text.ReadI2C4
                0x08016d66       0x58 ./Lib\libsw_i2c2.a(sw_i2c2.o)
                0x08016d66                ReadI2C4
 .text.WriteI2C3
                0x08016dbe       0x46 ./Lib\libsw_i2c2.a(sw_i2c2.o)
                0x08016dbe                WriteI2C3
 .text.TWI_SCL_0
                0x08016e04       0x18 ./Lib\libsw_i2c3.a(sw_i2c3.o)
 .text.TWI_SCL_1
                0x08016e1c       0x18 ./Lib\libsw_i2c3.a(sw_i2c3.o)
 .text.TWI_SDA_0
                0x08016e34       0x18 ./Lib\libsw_i2c3.a(sw_i2c3.o)
 .text.TWI_SDA_1
                0x08016e4c       0x18 ./Lib\libsw_i2c3.a(sw_i2c3.o)
 .text.TWI_SDA_STATE
                0x08016e64       0x24 ./Lib\libsw_i2c3.a(sw_i2c3.o)
 .text.TWI_NOP  0x08016e88       0x22 ./Lib\libsw_i2c3.a(sw_i2c3.o)
 *fill*         0x08016eaa        0x2 
 .text.TWI_Initialize
                0x08016eac       0x48 ./Lib\libsw_i2c3.a(sw_i2c3.o)
 .text.SW_I2C3_Init
                0x08016ef4        0xc ./Lib\libsw_i2c3.a(sw_i2c3.o)
                0x08016ef4                SW_I2C3_Init
 .text.I2C3_WriteNByte
                0x08016f00       0x66 ./Lib\libsw_i2c3.a(sw_i2c3.o)
                0x08016f00                I2C3_WriteNByte
 .text.I2Cdelay3
                0x08016f66       0x22 ./Lib\libsw_i2c3.a(sw_i2c3.o)
                0x08016f66                I2Cdelay3
 .text.I2CStart3
                0x08016f88       0x20 ./Lib\libsw_i2c3.a(sw_i2c3.o)
                0x08016f88                I2CStart3
 .text.I2CStop3
                0x08016fa8       0x28 ./Lib\libsw_i2c3.a(sw_i2c3.o)
                0x08016fa8                I2CStop3
 .text.I2CWriteData5
                0x08016fd0       0x70 ./Lib\libsw_i2c3.a(sw_i2c3.o)
                0x08016fd0                I2CWriteData5
 .text.I2CReadData5
                0x08017040       0x56 ./Lib\libsw_i2c3.a(sw_i2c3.o)
                0x08017040                I2CReadData5
 .text.I2CACK3  0x08017096       0x28 ./Lib\libsw_i2c3.a(sw_i2c3.o)
 .text.I2CNACK3
                0x080170be       0x24 ./Lib\libsw_i2c3.a(sw_i2c3.o)
 .text.I2C4_nRead
                0x080170e2       0x90 ./Lib\libsw_i2c3.a(sw_i2c3.o)
                0x080170e2                I2C4_nRead
 *(.glue_7)
 .glue_7        0x08017172        0x0 linker stubs
 *(.glue_7t)
 .glue_7t       0x08017172        0x0 linker stubs
 *(.eh_frame)
 *fill*         0x08017172        0x2 
 .eh_frame      0x08017174        0x0 c:/program files (x86)/gnu tools arm embedded/9 2019-q4-major/bin/../lib/gcc/arm-none-eabi/9.2.1/thumb/v7-m/nofp/crtbegin.o
 *(.init)
 .init          0x08017174        0x4 c:/program files (x86)/gnu tools arm embedded/9 2019-q4-major/bin/../lib/gcc/arm-none-eabi/9.2.1/thumb/v7-m/nofp/crti.o
                0x08017174                _init
 .init          0x08017178        0x8 c:/program files (x86)/gnu tools arm embedded/9 2019-q4-major/bin/../lib/gcc/arm-none-eabi/9.2.1/thumb/v7-m/nofp/crtn.o
 *(.fini)
 .fini          0x08017180        0x4 c:/program files (x86)/gnu tools arm embedded/9 2019-q4-major/bin/../lib/gcc/arm-none-eabi/9.2.1/thumb/v7-m/nofp/crti.o
                0x08017180                _fini
 .fini          0x08017184        0x8 c:/program files (x86)/gnu tools arm embedded/9 2019-q4-major/bin/../lib/gcc/arm-none-eabi/9.2.1/thumb/v7-m/nofp/crtn.o
                0x0801718c                . = ALIGN (0x4)
                0x0801718c                _etext = .

.vfp11_veneer   0x0801718c        0x0
 .vfp11_veneer  0x0801718c        0x0 linker stubs

.v4_bx          0x0801718c        0x0
 .v4_bx         0x0801718c        0x0 linker stubs

.iplt           0x0801718c        0x0
 .iplt          0x0801718c        0x0 c:/program files (x86)/gnu tools arm embedded/9 2019-q4-major/bin/../lib/gcc/arm-none-eabi/9.2.1/thumb/v7-m/nofp/crtbegin.o

.rodata         0x0801718c     0x8420
                0x0801718c                . = ALIGN (0x4)
 *(.rodata)
 .rodata        0x0801718c       0x20 build/VX_OSD_Simple.o
 .rodata        0x080171ac        0x5 build/TP2802.o
 *fill*         0x080171b1        0x3 
 .rodata        0x080171b4       0x10 build/keyremo.o
 *(.rodata*)
 .rodata.setloopoutmode.str1.4
                0x080171c4      0x583 build/main.o
 *fill*         0x08017747        0x1 
 .rodata.main_init.str1.4
                0x08017748       0xa0 build/main.o
 .rodata.LCDPowerON.str1.4
                0x080177e8       0x1e build/main.o
 *fill*         0x08017806        0x2 
 .rodata.LCDPowerOFF.str1.4
                0x08017808        0xe build/main.o
 *fill*         0x08017816        0x2 
 .rodata.WaitPowerOn.str1.4
                0x08017818       0x1f build/main.o
 *fill*         0x08017837        0x1 
 .rodata.main.str1.4
                0x08017838       0x53 build/main.o
 *fill*         0x0801788b        0x1 
 .rodata.HAL_RCC_GetSysClockFreq.str1.4
                0x0801788c       0x11 build/stm32f1xx_hal_rcc.o
 .rodata.HAL_RCCEx_GetPeriphCLKFreq.str1.4
                0x0801789d       0x11 build/stm32f1xx_hal_rcc_ex.o
 *fill*         0x0801789d        0x3 
 .rodata.AHBPrescTable
                0x080178a0       0x10 build/system_stm32f1xx.o
                0x080178a0                AHBPrescTable
 .rodata.APBPrescTable
                0x080178b0        0x8 build/system_stm32f1xx.o
                0x080178b0                APBPrescTable
 .rodata.VS4210_Addr_88param
                0x080178b8       0x58 build/VS4210_param_Mode88.o
                0x080178b8                VS4210_Addr_88param
 .rodata.VS4210_bt656_1080P_1080P_mode0_w0_88param
                0x08017910       0x58 build/VS4210_param_Mode88.o
                0x08017910                VS4210_bt656_1080P_1080P_mode0_w0_88param
 .rodata.VS4210_bt656_1080P_1080P_mode0_w0_mirrorH_88param
                0x08017968       0x58 build/VS4210_param_Mode88.o
                0x08017968                VS4210_bt656_1080P_1080P_mode0_w0_mirrorH_88param
 .rodata.VS4210_bt656_1080P_720P_mode0_w0_88param
                0x080179c0       0x58 build/VS4210_param_Mode88.o
                0x080179c0                VS4210_bt656_1080P_720P_mode0_w0_88param
 .rodata.VS4210_bt656_1080P_720P_mode0_w0_mirrorH_88param
                0x08017a18       0x58 build/VS4210_param_Mode88.o
                0x08017a18                VS4210_bt656_1080P_720P_mode0_w0_mirrorH_88param
 .rodata.VS4210_bt656_1080P_800x480_mode0_w0_88param
                0x08017a70       0x58 build/VS4210_param_Mode88.o
                0x08017a70                VS4210_bt656_1080P_800x480_mode0_w0_88param
 .rodata.VS4210_bt656_1080P_800x480_mode0_w0_mirrorH_88param
                0x08017ac8       0x58 build/VS4210_param_Mode88.o
                0x08017ac8                VS4210_bt656_1080P_800x480_mode0_w0_mirrorH_88param
 .rodata.VS4210_bt656_720P_1080P_mode0_w0_88param
                0x08017b20       0x58 build/VS4210_param_Mode88.o
                0x08017b20                VS4210_bt656_720P_1080P_mode0_w0_88param
 .rodata.VS4210_bt656_720P_1080P_mode0_w0_mirrorH_88param
                0x08017b78       0x58 build/VS4210_param_Mode88.o
                0x08017b78                VS4210_bt656_720P_1080P_mode0_w0_mirrorH_88param
 .rodata.VS4210_bt656_720P_720P_mode0_w0_88param
                0x08017bd0       0x58 build/VS4210_param_Mode88.o
                0x08017bd0                VS4210_bt656_720P_720P_mode0_w0_88param
 .rodata.VS4210_bt656_720P_720P_mode0_w0_mirrorH_88param
                0x08017c28       0x58 build/VS4210_param_Mode88.o
                0x08017c28                VS4210_bt656_720P_720P_mode0_w0_mirrorH_88param
 .rodata.VS4210_bt656_720P_800x480_mode0_w0_88param
                0x08017c80       0x58 build/VS4210_param_Mode88.o
                0x08017c80                VS4210_bt656_720P_800x480_mode0_w0_88param
 .rodata.VS4210_bt656_720P_800x480_mode0_w0_mirrorH_88param
                0x08017cd8       0x58 build/VS4210_param_Mode88.o
                0x08017cd8                VS4210_bt656_720P_800x480_mode0_w0_mirrorH_88param
 .rodata.VS4210_bt656_NTSC_1080P_mode0_w0_88param
                0x08017d30       0x58 build/VS4210_param_Mode88.o
                0x08017d30                VS4210_bt656_NTSC_1080P_mode0_w0_88param
 .rodata.VS4210_bt656_NTSC_1080P_mode0_w0_mirrorH_88param
                0x08017d88       0x58 build/VS4210_param_Mode88.o
                0x08017d88                VS4210_bt656_NTSC_1080P_mode0_w0_mirrorH_88param
 .rodata.VS4210_bt656_NTSC_720P_mode0_w0_88param
                0x08017de0       0x58 build/VS4210_param_Mode88.o
                0x08017de0                VS4210_bt656_NTSC_720P_mode0_w0_88param
 .rodata.VS4210_bt656_NTSC_720P_mode0_w0_mirrorH_88param
                0x08017e38       0x58 build/VS4210_param_Mode88.o
                0x08017e38                VS4210_bt656_NTSC_720P_mode0_w0_mirrorH_88param
 .rodata.VS4210_bt656_NTSC_800x480_mode0_w0_88param
                0x08017e90       0x58 build/VS4210_param_Mode88.o
                0x08017e90                VS4210_bt656_NTSC_800x480_mode0_w0_88param
 .rodata.VS4210_bt656_NTSC_800x480_mode0_w0_mirrorH_88param
                0x08017ee8       0x58 build/VS4210_param_Mode88.o
                0x08017ee8                VS4210_bt656_NTSC_800x480_mode0_w0_mirrorH_88param
 .rodata.VS4210_bt656_PAL_1080P_mode0_w0_88param
                0x08017f40       0x58 build/VS4210_param_Mode88.o
                0x08017f40                VS4210_bt656_PAL_1080P_mode0_w0_88param
 .rodata.VS4210_bt656_PAL_1080P_mode0_w0_mirrorH_88param
                0x08017f98       0x58 build/VS4210_param_Mode88.o
                0x08017f98                VS4210_bt656_PAL_1080P_mode0_w0_mirrorH_88param
 .rodata.VS4210_bt656_PAL_720P_mode0_w0_88param
                0x08017ff0       0x58 build/VS4210_param_Mode88.o
                0x08017ff0                VS4210_bt656_PAL_720P_mode0_w0_88param
 .rodata.VS4210_bt656_PAL_720P_mode0_w0_mirrorH_88param
                0x08018048       0x58 build/VS4210_param_Mode88.o
                0x08018048                VS4210_bt656_PAL_720P_mode0_w0_mirrorH_88param
 .rodata.VS4210_bt656_PAL_800x480_mode0_w0_88param
                0x080180a0       0x58 build/VS4210_param_Mode88.o
                0x080180a0                VS4210_bt656_PAL_800x480_mode0_w0_88param
 .rodata.VS4210_bt656_PAL_800x480_mode0_w0_mirrorH_88param
                0x080180f8       0x58 build/VS4210_param_Mode88.o
                0x080180f8                VS4210_bt656_PAL_800x480_mode0_w0_mirrorH_88param
 .rodata.VS4210_Addr_param
                0x08018150       0x1a build/VS4210_param_Modex26.o
                0x08018150                VS4210_Addr_param
 *fill*         0x0801816a        0x2 
 .rodata.VS4210_bt656_1080P_1080P_mode10_w0_mirrorH_param
                0x0801816c       0x1a build/VS4210_param_Modex26.o
                0x0801816c                VS4210_bt656_1080P_1080P_mode10_w0_mirrorH_param
 *fill*         0x08018186        0x2 
 .rodata.VS4210_bt656_1080P_1080P_mode10_w0_param
                0x08018188       0x1a build/VS4210_param_Modex26.o
                0x08018188                VS4210_bt656_1080P_1080P_mode10_w0_param
 *fill*         0x080181a2        0x2 
 .rodata.VS4210_bt656_1080P_1080P_mode10_w1_mirrorH_param
                0x080181a4       0x1a build/VS4210_param_Modex26.o
                0x080181a4                VS4210_bt656_1080P_1080P_mode10_w1_mirrorH_param
 *fill*         0x080181be        0x2 
 .rodata.VS4210_bt656_1080P_1080P_mode10_w1_param
                0x080181c0       0x1a build/VS4210_param_Modex26.o
                0x080181c0                VS4210_bt656_1080P_1080P_mode10_w1_param
 *fill*         0x080181da        0x2 
 .rodata.VS4210_bt656_1080P_1080P_mode10_w2_mirrorH_param
                0x080181dc       0x1a build/VS4210_param_Modex26.o
                0x080181dc                VS4210_bt656_1080P_1080P_mode10_w2_mirrorH_param
 *fill*         0x080181f6        0x2 
 .rodata.VS4210_bt656_1080P_1080P_mode10_w2_param
                0x080181f8       0x1a build/VS4210_param_Modex26.o
                0x080181f8                VS4210_bt656_1080P_1080P_mode10_w2_param
 *fill*         0x08018212        0x2 
 .rodata.VS4210_bt656_1080P_1080P_mode12_w0_mirrorH_param
                0x08018214       0x1a build/VS4210_param_Modex26.o
                0x08018214                VS4210_bt656_1080P_1080P_mode12_w0_mirrorH_param
 *fill*         0x0801822e        0x2 
 .rodata.VS4210_bt656_1080P_1080P_mode12_w0_param
                0x08018230       0x1a build/VS4210_param_Modex26.o
                0x08018230                VS4210_bt656_1080P_1080P_mode12_w0_param
 *fill*         0x0801824a        0x2 
 .rodata.VS4210_bt656_1080P_1080P_mode12_w1_mirrorH_param
                0x0801824c       0x1a build/VS4210_param_Modex26.o
                0x0801824c                VS4210_bt656_1080P_1080P_mode12_w1_mirrorH_param
 *fill*         0x08018266        0x2 
 .rodata.VS4210_bt656_1080P_1080P_mode12_w1_param
                0x08018268       0x1a build/VS4210_param_Modex26.o
                0x08018268                VS4210_bt656_1080P_1080P_mode12_w1_param
 *fill*         0x08018282        0x2 
 .rodata.VS4210_bt656_1080P_1080P_mode14_w0_mirrorH_param
                0x08018284       0x1a build/VS4210_param_Modex26.o
                0x08018284                VS4210_bt656_1080P_1080P_mode14_w0_mirrorH_param
 *fill*         0x0801829e        0x2 
 .rodata.VS4210_bt656_1080P_1080P_mode14_w0_param
                0x080182a0       0x1a build/VS4210_param_Modex26.o
                0x080182a0                VS4210_bt656_1080P_1080P_mode14_w0_param
 *fill*         0x080182ba        0x2 
 .rodata.VS4210_bt656_1080P_1080P_mode14_w1_mirrorH_param
                0x080182bc       0x1a build/VS4210_param_Modex26.o
                0x080182bc                VS4210_bt656_1080P_1080P_mode14_w1_mirrorH_param
 *fill*         0x080182d6        0x2 
 .rodata.VS4210_bt656_1080P_1080P_mode14_w1_param
                0x080182d8       0x1a build/VS4210_param_Modex26.o
                0x080182d8                VS4210_bt656_1080P_1080P_mode14_w1_param
 *fill*         0x080182f2        0x2 
 .rodata.VS4210_bt656_1080P_1080P_mode14_w2_mirrorH_param
                0x080182f4       0x1a build/VS4210_param_Modex26.o
                0x080182f4                VS4210_bt656_1080P_1080P_mode14_w2_mirrorH_param
 *fill*         0x0801830e        0x2 
 .rodata.VS4210_bt656_1080P_1080P_mode14_w2_param
                0x08018310       0x1a build/VS4210_param_Modex26.o
                0x08018310                VS4210_bt656_1080P_1080P_mode14_w2_param
 *fill*         0x0801832a        0x2 
 .rodata.VS4210_bt656_1080P_1080P_mode1_w0_mirrorH_param
                0x0801832c       0x1a build/VS4210_param_Modex26.o
                0x0801832c                VS4210_bt656_1080P_1080P_mode1_w0_mirrorH_param
 *fill*         0x08018346        0x2 
 .rodata.VS4210_bt656_1080P_1080P_mode1_w0_param
                0x08018348       0x1a build/VS4210_param_Modex26.o
                0x08018348                VS4210_bt656_1080P_1080P_mode1_w0_param
 *fill*         0x08018362        0x2 
 .rodata.VS4210_bt656_1080P_1080P_mode1_w1_mirrorH_param
                0x08018364       0x1a build/VS4210_param_Modex26.o
                0x08018364                VS4210_bt656_1080P_1080P_mode1_w1_mirrorH_param
 *fill*         0x0801837e        0x2 
 .rodata.VS4210_bt656_1080P_1080P_mode1_w1_param
                0x08018380       0x1a build/VS4210_param_Modex26.o
                0x08018380                VS4210_bt656_1080P_1080P_mode1_w1_param
 *fill*         0x0801839a        0x2 
 .rodata.VS4210_bt656_1080P_1080P_mode1_w2_mirrorH_param
                0x0801839c       0x1a build/VS4210_param_Modex26.o
                0x0801839c                VS4210_bt656_1080P_1080P_mode1_w2_mirrorH_param
 *fill*         0x080183b6        0x2 
 .rodata.VS4210_bt656_1080P_1080P_mode1_w2_param
                0x080183b8       0x1a build/VS4210_param_Modex26.o
                0x080183b8                VS4210_bt656_1080P_1080P_mode1_w2_param
 *fill*         0x080183d2        0x2 
 .rodata.VS4210_bt656_1080P_1080P_mode1_w3_mirrorH_param
                0x080183d4       0x1a build/VS4210_param_Modex26.o
                0x080183d4                VS4210_bt656_1080P_1080P_mode1_w3_mirrorH_param
 *fill*         0x080183ee        0x2 
 .rodata.VS4210_bt656_1080P_1080P_mode1_w3_param
                0x080183f0       0x1a build/VS4210_param_Modex26.o
                0x080183f0                VS4210_bt656_1080P_1080P_mode1_w3_param
 *fill*         0x0801840a        0x2 
 .rodata.VS4210_bt656_1080P_1080P_mode2_w0_mirrorH_param
                0x0801840c       0x1a build/VS4210_param_Modex26.o
                0x0801840c                VS4210_bt656_1080P_1080P_mode2_w0_mirrorH_param
 *fill*         0x08018426        0x2 
 .rodata.VS4210_bt656_1080P_1080P_mode2_w0_param
                0x08018428       0x1a build/VS4210_param_Modex26.o
                0x08018428                VS4210_bt656_1080P_1080P_mode2_w0_param
 *fill*         0x08018442        0x2 
 .rodata.VS4210_bt656_1080P_1080P_mode2_w1_mirrorH_param
                0x08018444       0x1a build/VS4210_param_Modex26.o
                0x08018444                VS4210_bt656_1080P_1080P_mode2_w1_mirrorH_param
 *fill*         0x0801845e        0x2 
 .rodata.VS4210_bt656_1080P_1080P_mode2_w1_param
                0x08018460       0x1a build/VS4210_param_Modex26.o
                0x08018460                VS4210_bt656_1080P_1080P_mode2_w1_param
 *fill*         0x0801847a        0x2 
 .rodata.VS4210_bt656_1080P_1080P_mode2_w2_mirrorH_param
                0x0801847c       0x1a build/VS4210_param_Modex26.o
                0x0801847c                VS4210_bt656_1080P_1080P_mode2_w2_mirrorH_param
 *fill*         0x08018496        0x2 
 .rodata.VS4210_bt656_1080P_1080P_mode2_w2_param
                0x08018498       0x1a build/VS4210_param_Modex26.o
                0x08018498                VS4210_bt656_1080P_1080P_mode2_w2_param
 *fill*         0x080184b2        0x2 
 .rodata.VS4210_bt656_1080P_1080P_mode2_w3_mirrorH_param
                0x080184b4       0x1a build/VS4210_param_Modex26.o
                0x080184b4                VS4210_bt656_1080P_1080P_mode2_w3_mirrorH_param
 *fill*         0x080184ce        0x2 
 .rodata.VS4210_bt656_1080P_1080P_mode2_w3_param
                0x080184d0       0x1a build/VS4210_param_Modex26.o
                0x080184d0                VS4210_bt656_1080P_1080P_mode2_w3_param
 *fill*         0x080184ea        0x2 
 .rodata.VS4210_bt656_1080P_1080P_mode8_w0_mirrorH_param
                0x080184ec       0x1a build/VS4210_param_Modex26.o
                0x080184ec                VS4210_bt656_1080P_1080P_mode8_w0_mirrorH_param
 *fill*         0x08018506        0x2 
 .rodata.VS4210_bt656_1080P_1080P_mode8_w0_param
                0x08018508       0x1a build/VS4210_param_Modex26.o
                0x08018508                VS4210_bt656_1080P_1080P_mode8_w0_param
 *fill*         0x08018522        0x2 
 .rodata.VS4210_bt656_1080P_1080P_mode8_w1_mirrorH_param
                0x08018524       0x1a build/VS4210_param_Modex26.o
                0x08018524                VS4210_bt656_1080P_1080P_mode8_w1_mirrorH_param
 *fill*         0x0801853e        0x2 
 .rodata.VS4210_bt656_1080P_1080P_mode8_w1_param
                0x08018540       0x1a build/VS4210_param_Modex26.o
                0x08018540                VS4210_bt656_1080P_1080P_mode8_w1_param
 *fill*         0x0801855a        0x2 
 .rodata.VS4210_bt656_1080P_1080P_mode8_w2_mirrorH_param
                0x0801855c       0x1a build/VS4210_param_Modex26.o
                0x0801855c                VS4210_bt656_1080P_1080P_mode8_w2_mirrorH_param
 *fill*         0x08018576        0x2 
 .rodata.VS4210_bt656_1080P_1080P_mode8_w2_param
                0x08018578       0x1a build/VS4210_param_Modex26.o
                0x08018578                VS4210_bt656_1080P_1080P_mode8_w2_param
 *fill*         0x08018592        0x2 
 .rodata.VS4210_bt656_1080P_1080P_mode9_w0_mirrorH_param
                0x08018594       0x1a build/VS4210_param_Modex26.o
                0x08018594                VS4210_bt656_1080P_1080P_mode9_w0_mirrorH_param
 *fill*         0x080185ae        0x2 
 .rodata.VS4210_bt656_1080P_1080P_mode9_w0_param
                0x080185b0       0x1a build/VS4210_param_Modex26.o
                0x080185b0                VS4210_bt656_1080P_1080P_mode9_w0_param
 *fill*         0x080185ca        0x2 
 .rodata.VS4210_bt656_1080P_1080P_mode9_w1_mirrorH_param
                0x080185cc       0x1a build/VS4210_param_Modex26.o
                0x080185cc                VS4210_bt656_1080P_1080P_mode9_w1_mirrorH_param
 *fill*         0x080185e6        0x2 
 .rodata.VS4210_bt656_1080P_1080P_mode9_w1_param
                0x080185e8       0x1a build/VS4210_param_Modex26.o
                0x080185e8                VS4210_bt656_1080P_1080P_mode9_w1_param
 *fill*         0x08018602        0x2 
 .rodata.VS4210_bt656_1080P_1080P_mode9_w2_mirrorH_param
                0x08018604       0x1a build/VS4210_param_Modex26.o
                0x08018604                VS4210_bt656_1080P_1080P_mode9_w2_mirrorH_param
 *fill*         0x0801861e        0x2 
 .rodata.VS4210_bt656_1080P_1080P_mode9_w2_param
                0x08018620       0x1a build/VS4210_param_Modex26.o
                0x08018620                VS4210_bt656_1080P_1080P_mode9_w2_param
 *fill*         0x0801863a        0x2 
 .rodata.VS4210_bt656_1080P_720P_mode10_w0_mirrorH_param
                0x0801863c       0x1a build/VS4210_param_Modex26.o
                0x0801863c                VS4210_bt656_1080P_720P_mode10_w0_mirrorH_param
 *fill*         0x08018656        0x2 
 .rodata.VS4210_bt656_1080P_720P_mode10_w0_param
                0x08018658       0x1a build/VS4210_param_Modex26.o
                0x08018658                VS4210_bt656_1080P_720P_mode10_w0_param
 *fill*         0x08018672        0x2 
 .rodata.VS4210_bt656_1080P_720P_mode10_w1_mirrorH_param
                0x08018674       0x1a build/VS4210_param_Modex26.o
                0x08018674                VS4210_bt656_1080P_720P_mode10_w1_mirrorH_param
 *fill*         0x0801868e        0x2 
 .rodata.VS4210_bt656_1080P_720P_mode10_w1_param
                0x08018690       0x1a build/VS4210_param_Modex26.o
                0x08018690                VS4210_bt656_1080P_720P_mode10_w1_param
 *fill*         0x080186aa        0x2 
 .rodata.VS4210_bt656_1080P_720P_mode10_w2_mirrorH_param
                0x080186ac       0x1a build/VS4210_param_Modex26.o
                0x080186ac                VS4210_bt656_1080P_720P_mode10_w2_mirrorH_param
 *fill*         0x080186c6        0x2 
 .rodata.VS4210_bt656_1080P_720P_mode10_w2_param
                0x080186c8       0x1a build/VS4210_param_Modex26.o
                0x080186c8                VS4210_bt656_1080P_720P_mode10_w2_param
 *fill*         0x080186e2        0x2 
 .rodata.VS4210_bt656_1080P_720P_mode12_w0_mirrorH_param
                0x080186e4       0x1a build/VS4210_param_Modex26.o
                0x080186e4                VS4210_bt656_1080P_720P_mode12_w0_mirrorH_param
 *fill*         0x080186fe        0x2 
 .rodata.VS4210_bt656_1080P_720P_mode12_w0_param
                0x08018700       0x1a build/VS4210_param_Modex26.o
                0x08018700                VS4210_bt656_1080P_720P_mode12_w0_param
 *fill*         0x0801871a        0x2 
 .rodata.VS4210_bt656_1080P_720P_mode12_w1_mirrorH_param
                0x0801871c       0x1a build/VS4210_param_Modex26.o
                0x0801871c                VS4210_bt656_1080P_720P_mode12_w1_mirrorH_param
 *fill*         0x08018736        0x2 
 .rodata.VS4210_bt656_1080P_720P_mode12_w1_param
                0x08018738       0x1a build/VS4210_param_Modex26.o
                0x08018738                VS4210_bt656_1080P_720P_mode12_w1_param
 *fill*         0x08018752        0x2 
 .rodata.VS4210_bt656_1080P_720P_mode14_w0_mirrorH_param
                0x08018754       0x1a build/VS4210_param_Modex26.o
                0x08018754                VS4210_bt656_1080P_720P_mode14_w0_mirrorH_param
 *fill*         0x0801876e        0x2 
 .rodata.VS4210_bt656_1080P_720P_mode14_w0_param
                0x08018770       0x1a build/VS4210_param_Modex26.o
                0x08018770                VS4210_bt656_1080P_720P_mode14_w0_param
 *fill*         0x0801878a        0x2 
 .rodata.VS4210_bt656_1080P_720P_mode14_w1_mirrorH_param
                0x0801878c       0x1a build/VS4210_param_Modex26.o
                0x0801878c                VS4210_bt656_1080P_720P_mode14_w1_mirrorH_param
 *fill*         0x080187a6        0x2 
 .rodata.VS4210_bt656_1080P_720P_mode14_w1_param
                0x080187a8       0x1a build/VS4210_param_Modex26.o
                0x080187a8                VS4210_bt656_1080P_720P_mode14_w1_param
 *fill*         0x080187c2        0x2 
 .rodata.VS4210_bt656_1080P_720P_mode14_w2_mirrorH_param
                0x080187c4       0x1a build/VS4210_param_Modex26.o
                0x080187c4                VS4210_bt656_1080P_720P_mode14_w2_mirrorH_param
 *fill*         0x080187de        0x2 
 .rodata.VS4210_bt656_1080P_720P_mode14_w2_param
                0x080187e0       0x1a build/VS4210_param_Modex26.o
                0x080187e0                VS4210_bt656_1080P_720P_mode14_w2_param
 *fill*         0x080187fa        0x2 
 .rodata.VS4210_bt656_1080P_720P_mode1_w0_mirrorH_param
                0x080187fc       0x1a build/VS4210_param_Modex26.o
                0x080187fc                VS4210_bt656_1080P_720P_mode1_w0_mirrorH_param
 *fill*         0x08018816        0x2 
 .rodata.VS4210_bt656_1080P_720P_mode1_w0_param
                0x08018818       0x1a build/VS4210_param_Modex26.o
                0x08018818                VS4210_bt656_1080P_720P_mode1_w0_param
 *fill*         0x08018832        0x2 
 .rodata.VS4210_bt656_1080P_720P_mode1_w1_mirrorH_param
                0x08018834       0x1a build/VS4210_param_Modex26.o
                0x08018834                VS4210_bt656_1080P_720P_mode1_w1_mirrorH_param
 *fill*         0x0801884e        0x2 
 .rodata.VS4210_bt656_1080P_720P_mode1_w1_param
                0x08018850       0x1a build/VS4210_param_Modex26.o
                0x08018850                VS4210_bt656_1080P_720P_mode1_w1_param
 *fill*         0x0801886a        0x2 
 .rodata.VS4210_bt656_1080P_720P_mode1_w2_mirrorH_param
                0x0801886c       0x1a build/VS4210_param_Modex26.o
                0x0801886c                VS4210_bt656_1080P_720P_mode1_w2_mirrorH_param
 *fill*         0x08018886        0x2 
 .rodata.VS4210_bt656_1080P_720P_mode1_w2_param
                0x08018888       0x1a build/VS4210_param_Modex26.o
                0x08018888                VS4210_bt656_1080P_720P_mode1_w2_param
 *fill*         0x080188a2        0x2 
 .rodata.VS4210_bt656_1080P_720P_mode1_w3_mirrorH_param
                0x080188a4       0x1a build/VS4210_param_Modex26.o
                0x080188a4                VS4210_bt656_1080P_720P_mode1_w3_mirrorH_param
 *fill*         0x080188be        0x2 
 .rodata.VS4210_bt656_1080P_720P_mode1_w3_param
                0x080188c0       0x1a build/VS4210_param_Modex26.o
                0x080188c0                VS4210_bt656_1080P_720P_mode1_w3_param
 *fill*         0x080188da        0x2 
 .rodata.VS4210_bt656_1080P_720P_mode2_w0_mirrorH_param
                0x080188dc       0x1a build/VS4210_param_Modex26.o
                0x080188dc                VS4210_bt656_1080P_720P_mode2_w0_mirrorH_param
 *fill*         0x080188f6        0x2 
 .rodata.VS4210_bt656_1080P_720P_mode2_w0_param
                0x080188f8       0x1a build/VS4210_param_Modex26.o
                0x080188f8                VS4210_bt656_1080P_720P_mode2_w0_param
 *fill*         0x08018912        0x2 
 .rodata.VS4210_bt656_1080P_720P_mode2_w1_mirrorH_param
                0x08018914       0x1a build/VS4210_param_Modex26.o
                0x08018914                VS4210_bt656_1080P_720P_mode2_w1_mirrorH_param
 *fill*         0x0801892e        0x2 
 .rodata.VS4210_bt656_1080P_720P_mode2_w1_param
                0x08018930       0x1a build/VS4210_param_Modex26.o
                0x08018930                VS4210_bt656_1080P_720P_mode2_w1_param
 *fill*         0x0801894a        0x2 
 .rodata.VS4210_bt656_1080P_720P_mode2_w2_mirrorH_param
                0x0801894c       0x1a build/VS4210_param_Modex26.o
                0x0801894c                VS4210_bt656_1080P_720P_mode2_w2_mirrorH_param
 *fill*         0x08018966        0x2 
 .rodata.VS4210_bt656_1080P_720P_mode2_w2_param
                0x08018968       0x1a build/VS4210_param_Modex26.o
                0x08018968                VS4210_bt656_1080P_720P_mode2_w2_param
 *fill*         0x08018982        0x2 
 .rodata.VS4210_bt656_1080P_720P_mode2_w3_mirrorH_param
                0x08018984       0x1a build/VS4210_param_Modex26.o
                0x08018984                VS4210_bt656_1080P_720P_mode2_w3_mirrorH_param
 *fill*         0x0801899e        0x2 
 .rodata.VS4210_bt656_1080P_720P_mode2_w3_param
                0x080189a0       0x1a build/VS4210_param_Modex26.o
                0x080189a0                VS4210_bt656_1080P_720P_mode2_w3_param
 *fill*         0x080189ba        0x2 
 .rodata.VS4210_bt656_1080P_720P_mode8_w0_mirrorH_param
                0x080189bc       0x1a build/VS4210_param_Modex26.o
                0x080189bc                VS4210_bt656_1080P_720P_mode8_w0_mirrorH_param
 *fill*         0x080189d6        0x2 
 .rodata.VS4210_bt656_1080P_720P_mode8_w0_param
                0x080189d8       0x1a build/VS4210_param_Modex26.o
                0x080189d8                VS4210_bt656_1080P_720P_mode8_w0_param
 *fill*         0x080189f2        0x2 
 .rodata.VS4210_bt656_1080P_720P_mode8_w1_mirrorH_param
                0x080189f4       0x1a build/VS4210_param_Modex26.o
                0x080189f4                VS4210_bt656_1080P_720P_mode8_w1_mirrorH_param
 *fill*         0x08018a0e        0x2 
 .rodata.VS4210_bt656_1080P_720P_mode8_w1_param
                0x08018a10       0x1a build/VS4210_param_Modex26.o
                0x08018a10                VS4210_bt656_1080P_720P_mode8_w1_param
 *fill*         0x08018a2a        0x2 
 .rodata.VS4210_bt656_1080P_720P_mode8_w2_mirrorH_param
                0x08018a2c       0x1a build/VS4210_param_Modex26.o
                0x08018a2c                VS4210_bt656_1080P_720P_mode8_w2_mirrorH_param
 *fill*         0x08018a46        0x2 
 .rodata.VS4210_bt656_1080P_720P_mode8_w2_param
                0x08018a48       0x1a build/VS4210_param_Modex26.o
                0x08018a48                VS4210_bt656_1080P_720P_mode8_w2_param
 *fill*         0x08018a62        0x2 
 .rodata.VS4210_bt656_1080P_720P_mode9_w0_mirrorH_param
                0x08018a64       0x1a build/VS4210_param_Modex26.o
                0x08018a64                VS4210_bt656_1080P_720P_mode9_w0_mirrorH_param
 *fill*         0x08018a7e        0x2 
 .rodata.VS4210_bt656_1080P_720P_mode9_w0_param
                0x08018a80       0x1a build/VS4210_param_Modex26.o
                0x08018a80                VS4210_bt656_1080P_720P_mode9_w0_param
 *fill*         0x08018a9a        0x2 
 .rodata.VS4210_bt656_1080P_720P_mode9_w1_mirrorH_param
                0x08018a9c       0x1a build/VS4210_param_Modex26.o
                0x08018a9c                VS4210_bt656_1080P_720P_mode9_w1_mirrorH_param
 *fill*         0x08018ab6        0x2 
 .rodata.VS4210_bt656_1080P_720P_mode9_w1_param
                0x08018ab8       0x1a build/VS4210_param_Modex26.o
                0x08018ab8                VS4210_bt656_1080P_720P_mode9_w1_param
 *fill*         0x08018ad2        0x2 
 .rodata.VS4210_bt656_1080P_720P_mode9_w2_mirrorH_param
                0x08018ad4       0x1a build/VS4210_param_Modex26.o
                0x08018ad4                VS4210_bt656_1080P_720P_mode9_w2_mirrorH_param
 *fill*         0x08018aee        0x2 
 .rodata.VS4210_bt656_1080P_720P_mode9_w2_param
                0x08018af0       0x1a build/VS4210_param_Modex26.o
                0x08018af0                VS4210_bt656_1080P_720P_mode9_w2_param
 *fill*         0x08018b0a        0x2 
 .rodata.VS4210_bt656_1080P_800x480_mode10_w0_mirrorH_param
                0x08018b0c       0x1a build/VS4210_param_Modex26.o
                0x08018b0c                VS4210_bt656_1080P_800x480_mode10_w0_mirrorH_param
 *fill*         0x08018b26        0x2 
 .rodata.VS4210_bt656_1080P_800x480_mode10_w0_param
                0x08018b28       0x1a build/VS4210_param_Modex26.o
                0x08018b28                VS4210_bt656_1080P_800x480_mode10_w0_param
 *fill*         0x08018b42        0x2 
 .rodata.VS4210_bt656_1080P_800x480_mode10_w1_mirrorH_param
                0x08018b44       0x1a build/VS4210_param_Modex26.o
                0x08018b44                VS4210_bt656_1080P_800x480_mode10_w1_mirrorH_param
 *fill*         0x08018b5e        0x2 
 .rodata.VS4210_bt656_1080P_800x480_mode10_w1_param
                0x08018b60       0x1a build/VS4210_param_Modex26.o
                0x08018b60                VS4210_bt656_1080P_800x480_mode10_w1_param
 *fill*         0x08018b7a        0x2 
 .rodata.VS4210_bt656_1080P_800x480_mode10_w2_mirrorH_param
                0x08018b7c       0x1a build/VS4210_param_Modex26.o
                0x08018b7c                VS4210_bt656_1080P_800x480_mode10_w2_mirrorH_param
 *fill*         0x08018b96        0x2 
 .rodata.VS4210_bt656_1080P_800x480_mode10_w2_param
                0x08018b98       0x1a build/VS4210_param_Modex26.o
                0x08018b98                VS4210_bt656_1080P_800x480_mode10_w2_param
 *fill*         0x08018bb2        0x2 
 .rodata.VS4210_bt656_1080P_800x480_mode12_w0_mirrorH_param
                0x08018bb4       0x1a build/VS4210_param_Modex26.o
                0x08018bb4                VS4210_bt656_1080P_800x480_mode12_w0_mirrorH_param
 *fill*         0x08018bce        0x2 
 .rodata.VS4210_bt656_1080P_800x480_mode12_w0_param
                0x08018bd0       0x1a build/VS4210_param_Modex26.o
                0x08018bd0                VS4210_bt656_1080P_800x480_mode12_w0_param
 *fill*         0x08018bea        0x2 
 .rodata.VS4210_bt656_1080P_800x480_mode12_w1_mirrorH_param
                0x08018bec       0x1a build/VS4210_param_Modex26.o
                0x08018bec                VS4210_bt656_1080P_800x480_mode12_w1_mirrorH_param
 *fill*         0x08018c06        0x2 
 .rodata.VS4210_bt656_1080P_800x480_mode12_w1_param
                0x08018c08       0x1a build/VS4210_param_Modex26.o
                0x08018c08                VS4210_bt656_1080P_800x480_mode12_w1_param
 *fill*         0x08018c22        0x2 
 .rodata.VS4210_bt656_1080P_800x480_mode14_w0_mirrorH_param
                0x08018c24       0x1a build/VS4210_param_Modex26.o
                0x08018c24                VS4210_bt656_1080P_800x480_mode14_w0_mirrorH_param
 *fill*         0x08018c3e        0x2 
 .rodata.VS4210_bt656_1080P_800x480_mode14_w0_param
                0x08018c40       0x1a build/VS4210_param_Modex26.o
                0x08018c40                VS4210_bt656_1080P_800x480_mode14_w0_param
 *fill*         0x08018c5a        0x2 
 .rodata.VS4210_bt656_1080P_800x480_mode14_w1_mirrorH_param
                0x08018c5c       0x1a build/VS4210_param_Modex26.o
                0x08018c5c                VS4210_bt656_1080P_800x480_mode14_w1_mirrorH_param
 *fill*         0x08018c76        0x2 
 .rodata.VS4210_bt656_1080P_800x480_mode14_w1_param
                0x08018c78       0x1a build/VS4210_param_Modex26.o
                0x08018c78                VS4210_bt656_1080P_800x480_mode14_w1_param
 *fill*         0x08018c92        0x2 
 .rodata.VS4210_bt656_1080P_800x480_mode14_w2_mirrorH_param
                0x08018c94       0x1a build/VS4210_param_Modex26.o
                0x08018c94                VS4210_bt656_1080P_800x480_mode14_w2_mirrorH_param
 *fill*         0x08018cae        0x2 
 .rodata.VS4210_bt656_1080P_800x480_mode14_w2_param
                0x08018cb0       0x1a build/VS4210_param_Modex26.o
                0x08018cb0                VS4210_bt656_1080P_800x480_mode14_w2_param
 *fill*         0x08018cca        0x2 
 .rodata.VS4210_bt656_1080P_800x480_mode1_w0_mirrorH_param
                0x08018ccc       0x1a build/VS4210_param_Modex26.o
                0x08018ccc                VS4210_bt656_1080P_800x480_mode1_w0_mirrorH_param
 *fill*         0x08018ce6        0x2 
 .rodata.VS4210_bt656_1080P_800x480_mode1_w0_param
                0x08018ce8       0x1a build/VS4210_param_Modex26.o
                0x08018ce8                VS4210_bt656_1080P_800x480_mode1_w0_param
 *fill*         0x08018d02        0x2 
 .rodata.VS4210_bt656_1080P_800x480_mode1_w1_mirrorH_param
                0x08018d04       0x1a build/VS4210_param_Modex26.o
                0x08018d04                VS4210_bt656_1080P_800x480_mode1_w1_mirrorH_param
 *fill*         0x08018d1e        0x2 
 .rodata.VS4210_bt656_1080P_800x480_mode1_w1_param
                0x08018d20       0x1a build/VS4210_param_Modex26.o
                0x08018d20                VS4210_bt656_1080P_800x480_mode1_w1_param
 *fill*         0x08018d3a        0x2 
 .rodata.VS4210_bt656_1080P_800x480_mode1_w2_mirrorH_param
                0x08018d3c       0x1a build/VS4210_param_Modex26.o
                0x08018d3c                VS4210_bt656_1080P_800x480_mode1_w2_mirrorH_param
 *fill*         0x08018d56        0x2 
 .rodata.VS4210_bt656_1080P_800x480_mode1_w2_param
                0x08018d58       0x1a build/VS4210_param_Modex26.o
                0x08018d58                VS4210_bt656_1080P_800x480_mode1_w2_param
 *fill*         0x08018d72        0x2 
 .rodata.VS4210_bt656_1080P_800x480_mode1_w3_mirrorH_param
                0x08018d74       0x1a build/VS4210_param_Modex26.o
                0x08018d74                VS4210_bt656_1080P_800x480_mode1_w3_mirrorH_param
 *fill*         0x08018d8e        0x2 
 .rodata.VS4210_bt656_1080P_800x480_mode1_w3_param
                0x08018d90       0x1a build/VS4210_param_Modex26.o
                0x08018d90                VS4210_bt656_1080P_800x480_mode1_w3_param
 *fill*         0x08018daa        0x2 
 .rodata.VS4210_bt656_1080P_800x480_mode2_w0_mirrorH_param
                0x08018dac       0x1a build/VS4210_param_Modex26.o
                0x08018dac                VS4210_bt656_1080P_800x480_mode2_w0_mirrorH_param
 *fill*         0x08018dc6        0x2 
 .rodata.VS4210_bt656_1080P_800x480_mode2_w0_param
                0x08018dc8       0x1a build/VS4210_param_Modex26.o
                0x08018dc8                VS4210_bt656_1080P_800x480_mode2_w0_param
 *fill*         0x08018de2        0x2 
 .rodata.VS4210_bt656_1080P_800x480_mode2_w1_mirrorH_param
                0x08018de4       0x1a build/VS4210_param_Modex26.o
                0x08018de4                VS4210_bt656_1080P_800x480_mode2_w1_mirrorH_param
 *fill*         0x08018dfe        0x2 
 .rodata.VS4210_bt656_1080P_800x480_mode2_w1_param
                0x08018e00       0x1a build/VS4210_param_Modex26.o
                0x08018e00                VS4210_bt656_1080P_800x480_mode2_w1_param
 *fill*         0x08018e1a        0x2 
 .rodata.VS4210_bt656_1080P_800x480_mode2_w2_mirrorH_param
                0x08018e1c       0x1a build/VS4210_param_Modex26.o
                0x08018e1c                VS4210_bt656_1080P_800x480_mode2_w2_mirrorH_param
 *fill*         0x08018e36        0x2 
 .rodata.VS4210_bt656_1080P_800x480_mode2_w2_param
                0x08018e38       0x1a build/VS4210_param_Modex26.o
                0x08018e38                VS4210_bt656_1080P_800x480_mode2_w2_param
 *fill*         0x08018e52        0x2 
 .rodata.VS4210_bt656_1080P_800x480_mode2_w3_mirrorH_param
                0x08018e54       0x1a build/VS4210_param_Modex26.o
                0x08018e54                VS4210_bt656_1080P_800x480_mode2_w3_mirrorH_param
 *fill*         0x08018e6e        0x2 
 .rodata.VS4210_bt656_1080P_800x480_mode2_w3_param
                0x08018e70       0x1a build/VS4210_param_Modex26.o
                0x08018e70                VS4210_bt656_1080P_800x480_mode2_w3_param
 *fill*         0x08018e8a        0x2 
 .rodata.VS4210_bt656_1080P_800x480_mode8_w0_mirrorH_param
                0x08018e8c       0x1a build/VS4210_param_Modex26.o
                0x08018e8c                VS4210_bt656_1080P_800x480_mode8_w0_mirrorH_param
 *fill*         0x08018ea6        0x2 
 .rodata.VS4210_bt656_1080P_800x480_mode8_w0_param
                0x08018ea8       0x1a build/VS4210_param_Modex26.o
                0x08018ea8                VS4210_bt656_1080P_800x480_mode8_w0_param
 *fill*         0x08018ec2        0x2 
 .rodata.VS4210_bt656_1080P_800x480_mode8_w1_mirrorH_param
                0x08018ec4       0x1a build/VS4210_param_Modex26.o
                0x08018ec4                VS4210_bt656_1080P_800x480_mode8_w1_mirrorH_param
 *fill*         0x08018ede        0x2 
 .rodata.VS4210_bt656_1080P_800x480_mode8_w1_param
                0x08018ee0       0x1a build/VS4210_param_Modex26.o
                0x08018ee0                VS4210_bt656_1080P_800x480_mode8_w1_param
 *fill*         0x08018efa        0x2 
 .rodata.VS4210_bt656_1080P_800x480_mode8_w2_mirrorH_param
                0x08018efc       0x1a build/VS4210_param_Modex26.o
                0x08018efc                VS4210_bt656_1080P_800x480_mode8_w2_mirrorH_param
 *fill*         0x08018f16        0x2 
 .rodata.VS4210_bt656_1080P_800x480_mode8_w2_param
                0x08018f18       0x1a build/VS4210_param_Modex26.o
                0x08018f18                VS4210_bt656_1080P_800x480_mode8_w2_param
 *fill*         0x08018f32        0x2 
 .rodata.VS4210_bt656_1080P_800x480_mode9_w0_mirrorH_param
                0x08018f34       0x1a build/VS4210_param_Modex26.o
                0x08018f34                VS4210_bt656_1080P_800x480_mode9_w0_mirrorH_param
 *fill*         0x08018f4e        0x2 
 .rodata.VS4210_bt656_1080P_800x480_mode9_w0_param
                0x08018f50       0x1a build/VS4210_param_Modex26.o
                0x08018f50                VS4210_bt656_1080P_800x480_mode9_w0_param
 *fill*         0x08018f6a        0x2 
 .rodata.VS4210_bt656_1080P_800x480_mode9_w1_mirrorH_param
                0x08018f6c       0x1a build/VS4210_param_Modex26.o
                0x08018f6c                VS4210_bt656_1080P_800x480_mode9_w1_mirrorH_param
 *fill*         0x08018f86        0x2 
 .rodata.VS4210_bt656_1080P_800x480_mode9_w1_param
                0x08018f88       0x1a build/VS4210_param_Modex26.o
                0x08018f88                VS4210_bt656_1080P_800x480_mode9_w1_param
 *fill*         0x08018fa2        0x2 
 .rodata.VS4210_bt656_1080P_800x480_mode9_w2_mirrorH_param
                0x08018fa4       0x1a build/VS4210_param_Modex26.o
                0x08018fa4                VS4210_bt656_1080P_800x480_mode9_w2_mirrorH_param
 *fill*         0x08018fbe        0x2 
 .rodata.VS4210_bt656_1080P_800x480_mode9_w2_param
                0x08018fc0       0x1a build/VS4210_param_Modex26.o
                0x08018fc0                VS4210_bt656_1080P_800x480_mode9_w2_param
 *fill*         0x08018fda        0x2 
 .rodata.VS4210_bt656_720P_1080P_mode10_w0_mirrorH_param
                0x08018fdc       0x1a build/VS4210_param_Modex26.o
                0x08018fdc                VS4210_bt656_720P_1080P_mode10_w0_mirrorH_param
 *fill*         0x08018ff6        0x2 
 .rodata.VS4210_bt656_720P_1080P_mode10_w0_param
                0x08018ff8       0x1a build/VS4210_param_Modex26.o
                0x08018ff8                VS4210_bt656_720P_1080P_mode10_w0_param
 *fill*         0x08019012        0x2 
 .rodata.VS4210_bt656_720P_1080P_mode10_w1_mirrorH_param
                0x08019014       0x1a build/VS4210_param_Modex26.o
                0x08019014                VS4210_bt656_720P_1080P_mode10_w1_mirrorH_param
 *fill*         0x0801902e        0x2 
 .rodata.VS4210_bt656_720P_1080P_mode10_w1_param
                0x08019030       0x1a build/VS4210_param_Modex26.o
                0x08019030                VS4210_bt656_720P_1080P_mode10_w1_param
 *fill*         0x0801904a        0x2 
 .rodata.VS4210_bt656_720P_1080P_mode10_w2_mirrorH_param
                0x0801904c       0x1a build/VS4210_param_Modex26.o
                0x0801904c                VS4210_bt656_720P_1080P_mode10_w2_mirrorH_param
 *fill*         0x08019066        0x2 
 .rodata.VS4210_bt656_720P_1080P_mode10_w2_param
                0x08019068       0x1a build/VS4210_param_Modex26.o
                0x08019068                VS4210_bt656_720P_1080P_mode10_w2_param
 *fill*         0x08019082        0x2 
 .rodata.VS4210_bt656_720P_1080P_mode12_w0_mirrorH_param
                0x08019084       0x1a build/VS4210_param_Modex26.o
                0x08019084                VS4210_bt656_720P_1080P_mode12_w0_mirrorH_param
 *fill*         0x0801909e        0x2 
 .rodata.VS4210_bt656_720P_1080P_mode12_w0_param
                0x080190a0       0x1a build/VS4210_param_Modex26.o
                0x080190a0                VS4210_bt656_720P_1080P_mode12_w0_param
 *fill*         0x080190ba        0x2 
 .rodata.VS4210_bt656_720P_1080P_mode12_w1_mirrorH_param
                0x080190bc       0x1a build/VS4210_param_Modex26.o
                0x080190bc                VS4210_bt656_720P_1080P_mode12_w1_mirrorH_param
 *fill*         0x080190d6        0x2 
 .rodata.VS4210_bt656_720P_1080P_mode12_w1_param
                0x080190d8       0x1a build/VS4210_param_Modex26.o
                0x080190d8                VS4210_bt656_720P_1080P_mode12_w1_param
 *fill*         0x080190f2        0x2 
 .rodata.VS4210_bt656_720P_1080P_mode14_w0_mirrorH_param
                0x080190f4       0x1a build/VS4210_param_Modex26.o
                0x080190f4                VS4210_bt656_720P_1080P_mode14_w0_mirrorH_param
 *fill*         0x0801910e        0x2 
 .rodata.VS4210_bt656_720P_1080P_mode14_w0_param
                0x08019110       0x1a build/VS4210_param_Modex26.o
                0x08019110                VS4210_bt656_720P_1080P_mode14_w0_param
 *fill*         0x0801912a        0x2 
 .rodata.VS4210_bt656_720P_1080P_mode14_w1_mirrorH_param
                0x0801912c       0x1a build/VS4210_param_Modex26.o
                0x0801912c                VS4210_bt656_720P_1080P_mode14_w1_mirrorH_param
 *fill*         0x08019146        0x2 
 .rodata.VS4210_bt656_720P_1080P_mode14_w1_param
                0x08019148       0x1a build/VS4210_param_Modex26.o
                0x08019148                VS4210_bt656_720P_1080P_mode14_w1_param
 *fill*         0x08019162        0x2 
 .rodata.VS4210_bt656_720P_1080P_mode14_w2_mirrorH_param
                0x08019164       0x1a build/VS4210_param_Modex26.o
                0x08019164                VS4210_bt656_720P_1080P_mode14_w2_mirrorH_param
 *fill*         0x0801917e        0x2 
 .rodata.VS4210_bt656_720P_1080P_mode14_w2_param
                0x08019180       0x1a build/VS4210_param_Modex26.o
                0x08019180                VS4210_bt656_720P_1080P_mode14_w2_param
 *fill*         0x0801919a        0x2 
 .rodata.VS4210_bt656_720P_1080P_mode1_w0_mirrorH_param
                0x0801919c       0x1a build/VS4210_param_Modex26.o
                0x0801919c                VS4210_bt656_720P_1080P_mode1_w0_mirrorH_param
 *fill*         0x080191b6        0x2 
 .rodata.VS4210_bt656_720P_1080P_mode1_w0_param
                0x080191b8       0x1a build/VS4210_param_Modex26.o
                0x080191b8                VS4210_bt656_720P_1080P_mode1_w0_param
 *fill*         0x080191d2        0x2 
 .rodata.VS4210_bt656_720P_1080P_mode1_w1_mirrorH_param
                0x080191d4       0x1a build/VS4210_param_Modex26.o
                0x080191d4                VS4210_bt656_720P_1080P_mode1_w1_mirrorH_param
 *fill*         0x080191ee        0x2 
 .rodata.VS4210_bt656_720P_1080P_mode1_w1_param
                0x080191f0       0x1a build/VS4210_param_Modex26.o
                0x080191f0                VS4210_bt656_720P_1080P_mode1_w1_param
 *fill*         0x0801920a        0x2 
 .rodata.VS4210_bt656_720P_1080P_mode1_w2_mirrorH_param
                0x0801920c       0x1a build/VS4210_param_Modex26.o
                0x0801920c                VS4210_bt656_720P_1080P_mode1_w2_mirrorH_param
 *fill*         0x08019226        0x2 
 .rodata.VS4210_bt656_720P_1080P_mode1_w2_param
                0x08019228       0x1a build/VS4210_param_Modex26.o
                0x08019228                VS4210_bt656_720P_1080P_mode1_w2_param
 *fill*         0x08019242        0x2 
 .rodata.VS4210_bt656_720P_1080P_mode1_w3_mirrorH_param
                0x08019244       0x1a build/VS4210_param_Modex26.o
                0x08019244                VS4210_bt656_720P_1080P_mode1_w3_mirrorH_param
 *fill*         0x0801925e        0x2 
 .rodata.VS4210_bt656_720P_1080P_mode1_w3_param
                0x08019260       0x1a build/VS4210_param_Modex26.o
                0x08019260                VS4210_bt656_720P_1080P_mode1_w3_param
 *fill*         0x0801927a        0x2 
 .rodata.VS4210_bt656_720P_1080P_mode2_w0_mirrorH_param
                0x0801927c       0x1a build/VS4210_param_Modex26.o
                0x0801927c                VS4210_bt656_720P_1080P_mode2_w0_mirrorH_param
 *fill*         0x08019296        0x2 
 .rodata.VS4210_bt656_720P_1080P_mode2_w0_param
                0x08019298       0x1a build/VS4210_param_Modex26.o
                0x08019298                VS4210_bt656_720P_1080P_mode2_w0_param
 *fill*         0x080192b2        0x2 
 .rodata.VS4210_bt656_720P_1080P_mode2_w1_mirrorH_param
                0x080192b4       0x1a build/VS4210_param_Modex26.o
                0x080192b4                VS4210_bt656_720P_1080P_mode2_w1_mirrorH_param
 *fill*         0x080192ce        0x2 
 .rodata.VS4210_bt656_720P_1080P_mode2_w1_param
                0x080192d0       0x1a build/VS4210_param_Modex26.o
                0x080192d0                VS4210_bt656_720P_1080P_mode2_w1_param
 *fill*         0x080192ea        0x2 
 .rodata.VS4210_bt656_720P_1080P_mode2_w2_mirrorH_param
                0x080192ec       0x1a build/VS4210_param_Modex26.o
                0x080192ec                VS4210_bt656_720P_1080P_mode2_w2_mirrorH_param
 *fill*         0x08019306        0x2 
 .rodata.VS4210_bt656_720P_1080P_mode2_w2_param
                0x08019308       0x1a build/VS4210_param_Modex26.o
                0x08019308                VS4210_bt656_720P_1080P_mode2_w2_param
 *fill*         0x08019322        0x2 
 .rodata.VS4210_bt656_720P_1080P_mode2_w3_mirrorH_param
                0x08019324       0x1a build/VS4210_param_Modex26.o
                0x08019324                VS4210_bt656_720P_1080P_mode2_w3_mirrorH_param
 *fill*         0x0801933e        0x2 
 .rodata.VS4210_bt656_720P_1080P_mode2_w3_param
                0x08019340       0x1a build/VS4210_param_Modex26.o
                0x08019340                VS4210_bt656_720P_1080P_mode2_w3_param
 *fill*         0x0801935a        0x2 
 .rodata.VS4210_bt656_720P_1080P_mode8_w0_mirrorH_param
                0x0801935c       0x1a build/VS4210_param_Modex26.o
                0x0801935c                VS4210_bt656_720P_1080P_mode8_w0_mirrorH_param
 *fill*         0x08019376        0x2 
 .rodata.VS4210_bt656_720P_1080P_mode8_w0_param
                0x08019378       0x1a build/VS4210_param_Modex26.o
                0x08019378                VS4210_bt656_720P_1080P_mode8_w0_param
 *fill*         0x08019392        0x2 
 .rodata.VS4210_bt656_720P_1080P_mode8_w1_mirrorH_param
                0x08019394       0x1a build/VS4210_param_Modex26.o
                0x08019394                VS4210_bt656_720P_1080P_mode8_w1_mirrorH_param
 *fill*         0x080193ae        0x2 
 .rodata.VS4210_bt656_720P_1080P_mode8_w1_param
                0x080193b0       0x1a build/VS4210_param_Modex26.o
                0x080193b0                VS4210_bt656_720P_1080P_mode8_w1_param
 *fill*         0x080193ca        0x2 
 .rodata.VS4210_bt656_720P_1080P_mode8_w2_mirrorH_param
                0x080193cc       0x1a build/VS4210_param_Modex26.o
                0x080193cc                VS4210_bt656_720P_1080P_mode8_w2_mirrorH_param
 *fill*         0x080193e6        0x2 
 .rodata.VS4210_bt656_720P_1080P_mode8_w2_param
                0x080193e8       0x1a build/VS4210_param_Modex26.o
                0x080193e8                VS4210_bt656_720P_1080P_mode8_w2_param
 *fill*         0x08019402        0x2 
 .rodata.VS4210_bt656_720P_1080P_mode9_w0_mirrorH_param
                0x08019404       0x1a build/VS4210_param_Modex26.o
                0x08019404                VS4210_bt656_720P_1080P_mode9_w0_mirrorH_param
 *fill*         0x0801941e        0x2 
 .rodata.VS4210_bt656_720P_1080P_mode9_w0_param
                0x08019420       0x1a build/VS4210_param_Modex26.o
                0x08019420                VS4210_bt656_720P_1080P_mode9_w0_param
 *fill*         0x0801943a        0x2 
 .rodata.VS4210_bt656_720P_1080P_mode9_w1_mirrorH_param
                0x0801943c       0x1a build/VS4210_param_Modex26.o
                0x0801943c                VS4210_bt656_720P_1080P_mode9_w1_mirrorH_param
 *fill*         0x08019456        0x2 
 .rodata.VS4210_bt656_720P_1080P_mode9_w1_param
                0x08019458       0x1a build/VS4210_param_Modex26.o
                0x08019458                VS4210_bt656_720P_1080P_mode9_w1_param
 *fill*         0x08019472        0x2 
 .rodata.VS4210_bt656_720P_1080P_mode9_w2_mirrorH_param
                0x08019474       0x1a build/VS4210_param_Modex26.o
                0x08019474                VS4210_bt656_720P_1080P_mode9_w2_mirrorH_param
 *fill*         0x0801948e        0x2 
 .rodata.VS4210_bt656_720P_1080P_mode9_w2_param
                0x08019490       0x1a build/VS4210_param_Modex26.o
                0x08019490                VS4210_bt656_720P_1080P_mode9_w2_param
 *fill*         0x080194aa        0x2 
 .rodata.VS4210_bt656_720P_720P_mode10_w0_mirrorH_param
                0x080194ac       0x1a build/VS4210_param_Modex26.o
                0x080194ac                VS4210_bt656_720P_720P_mode10_w0_mirrorH_param
 *fill*         0x080194c6        0x2 
 .rodata.VS4210_bt656_720P_720P_mode10_w0_param
                0x080194c8       0x1a build/VS4210_param_Modex26.o
                0x080194c8                VS4210_bt656_720P_720P_mode10_w0_param
 *fill*         0x080194e2        0x2 
 .rodata.VS4210_bt656_720P_720P_mode10_w1_mirrorH_param
                0x080194e4       0x1a build/VS4210_param_Modex26.o
                0x080194e4                VS4210_bt656_720P_720P_mode10_w1_mirrorH_param
 *fill*         0x080194fe        0x2 
 .rodata.VS4210_bt656_720P_720P_mode10_w1_param
                0x08019500       0x1a build/VS4210_param_Modex26.o
                0x08019500                VS4210_bt656_720P_720P_mode10_w1_param
 *fill*         0x0801951a        0x2 
 .rodata.VS4210_bt656_720P_720P_mode10_w2_mirrorH_param
                0x0801951c       0x1a build/VS4210_param_Modex26.o
                0x0801951c                VS4210_bt656_720P_720P_mode10_w2_mirrorH_param
 *fill*         0x08019536        0x2 
 .rodata.VS4210_bt656_720P_720P_mode10_w2_param
                0x08019538       0x1a build/VS4210_param_Modex26.o
                0x08019538                VS4210_bt656_720P_720P_mode10_w2_param
 *fill*         0x08019552        0x2 
 .rodata.VS4210_bt656_720P_720P_mode12_w0_mirrorH_param
                0x08019554       0x1a build/VS4210_param_Modex26.o
                0x08019554                VS4210_bt656_720P_720P_mode12_w0_mirrorH_param
 *fill*         0x0801956e        0x2 
 .rodata.VS4210_bt656_720P_720P_mode12_w0_param
                0x08019570       0x1a build/VS4210_param_Modex26.o
                0x08019570                VS4210_bt656_720P_720P_mode12_w0_param
 *fill*         0x0801958a        0x2 
 .rodata.VS4210_bt656_720P_720P_mode12_w1_mirrorH_param
                0x0801958c       0x1a build/VS4210_param_Modex26.o
                0x0801958c                VS4210_bt656_720P_720P_mode12_w1_mirrorH_param
 *fill*         0x080195a6        0x2 
 .rodata.VS4210_bt656_720P_720P_mode12_w1_param
                0x080195a8       0x1a build/VS4210_param_Modex26.o
                0x080195a8                VS4210_bt656_720P_720P_mode12_w1_param
 *fill*         0x080195c2        0x2 
 .rodata.VS4210_bt656_720P_720P_mode14_w0_mirrorH_param
                0x080195c4       0x1a build/VS4210_param_Modex26.o
                0x080195c4                VS4210_bt656_720P_720P_mode14_w0_mirrorH_param
 *fill*         0x080195de        0x2 
 .rodata.VS4210_bt656_720P_720P_mode14_w0_param
                0x080195e0       0x1a build/VS4210_param_Modex26.o
                0x080195e0                VS4210_bt656_720P_720P_mode14_w0_param
 *fill*         0x080195fa        0x2 
 .rodata.VS4210_bt656_720P_720P_mode14_w1_mirrorH_param
                0x080195fc       0x1a build/VS4210_param_Modex26.o
                0x080195fc                VS4210_bt656_720P_720P_mode14_w1_mirrorH_param
 *fill*         0x08019616        0x2 
 .rodata.VS4210_bt656_720P_720P_mode14_w1_param
                0x08019618       0x1a build/VS4210_param_Modex26.o
                0x08019618                VS4210_bt656_720P_720P_mode14_w1_param
 *fill*         0x08019632        0x2 
 .rodata.VS4210_bt656_720P_720P_mode14_w2_mirrorH_param
                0x08019634       0x1a build/VS4210_param_Modex26.o
                0x08019634                VS4210_bt656_720P_720P_mode14_w2_mirrorH_param
 *fill*         0x0801964e        0x2 
 .rodata.VS4210_bt656_720P_720P_mode14_w2_param
                0x08019650       0x1a build/VS4210_param_Modex26.o
                0x08019650                VS4210_bt656_720P_720P_mode14_w2_param
 *fill*         0x0801966a        0x2 
 .rodata.VS4210_bt656_720P_720P_mode1_w0_mirrorH_param
                0x0801966c       0x1a build/VS4210_param_Modex26.o
                0x0801966c                VS4210_bt656_720P_720P_mode1_w0_mirrorH_param
 *fill*         0x08019686        0x2 
 .rodata.VS4210_bt656_720P_720P_mode1_w0_param
                0x08019688       0x1a build/VS4210_param_Modex26.o
                0x08019688                VS4210_bt656_720P_720P_mode1_w0_param
 *fill*         0x080196a2        0x2 
 .rodata.VS4210_bt656_720P_720P_mode1_w1_mirrorH_param
                0x080196a4       0x1a build/VS4210_param_Modex26.o
                0x080196a4                VS4210_bt656_720P_720P_mode1_w1_mirrorH_param
 *fill*         0x080196be        0x2 
 .rodata.VS4210_bt656_720P_720P_mode1_w1_param
                0x080196c0       0x1a build/VS4210_param_Modex26.o
                0x080196c0                VS4210_bt656_720P_720P_mode1_w1_param
 *fill*         0x080196da        0x2 
 .rodata.VS4210_bt656_720P_720P_mode1_w2_mirrorH_param
                0x080196dc       0x1a build/VS4210_param_Modex26.o
                0x080196dc                VS4210_bt656_720P_720P_mode1_w2_mirrorH_param
 *fill*         0x080196f6        0x2 
 .rodata.VS4210_bt656_720P_720P_mode1_w2_param
                0x080196f8       0x1a build/VS4210_param_Modex26.o
                0x080196f8                VS4210_bt656_720P_720P_mode1_w2_param
 *fill*         0x08019712        0x2 
 .rodata.VS4210_bt656_720P_720P_mode1_w3_mirrorH_param
                0x08019714       0x1a build/VS4210_param_Modex26.o
                0x08019714                VS4210_bt656_720P_720P_mode1_w3_mirrorH_param
 *fill*         0x0801972e        0x2 
 .rodata.VS4210_bt656_720P_720P_mode1_w3_param
                0x08019730       0x1a build/VS4210_param_Modex26.o
                0x08019730                VS4210_bt656_720P_720P_mode1_w3_param
 *fill*         0x0801974a        0x2 
 .rodata.VS4210_bt656_720P_720P_mode2_w0_mirrorH_param
                0x0801974c       0x1a build/VS4210_param_Modex26.o
                0x0801974c                VS4210_bt656_720P_720P_mode2_w0_mirrorH_param
 *fill*         0x08019766        0x2 
 .rodata.VS4210_bt656_720P_720P_mode2_w0_param
                0x08019768       0x1a build/VS4210_param_Modex26.o
                0x08019768                VS4210_bt656_720P_720P_mode2_w0_param
 *fill*         0x08019782        0x2 
 .rodata.VS4210_bt656_720P_720P_mode2_w1_mirrorH_param
                0x08019784       0x1a build/VS4210_param_Modex26.o
                0x08019784                VS4210_bt656_720P_720P_mode2_w1_mirrorH_param
 *fill*         0x0801979e        0x2 
 .rodata.VS4210_bt656_720P_720P_mode2_w1_param
                0x080197a0       0x1a build/VS4210_param_Modex26.o
                0x080197a0                VS4210_bt656_720P_720P_mode2_w1_param
 *fill*         0x080197ba        0x2 
 .rodata.VS4210_bt656_720P_720P_mode2_w2_mirrorH_param
                0x080197bc       0x1a build/VS4210_param_Modex26.o
                0x080197bc                VS4210_bt656_720P_720P_mode2_w2_mirrorH_param
 *fill*         0x080197d6        0x2 
 .rodata.VS4210_bt656_720P_720P_mode2_w2_param
                0x080197d8       0x1a build/VS4210_param_Modex26.o
                0x080197d8                VS4210_bt656_720P_720P_mode2_w2_param
 *fill*         0x080197f2        0x2 
 .rodata.VS4210_bt656_720P_720P_mode2_w3_mirrorH_param
                0x080197f4       0x1a build/VS4210_param_Modex26.o
                0x080197f4                VS4210_bt656_720P_720P_mode2_w3_mirrorH_param
 *fill*         0x0801980e        0x2 
 .rodata.VS4210_bt656_720P_720P_mode2_w3_param
                0x08019810       0x1a build/VS4210_param_Modex26.o
                0x08019810                VS4210_bt656_720P_720P_mode2_w3_param
 *fill*         0x0801982a        0x2 
 .rodata.VS4210_bt656_720P_720P_mode8_w0_mirrorH_param
                0x0801982c       0x1a build/VS4210_param_Modex26.o
                0x0801982c                VS4210_bt656_720P_720P_mode8_w0_mirrorH_param
 *fill*         0x08019846        0x2 
 .rodata.VS4210_bt656_720P_720P_mode8_w0_param
                0x08019848       0x1a build/VS4210_param_Modex26.o
                0x08019848                VS4210_bt656_720P_720P_mode8_w0_param
 *fill*         0x08019862        0x2 
 .rodata.VS4210_bt656_720P_720P_mode8_w1_mirrorH_param
                0x08019864       0x1a build/VS4210_param_Modex26.o
                0x08019864                VS4210_bt656_720P_720P_mode8_w1_mirrorH_param
 *fill*         0x0801987e        0x2 
 .rodata.VS4210_bt656_720P_720P_mode8_w1_param
                0x08019880       0x1a build/VS4210_param_Modex26.o
                0x08019880                VS4210_bt656_720P_720P_mode8_w1_param
 *fill*         0x0801989a        0x2 
 .rodata.VS4210_bt656_720P_720P_mode8_w2_mirrorH_param
                0x0801989c       0x1a build/VS4210_param_Modex26.o
                0x0801989c                VS4210_bt656_720P_720P_mode8_w2_mirrorH_param
 *fill*         0x080198b6        0x2 
 .rodata.VS4210_bt656_720P_720P_mode8_w2_param
                0x080198b8       0x1a build/VS4210_param_Modex26.o
                0x080198b8                VS4210_bt656_720P_720P_mode8_w2_param
 *fill*         0x080198d2        0x2 
 .rodata.VS4210_bt656_720P_720P_mode9_w0_mirrorH_param
                0x080198d4       0x1a build/VS4210_param_Modex26.o
                0x080198d4                VS4210_bt656_720P_720P_mode9_w0_mirrorH_param
 *fill*         0x080198ee        0x2 
 .rodata.VS4210_bt656_720P_720P_mode9_w0_param
                0x080198f0       0x1a build/VS4210_param_Modex26.o
                0x080198f0                VS4210_bt656_720P_720P_mode9_w0_param
 *fill*         0x0801990a        0x2 
 .rodata.VS4210_bt656_720P_720P_mode9_w1_mirrorH_param
                0x0801990c       0x1a build/VS4210_param_Modex26.o
                0x0801990c                VS4210_bt656_720P_720P_mode9_w1_mirrorH_param
 *fill*         0x08019926        0x2 
 .rodata.VS4210_bt656_720P_720P_mode9_w1_param
                0x08019928       0x1a build/VS4210_param_Modex26.o
                0x08019928                VS4210_bt656_720P_720P_mode9_w1_param
 *fill*         0x08019942        0x2 
 .rodata.VS4210_bt656_720P_720P_mode9_w2_mirrorH_param
                0x08019944       0x1a build/VS4210_param_Modex26.o
                0x08019944                VS4210_bt656_720P_720P_mode9_w2_mirrorH_param
 *fill*         0x0801995e        0x2 
 .rodata.VS4210_bt656_720P_720P_mode9_w2_param
                0x08019960       0x1a build/VS4210_param_Modex26.o
                0x08019960                VS4210_bt656_720P_720P_mode9_w2_param
 *fill*         0x0801997a        0x2 
 .rodata.VS4210_bt656_720P_800x480_mode10_w0_mirrorH_param
                0x0801997c       0x1a build/VS4210_param_Modex26.o
                0x0801997c                VS4210_bt656_720P_800x480_mode10_w0_mirrorH_param
 *fill*         0x08019996        0x2 
 .rodata.VS4210_bt656_720P_800x480_mode10_w0_param
                0x08019998       0x1a build/VS4210_param_Modex26.o
                0x08019998                VS4210_bt656_720P_800x480_mode10_w0_param
 *fill*         0x080199b2        0x2 
 .rodata.VS4210_bt656_720P_800x480_mode10_w1_mirrorH_param
                0x080199b4       0x1a build/VS4210_param_Modex26.o
                0x080199b4                VS4210_bt656_720P_800x480_mode10_w1_mirrorH_param
 *fill*         0x080199ce        0x2 
 .rodata.VS4210_bt656_720P_800x480_mode10_w1_param
                0x080199d0       0x1a build/VS4210_param_Modex26.o
                0x080199d0                VS4210_bt656_720P_800x480_mode10_w1_param
 *fill*         0x080199ea        0x2 
 .rodata.VS4210_bt656_720P_800x480_mode10_w2_mirrorH_param
                0x080199ec       0x1a build/VS4210_param_Modex26.o
                0x080199ec                VS4210_bt656_720P_800x480_mode10_w2_mirrorH_param
 *fill*         0x08019a06        0x2 
 .rodata.VS4210_bt656_720P_800x480_mode10_w2_param
                0x08019a08       0x1a build/VS4210_param_Modex26.o
                0x08019a08                VS4210_bt656_720P_800x480_mode10_w2_param
 *fill*         0x08019a22        0x2 
 .rodata.VS4210_bt656_720P_800x480_mode12_w0_mirrorH_param
                0x08019a24       0x1a build/VS4210_param_Modex26.o
                0x08019a24                VS4210_bt656_720P_800x480_mode12_w0_mirrorH_param
 *fill*         0x08019a3e        0x2 
 .rodata.VS4210_bt656_720P_800x480_mode12_w0_param
                0x08019a40       0x1a build/VS4210_param_Modex26.o
                0x08019a40                VS4210_bt656_720P_800x480_mode12_w0_param
 *fill*         0x08019a5a        0x2 
 .rodata.VS4210_bt656_720P_800x480_mode12_w1_mirrorH_param
                0x08019a5c       0x1a build/VS4210_param_Modex26.o
                0x08019a5c                VS4210_bt656_720P_800x480_mode12_w1_mirrorH_param
 *fill*         0x08019a76        0x2 
 .rodata.VS4210_bt656_720P_800x480_mode12_w1_param
                0x08019a78       0x1a build/VS4210_param_Modex26.o
                0x08019a78                VS4210_bt656_720P_800x480_mode12_w1_param
 *fill*         0x08019a92        0x2 
 .rodata.VS4210_bt656_720P_800x480_mode14_w0_mirrorH_param
                0x08019a94       0x1a build/VS4210_param_Modex26.o
                0x08019a94                VS4210_bt656_720P_800x480_mode14_w0_mirrorH_param
 *fill*         0x08019aae        0x2 
 .rodata.VS4210_bt656_720P_800x480_mode14_w0_param
                0x08019ab0       0x1a build/VS4210_param_Modex26.o
                0x08019ab0                VS4210_bt656_720P_800x480_mode14_w0_param
 *fill*         0x08019aca        0x2 
 .rodata.VS4210_bt656_720P_800x480_mode14_w1_mirrorH_param
                0x08019acc       0x1a build/VS4210_param_Modex26.o
                0x08019acc                VS4210_bt656_720P_800x480_mode14_w1_mirrorH_param
 *fill*         0x08019ae6        0x2 
 .rodata.VS4210_bt656_720P_800x480_mode14_w1_param
                0x08019ae8       0x1a build/VS4210_param_Modex26.o
                0x08019ae8                VS4210_bt656_720P_800x480_mode14_w1_param
 *fill*         0x08019b02        0x2 
 .rodata.VS4210_bt656_720P_800x480_mode14_w2_mirrorH_param
                0x08019b04       0x1a build/VS4210_param_Modex26.o
                0x08019b04                VS4210_bt656_720P_800x480_mode14_w2_mirrorH_param
 *fill*         0x08019b1e        0x2 
 .rodata.VS4210_bt656_720P_800x480_mode14_w2_param
                0x08019b20       0x1a build/VS4210_param_Modex26.o
                0x08019b20                VS4210_bt656_720P_800x480_mode14_w2_param
 *fill*         0x08019b3a        0x2 
 .rodata.VS4210_bt656_720P_800x480_mode1_w0_mirrorH_param
                0x08019b3c       0x1a build/VS4210_param_Modex26.o
                0x08019b3c                VS4210_bt656_720P_800x480_mode1_w0_mirrorH_param
 *fill*         0x08019b56        0x2 
 .rodata.VS4210_bt656_720P_800x480_mode1_w0_param
                0x08019b58       0x1a build/VS4210_param_Modex26.o
                0x08019b58                VS4210_bt656_720P_800x480_mode1_w0_param
 *fill*         0x08019b72        0x2 
 .rodata.VS4210_bt656_720P_800x480_mode1_w1_mirrorH_param
                0x08019b74       0x1a build/VS4210_param_Modex26.o
                0x08019b74                VS4210_bt656_720P_800x480_mode1_w1_mirrorH_param
 *fill*         0x08019b8e        0x2 
 .rodata.VS4210_bt656_720P_800x480_mode1_w1_param
                0x08019b90       0x1a build/VS4210_param_Modex26.o
                0x08019b90                VS4210_bt656_720P_800x480_mode1_w1_param
 *fill*         0x08019baa        0x2 
 .rodata.VS4210_bt656_720P_800x480_mode1_w2_mirrorH_param
                0x08019bac       0x1a build/VS4210_param_Modex26.o
                0x08019bac                VS4210_bt656_720P_800x480_mode1_w2_mirrorH_param
 *fill*         0x08019bc6        0x2 
 .rodata.VS4210_bt656_720P_800x480_mode1_w2_param
                0x08019bc8       0x1a build/VS4210_param_Modex26.o
                0x08019bc8                VS4210_bt656_720P_800x480_mode1_w2_param
 *fill*         0x08019be2        0x2 
 .rodata.VS4210_bt656_720P_800x480_mode1_w3_mirrorH_param
                0x08019be4       0x1a build/VS4210_param_Modex26.o
                0x08019be4                VS4210_bt656_720P_800x480_mode1_w3_mirrorH_param
 *fill*         0x08019bfe        0x2 
 .rodata.VS4210_bt656_720P_800x480_mode1_w3_param
                0x08019c00       0x1a build/VS4210_param_Modex26.o
                0x08019c00                VS4210_bt656_720P_800x480_mode1_w3_param
 *fill*         0x08019c1a        0x2 
 .rodata.VS4210_bt656_720P_800x480_mode2_w0_mirrorH_param
                0x08019c1c       0x1a build/VS4210_param_Modex26.o
                0x08019c1c                VS4210_bt656_720P_800x480_mode2_w0_mirrorH_param
 *fill*         0x08019c36        0x2 
 .rodata.VS4210_bt656_720P_800x480_mode2_w0_param
                0x08019c38       0x1a build/VS4210_param_Modex26.o
                0x08019c38                VS4210_bt656_720P_800x480_mode2_w0_param
 *fill*         0x08019c52        0x2 
 .rodata.VS4210_bt656_720P_800x480_mode2_w1_mirrorH_param
                0x08019c54       0x1a build/VS4210_param_Modex26.o
                0x08019c54                VS4210_bt656_720P_800x480_mode2_w1_mirrorH_param
 *fill*         0x08019c6e        0x2 
 .rodata.VS4210_bt656_720P_800x480_mode2_w1_param
                0x08019c70       0x1a build/VS4210_param_Modex26.o
                0x08019c70                VS4210_bt656_720P_800x480_mode2_w1_param
 *fill*         0x08019c8a        0x2 
 .rodata.VS4210_bt656_720P_800x480_mode2_w2_mirrorH_param
                0x08019c8c       0x1a build/VS4210_param_Modex26.o
                0x08019c8c                VS4210_bt656_720P_800x480_mode2_w2_mirrorH_param
 *fill*         0x08019ca6        0x2 
 .rodata.VS4210_bt656_720P_800x480_mode2_w2_param
                0x08019ca8       0x1a build/VS4210_param_Modex26.o
                0x08019ca8                VS4210_bt656_720P_800x480_mode2_w2_param
 *fill*         0x08019cc2        0x2 
 .rodata.VS4210_bt656_720P_800x480_mode2_w3_mirrorH_param
                0x08019cc4       0x1a build/VS4210_param_Modex26.o
                0x08019cc4                VS4210_bt656_720P_800x480_mode2_w3_mirrorH_param
 *fill*         0x08019cde        0x2 
 .rodata.VS4210_bt656_720P_800x480_mode2_w3_param
                0x08019ce0       0x1a build/VS4210_param_Modex26.o
                0x08019ce0                VS4210_bt656_720P_800x480_mode2_w3_param
 *fill*         0x08019cfa        0x2 
 .rodata.VS4210_bt656_720P_800x480_mode8_w0_mirrorH_param
                0x08019cfc       0x1a build/VS4210_param_Modex26.o
                0x08019cfc                VS4210_bt656_720P_800x480_mode8_w0_mirrorH_param
 *fill*         0x08019d16        0x2 
 .rodata.VS4210_bt656_720P_800x480_mode8_w0_param
                0x08019d18       0x1a build/VS4210_param_Modex26.o
                0x08019d18                VS4210_bt656_720P_800x480_mode8_w0_param
 *fill*         0x08019d32        0x2 
 .rodata.VS4210_bt656_720P_800x480_mode8_w1_mirrorH_param
                0x08019d34       0x1a build/VS4210_param_Modex26.o
                0x08019d34                VS4210_bt656_720P_800x480_mode8_w1_mirrorH_param
 *fill*         0x08019d4e        0x2 
 .rodata.VS4210_bt656_720P_800x480_mode8_w1_param
                0x08019d50       0x1a build/VS4210_param_Modex26.o
                0x08019d50                VS4210_bt656_720P_800x480_mode8_w1_param
 *fill*         0x08019d6a        0x2 
 .rodata.VS4210_bt656_720P_800x480_mode8_w2_mirrorH_param
                0x08019d6c       0x1a build/VS4210_param_Modex26.o
                0x08019d6c                VS4210_bt656_720P_800x480_mode8_w2_mirrorH_param
 *fill*         0x08019d86        0x2 
 .rodata.VS4210_bt656_720P_800x480_mode8_w2_param
                0x08019d88       0x1a build/VS4210_param_Modex26.o
                0x08019d88                VS4210_bt656_720P_800x480_mode8_w2_param
 *fill*         0x08019da2        0x2 
 .rodata.VS4210_bt656_720P_800x480_mode9_w0_mirrorH_param
                0x08019da4       0x1a build/VS4210_param_Modex26.o
                0x08019da4                VS4210_bt656_720P_800x480_mode9_w0_mirrorH_param
 *fill*         0x08019dbe        0x2 
 .rodata.VS4210_bt656_720P_800x480_mode9_w0_param
                0x08019dc0       0x1a build/VS4210_param_Modex26.o
                0x08019dc0                VS4210_bt656_720P_800x480_mode9_w0_param
 *fill*         0x08019dda        0x2 
 .rodata.VS4210_bt656_720P_800x480_mode9_w1_mirrorH_param
                0x08019ddc       0x1a build/VS4210_param_Modex26.o
                0x08019ddc                VS4210_bt656_720P_800x480_mode9_w1_mirrorH_param
 *fill*         0x08019df6        0x2 
 .rodata.VS4210_bt656_720P_800x480_mode9_w1_param
                0x08019df8       0x1a build/VS4210_param_Modex26.o
                0x08019df8                VS4210_bt656_720P_800x480_mode9_w1_param
 *fill*         0x08019e12        0x2 
 .rodata.VS4210_bt656_720P_800x480_mode9_w2_mirrorH_param
                0x08019e14       0x1a build/VS4210_param_Modex26.o
                0x08019e14                VS4210_bt656_720P_800x480_mode9_w2_mirrorH_param
 *fill*         0x08019e2e        0x2 
 .rodata.VS4210_bt656_720P_800x480_mode9_w2_param
                0x08019e30       0x1a build/VS4210_param_Modex26.o
                0x08019e30                VS4210_bt656_720P_800x480_mode9_w2_param
 *fill*         0x08019e4a        0x2 
 .rodata.VS4210_bt656_NTSC_1080P_mode10_w0_mirrorH_param
                0x08019e4c       0x1a build/VS4210_param_Modex26.o
                0x08019e4c                VS4210_bt656_NTSC_1080P_mode10_w0_mirrorH_param
 *fill*         0x08019e66        0x2 
 .rodata.VS4210_bt656_NTSC_1080P_mode10_w0_param
                0x08019e68       0x1a build/VS4210_param_Modex26.o
                0x08019e68                VS4210_bt656_NTSC_1080P_mode10_w0_param
 *fill*         0x08019e82        0x2 
 .rodata.VS4210_bt656_NTSC_1080P_mode10_w1_mirrorH_param
                0x08019e84       0x1a build/VS4210_param_Modex26.o
                0x08019e84                VS4210_bt656_NTSC_1080P_mode10_w1_mirrorH_param
 *fill*         0x08019e9e        0x2 
 .rodata.VS4210_bt656_NTSC_1080P_mode10_w1_param
                0x08019ea0       0x1a build/VS4210_param_Modex26.o
                0x08019ea0                VS4210_bt656_NTSC_1080P_mode10_w1_param
 *fill*         0x08019eba        0x2 
 .rodata.VS4210_bt656_NTSC_1080P_mode10_w2_mirrorH_param
                0x08019ebc       0x1a build/VS4210_param_Modex26.o
                0x08019ebc                VS4210_bt656_NTSC_1080P_mode10_w2_mirrorH_param
 *fill*         0x08019ed6        0x2 
 .rodata.VS4210_bt656_NTSC_1080P_mode10_w2_param
                0x08019ed8       0x1a build/VS4210_param_Modex26.o
                0x08019ed8                VS4210_bt656_NTSC_1080P_mode10_w2_param
 *fill*         0x08019ef2        0x2 
 .rodata.VS4210_bt656_NTSC_1080P_mode12_w0_mirrorH_param
                0x08019ef4       0x1a build/VS4210_param_Modex26.o
                0x08019ef4                VS4210_bt656_NTSC_1080P_mode12_w0_mirrorH_param
 *fill*         0x08019f0e        0x2 
 .rodata.VS4210_bt656_NTSC_1080P_mode12_w0_param
                0x08019f10       0x1a build/VS4210_param_Modex26.o
                0x08019f10                VS4210_bt656_NTSC_1080P_mode12_w0_param
 *fill*         0x08019f2a        0x2 
 .rodata.VS4210_bt656_NTSC_1080P_mode12_w1_mirrorH_param
                0x08019f2c       0x1a build/VS4210_param_Modex26.o
                0x08019f2c                VS4210_bt656_NTSC_1080P_mode12_w1_mirrorH_param
 *fill*         0x08019f46        0x2 
 .rodata.VS4210_bt656_NTSC_1080P_mode12_w1_param
                0x08019f48       0x1a build/VS4210_param_Modex26.o
                0x08019f48                VS4210_bt656_NTSC_1080P_mode12_w1_param
 *fill*         0x08019f62        0x2 
 .rodata.VS4210_bt656_NTSC_1080P_mode14_w0_mirrorH_param
                0x08019f64       0x1a build/VS4210_param_Modex26.o
                0x08019f64                VS4210_bt656_NTSC_1080P_mode14_w0_mirrorH_param
 *fill*         0x08019f7e        0x2 
 .rodata.VS4210_bt656_NTSC_1080P_mode14_w0_param
                0x08019f80       0x1a build/VS4210_param_Modex26.o
                0x08019f80                VS4210_bt656_NTSC_1080P_mode14_w0_param
 *fill*         0x08019f9a        0x2 
 .rodata.VS4210_bt656_NTSC_1080P_mode14_w1_mirrorH_param
                0x08019f9c       0x1a build/VS4210_param_Modex26.o
                0x08019f9c                VS4210_bt656_NTSC_1080P_mode14_w1_mirrorH_param
 *fill*         0x08019fb6        0x2 
 .rodata.VS4210_bt656_NTSC_1080P_mode14_w1_param
                0x08019fb8       0x1a build/VS4210_param_Modex26.o
                0x08019fb8                VS4210_bt656_NTSC_1080P_mode14_w1_param
 *fill*         0x08019fd2        0x2 
 .rodata.VS4210_bt656_NTSC_1080P_mode14_w2_mirrorH_param
                0x08019fd4       0x1a build/VS4210_param_Modex26.o
                0x08019fd4                VS4210_bt656_NTSC_1080P_mode14_w2_mirrorH_param
 *fill*         0x08019fee        0x2 
 .rodata.VS4210_bt656_NTSC_1080P_mode14_w2_param
                0x08019ff0       0x1a build/VS4210_param_Modex26.o
                0x08019ff0                VS4210_bt656_NTSC_1080P_mode14_w2_param
 *fill*         0x0801a00a        0x2 
 .rodata.VS4210_bt656_NTSC_1080P_mode1_w0_mirrorH_param
                0x0801a00c       0x1a build/VS4210_param_Modex26.o
                0x0801a00c                VS4210_bt656_NTSC_1080P_mode1_w0_mirrorH_param
 *fill*         0x0801a026        0x2 
 .rodata.VS4210_bt656_NTSC_1080P_mode1_w0_param
                0x0801a028       0x1a build/VS4210_param_Modex26.o
                0x0801a028                VS4210_bt656_NTSC_1080P_mode1_w0_param
 *fill*         0x0801a042        0x2 
 .rodata.VS4210_bt656_NTSC_1080P_mode1_w1_mirrorH_param
                0x0801a044       0x1a build/VS4210_param_Modex26.o
                0x0801a044                VS4210_bt656_NTSC_1080P_mode1_w1_mirrorH_param
 *fill*         0x0801a05e        0x2 
 .rodata.VS4210_bt656_NTSC_1080P_mode1_w1_param
                0x0801a060       0x1a build/VS4210_param_Modex26.o
                0x0801a060                VS4210_bt656_NTSC_1080P_mode1_w1_param
 *fill*         0x0801a07a        0x2 
 .rodata.VS4210_bt656_NTSC_1080P_mode1_w2_mirrorH_param
                0x0801a07c       0x1a build/VS4210_param_Modex26.o
                0x0801a07c                VS4210_bt656_NTSC_1080P_mode1_w2_mirrorH_param
 *fill*         0x0801a096        0x2 
 .rodata.VS4210_bt656_NTSC_1080P_mode1_w2_param
                0x0801a098       0x1a build/VS4210_param_Modex26.o
                0x0801a098                VS4210_bt656_NTSC_1080P_mode1_w2_param
 *fill*         0x0801a0b2        0x2 
 .rodata.VS4210_bt656_NTSC_1080P_mode1_w3_mirrorH_param
                0x0801a0b4       0x1a build/VS4210_param_Modex26.o
                0x0801a0b4                VS4210_bt656_NTSC_1080P_mode1_w3_mirrorH_param
 *fill*         0x0801a0ce        0x2 
 .rodata.VS4210_bt656_NTSC_1080P_mode1_w3_param
                0x0801a0d0       0x1a build/VS4210_param_Modex26.o
                0x0801a0d0                VS4210_bt656_NTSC_1080P_mode1_w3_param
 *fill*         0x0801a0ea        0x2 
 .rodata.VS4210_bt656_NTSC_1080P_mode2_w0_mirrorH_param
                0x0801a0ec       0x1a build/VS4210_param_Modex26.o
                0x0801a0ec                VS4210_bt656_NTSC_1080P_mode2_w0_mirrorH_param
 *fill*         0x0801a106        0x2 
 .rodata.VS4210_bt656_NTSC_1080P_mode2_w0_param
                0x0801a108       0x1a build/VS4210_param_Modex26.o
                0x0801a108                VS4210_bt656_NTSC_1080P_mode2_w0_param
 *fill*         0x0801a122        0x2 
 .rodata.VS4210_bt656_NTSC_1080P_mode2_w1_mirrorH_param
                0x0801a124       0x1a build/VS4210_param_Modex26.o
                0x0801a124                VS4210_bt656_NTSC_1080P_mode2_w1_mirrorH_param
 *fill*         0x0801a13e        0x2 
 .rodata.VS4210_bt656_NTSC_1080P_mode2_w1_param
                0x0801a140       0x1a build/VS4210_param_Modex26.o
                0x0801a140                VS4210_bt656_NTSC_1080P_mode2_w1_param
 *fill*         0x0801a15a        0x2 
 .rodata.VS4210_bt656_NTSC_1080P_mode2_w2_mirrorH_param
                0x0801a15c       0x1a build/VS4210_param_Modex26.o
                0x0801a15c                VS4210_bt656_NTSC_1080P_mode2_w2_mirrorH_param
 *fill*         0x0801a176        0x2 
 .rodata.VS4210_bt656_NTSC_1080P_mode2_w2_param
                0x0801a178       0x1a build/VS4210_param_Modex26.o
                0x0801a178                VS4210_bt656_NTSC_1080P_mode2_w2_param
 *fill*         0x0801a192        0x2 
 .rodata.VS4210_bt656_NTSC_1080P_mode2_w3_mirrorH_param
                0x0801a194       0x1a build/VS4210_param_Modex26.o
                0x0801a194                VS4210_bt656_NTSC_1080P_mode2_w3_mirrorH_param
 *fill*         0x0801a1ae        0x2 
 .rodata.VS4210_bt656_NTSC_1080P_mode2_w3_param
                0x0801a1b0       0x1a build/VS4210_param_Modex26.o
                0x0801a1b0                VS4210_bt656_NTSC_1080P_mode2_w3_param
 *fill*         0x0801a1ca        0x2 
 .rodata.VS4210_bt656_NTSC_1080P_mode8_w0_mirrorH_param
                0x0801a1cc       0x1a build/VS4210_param_Modex26.o
                0x0801a1cc                VS4210_bt656_NTSC_1080P_mode8_w0_mirrorH_param
 *fill*         0x0801a1e6        0x2 
 .rodata.VS4210_bt656_NTSC_1080P_mode8_w0_param
                0x0801a1e8       0x1a build/VS4210_param_Modex26.o
                0x0801a1e8                VS4210_bt656_NTSC_1080P_mode8_w0_param
 *fill*         0x0801a202        0x2 
 .rodata.VS4210_bt656_NTSC_1080P_mode8_w1_mirrorH_param
                0x0801a204       0x1a build/VS4210_param_Modex26.o
                0x0801a204                VS4210_bt656_NTSC_1080P_mode8_w1_mirrorH_param
 *fill*         0x0801a21e        0x2 
 .rodata.VS4210_bt656_NTSC_1080P_mode8_w1_param
                0x0801a220       0x1a build/VS4210_param_Modex26.o
                0x0801a220                VS4210_bt656_NTSC_1080P_mode8_w1_param
 *fill*         0x0801a23a        0x2 
 .rodata.VS4210_bt656_NTSC_1080P_mode8_w2_mirrorH_param
                0x0801a23c       0x1a build/VS4210_param_Modex26.o
                0x0801a23c                VS4210_bt656_NTSC_1080P_mode8_w2_mirrorH_param
 *fill*         0x0801a256        0x2 
 .rodata.VS4210_bt656_NTSC_1080P_mode8_w2_param
                0x0801a258       0x1a build/VS4210_param_Modex26.o
                0x0801a258                VS4210_bt656_NTSC_1080P_mode8_w2_param
 *fill*         0x0801a272        0x2 
 .rodata.VS4210_bt656_NTSC_1080P_mode9_w0_mirrorH_param
                0x0801a274       0x1a build/VS4210_param_Modex26.o
                0x0801a274                VS4210_bt656_NTSC_1080P_mode9_w0_mirrorH_param
 *fill*         0x0801a28e        0x2 
 .rodata.VS4210_bt656_NTSC_1080P_mode9_w0_param
                0x0801a290       0x1a build/VS4210_param_Modex26.o
                0x0801a290                VS4210_bt656_NTSC_1080P_mode9_w0_param
 *fill*         0x0801a2aa        0x2 
 .rodata.VS4210_bt656_NTSC_1080P_mode9_w1_mirrorH_param
                0x0801a2ac       0x1a build/VS4210_param_Modex26.o
                0x0801a2ac                VS4210_bt656_NTSC_1080P_mode9_w1_mirrorH_param
 *fill*         0x0801a2c6        0x2 
 .rodata.VS4210_bt656_NTSC_1080P_mode9_w1_param
                0x0801a2c8       0x1a build/VS4210_param_Modex26.o
                0x0801a2c8                VS4210_bt656_NTSC_1080P_mode9_w1_param
 *fill*         0x0801a2e2        0x2 
 .rodata.VS4210_bt656_NTSC_1080P_mode9_w2_mirrorH_param
                0x0801a2e4       0x1a build/VS4210_param_Modex26.o
                0x0801a2e4                VS4210_bt656_NTSC_1080P_mode9_w2_mirrorH_param
 *fill*         0x0801a2fe        0x2 
 .rodata.VS4210_bt656_NTSC_1080P_mode9_w2_param
                0x0801a300       0x1a build/VS4210_param_Modex26.o
                0x0801a300                VS4210_bt656_NTSC_1080P_mode9_w2_param
 *fill*         0x0801a31a        0x2 
 .rodata.VS4210_bt656_NTSC_720P_mode10_w0_mirrorH_param
                0x0801a31c       0x1a build/VS4210_param_Modex26.o
                0x0801a31c                VS4210_bt656_NTSC_720P_mode10_w0_mirrorH_param
 *fill*         0x0801a336        0x2 
 .rodata.VS4210_bt656_NTSC_720P_mode10_w0_param
                0x0801a338       0x1a build/VS4210_param_Modex26.o
                0x0801a338                VS4210_bt656_NTSC_720P_mode10_w0_param
 *fill*         0x0801a352        0x2 
 .rodata.VS4210_bt656_NTSC_720P_mode10_w1_mirrorH_param
                0x0801a354       0x1a build/VS4210_param_Modex26.o
                0x0801a354                VS4210_bt656_NTSC_720P_mode10_w1_mirrorH_param
 *fill*         0x0801a36e        0x2 
 .rodata.VS4210_bt656_NTSC_720P_mode10_w1_param
                0x0801a370       0x1a build/VS4210_param_Modex26.o
                0x0801a370                VS4210_bt656_NTSC_720P_mode10_w1_param
 *fill*         0x0801a38a        0x2 
 .rodata.VS4210_bt656_NTSC_720P_mode10_w2_mirrorH_param
                0x0801a38c       0x1a build/VS4210_param_Modex26.o
                0x0801a38c                VS4210_bt656_NTSC_720P_mode10_w2_mirrorH_param
 *fill*         0x0801a3a6        0x2 
 .rodata.VS4210_bt656_NTSC_720P_mode10_w2_param
                0x0801a3a8       0x1a build/VS4210_param_Modex26.o
                0x0801a3a8                VS4210_bt656_NTSC_720P_mode10_w2_param
 *fill*         0x0801a3c2        0x2 
 .rodata.VS4210_bt656_NTSC_720P_mode12_w0_mirrorH_param
                0x0801a3c4       0x1a build/VS4210_param_Modex26.o
                0x0801a3c4                VS4210_bt656_NTSC_720P_mode12_w0_mirrorH_param
 *fill*         0x0801a3de        0x2 
 .rodata.VS4210_bt656_NTSC_720P_mode12_w0_param
                0x0801a3e0       0x1a build/VS4210_param_Modex26.o
                0x0801a3e0                VS4210_bt656_NTSC_720P_mode12_w0_param
 *fill*         0x0801a3fa        0x2 
 .rodata.VS4210_bt656_NTSC_720P_mode12_w1_mirrorH_param
                0x0801a3fc       0x1a build/VS4210_param_Modex26.o
                0x0801a3fc                VS4210_bt656_NTSC_720P_mode12_w1_mirrorH_param
 *fill*         0x0801a416        0x2 
 .rodata.VS4210_bt656_NTSC_720P_mode12_w1_param
                0x0801a418       0x1a build/VS4210_param_Modex26.o
                0x0801a418                VS4210_bt656_NTSC_720P_mode12_w1_param
 *fill*         0x0801a432        0x2 
 .rodata.VS4210_bt656_NTSC_720P_mode14_w0_mirrorH_param
                0x0801a434       0x1a build/VS4210_param_Modex26.o
                0x0801a434                VS4210_bt656_NTSC_720P_mode14_w0_mirrorH_param
 *fill*         0x0801a44e        0x2 
 .rodata.VS4210_bt656_NTSC_720P_mode14_w0_param
                0x0801a450       0x1a build/VS4210_param_Modex26.o
                0x0801a450                VS4210_bt656_NTSC_720P_mode14_w0_param
 *fill*         0x0801a46a        0x2 
 .rodata.VS4210_bt656_NTSC_720P_mode14_w1_mirrorH_param
                0x0801a46c       0x1a build/VS4210_param_Modex26.o
                0x0801a46c                VS4210_bt656_NTSC_720P_mode14_w1_mirrorH_param
 *fill*         0x0801a486        0x2 
 .rodata.VS4210_bt656_NTSC_720P_mode14_w1_param
                0x0801a488       0x1a build/VS4210_param_Modex26.o
                0x0801a488                VS4210_bt656_NTSC_720P_mode14_w1_param
 *fill*         0x0801a4a2        0x2 
 .rodata.VS4210_bt656_NTSC_720P_mode14_w2_mirrorH_param
                0x0801a4a4       0x1a build/VS4210_param_Modex26.o
                0x0801a4a4                VS4210_bt656_NTSC_720P_mode14_w2_mirrorH_param
 *fill*         0x0801a4be        0x2 
 .rodata.VS4210_bt656_NTSC_720P_mode14_w2_param
                0x0801a4c0       0x1a build/VS4210_param_Modex26.o
                0x0801a4c0                VS4210_bt656_NTSC_720P_mode14_w2_param
 *fill*         0x0801a4da        0x2 
 .rodata.VS4210_bt656_NTSC_720P_mode1_w0_mirrorH_param
                0x0801a4dc       0x1a build/VS4210_param_Modex26.o
                0x0801a4dc                VS4210_bt656_NTSC_720P_mode1_w0_mirrorH_param
 *fill*         0x0801a4f6        0x2 
 .rodata.VS4210_bt656_NTSC_720P_mode1_w0_param
                0x0801a4f8       0x1a build/VS4210_param_Modex26.o
                0x0801a4f8                VS4210_bt656_NTSC_720P_mode1_w0_param
 *fill*         0x0801a512        0x2 
 .rodata.VS4210_bt656_NTSC_720P_mode1_w1_mirrorH_param
                0x0801a514       0x1a build/VS4210_param_Modex26.o
                0x0801a514                VS4210_bt656_NTSC_720P_mode1_w1_mirrorH_param
 *fill*         0x0801a52e        0x2 
 .rodata.VS4210_bt656_NTSC_720P_mode1_w1_param
                0x0801a530       0x1a build/VS4210_param_Modex26.o
                0x0801a530                VS4210_bt656_NTSC_720P_mode1_w1_param
 *fill*         0x0801a54a        0x2 
 .rodata.VS4210_bt656_NTSC_720P_mode1_w2_mirrorH_param
                0x0801a54c       0x1a build/VS4210_param_Modex26.o
                0x0801a54c                VS4210_bt656_NTSC_720P_mode1_w2_mirrorH_param
 *fill*         0x0801a566        0x2 
 .rodata.VS4210_bt656_NTSC_720P_mode1_w2_param
                0x0801a568       0x1a build/VS4210_param_Modex26.o
                0x0801a568                VS4210_bt656_NTSC_720P_mode1_w2_param
 *fill*         0x0801a582        0x2 
 .rodata.VS4210_bt656_NTSC_720P_mode1_w3_mirrorH_param
                0x0801a584       0x1a build/VS4210_param_Modex26.o
                0x0801a584                VS4210_bt656_NTSC_720P_mode1_w3_mirrorH_param
 *fill*         0x0801a59e        0x2 
 .rodata.VS4210_bt656_NTSC_720P_mode1_w3_param
                0x0801a5a0       0x1a build/VS4210_param_Modex26.o
                0x0801a5a0                VS4210_bt656_NTSC_720P_mode1_w3_param
 *fill*         0x0801a5ba        0x2 
 .rodata.VS4210_bt656_NTSC_720P_mode2_w0_mirrorH_param
                0x0801a5bc       0x1a build/VS4210_param_Modex26.o
                0x0801a5bc                VS4210_bt656_NTSC_720P_mode2_w0_mirrorH_param
 *fill*         0x0801a5d6        0x2 
 .rodata.VS4210_bt656_NTSC_720P_mode2_w0_param
                0x0801a5d8       0x1a build/VS4210_param_Modex26.o
                0x0801a5d8                VS4210_bt656_NTSC_720P_mode2_w0_param
 *fill*         0x0801a5f2        0x2 
 .rodata.VS4210_bt656_NTSC_720P_mode2_w1_mirrorH_param
                0x0801a5f4       0x1a build/VS4210_param_Modex26.o
                0x0801a5f4                VS4210_bt656_NTSC_720P_mode2_w1_mirrorH_param
 *fill*         0x0801a60e        0x2 
 .rodata.VS4210_bt656_NTSC_720P_mode2_w1_param
                0x0801a610       0x1a build/VS4210_param_Modex26.o
                0x0801a610                VS4210_bt656_NTSC_720P_mode2_w1_param
 *fill*         0x0801a62a        0x2 
 .rodata.VS4210_bt656_NTSC_720P_mode2_w2_mirrorH_param
                0x0801a62c       0x1a build/VS4210_param_Modex26.o
                0x0801a62c                VS4210_bt656_NTSC_720P_mode2_w2_mirrorH_param
 *fill*         0x0801a646        0x2 
 .rodata.VS4210_bt656_NTSC_720P_mode2_w2_param
                0x0801a648       0x1a build/VS4210_param_Modex26.o
                0x0801a648                VS4210_bt656_NTSC_720P_mode2_w2_param
 *fill*         0x0801a662        0x2 
 .rodata.VS4210_bt656_NTSC_720P_mode2_w3_mirrorH_param
                0x0801a664       0x1a build/VS4210_param_Modex26.o
                0x0801a664                VS4210_bt656_NTSC_720P_mode2_w3_mirrorH_param
 *fill*         0x0801a67e        0x2 
 .rodata.VS4210_bt656_NTSC_720P_mode2_w3_param
                0x0801a680       0x1a build/VS4210_param_Modex26.o
                0x0801a680                VS4210_bt656_NTSC_720P_mode2_w3_param
 *fill*         0x0801a69a        0x2 
 .rodata.VS4210_bt656_NTSC_720P_mode8_w0_mirrorH_param
                0x0801a69c       0x1a build/VS4210_param_Modex26.o
                0x0801a69c                VS4210_bt656_NTSC_720P_mode8_w0_mirrorH_param
 *fill*         0x0801a6b6        0x2 
 .rodata.VS4210_bt656_NTSC_720P_mode8_w0_param
                0x0801a6b8       0x1a build/VS4210_param_Modex26.o
                0x0801a6b8                VS4210_bt656_NTSC_720P_mode8_w0_param
 *fill*         0x0801a6d2        0x2 
 .rodata.VS4210_bt656_NTSC_720P_mode8_w1_mirrorH_param
                0x0801a6d4       0x1a build/VS4210_param_Modex26.o
                0x0801a6d4                VS4210_bt656_NTSC_720P_mode8_w1_mirrorH_param
 *fill*         0x0801a6ee        0x2 
 .rodata.VS4210_bt656_NTSC_720P_mode8_w1_param
                0x0801a6f0       0x1a build/VS4210_param_Modex26.o
                0x0801a6f0                VS4210_bt656_NTSC_720P_mode8_w1_param
 *fill*         0x0801a70a        0x2 
 .rodata.VS4210_bt656_NTSC_720P_mode8_w2_mirrorH_param
                0x0801a70c       0x1a build/VS4210_param_Modex26.o
                0x0801a70c                VS4210_bt656_NTSC_720P_mode8_w2_mirrorH_param
 *fill*         0x0801a726        0x2 
 .rodata.VS4210_bt656_NTSC_720P_mode8_w2_param
                0x0801a728       0x1a build/VS4210_param_Modex26.o
                0x0801a728                VS4210_bt656_NTSC_720P_mode8_w2_param
 *fill*         0x0801a742        0x2 
 .rodata.VS4210_bt656_NTSC_720P_mode9_w0_mirrorH_param
                0x0801a744       0x1a build/VS4210_param_Modex26.o
                0x0801a744                VS4210_bt656_NTSC_720P_mode9_w0_mirrorH_param
 *fill*         0x0801a75e        0x2 
 .rodata.VS4210_bt656_NTSC_720P_mode9_w0_param
                0x0801a760       0x1a build/VS4210_param_Modex26.o
                0x0801a760                VS4210_bt656_NTSC_720P_mode9_w0_param
 *fill*         0x0801a77a        0x2 
 .rodata.VS4210_bt656_NTSC_720P_mode9_w1_mirrorH_param
                0x0801a77c       0x1a build/VS4210_param_Modex26.o
                0x0801a77c                VS4210_bt656_NTSC_720P_mode9_w1_mirrorH_param
 *fill*         0x0801a796        0x2 
 .rodata.VS4210_bt656_NTSC_720P_mode9_w1_param
                0x0801a798       0x1a build/VS4210_param_Modex26.o
                0x0801a798                VS4210_bt656_NTSC_720P_mode9_w1_param
 *fill*         0x0801a7b2        0x2 
 .rodata.VS4210_bt656_NTSC_720P_mode9_w2_mirrorH_param
                0x0801a7b4       0x1a build/VS4210_param_Modex26.o
                0x0801a7b4                VS4210_bt656_NTSC_720P_mode9_w2_mirrorH_param
 *fill*         0x0801a7ce        0x2 
 .rodata.VS4210_bt656_NTSC_720P_mode9_w2_param
                0x0801a7d0       0x1a build/VS4210_param_Modex26.o
                0x0801a7d0                VS4210_bt656_NTSC_720P_mode9_w2_param
 *fill*         0x0801a7ea        0x2 
 .rodata.VS4210_bt656_NTSC_800x480_mode10_w0_mirrorH_param
                0x0801a7ec       0x1a build/VS4210_param_Modex26.o
                0x0801a7ec                VS4210_bt656_NTSC_800x480_mode10_w0_mirrorH_param
 *fill*         0x0801a806        0x2 
 .rodata.VS4210_bt656_NTSC_800x480_mode10_w0_param
                0x0801a808       0x1a build/VS4210_param_Modex26.o
                0x0801a808                VS4210_bt656_NTSC_800x480_mode10_w0_param
 *fill*         0x0801a822        0x2 
 .rodata.VS4210_bt656_NTSC_800x480_mode10_w1_mirrorH_param
                0x0801a824       0x1a build/VS4210_param_Modex26.o
                0x0801a824                VS4210_bt656_NTSC_800x480_mode10_w1_mirrorH_param
 *fill*         0x0801a83e        0x2 
 .rodata.VS4210_bt656_NTSC_800x480_mode10_w1_param
                0x0801a840       0x1a build/VS4210_param_Modex26.o
                0x0801a840                VS4210_bt656_NTSC_800x480_mode10_w1_param
 *fill*         0x0801a85a        0x2 
 .rodata.VS4210_bt656_NTSC_800x480_mode10_w2_mirrorH_param
                0x0801a85c       0x1a build/VS4210_param_Modex26.o
                0x0801a85c                VS4210_bt656_NTSC_800x480_mode10_w2_mirrorH_param
 *fill*         0x0801a876        0x2 
 .rodata.VS4210_bt656_NTSC_800x480_mode10_w2_param
                0x0801a878       0x1a build/VS4210_param_Modex26.o
                0x0801a878                VS4210_bt656_NTSC_800x480_mode10_w2_param
 *fill*         0x0801a892        0x2 
 .rodata.VS4210_bt656_NTSC_800x480_mode12_w0_mirrorH_param
                0x0801a894       0x1a build/VS4210_param_Modex26.o
                0x0801a894                VS4210_bt656_NTSC_800x480_mode12_w0_mirrorH_param
 *fill*         0x0801a8ae        0x2 
 .rodata.VS4210_bt656_NTSC_800x480_mode12_w0_param
                0x0801a8b0       0x1a build/VS4210_param_Modex26.o
                0x0801a8b0                VS4210_bt656_NTSC_800x480_mode12_w0_param
 *fill*         0x0801a8ca        0x2 
 .rodata.VS4210_bt656_NTSC_800x480_mode12_w1_mirrorH_param
                0x0801a8cc       0x1a build/VS4210_param_Modex26.o
                0x0801a8cc                VS4210_bt656_NTSC_800x480_mode12_w1_mirrorH_param
 *fill*         0x0801a8e6        0x2 
 .rodata.VS4210_bt656_NTSC_800x480_mode12_w1_param
                0x0801a8e8       0x1a build/VS4210_param_Modex26.o
                0x0801a8e8                VS4210_bt656_NTSC_800x480_mode12_w1_param
 *fill*         0x0801a902        0x2 
 .rodata.VS4210_bt656_NTSC_800x480_mode14_w0_mirrorH_param
                0x0801a904       0x1a build/VS4210_param_Modex26.o
                0x0801a904                VS4210_bt656_NTSC_800x480_mode14_w0_mirrorH_param
 *fill*         0x0801a91e        0x2 
 .rodata.VS4210_bt656_NTSC_800x480_mode14_w0_param
                0x0801a920       0x1a build/VS4210_param_Modex26.o
                0x0801a920                VS4210_bt656_NTSC_800x480_mode14_w0_param
 *fill*         0x0801a93a        0x2 
 .rodata.VS4210_bt656_NTSC_800x480_mode14_w1_mirrorH_param
                0x0801a93c       0x1a build/VS4210_param_Modex26.o
                0x0801a93c                VS4210_bt656_NTSC_800x480_mode14_w1_mirrorH_param
 *fill*         0x0801a956        0x2 
 .rodata.VS4210_bt656_NTSC_800x480_mode14_w1_param
                0x0801a958       0x1a build/VS4210_param_Modex26.o
                0x0801a958                VS4210_bt656_NTSC_800x480_mode14_w1_param
 *fill*         0x0801a972        0x2 
 .rodata.VS4210_bt656_NTSC_800x480_mode14_w2_mirrorH_param
                0x0801a974       0x1a build/VS4210_param_Modex26.o
                0x0801a974                VS4210_bt656_NTSC_800x480_mode14_w2_mirrorH_param
 *fill*         0x0801a98e        0x2 
 .rodata.VS4210_bt656_NTSC_800x480_mode14_w2_param
                0x0801a990       0x1a build/VS4210_param_Modex26.o
                0x0801a990                VS4210_bt656_NTSC_800x480_mode14_w2_param
 *fill*         0x0801a9aa        0x2 
 .rodata.VS4210_bt656_NTSC_800x480_mode1_w0_mirrorH_param
                0x0801a9ac       0x1a build/VS4210_param_Modex26.o
                0x0801a9ac                VS4210_bt656_NTSC_800x480_mode1_w0_mirrorH_param
 *fill*         0x0801a9c6        0x2 
 .rodata.VS4210_bt656_NTSC_800x480_mode1_w0_param
                0x0801a9c8       0x1a build/VS4210_param_Modex26.o
                0x0801a9c8                VS4210_bt656_NTSC_800x480_mode1_w0_param
 *fill*         0x0801a9e2        0x2 
 .rodata.VS4210_bt656_NTSC_800x480_mode1_w1_mirrorH_param
                0x0801a9e4       0x1a build/VS4210_param_Modex26.o
                0x0801a9e4                VS4210_bt656_NTSC_800x480_mode1_w1_mirrorH_param
 *fill*         0x0801a9fe        0x2 
 .rodata.VS4210_bt656_NTSC_800x480_mode1_w1_param
                0x0801aa00       0x1a build/VS4210_param_Modex26.o
                0x0801aa00                VS4210_bt656_NTSC_800x480_mode1_w1_param
 *fill*         0x0801aa1a        0x2 
 .rodata.VS4210_bt656_NTSC_800x480_mode1_w2_mirrorH_param
                0x0801aa1c       0x1a build/VS4210_param_Modex26.o
                0x0801aa1c                VS4210_bt656_NTSC_800x480_mode1_w2_mirrorH_param
 *fill*         0x0801aa36        0x2 
 .rodata.VS4210_bt656_NTSC_800x480_mode1_w2_param
                0x0801aa38       0x1a build/VS4210_param_Modex26.o
                0x0801aa38                VS4210_bt656_NTSC_800x480_mode1_w2_param
 *fill*         0x0801aa52        0x2 
 .rodata.VS4210_bt656_NTSC_800x480_mode1_w3_mirrorH_param
                0x0801aa54       0x1a build/VS4210_param_Modex26.o
                0x0801aa54                VS4210_bt656_NTSC_800x480_mode1_w3_mirrorH_param
 *fill*         0x0801aa6e        0x2 
 .rodata.VS4210_bt656_NTSC_800x480_mode1_w3_param
                0x0801aa70       0x1a build/VS4210_param_Modex26.o
                0x0801aa70                VS4210_bt656_NTSC_800x480_mode1_w3_param
 *fill*         0x0801aa8a        0x2 
 .rodata.VS4210_bt656_NTSC_800x480_mode2_w0_mirrorH_param
                0x0801aa8c       0x1a build/VS4210_param_Modex26.o
                0x0801aa8c                VS4210_bt656_NTSC_800x480_mode2_w0_mirrorH_param
 *fill*         0x0801aaa6        0x2 
 .rodata.VS4210_bt656_NTSC_800x480_mode2_w0_param
                0x0801aaa8       0x1a build/VS4210_param_Modex26.o
                0x0801aaa8                VS4210_bt656_NTSC_800x480_mode2_w0_param
 *fill*         0x0801aac2        0x2 
 .rodata.VS4210_bt656_NTSC_800x480_mode2_w1_mirrorH_param
                0x0801aac4       0x1a build/VS4210_param_Modex26.o
                0x0801aac4                VS4210_bt656_NTSC_800x480_mode2_w1_mirrorH_param
 *fill*         0x0801aade        0x2 
 .rodata.VS4210_bt656_NTSC_800x480_mode2_w1_param
                0x0801aae0       0x1a build/VS4210_param_Modex26.o
                0x0801aae0                VS4210_bt656_NTSC_800x480_mode2_w1_param
 *fill*         0x0801aafa        0x2 
 .rodata.VS4210_bt656_NTSC_800x480_mode2_w2_mirrorH_param
                0x0801aafc       0x1a build/VS4210_param_Modex26.o
                0x0801aafc                VS4210_bt656_NTSC_800x480_mode2_w2_mirrorH_param
 *fill*         0x0801ab16        0x2 
 .rodata.VS4210_bt656_NTSC_800x480_mode2_w2_param
                0x0801ab18       0x1a build/VS4210_param_Modex26.o
                0x0801ab18                VS4210_bt656_NTSC_800x480_mode2_w2_param
 *fill*         0x0801ab32        0x2 
 .rodata.VS4210_bt656_NTSC_800x480_mode2_w3_mirrorH_param
                0x0801ab34       0x1a build/VS4210_param_Modex26.o
                0x0801ab34                VS4210_bt656_NTSC_800x480_mode2_w3_mirrorH_param
 *fill*         0x0801ab4e        0x2 
 .rodata.VS4210_bt656_NTSC_800x480_mode2_w3_param
                0x0801ab50       0x1a build/VS4210_param_Modex26.o
                0x0801ab50                VS4210_bt656_NTSC_800x480_mode2_w3_param
 *fill*         0x0801ab6a        0x2 
 .rodata.VS4210_bt656_NTSC_800x480_mode8_w0_mirrorH_param
                0x0801ab6c       0x1a build/VS4210_param_Modex26.o
                0x0801ab6c                VS4210_bt656_NTSC_800x480_mode8_w0_mirrorH_param
 *fill*         0x0801ab86        0x2 
 .rodata.VS4210_bt656_NTSC_800x480_mode8_w0_param
                0x0801ab88       0x1a build/VS4210_param_Modex26.o
                0x0801ab88                VS4210_bt656_NTSC_800x480_mode8_w0_param
 *fill*         0x0801aba2        0x2 
 .rodata.VS4210_bt656_NTSC_800x480_mode8_w1_mirrorH_param
                0x0801aba4       0x1a build/VS4210_param_Modex26.o
                0x0801aba4                VS4210_bt656_NTSC_800x480_mode8_w1_mirrorH_param
 *fill*         0x0801abbe        0x2 
 .rodata.VS4210_bt656_NTSC_800x480_mode8_w1_param
                0x0801abc0       0x1a build/VS4210_param_Modex26.o
                0x0801abc0                VS4210_bt656_NTSC_800x480_mode8_w1_param
 *fill*         0x0801abda        0x2 
 .rodata.VS4210_bt656_NTSC_800x480_mode8_w2_mirrorH_param
                0x0801abdc       0x1a build/VS4210_param_Modex26.o
                0x0801abdc                VS4210_bt656_NTSC_800x480_mode8_w2_mirrorH_param
 *fill*         0x0801abf6        0x2 
 .rodata.VS4210_bt656_NTSC_800x480_mode8_w2_param
                0x0801abf8       0x1a build/VS4210_param_Modex26.o
                0x0801abf8                VS4210_bt656_NTSC_800x480_mode8_w2_param
 *fill*         0x0801ac12        0x2 
 .rodata.VS4210_bt656_NTSC_800x480_mode9_w0_mirrorH_param
                0x0801ac14       0x1a build/VS4210_param_Modex26.o
                0x0801ac14                VS4210_bt656_NTSC_800x480_mode9_w0_mirrorH_param
 *fill*         0x0801ac2e        0x2 
 .rodata.VS4210_bt656_NTSC_800x480_mode9_w0_param
                0x0801ac30       0x1a build/VS4210_param_Modex26.o
                0x0801ac30                VS4210_bt656_NTSC_800x480_mode9_w0_param
 *fill*         0x0801ac4a        0x2 
 .rodata.VS4210_bt656_NTSC_800x480_mode9_w1_mirrorH_param
                0x0801ac4c       0x1a build/VS4210_param_Modex26.o
                0x0801ac4c                VS4210_bt656_NTSC_800x480_mode9_w1_mirrorH_param
 *fill*         0x0801ac66        0x2 
 .rodata.VS4210_bt656_NTSC_800x480_mode9_w1_param
                0x0801ac68       0x1a build/VS4210_param_Modex26.o
                0x0801ac68                VS4210_bt656_NTSC_800x480_mode9_w1_param
 *fill*         0x0801ac82        0x2 
 .rodata.VS4210_bt656_NTSC_800x480_mode9_w2_mirrorH_param
                0x0801ac84       0x1a build/VS4210_param_Modex26.o
                0x0801ac84                VS4210_bt656_NTSC_800x480_mode9_w2_mirrorH_param
 *fill*         0x0801ac9e        0x2 
 .rodata.VS4210_bt656_NTSC_800x480_mode9_w2_param
                0x0801aca0       0x1a build/VS4210_param_Modex26.o
                0x0801aca0                VS4210_bt656_NTSC_800x480_mode9_w2_param
 *fill*         0x0801acba        0x2 
 .rodata.VS4210_bt656_PAL_1080P_mode10_w0_mirrorH_param
                0x0801acbc       0x1a build/VS4210_param_Modex26.o
                0x0801acbc                VS4210_bt656_PAL_1080P_mode10_w0_mirrorH_param
 *fill*         0x0801acd6        0x2 
 .rodata.VS4210_bt656_PAL_1080P_mode10_w0_param
                0x0801acd8       0x1a build/VS4210_param_Modex26.o
                0x0801acd8                VS4210_bt656_PAL_1080P_mode10_w0_param
 *fill*         0x0801acf2        0x2 
 .rodata.VS4210_bt656_PAL_1080P_mode10_w1_mirrorH_param
                0x0801acf4       0x1a build/VS4210_param_Modex26.o
                0x0801acf4                VS4210_bt656_PAL_1080P_mode10_w1_mirrorH_param
 *fill*         0x0801ad0e        0x2 
 .rodata.VS4210_bt656_PAL_1080P_mode10_w1_param
                0x0801ad10       0x1a build/VS4210_param_Modex26.o
                0x0801ad10                VS4210_bt656_PAL_1080P_mode10_w1_param
 *fill*         0x0801ad2a        0x2 
 .rodata.VS4210_bt656_PAL_1080P_mode10_w2_mirrorH_param
                0x0801ad2c       0x1a build/VS4210_param_Modex26.o
                0x0801ad2c                VS4210_bt656_PAL_1080P_mode10_w2_mirrorH_param
 *fill*         0x0801ad46        0x2 
 .rodata.VS4210_bt656_PAL_1080P_mode10_w2_param
                0x0801ad48       0x1a build/VS4210_param_Modex26.o
                0x0801ad48                VS4210_bt656_PAL_1080P_mode10_w2_param
 *fill*         0x0801ad62        0x2 
 .rodata.VS4210_bt656_PAL_1080P_mode12_w0_mirrorH_param
                0x0801ad64       0x1a build/VS4210_param_Modex26.o
                0x0801ad64                VS4210_bt656_PAL_1080P_mode12_w0_mirrorH_param
 *fill*         0x0801ad7e        0x2 
 .rodata.VS4210_bt656_PAL_1080P_mode12_w0_param
                0x0801ad80       0x1a build/VS4210_param_Modex26.o
                0x0801ad80                VS4210_bt656_PAL_1080P_mode12_w0_param
 *fill*         0x0801ad9a        0x2 
 .rodata.VS4210_bt656_PAL_1080P_mode12_w1_mirrorH_param
                0x0801ad9c       0x1a build/VS4210_param_Modex26.o
                0x0801ad9c                VS4210_bt656_PAL_1080P_mode12_w1_mirrorH_param
 *fill*         0x0801adb6        0x2 
 .rodata.VS4210_bt656_PAL_1080P_mode12_w1_param
                0x0801adb8       0x1a build/VS4210_param_Modex26.o
                0x0801adb8                VS4210_bt656_PAL_1080P_mode12_w1_param
 *fill*         0x0801add2        0x2 
 .rodata.VS4210_bt656_PAL_1080P_mode14_w0_mirrorH_param
                0x0801add4       0x1a build/VS4210_param_Modex26.o
                0x0801add4                VS4210_bt656_PAL_1080P_mode14_w0_mirrorH_param
 *fill*         0x0801adee        0x2 
 .rodata.VS4210_bt656_PAL_1080P_mode14_w0_param
                0x0801adf0       0x1a build/VS4210_param_Modex26.o
                0x0801adf0                VS4210_bt656_PAL_1080P_mode14_w0_param
 *fill*         0x0801ae0a        0x2 
 .rodata.VS4210_bt656_PAL_1080P_mode14_w1_mirrorH_param
                0x0801ae0c       0x1a build/VS4210_param_Modex26.o
                0x0801ae0c                VS4210_bt656_PAL_1080P_mode14_w1_mirrorH_param
 *fill*         0x0801ae26        0x2 
 .rodata.VS4210_bt656_PAL_1080P_mode14_w1_param
                0x0801ae28       0x1a build/VS4210_param_Modex26.o
                0x0801ae28                VS4210_bt656_PAL_1080P_mode14_w1_param
 *fill*         0x0801ae42        0x2 
 .rodata.VS4210_bt656_PAL_1080P_mode14_w2_mirrorH_param
                0x0801ae44       0x1a build/VS4210_param_Modex26.o
                0x0801ae44                VS4210_bt656_PAL_1080P_mode14_w2_mirrorH_param
 *fill*         0x0801ae5e        0x2 
 .rodata.VS4210_bt656_PAL_1080P_mode14_w2_param
                0x0801ae60       0x1a build/VS4210_param_Modex26.o
                0x0801ae60                VS4210_bt656_PAL_1080P_mode14_w2_param
 *fill*         0x0801ae7a        0x2 
 .rodata.VS4210_bt656_PAL_1080P_mode1_w0_mirrorH_param
                0x0801ae7c       0x1a build/VS4210_param_Modex26.o
                0x0801ae7c                VS4210_bt656_PAL_1080P_mode1_w0_mirrorH_param
 *fill*         0x0801ae96        0x2 
 .rodata.VS4210_bt656_PAL_1080P_mode1_w0_param
                0x0801ae98       0x1a build/VS4210_param_Modex26.o
                0x0801ae98                VS4210_bt656_PAL_1080P_mode1_w0_param
 *fill*         0x0801aeb2        0x2 
 .rodata.VS4210_bt656_PAL_1080P_mode1_w1_mirrorH_param
                0x0801aeb4       0x1a build/VS4210_param_Modex26.o
                0x0801aeb4                VS4210_bt656_PAL_1080P_mode1_w1_mirrorH_param
 *fill*         0x0801aece        0x2 
 .rodata.VS4210_bt656_PAL_1080P_mode1_w1_param
                0x0801aed0       0x1a build/VS4210_param_Modex26.o
                0x0801aed0                VS4210_bt656_PAL_1080P_mode1_w1_param
 *fill*         0x0801aeea        0x2 
 .rodata.VS4210_bt656_PAL_1080P_mode1_w2_mirrorH_param
                0x0801aeec       0x1a build/VS4210_param_Modex26.o
                0x0801aeec                VS4210_bt656_PAL_1080P_mode1_w2_mirrorH_param
 *fill*         0x0801af06        0x2 
 .rodata.VS4210_bt656_PAL_1080P_mode1_w2_param
                0x0801af08       0x1a build/VS4210_param_Modex26.o
                0x0801af08                VS4210_bt656_PAL_1080P_mode1_w2_param
 *fill*         0x0801af22        0x2 
 .rodata.VS4210_bt656_PAL_1080P_mode1_w3_mirrorH_param
                0x0801af24       0x1a build/VS4210_param_Modex26.o
                0x0801af24                VS4210_bt656_PAL_1080P_mode1_w3_mirrorH_param
 *fill*         0x0801af3e        0x2 
 .rodata.VS4210_bt656_PAL_1080P_mode1_w3_param
                0x0801af40       0x1a build/VS4210_param_Modex26.o
                0x0801af40                VS4210_bt656_PAL_1080P_mode1_w3_param
 *fill*         0x0801af5a        0x2 
 .rodata.VS4210_bt656_PAL_1080P_mode2_w0_mirrorH_param
                0x0801af5c       0x1a build/VS4210_param_Modex26.o
                0x0801af5c                VS4210_bt656_PAL_1080P_mode2_w0_mirrorH_param
 *fill*         0x0801af76        0x2 
 .rodata.VS4210_bt656_PAL_1080P_mode2_w0_param
                0x0801af78       0x1a build/VS4210_param_Modex26.o
                0x0801af78                VS4210_bt656_PAL_1080P_mode2_w0_param
 *fill*         0x0801af92        0x2 
 .rodata.VS4210_bt656_PAL_1080P_mode2_w1_mirrorH_param
                0x0801af94       0x1a build/VS4210_param_Modex26.o
                0x0801af94                VS4210_bt656_PAL_1080P_mode2_w1_mirrorH_param
 *fill*         0x0801afae        0x2 
 .rodata.VS4210_bt656_PAL_1080P_mode2_w1_param
                0x0801afb0       0x1a build/VS4210_param_Modex26.o
                0x0801afb0                VS4210_bt656_PAL_1080P_mode2_w1_param
 *fill*         0x0801afca        0x2 
 .rodata.VS4210_bt656_PAL_1080P_mode2_w2_mirrorH_param
                0x0801afcc       0x1a build/VS4210_param_Modex26.o
                0x0801afcc                VS4210_bt656_PAL_1080P_mode2_w2_mirrorH_param
 *fill*         0x0801afe6        0x2 
 .rodata.VS4210_bt656_PAL_1080P_mode2_w2_param
                0x0801afe8       0x1a build/VS4210_param_Modex26.o
                0x0801afe8                VS4210_bt656_PAL_1080P_mode2_w2_param
 *fill*         0x0801b002        0x2 
 .rodata.VS4210_bt656_PAL_1080P_mode2_w3_mirrorH_param
                0x0801b004       0x1a build/VS4210_param_Modex26.o
                0x0801b004                VS4210_bt656_PAL_1080P_mode2_w3_mirrorH_param
 *fill*         0x0801b01e        0x2 
 .rodata.VS4210_bt656_PAL_1080P_mode2_w3_param
                0x0801b020       0x1a build/VS4210_param_Modex26.o
                0x0801b020                VS4210_bt656_PAL_1080P_mode2_w3_param
 *fill*         0x0801b03a        0x2 
 .rodata.VS4210_bt656_PAL_1080P_mode8_w0_mirrorH_param
                0x0801b03c       0x1a build/VS4210_param_Modex26.o
                0x0801b03c                VS4210_bt656_PAL_1080P_mode8_w0_mirrorH_param
 *fill*         0x0801b056        0x2 
 .rodata.VS4210_bt656_PAL_1080P_mode8_w0_param
                0x0801b058       0x1a build/VS4210_param_Modex26.o
                0x0801b058                VS4210_bt656_PAL_1080P_mode8_w0_param
 *fill*         0x0801b072        0x2 
 .rodata.VS4210_bt656_PAL_1080P_mode8_w1_mirrorH_param
                0x0801b074       0x1a build/VS4210_param_Modex26.o
                0x0801b074                VS4210_bt656_PAL_1080P_mode8_w1_mirrorH_param
 *fill*         0x0801b08e        0x2 
 .rodata.VS4210_bt656_PAL_1080P_mode8_w1_param
                0x0801b090       0x1a build/VS4210_param_Modex26.o
                0x0801b090                VS4210_bt656_PAL_1080P_mode8_w1_param
 *fill*         0x0801b0aa        0x2 
 .rodata.VS4210_bt656_PAL_1080P_mode8_w2_mirrorH_param
                0x0801b0ac       0x1a build/VS4210_param_Modex26.o
                0x0801b0ac                VS4210_bt656_PAL_1080P_mode8_w2_mirrorH_param
 *fill*         0x0801b0c6        0x2 
 .rodata.VS4210_bt656_PAL_1080P_mode8_w2_param
                0x0801b0c8       0x1a build/VS4210_param_Modex26.o
                0x0801b0c8                VS4210_bt656_PAL_1080P_mode8_w2_param
 *fill*         0x0801b0e2        0x2 
 .rodata.VS4210_bt656_PAL_1080P_mode9_w0_mirrorH_param
                0x0801b0e4       0x1a build/VS4210_param_Modex26.o
                0x0801b0e4                VS4210_bt656_PAL_1080P_mode9_w0_mirrorH_param
 *fill*         0x0801b0fe        0x2 
 .rodata.VS4210_bt656_PAL_1080P_mode9_w0_param
                0x0801b100       0x1a build/VS4210_param_Modex26.o
                0x0801b100                VS4210_bt656_PAL_1080P_mode9_w0_param
 *fill*         0x0801b11a        0x2 
 .rodata.VS4210_bt656_PAL_1080P_mode9_w1_mirrorH_param
                0x0801b11c       0x1a build/VS4210_param_Modex26.o
                0x0801b11c                VS4210_bt656_PAL_1080P_mode9_w1_mirrorH_param
 *fill*         0x0801b136        0x2 
 .rodata.VS4210_bt656_PAL_1080P_mode9_w1_param
                0x0801b138       0x1a build/VS4210_param_Modex26.o
                0x0801b138                VS4210_bt656_PAL_1080P_mode9_w1_param
 *fill*         0x0801b152        0x2 
 .rodata.VS4210_bt656_PAL_1080P_mode9_w2_mirrorH_param
                0x0801b154       0x1a build/VS4210_param_Modex26.o
                0x0801b154                VS4210_bt656_PAL_1080P_mode9_w2_mirrorH_param
 *fill*         0x0801b16e        0x2 
 .rodata.VS4210_bt656_PAL_1080P_mode9_w2_param
                0x0801b170       0x1a build/VS4210_param_Modex26.o
                0x0801b170                VS4210_bt656_PAL_1080P_mode9_w2_param
 *fill*         0x0801b18a        0x2 
 .rodata.VS4210_bt656_PAL_720P_mode10_w0_mirrorH_param
                0x0801b18c       0x1a build/VS4210_param_Modex26.o
                0x0801b18c                VS4210_bt656_PAL_720P_mode10_w0_mirrorH_param
 *fill*         0x0801b1a6        0x2 
 .rodata.VS4210_bt656_PAL_720P_mode10_w0_param
                0x0801b1a8       0x1a build/VS4210_param_Modex26.o
                0x0801b1a8                VS4210_bt656_PAL_720P_mode10_w0_param
 *fill*         0x0801b1c2        0x2 
 .rodata.VS4210_bt656_PAL_720P_mode10_w1_mirrorH_param
                0x0801b1c4       0x1a build/VS4210_param_Modex26.o
                0x0801b1c4                VS4210_bt656_PAL_720P_mode10_w1_mirrorH_param
 *fill*         0x0801b1de        0x2 
 .rodata.VS4210_bt656_PAL_720P_mode10_w1_param
                0x0801b1e0       0x1a build/VS4210_param_Modex26.o
                0x0801b1e0                VS4210_bt656_PAL_720P_mode10_w1_param
 *fill*         0x0801b1fa        0x2 
 .rodata.VS4210_bt656_PAL_720P_mode10_w2_mirrorH_param
                0x0801b1fc       0x1a build/VS4210_param_Modex26.o
                0x0801b1fc                VS4210_bt656_PAL_720P_mode10_w2_mirrorH_param
 *fill*         0x0801b216        0x2 
 .rodata.VS4210_bt656_PAL_720P_mode10_w2_param
                0x0801b218       0x1a build/VS4210_param_Modex26.o
                0x0801b218                VS4210_bt656_PAL_720P_mode10_w2_param
 *fill*         0x0801b232        0x2 
 .rodata.VS4210_bt656_PAL_720P_mode12_w0_mirrorH_param
                0x0801b234       0x1a build/VS4210_param_Modex26.o
                0x0801b234                VS4210_bt656_PAL_720P_mode12_w0_mirrorH_param
 *fill*         0x0801b24e        0x2 
 .rodata.VS4210_bt656_PAL_720P_mode12_w0_param
                0x0801b250       0x1a build/VS4210_param_Modex26.o
                0x0801b250                VS4210_bt656_PAL_720P_mode12_w0_param
 *fill*         0x0801b26a        0x2 
 .rodata.VS4210_bt656_PAL_720P_mode12_w1_mirrorH_param
                0x0801b26c       0x1a build/VS4210_param_Modex26.o
                0x0801b26c                VS4210_bt656_PAL_720P_mode12_w1_mirrorH_param
 *fill*         0x0801b286        0x2 
 .rodata.VS4210_bt656_PAL_720P_mode12_w1_param
                0x0801b288       0x1a build/VS4210_param_Modex26.o
                0x0801b288                VS4210_bt656_PAL_720P_mode12_w1_param
 *fill*         0x0801b2a2        0x2 
 .rodata.VS4210_bt656_PAL_720P_mode14_w0_mirrorH_param
                0x0801b2a4       0x1a build/VS4210_param_Modex26.o
                0x0801b2a4                VS4210_bt656_PAL_720P_mode14_w0_mirrorH_param
 *fill*         0x0801b2be        0x2 
 .rodata.VS4210_bt656_PAL_720P_mode14_w0_param
                0x0801b2c0       0x1a build/VS4210_param_Modex26.o
                0x0801b2c0                VS4210_bt656_PAL_720P_mode14_w0_param
 *fill*         0x0801b2da        0x2 
 .rodata.VS4210_bt656_PAL_720P_mode14_w1_mirrorH_param
                0x0801b2dc       0x1a build/VS4210_param_Modex26.o
                0x0801b2dc                VS4210_bt656_PAL_720P_mode14_w1_mirrorH_param
 *fill*         0x0801b2f6        0x2 
 .rodata.VS4210_bt656_PAL_720P_mode14_w1_param
                0x0801b2f8       0x1a build/VS4210_param_Modex26.o
                0x0801b2f8                VS4210_bt656_PAL_720P_mode14_w1_param
 *fill*         0x0801b312        0x2 
 .rodata.VS4210_bt656_PAL_720P_mode14_w2_mirrorH_param
                0x0801b314       0x1a build/VS4210_param_Modex26.o
                0x0801b314                VS4210_bt656_PAL_720P_mode14_w2_mirrorH_param
 *fill*         0x0801b32e        0x2 
 .rodata.VS4210_bt656_PAL_720P_mode14_w2_param
                0x0801b330       0x1a build/VS4210_param_Modex26.o
                0x0801b330                VS4210_bt656_PAL_720P_mode14_w2_param
 *fill*         0x0801b34a        0x2 
 .rodata.VS4210_bt656_PAL_720P_mode1_w0_mirrorH_param
                0x0801b34c       0x1a build/VS4210_param_Modex26.o
                0x0801b34c                VS4210_bt656_PAL_720P_mode1_w0_mirrorH_param
 *fill*         0x0801b366        0x2 
 .rodata.VS4210_bt656_PAL_720P_mode1_w0_param
                0x0801b368       0x1a build/VS4210_param_Modex26.o
                0x0801b368                VS4210_bt656_PAL_720P_mode1_w0_param
 *fill*         0x0801b382        0x2 
 .rodata.VS4210_bt656_PAL_720P_mode1_w1_mirrorH_param
                0x0801b384       0x1a build/VS4210_param_Modex26.o
                0x0801b384                VS4210_bt656_PAL_720P_mode1_w1_mirrorH_param
 *fill*         0x0801b39e        0x2 
 .rodata.VS4210_bt656_PAL_720P_mode1_w1_param
                0x0801b3a0       0x1a build/VS4210_param_Modex26.o
                0x0801b3a0                VS4210_bt656_PAL_720P_mode1_w1_param
 *fill*         0x0801b3ba        0x2 
 .rodata.VS4210_bt656_PAL_720P_mode1_w2_mirrorH_param
                0x0801b3bc       0x1a build/VS4210_param_Modex26.o
                0x0801b3bc                VS4210_bt656_PAL_720P_mode1_w2_mirrorH_param
 *fill*         0x0801b3d6        0x2 
 .rodata.VS4210_bt656_PAL_720P_mode1_w2_param
                0x0801b3d8       0x1a build/VS4210_param_Modex26.o
                0x0801b3d8                VS4210_bt656_PAL_720P_mode1_w2_param
 *fill*         0x0801b3f2        0x2 
 .rodata.VS4210_bt656_PAL_720P_mode1_w3_mirrorH_param
                0x0801b3f4       0x1a build/VS4210_param_Modex26.o
                0x0801b3f4                VS4210_bt656_PAL_720P_mode1_w3_mirrorH_param
 *fill*         0x0801b40e        0x2 
 .rodata.VS4210_bt656_PAL_720P_mode1_w3_param
                0x0801b410       0x1a build/VS4210_param_Modex26.o
                0x0801b410                VS4210_bt656_PAL_720P_mode1_w3_param
 *fill*         0x0801b42a        0x2 
 .rodata.VS4210_bt656_PAL_720P_mode2_w0_mirrorH_param
                0x0801b42c       0x1a build/VS4210_param_Modex26.o
                0x0801b42c                VS4210_bt656_PAL_720P_mode2_w0_mirrorH_param
 *fill*         0x0801b446        0x2 
 .rodata.VS4210_bt656_PAL_720P_mode2_w0_param
                0x0801b448       0x1a build/VS4210_param_Modex26.o
                0x0801b448                VS4210_bt656_PAL_720P_mode2_w0_param
 *fill*         0x0801b462        0x2 
 .rodata.VS4210_bt656_PAL_720P_mode2_w1_mirrorH_param
                0x0801b464       0x1a build/VS4210_param_Modex26.o
                0x0801b464                VS4210_bt656_PAL_720P_mode2_w1_mirrorH_param
 *fill*         0x0801b47e        0x2 
 .rodata.VS4210_bt656_PAL_720P_mode2_w1_param
                0x0801b480       0x1a build/VS4210_param_Modex26.o
                0x0801b480                VS4210_bt656_PAL_720P_mode2_w1_param
 *fill*         0x0801b49a        0x2 
 .rodata.VS4210_bt656_PAL_720P_mode2_w2_mirrorH_param
                0x0801b49c       0x1a build/VS4210_param_Modex26.o
                0x0801b49c                VS4210_bt656_PAL_720P_mode2_w2_mirrorH_param
 *fill*         0x0801b4b6        0x2 
 .rodata.VS4210_bt656_PAL_720P_mode2_w2_param
                0x0801b4b8       0x1a build/VS4210_param_Modex26.o
                0x0801b4b8                VS4210_bt656_PAL_720P_mode2_w2_param
 *fill*         0x0801b4d2        0x2 
 .rodata.VS4210_bt656_PAL_720P_mode2_w3_mirrorH_param
                0x0801b4d4       0x1a build/VS4210_param_Modex26.o
                0x0801b4d4                VS4210_bt656_PAL_720P_mode2_w3_mirrorH_param
 *fill*         0x0801b4ee        0x2 
 .rodata.VS4210_bt656_PAL_720P_mode2_w3_param
                0x0801b4f0       0x1a build/VS4210_param_Modex26.o
                0x0801b4f0                VS4210_bt656_PAL_720P_mode2_w3_param
 *fill*         0x0801b50a        0x2 
 .rodata.VS4210_bt656_PAL_720P_mode8_w0_mirrorH_param
                0x0801b50c       0x1a build/VS4210_param_Modex26.o
                0x0801b50c                VS4210_bt656_PAL_720P_mode8_w0_mirrorH_param
 *fill*         0x0801b526        0x2 
 .rodata.VS4210_bt656_PAL_720P_mode8_w0_param
                0x0801b528       0x1a build/VS4210_param_Modex26.o
                0x0801b528                VS4210_bt656_PAL_720P_mode8_w0_param
 *fill*         0x0801b542        0x2 
 .rodata.VS4210_bt656_PAL_720P_mode8_w1_mirrorH_param
                0x0801b544       0x1a build/VS4210_param_Modex26.o
                0x0801b544                VS4210_bt656_PAL_720P_mode8_w1_mirrorH_param
 *fill*         0x0801b55e        0x2 
 .rodata.VS4210_bt656_PAL_720P_mode8_w1_param
                0x0801b560       0x1a build/VS4210_param_Modex26.o
                0x0801b560                VS4210_bt656_PAL_720P_mode8_w1_param
 *fill*         0x0801b57a        0x2 
 .rodata.VS4210_bt656_PAL_720P_mode8_w2_mirrorH_param
                0x0801b57c       0x1a build/VS4210_param_Modex26.o
                0x0801b57c                VS4210_bt656_PAL_720P_mode8_w2_mirrorH_param
 *fill*         0x0801b596        0x2 
 .rodata.VS4210_bt656_PAL_720P_mode8_w2_param
                0x0801b598       0x1a build/VS4210_param_Modex26.o
                0x0801b598                VS4210_bt656_PAL_720P_mode8_w2_param
 *fill*         0x0801b5b2        0x2 
 .rodata.VS4210_bt656_PAL_720P_mode9_w0_mirrorH_param
                0x0801b5b4       0x1a build/VS4210_param_Modex26.o
                0x0801b5b4                VS4210_bt656_PAL_720P_mode9_w0_mirrorH_param
 *fill*         0x0801b5ce        0x2 
 .rodata.VS4210_bt656_PAL_720P_mode9_w0_param
                0x0801b5d0       0x1a build/VS4210_param_Modex26.o
                0x0801b5d0                VS4210_bt656_PAL_720P_mode9_w0_param
 *fill*         0x0801b5ea        0x2 
 .rodata.VS4210_bt656_PAL_720P_mode9_w1_mirrorH_param
                0x0801b5ec       0x1a build/VS4210_param_Modex26.o
                0x0801b5ec                VS4210_bt656_PAL_720P_mode9_w1_mirrorH_param
 *fill*         0x0801b606        0x2 
 .rodata.VS4210_bt656_PAL_720P_mode9_w1_param
                0x0801b608       0x1a build/VS4210_param_Modex26.o
                0x0801b608                VS4210_bt656_PAL_720P_mode9_w1_param
 *fill*         0x0801b622        0x2 
 .rodata.VS4210_bt656_PAL_720P_mode9_w2_mirrorH_param
                0x0801b624       0x1a build/VS4210_param_Modex26.o
                0x0801b624                VS4210_bt656_PAL_720P_mode9_w2_mirrorH_param
 *fill*         0x0801b63e        0x2 
 .rodata.VS4210_bt656_PAL_720P_mode9_w2_param
                0x0801b640       0x1a build/VS4210_param_Modex26.o
                0x0801b640                VS4210_bt656_PAL_720P_mode9_w2_param
 *fill*         0x0801b65a        0x2 
 .rodata.VS4210_bt656_PAL_800x480_mode10_w0_mirrorH_param
                0x0801b65c       0x1a build/VS4210_param_Modex26.o
                0x0801b65c                VS4210_bt656_PAL_800x480_mode10_w0_mirrorH_param
 *fill*         0x0801b676        0x2 
 .rodata.VS4210_bt656_PAL_800x480_mode10_w0_param
                0x0801b678       0x1a build/VS4210_param_Modex26.o
                0x0801b678                VS4210_bt656_PAL_800x480_mode10_w0_param
 *fill*         0x0801b692        0x2 
 .rodata.VS4210_bt656_PAL_800x480_mode10_w1_mirrorH_param
                0x0801b694       0x1a build/VS4210_param_Modex26.o
                0x0801b694                VS4210_bt656_PAL_800x480_mode10_w1_mirrorH_param
 *fill*         0x0801b6ae        0x2 
 .rodata.VS4210_bt656_PAL_800x480_mode10_w1_param
                0x0801b6b0       0x1a build/VS4210_param_Modex26.o
                0x0801b6b0                VS4210_bt656_PAL_800x480_mode10_w1_param
 *fill*         0x0801b6ca        0x2 
 .rodata.VS4210_bt656_PAL_800x480_mode10_w2_mirrorH_param
                0x0801b6cc       0x1a build/VS4210_param_Modex26.o
                0x0801b6cc                VS4210_bt656_PAL_800x480_mode10_w2_mirrorH_param
 *fill*         0x0801b6e6        0x2 
 .rodata.VS4210_bt656_PAL_800x480_mode10_w2_param
                0x0801b6e8       0x1a build/VS4210_param_Modex26.o
                0x0801b6e8                VS4210_bt656_PAL_800x480_mode10_w2_param
 *fill*         0x0801b702        0x2 
 .rodata.VS4210_bt656_PAL_800x480_mode12_w0_mirrorH_param
                0x0801b704       0x1a build/VS4210_param_Modex26.o
                0x0801b704                VS4210_bt656_PAL_800x480_mode12_w0_mirrorH_param
 *fill*         0x0801b71e        0x2 
 .rodata.VS4210_bt656_PAL_800x480_mode12_w0_param
                0x0801b720       0x1a build/VS4210_param_Modex26.o
                0x0801b720                VS4210_bt656_PAL_800x480_mode12_w0_param
 *fill*         0x0801b73a        0x2 
 .rodata.VS4210_bt656_PAL_800x480_mode12_w1_mirrorH_param
                0x0801b73c       0x1a build/VS4210_param_Modex26.o
                0x0801b73c                VS4210_bt656_PAL_800x480_mode12_w1_mirrorH_param
 *fill*         0x0801b756        0x2 
 .rodata.VS4210_bt656_PAL_800x480_mode12_w1_param
                0x0801b758       0x1a build/VS4210_param_Modex26.o
                0x0801b758                VS4210_bt656_PAL_800x480_mode12_w1_param
 *fill*         0x0801b772        0x2 
 .rodata.VS4210_bt656_PAL_800x480_mode14_w0_mirrorH_param
                0x0801b774       0x1a build/VS4210_param_Modex26.o
                0x0801b774                VS4210_bt656_PAL_800x480_mode14_w0_mirrorH_param
 *fill*         0x0801b78e        0x2 
 .rodata.VS4210_bt656_PAL_800x480_mode14_w0_param
                0x0801b790       0x1a build/VS4210_param_Modex26.o
                0x0801b790                VS4210_bt656_PAL_800x480_mode14_w0_param
 *fill*         0x0801b7aa        0x2 
 .rodata.VS4210_bt656_PAL_800x480_mode14_w1_mirrorH_param
                0x0801b7ac       0x1a build/VS4210_param_Modex26.o
                0x0801b7ac                VS4210_bt656_PAL_800x480_mode14_w1_mirrorH_param
 *fill*         0x0801b7c6        0x2 
 .rodata.VS4210_bt656_PAL_800x480_mode14_w1_param
                0x0801b7c8       0x1a build/VS4210_param_Modex26.o
                0x0801b7c8                VS4210_bt656_PAL_800x480_mode14_w1_param
 *fill*         0x0801b7e2        0x2 
 .rodata.VS4210_bt656_PAL_800x480_mode14_w2_mirrorH_param
                0x0801b7e4       0x1a build/VS4210_param_Modex26.o
                0x0801b7e4                VS4210_bt656_PAL_800x480_mode14_w2_mirrorH_param
 *fill*         0x0801b7fe        0x2 
 .rodata.VS4210_bt656_PAL_800x480_mode14_w2_param
                0x0801b800       0x1a build/VS4210_param_Modex26.o
                0x0801b800                VS4210_bt656_PAL_800x480_mode14_w2_param
 *fill*         0x0801b81a        0x2 
 .rodata.VS4210_bt656_PAL_800x480_mode1_w0_mirrorH_param
                0x0801b81c       0x1a build/VS4210_param_Modex26.o
                0x0801b81c                VS4210_bt656_PAL_800x480_mode1_w0_mirrorH_param
 *fill*         0x0801b836        0x2 
 .rodata.VS4210_bt656_PAL_800x480_mode1_w0_param
                0x0801b838       0x1a build/VS4210_param_Modex26.o
                0x0801b838                VS4210_bt656_PAL_800x480_mode1_w0_param
 *fill*         0x0801b852        0x2 
 .rodata.VS4210_bt656_PAL_800x480_mode1_w1_mirrorH_param
                0x0801b854       0x1a build/VS4210_param_Modex26.o
                0x0801b854                VS4210_bt656_PAL_800x480_mode1_w1_mirrorH_param
 *fill*         0x0801b86e        0x2 
 .rodata.VS4210_bt656_PAL_800x480_mode1_w1_param
                0x0801b870       0x1a build/VS4210_param_Modex26.o
                0x0801b870                VS4210_bt656_PAL_800x480_mode1_w1_param
 *fill*         0x0801b88a        0x2 
 .rodata.VS4210_bt656_PAL_800x480_mode1_w2_mirrorH_param
                0x0801b88c       0x1a build/VS4210_param_Modex26.o
                0x0801b88c                VS4210_bt656_PAL_800x480_mode1_w2_mirrorH_param
 *fill*         0x0801b8a6        0x2 
 .rodata.VS4210_bt656_PAL_800x480_mode1_w2_param
                0x0801b8a8       0x1a build/VS4210_param_Modex26.o
                0x0801b8a8                VS4210_bt656_PAL_800x480_mode1_w2_param
 *fill*         0x0801b8c2        0x2 
 .rodata.VS4210_bt656_PAL_800x480_mode1_w3_mirrorH_param
                0x0801b8c4       0x1a build/VS4210_param_Modex26.o
                0x0801b8c4                VS4210_bt656_PAL_800x480_mode1_w3_mirrorH_param
 *fill*         0x0801b8de        0x2 
 .rodata.VS4210_bt656_PAL_800x480_mode1_w3_param
                0x0801b8e0       0x1a build/VS4210_param_Modex26.o
                0x0801b8e0                VS4210_bt656_PAL_800x480_mode1_w3_param
 *fill*         0x0801b8fa        0x2 
 .rodata.VS4210_bt656_PAL_800x480_mode2_w0_mirrorH_param
                0x0801b8fc       0x1a build/VS4210_param_Modex26.o
                0x0801b8fc                VS4210_bt656_PAL_800x480_mode2_w0_mirrorH_param
 *fill*         0x0801b916        0x2 
 .rodata.VS4210_bt656_PAL_800x480_mode2_w0_param
                0x0801b918       0x1a build/VS4210_param_Modex26.o
                0x0801b918                VS4210_bt656_PAL_800x480_mode2_w0_param
 *fill*         0x0801b932        0x2 
 .rodata.VS4210_bt656_PAL_800x480_mode2_w1_mirrorH_param
                0x0801b934       0x1a build/VS4210_param_Modex26.o
                0x0801b934                VS4210_bt656_PAL_800x480_mode2_w1_mirrorH_param
 *fill*         0x0801b94e        0x2 
 .rodata.VS4210_bt656_PAL_800x480_mode2_w1_param
                0x0801b950       0x1a build/VS4210_param_Modex26.o
                0x0801b950                VS4210_bt656_PAL_800x480_mode2_w1_param
 *fill*         0x0801b96a        0x2 
 .rodata.VS4210_bt656_PAL_800x480_mode2_w2_mirrorH_param
                0x0801b96c       0x1a build/VS4210_param_Modex26.o
                0x0801b96c                VS4210_bt656_PAL_800x480_mode2_w2_mirrorH_param
 *fill*         0x0801b986        0x2 
 .rodata.VS4210_bt656_PAL_800x480_mode2_w2_param
                0x0801b988       0x1a build/VS4210_param_Modex26.o
                0x0801b988                VS4210_bt656_PAL_800x480_mode2_w2_param
 *fill*         0x0801b9a2        0x2 
 .rodata.VS4210_bt656_PAL_800x480_mode2_w3_mirrorH_param
                0x0801b9a4       0x1a build/VS4210_param_Modex26.o
                0x0801b9a4                VS4210_bt656_PAL_800x480_mode2_w3_mirrorH_param
 *fill*         0x0801b9be        0x2 
 .rodata.VS4210_bt656_PAL_800x480_mode2_w3_param
                0x0801b9c0       0x1a build/VS4210_param_Modex26.o
                0x0801b9c0                VS4210_bt656_PAL_800x480_mode2_w3_param
 *fill*         0x0801b9da        0x2 
 .rodata.VS4210_bt656_PAL_800x480_mode8_w0_mirrorH_param
                0x0801b9dc       0x1a build/VS4210_param_Modex26.o
                0x0801b9dc                VS4210_bt656_PAL_800x480_mode8_w0_mirrorH_param
 *fill*         0x0801b9f6        0x2 
 .rodata.VS4210_bt656_PAL_800x480_mode8_w0_param
                0x0801b9f8       0x1a build/VS4210_param_Modex26.o
                0x0801b9f8                VS4210_bt656_PAL_800x480_mode8_w0_param
 *fill*         0x0801ba12        0x2 
 .rodata.VS4210_bt656_PAL_800x480_mode8_w1_mirrorH_param
                0x0801ba14       0x1a build/VS4210_param_Modex26.o
                0x0801ba14                VS4210_bt656_PAL_800x480_mode8_w1_mirrorH_param
 *fill*         0x0801ba2e        0x2 
 .rodata.VS4210_bt656_PAL_800x480_mode8_w1_param
                0x0801ba30       0x1a build/VS4210_param_Modex26.o
                0x0801ba30                VS4210_bt656_PAL_800x480_mode8_w1_param
 *fill*         0x0801ba4a        0x2 
 .rodata.VS4210_bt656_PAL_800x480_mode8_w2_mirrorH_param
                0x0801ba4c       0x1a build/VS4210_param_Modex26.o
                0x0801ba4c                VS4210_bt656_PAL_800x480_mode8_w2_mirrorH_param
 *fill*         0x0801ba66        0x2 
 .rodata.VS4210_bt656_PAL_800x480_mode8_w2_param
                0x0801ba68       0x1a build/VS4210_param_Modex26.o
                0x0801ba68                VS4210_bt656_PAL_800x480_mode8_w2_param
 *fill*         0x0801ba82        0x2 
 .rodata.VS4210_bt656_PAL_800x480_mode9_w0_mirrorH_param
                0x0801ba84       0x1a build/VS4210_param_Modex26.o
                0x0801ba84                VS4210_bt656_PAL_800x480_mode9_w0_mirrorH_param
 *fill*         0x0801ba9e        0x2 
 .rodata.VS4210_bt656_PAL_800x480_mode9_w0_param
                0x0801baa0       0x1a build/VS4210_param_Modex26.o
                0x0801baa0                VS4210_bt656_PAL_800x480_mode9_w0_param
 *fill*         0x0801baba        0x2 
 .rodata.VS4210_bt656_PAL_800x480_mode9_w1_mirrorH_param
                0x0801babc       0x1a build/VS4210_param_Modex26.o
                0x0801babc                VS4210_bt656_PAL_800x480_mode9_w1_mirrorH_param
 *fill*         0x0801bad6        0x2 
 .rodata.VS4210_bt656_PAL_800x480_mode9_w1_param
                0x0801bad8       0x1a build/VS4210_param_Modex26.o
                0x0801bad8                VS4210_bt656_PAL_800x480_mode9_w1_param
 *fill*         0x0801baf2        0x2 
 .rodata.VS4210_bt656_PAL_800x480_mode9_w2_mirrorH_param
                0x0801baf4       0x1a build/VS4210_param_Modex26.o
                0x0801baf4                VS4210_bt656_PAL_800x480_mode9_w2_mirrorH_param
 *fill*         0x0801bb0e        0x2 
 .rodata.VS4210_bt656_PAL_800x480_mode9_w2_param
                0x0801bb10       0x1a build/VS4210_param_Modex26.o
                0x0801bb10                VS4210_bt656_PAL_800x480_mode9_w2_param
 *fill*         0x0801bb2a        0x2 
 .rodata.ChangeVideoData.str1.4
                0x0801bb2c       0x16 build/VX_OSD_Simple.o
 *fill*         0x0801bb42        0x2 
 .rodata.CloseOSDINFO.str1.4
                0x0801bb44       0x1e build/VX_OSD_Simple.o
 *fill*         0x0801bb62        0x2 
 .rodata.DisplayVolumebar.str1.4
                0x0801bb64       0x3e build/VX_OSD_Simple.o
 *fill*         0x0801bba2        0x2 
 .rodata.ShowGrabberLinerOSD.str1.4
                0x0801bba4       0x5b build/VX_OSD_Simple.o
 *fill*         0x0801bbff        0x1 
 .rodata.CLRGrabberMessage.str1.4
                0x0801bc00       0x15 build/VX_OSD_Simple.o
 *fill*         0x0801bc15        0x3 
 .rodata.ShowCOCOSD2.str1.4
                0x0801bc18       0x11 build/VX_OSD_Simple.o
 *fill*         0x0801bc29        0x3 
 .rodata.ShowJUMPOSD.str1.4
                0x0801bc2c       0x24 build/VX_OSD_Simple.o
 .rodata.ShowTRIGOSD.str1.4
                0x0801bc50       0x27 build/VX_OSD_Simple.o
 *fill*         0x0801bc77        0x1 
 .rodata.VX_Write_OSD_In_OutString.str1.4
                0x0801bc78       0x1f build/VX_OSD_Simple.o
 *fill*         0x0801bc97        0x1 
 .rodata.SetItemValue.str1.4
                0x0801bc98       0x46 build/VX_OSD_Simple.o
 *fill*         0x0801bcde        0x2 
 .rodata.SHOWOSDINFO.str1.4
                0x0801bce0       0x13 build/VX_OSD_Simple.o
 *fill*         0x0801bcf3        0x1 
 .rodata.CloseOSDMenu.str1.4
                0x0801bcf4       0x11 build/VX_OSD_Simple.o
 *fill*         0x0801bd05        0x3 
 .rodata.DoAction.str1.4
                0x0801bd08       0x6e build/VX_OSD_Simple.o
 *fill*         0x0801bd76        0x2 
 .rodata.ShowTPMSOSD.str1.4
                0x0801bd78       0x17 build/VX_OSD_Simple.o
 *fill*         0x0801bd8f        0x1 
 .rodata.OpenOSDMenu.str1.4
                0x0801bd90        0xe build/VX_OSD_Simple.o
 *fill*         0x0801bd9e        0x2 
 .rodata.TouchDisplayCursor.str1.4
                0x0801bda0       0xa9 build/VX_OSD_Simple.o
 *fill*         0x0801be49        0x3 
 .rodata.OSDSelect.str1.4
                0x0801be4c       0xdb build/VX_OSD_Simple.o
 *fill*         0x0801bf27        0x1 
 .rodata.VXOSD_UseFont_init.str1.4
                0x0801bf28       0x13 build/VX_OSD_Simple.o
 *fill*         0x0801bf3b        0x1 
 .rodata.GrabberMessage
                0x0801bf3c       0x17 build/VX_OSD_Simple.o
 *fill*         0x0801bf53        0x1 
 .rodata.GrabberMessageCLR
                0x0801bf54       0x17 build/VX_OSD_Simple.o
 *fill*         0x0801bf6b        0x1 
 .rodata.IMAGE_A_String
                0x0801bf6c       0x25 build/VX_OSD_Simple.o
 *fill*         0x0801bf91        0x3 
 .rodata.IMAGE_B_String
                0x0801bf94       0x25 build/VX_OSD_Simple.o
 *fill*         0x0801bfb9        0x3 
 .rodata.IMAGE_C_String
                0x0801bfbc       0x25 build/VX_OSD_Simple.o
 *fill*         0x0801bfe1        0x3 
 .rodata.JUMPString
                0x0801bfe4       0x4d build/VX_OSD_Simple.o
 *fill*         0x0801c031        0x3 
 .rodata.ONOFFChoiceString
                0x0801c034        0xa build/VX_OSD_Simple.o
 *fill*         0x0801c03e        0x2 
 .rodata.OSD_1280x720P_param
                0x0801c040        0xb build/VX_OSD_Simple.o
 *fill*         0x0801c04b        0x1 
 .rodata.OSD_1920x1080I_param
                0x0801c04c        0xb build/VX_OSD_Simple.o
 *fill*         0x0801c057        0x1 
 .rodata.OSD_1920x1080P_param
                0x0801c058        0xb build/VX_OSD_Simple.o
 *fill*         0x0801c063        0x1 
 .rodata.OSD_720x480I60_param
                0x0801c064        0xb build/VX_OSD_Simple.o
 *fill*         0x0801c06f        0x1 
 .rodata.OSD_720x480P60_param
                0x0801c070        0xb build/VX_OSD_Simple.o
 *fill*         0x0801c07b        0x1 
 .rodata.OSD_720x576I50_param
                0x0801c07c        0xb build/VX_OSD_Simple.o
 *fill*         0x0801c087        0x1 
 .rodata.OSD_720x576P50_param
                0x0801c088        0xb build/VX_OSD_Simple.o
 *fill*         0x0801c093        0x1 
 .rodata.OSD_CH0_param
                0x0801c094        0x7 build/VX_OSD_Simple.o
 *fill*         0x0801c09b        0x1 
 .rodata.OSD_CH1_param
                0x0801c09c        0x7 build/VX_OSD_Simple.o
 *fill*         0x0801c0a3        0x1 
 .rodata.OSD_CH2_param
                0x0801c0a4        0x7 build/VX_OSD_Simple.o
 *fill*         0x0801c0ab        0x1 
 .rodata.OSD_CH3_param
                0x0801c0ac        0x7 build/VX_OSD_Simple.o
 *fill*         0x0801c0b3        0x1 
 .rodata.OSD_CH4_param
                0x0801c0b4        0x7 build/VX_OSD_Simple.o
 *fill*         0x0801c0bb        0x1 
 .rodata.OSD_No_Signal_param
                0x0801c0bc        0xb build/VX_OSD_Simple.o
 *fill*         0x0801c0c7        0x1 
 .rodata.REARString
                0x0801c0c8       0x1b build/VX_OSD_Simple.o
 *fill*         0x0801c0e3        0x1 
 .rodata.Str_Auto_Day_Night
                0x0801c0e4        0xc build/VX_OSD_Simple.o
 .rodata.Str_Auto_Sleeping
                0x0801c0f0        0xe build/VX_OSD_Simple.o
 *fill*         0x0801c0fe        0x2 
 .rodata.Str_Brightness
                0x0801c100        0xb build/VX_OSD_Simple.o
 *fill*         0x0801c10b        0x1 
 .rodata.Str_CAM_A
                0x0801c10c        0x6 build/VX_OSD_Simple.o
 *fill*         0x0801c112        0x2 
 .rodata.Str_CAM_B
                0x0801c114        0x6 build/VX_OSD_Simple.o
 *fill*         0x0801c11a        0x2 
 .rodata.Str_CAM_C
                0x0801c11c        0x6 build/VX_OSD_Simple.o
 *fill*         0x0801c122        0x2 
 .rodata.Str_CAM_D
                0x0801c124        0x6 build/VX_OSD_Simple.o
 *fill*         0x0801c12a        0x2 
 .rodata.Str_CAM_R
                0x0801c12c        0x6 build/VX_OSD_Simple.o
 *fill*         0x0801c132        0x2 
 .rodata.Str_COCOSD
                0x0801c134        0x4 build/VX_OSD_Simple.o
 .rodata.Str_COC_DOSD
                0x0801c138        0x3 build/VX_OSD_Simple.o
 *fill*         0x0801c13b        0x1 
 .rodata.Str_COC_DOSD1
                0x0801c13c        0x3 build/VX_OSD_Simple.o
 *fill*         0x0801c13f        0x1 
 .rodata.Str_COC_LOSD
                0x0801c140        0x3 build/VX_OSD_Simple.o
 *fill*         0x0801c143        0x1 
 .rodata.Str_COC_LOSD1
                0x0801c144        0x3 build/VX_OSD_Simple.o
 *fill*         0x0801c147        0x1 
 .rodata.Str_COC_MENUOSD
                0x0801c148        0x3 build/VX_OSD_Simple.o
 *fill*         0x0801c14b        0x1 
 .rodata.Str_COC_MENUOSD1
                0x0801c14c        0x3 build/VX_OSD_Simple.o
 *fill*         0x0801c14f        0x1 
 .rodata.Str_COC_OSD
                0x0801c150       0x28 build/VX_OSD_Simple.o
 .rodata.Str_COC_ROSD
                0x0801c178        0x3 build/VX_OSD_Simple.o
 *fill*         0x0801c17b        0x1 
 .rodata.Str_COC_ROSD1
                0x0801c17c        0x3 build/VX_OSD_Simple.o
 *fill*         0x0801c17f        0x1 
 .rodata.Str_COC_UOSD
                0x0801c180        0x3 build/VX_OSD_Simple.o
 *fill*         0x0801c183        0x1 
 .rodata.Str_COC_UOSD1
                0x0801c184        0x3 build/VX_OSD_Simple.o
 *fill*         0x0801c187        0x1 
 .rodata.Str_Contrast
                0x0801c188        0x9 build/VX_OSD_Simple.o
 *fill*         0x0801c191        0x3 
 .rodata.Str_DIR_IMAGE_CAMA
                0x0801c194        0xc build/VX_OSD_Simple.o
 .rodata.Str_DIR_IMAGE_CAMB
                0x0801c1a0        0xc build/VX_OSD_Simple.o
 .rodata.Str_DIR_IMAGE_CAMC
                0x0801c1ac        0xc build/VX_OSD_Simple.o
 .rodata.Str_DIR_IMAGE_CAMR
                0x0801c1b8        0xc build/VX_OSD_Simple.o
 .rodata.Str_DISPLAY
                0x0801c1c4        0xc build/VX_OSD_Simple.o
 .rodata.Str_DISTANCE
                0x0801c1d0        0xf build/VX_OSD_Simple.o
 *fill*         0x0801c1df        0x1 
 .rodata.Str_Exit
                0x0801c1e0       0x15 build/VX_OSD_Simple.o
 *fill*         0x0801c1f5        0x3 
 .rodata.Str_GAUGE_OSD0
                0x0801c1f8       0x15 build/VX_OSD_Simple.o
 *fill*         0x0801c20d        0x3 
 .rodata.Str_GAUGE_OSD1
                0x0801c210       0x15 build/VX_OSD_Simple.o
 *fill*         0x0801c225        0x3 
 .rodata.Str_GAUGE_OSD2
                0x0801c228       0x15 build/VX_OSD_Simple.o
 *fill*         0x0801c23d        0x3 
 .rodata.Str_GAUGE_OSD3
                0x0801c240       0x15 build/VX_OSD_Simple.o
 *fill*         0x0801c255        0x3 
 .rodata.Str_GAUGE_OSD4
                0x0801c258       0x15 build/VX_OSD_Simple.o
 *fill*         0x0801c26d        0x3 
 .rodata.Str_GAUGE_OSD5
                0x0801c270       0x15 build/VX_OSD_Simple.o
 *fill*         0x0801c285        0x3 
 .rodata.Str_GAUGE_OSD6
                0x0801c288       0x15 build/VX_OSD_Simple.o
 *fill*         0x0801c29d        0x3 
 .rodata.Str_GAUGE_OSD7
                0x0801c2a0       0x15 build/VX_OSD_Simple.o
 *fill*         0x0801c2b5        0x3 
 .rodata.Str_GAUGE_Width
                0x0801c2b8       0x28 build/VX_OSD_Simple.o
 .rodata.Str_GAUGE_Width10
                0x0801c2e0       0x12 build/VX_OSD_Simple.o
 *fill*         0x0801c2f2        0x2 
 .rodata.Str_GAUGE_Width11
                0x0801c2f4       0x12 build/VX_OSD_Simple.o
 *fill*         0x0801c306        0x2 
 .rodata.Str_GAUGE_Width12
                0x0801c308       0x12 build/VX_OSD_Simple.o
 *fill*         0x0801c31a        0x2 
 .rodata.Str_GAUGE_Width13
                0x0801c31c       0x12 build/VX_OSD_Simple.o
 *fill*         0x0801c32e        0x2 
 .rodata.Str_GAUGE_Width14
                0x0801c330       0x12 build/VX_OSD_Simple.o
 *fill*         0x0801c342        0x2 
 .rodata.Str_GAUGE_Width15
                0x0801c344       0x12 build/VX_OSD_Simple.o
 *fill*         0x0801c356        0x2 
 .rodata.Str_GAUGE_Width16
                0x0801c358       0x12 build/VX_OSD_Simple.o
 *fill*         0x0801c36a        0x2 
 .rodata.Str_GAUGE_Width17
                0x0801c36c       0x12 build/VX_OSD_Simple.o
 *fill*         0x0801c37e        0x2 
 .rodata.Str_GAUGE_Width20
                0x0801c380       0x11 build/VX_OSD_Simple.o
 *fill*         0x0801c391        0x3 
 .rodata.Str_GAUGE_Width21
                0x0801c394       0x11 build/VX_OSD_Simple.o
 *fill*         0x0801c3a5        0x3 
 .rodata.Str_GAUGE_Width22
                0x0801c3a8       0x11 build/VX_OSD_Simple.o
 *fill*         0x0801c3b9        0x3 
 .rodata.Str_GAUGE_Width23
                0x0801c3bc       0x11 build/VX_OSD_Simple.o
 *fill*         0x0801c3cd        0x3 
 .rodata.Str_GAUGE_Width24
                0x0801c3d0       0x11 build/VX_OSD_Simple.o
 *fill*         0x0801c3e1        0x3 
 .rodata.Str_GAUGE_Width25
                0x0801c3e4       0x11 build/VX_OSD_Simple.o
 *fill*         0x0801c3f5        0x3 
 .rodata.Str_GAUGE_Width26
                0x0801c3f8       0x11 build/VX_OSD_Simple.o
 *fill*         0x0801c409        0x3 
 .rodata.Str_GAUGE_Width27
                0x0801c40c       0x11 build/VX_OSD_Simple.o
 *fill*         0x0801c41d        0x3 
 .rodata.Str_GAUGE_Width30
                0x0801c420       0x10 build/VX_OSD_Simple.o
 .rodata.Str_GAUGE_Width31
                0x0801c430       0x10 build/VX_OSD_Simple.o
 .rodata.Str_GAUGE_Width32
                0x0801c440       0x10 build/VX_OSD_Simple.o
 .rodata.Str_GAUGE_Width33
                0x0801c450       0x10 build/VX_OSD_Simple.o
 .rodata.Str_GAUGE_Width34
                0x0801c460       0x10 build/VX_OSD_Simple.o
 .rodata.Str_GAUGE_Width35
                0x0801c470       0x10 build/VX_OSD_Simple.o
 .rodata.Str_GAUGE_Width36
                0x0801c480       0x10 build/VX_OSD_Simple.o
 .rodata.Str_GAUGE_Width37
                0x0801c490       0x10 build/VX_OSD_Simple.o
 .rodata.Str_GAUGE_Width40
                0x0801c4a0        0xf build/VX_OSD_Simple.o
 *fill*         0x0801c4af        0x1 
 .rodata.Str_GAUGE_Width41
                0x0801c4b0        0xf build/VX_OSD_Simple.o
 *fill*         0x0801c4bf        0x1 
 .rodata.Str_GAUGE_Width42
                0x0801c4c0        0xf build/VX_OSD_Simple.o
 *fill*         0x0801c4cf        0x1 
 .rodata.Str_GAUGE_Width43
                0x0801c4d0        0xf build/VX_OSD_Simple.o
 *fill*         0x0801c4df        0x1 
 .rodata.Str_GAUGE_Width44
                0x0801c4e0        0xf build/VX_OSD_Simple.o
 *fill*         0x0801c4ef        0x1 
 .rodata.Str_GAUGE_Width45
                0x0801c4f0        0xf build/VX_OSD_Simple.o
 *fill*         0x0801c4ff        0x1 
 .rodata.Str_GAUGE_Width46
                0x0801c500        0xf build/VX_OSD_Simple.o
 *fill*         0x0801c50f        0x1 
 .rodata.Str_GAUGE_Width47
                0x0801c510        0xf build/VX_OSD_Simple.o
 *fill*         0x0801c51f        0x1 
 .rodata.Str_GAUGE_Width50
                0x0801c520        0xe build/VX_OSD_Simple.o
 *fill*         0x0801c52e        0x2 
 .rodata.Str_GAUGE_Width51
                0x0801c530        0xe build/VX_OSD_Simple.o
 *fill*         0x0801c53e        0x2 
 .rodata.Str_GAUGE_Width52
                0x0801c540        0xe build/VX_OSD_Simple.o
 *fill*         0x0801c54e        0x2 
 .rodata.Str_GAUGE_Width53
                0x0801c550        0xe build/VX_OSD_Simple.o
 *fill*         0x0801c55e        0x2 
 .rodata.Str_GAUGE_Width54
                0x0801c560        0xe build/VX_OSD_Simple.o
 *fill*         0x0801c56e        0x2 
 .rodata.Str_GAUGE_Width55
                0x0801c570        0xe build/VX_OSD_Simple.o
 *fill*         0x0801c57e        0x2 
 .rodata.Str_GAUGE_Width56
                0x0801c580        0xe build/VX_OSD_Simple.o
 *fill*         0x0801c58e        0x2 
 .rodata.Str_GAUGE_Width57
                0x0801c590        0xe build/VX_OSD_Simple.o
 *fill*         0x0801c59e        0x2 
 .rodata.Str_GAUGE_Width60
                0x0801c5a0        0xd build/VX_OSD_Simple.o
 *fill*         0x0801c5ad        0x3 
 .rodata.Str_GAUGE_Width61
                0x0801c5b0        0xd build/VX_OSD_Simple.o
 *fill*         0x0801c5bd        0x3 
 .rodata.Str_GAUGE_Width62
                0x0801c5c0        0xd build/VX_OSD_Simple.o
 *fill*         0x0801c5cd        0x3 
 .rodata.Str_GAUGE_Width63
                0x0801c5d0        0xd build/VX_OSD_Simple.o
 *fill*         0x0801c5dd        0x3 
 .rodata.Str_GAUGE_Width64
                0x0801c5e0        0xd build/VX_OSD_Simple.o
 *fill*         0x0801c5ed        0x3 
 .rodata.Str_GAUGE_Width65
                0x0801c5f0        0xd build/VX_OSD_Simple.o
 *fill*         0x0801c5fd        0x3 
 .rodata.Str_GAUGE_Width66
                0x0801c600        0xd build/VX_OSD_Simple.o
 *fill*         0x0801c60d        0x3 
 .rodata.Str_GAUGE_Width67
                0x0801c610        0xd build/VX_OSD_Simple.o
 *fill*         0x0801c61d        0x3 
 .rodata.Str_GAUGE_Width70
                0x0801c620        0xc build/VX_OSD_Simple.o
 .rodata.Str_GAUGE_Width71
                0x0801c62c        0xc build/VX_OSD_Simple.o
 .rodata.Str_GAUGE_Width72
                0x0801c638        0xc build/VX_OSD_Simple.o
 .rodata.Str_GAUGE_Width73
                0x0801c644        0xc build/VX_OSD_Simple.o
 .rodata.Str_GAUGE_Width74
                0x0801c650        0xc build/VX_OSD_Simple.o
 .rodata.Str_GAUGE_Width75
                0x0801c65c        0xc build/VX_OSD_Simple.o
 .rodata.Str_GAUGE_Width76
                0x0801c668        0xc build/VX_OSD_Simple.o
 .rodata.Str_GAUGE_Width77
                0x0801c674        0xc build/VX_OSD_Simple.o
 .rodata.Str_GAUGE_Width80
                0x0801c680        0xb build/VX_OSD_Simple.o
 *fill*         0x0801c68b        0x1 
 .rodata.Str_GAUGE_Width81
                0x0801c68c        0xb build/VX_OSD_Simple.o
 *fill*         0x0801c697        0x1 
 .rodata.Str_GAUGE_Width82
                0x0801c698        0xb build/VX_OSD_Simple.o
 *fill*         0x0801c6a3        0x1 
 .rodata.Str_GAUGE_Width83
                0x0801c6a4        0xb build/VX_OSD_Simple.o
 *fill*         0x0801c6af        0x1 
 .rodata.Str_GAUGE_Width84
                0x0801c6b0        0xb build/VX_OSD_Simple.o
 *fill*         0x0801c6bb        0x1 
 .rodata.Str_GAUGE_Width85
                0x0801c6bc        0xb build/VX_OSD_Simple.o
 *fill*         0x0801c6c7        0x1 
 .rodata.Str_GAUGE_Width86
                0x0801c6c8        0xb build/VX_OSD_Simple.o
 *fill*         0x0801c6d3        0x1 
 .rodata.Str_GAUGE_Width87
                0x0801c6d4        0xb build/VX_OSD_Simple.o
 *fill*         0x0801c6df        0x1 
 .rodata.Str_GAUGE_Width90
                0x0801c6e0        0xa build/VX_OSD_Simple.o
 *fill*         0x0801c6ea        0x2 
 .rodata.Str_GAUGE_Width91
                0x0801c6ec        0xa build/VX_OSD_Simple.o
 *fill*         0x0801c6f6        0x2 
 .rodata.Str_GAUGE_Width92
                0x0801c6f8        0xa build/VX_OSD_Simple.o
 *fill*         0x0801c702        0x2 
 .rodata.Str_GAUGE_Width93
                0x0801c704        0xa build/VX_OSD_Simple.o
 *fill*         0x0801c70e        0x2 
 .rodata.Str_GAUGE_Width94
                0x0801c710        0xa build/VX_OSD_Simple.o
 *fill*         0x0801c71a        0x2 
 .rodata.Str_GAUGE_Width95
                0x0801c71c        0xa build/VX_OSD_Simple.o
 *fill*         0x0801c726        0x2 
 .rodata.Str_GAUGE_Width96
                0x0801c728        0xa build/VX_OSD_Simple.o
 *fill*         0x0801c732        0x2 
 .rodata.Str_GAUGE_Width97
                0x0801c734        0xa build/VX_OSD_Simple.o
 *fill*         0x0801c73e        0x2 
 .rodata.Str_GRABBER_OSD
                0x0801c740       0x1c build/VX_OSD_Simple.o
 .rodata.Str_GRABBER_OSD10
                0x0801c75c        0x8 build/VX_OSD_Simple.o
 .rodata.Str_GRABBER_OSD11
                0x0801c764        0x8 build/VX_OSD_Simple.o
 .rodata.Str_GRABBER_OSD12
                0x0801c76c        0x8 build/VX_OSD_Simple.o
 .rodata.Str_GRABBER_OSD13
                0x0801c774        0x8 build/VX_OSD_Simple.o
 .rodata.Str_GRABBER_OSD14
                0x0801c77c        0x8 build/VX_OSD_Simple.o
 .rodata.Str_GRABBER_OSD15
                0x0801c784        0x8 build/VX_OSD_Simple.o
 .rodata.Str_GRABBER_OSD16
                0x0801c78c        0x8 build/VX_OSD_Simple.o
 .rodata.Str_GRABBER_OSD17
                0x0801c794        0x8 build/VX_OSD_Simple.o
 .rodata.Str_GRABBER_OSD20
                0x0801c79c        0xa build/VX_OSD_Simple.o
 *fill*         0x0801c7a6        0x2 
 .rodata.Str_GRABBER_OSD21
                0x0801c7a8        0xa build/VX_OSD_Simple.o
 *fill*         0x0801c7b2        0x2 
 .rodata.Str_GRABBER_OSD22
                0x0801c7b4        0xa build/VX_OSD_Simple.o
 *fill*         0x0801c7be        0x2 
 .rodata.Str_GRABBER_OSD23
                0x0801c7c0        0xa build/VX_OSD_Simple.o
 *fill*         0x0801c7ca        0x2 
 .rodata.Str_GRABBER_OSD24
                0x0801c7cc        0xa build/VX_OSD_Simple.o
 *fill*         0x0801c7d6        0x2 
 .rodata.Str_GRABBER_OSD25
                0x0801c7d8        0xa build/VX_OSD_Simple.o
 *fill*         0x0801c7e2        0x2 
 .rodata.Str_GRABBER_OSD26
                0x0801c7e4        0xa build/VX_OSD_Simple.o
 *fill*         0x0801c7ee        0x2 
 .rodata.Str_GRABBER_OSD27
                0x0801c7f0        0xa build/VX_OSD_Simple.o
 *fill*         0x0801c7fa        0x2 
 .rodata.Str_GRABBER_OSD30
                0x0801c7fc        0xc build/VX_OSD_Simple.o
 .rodata.Str_GRABBER_OSD31
                0x0801c808        0xc build/VX_OSD_Simple.o
 .rodata.Str_GRABBER_OSD32
                0x0801c814        0xc build/VX_OSD_Simple.o
 .rodata.Str_GRABBER_OSD33
                0x0801c820        0xc build/VX_OSD_Simple.o
 .rodata.Str_GRABBER_OSD34
                0x0801c82c        0xc build/VX_OSD_Simple.o
 .rodata.Str_GRABBER_OSD35
                0x0801c838        0xc build/VX_OSD_Simple.o
 .rodata.Str_GRABBER_OSD36
                0x0801c844        0xc build/VX_OSD_Simple.o
 .rodata.Str_GRABBER_OSD37
                0x0801c850        0xc build/VX_OSD_Simple.o
 .rodata.Str_GRABBER_OSD40
                0x0801c85c        0xe build/VX_OSD_Simple.o
 *fill*         0x0801c86a        0x2 
 .rodata.Str_GRABBER_OSD41
                0x0801c86c        0xe build/VX_OSD_Simple.o
 *fill*         0x0801c87a        0x2 
 .rodata.Str_GRABBER_OSD42
                0x0801c87c        0xe build/VX_OSD_Simple.o
 *fill*         0x0801c88a        0x2 
 .rodata.Str_GRABBER_OSD43
                0x0801c88c        0xe build/VX_OSD_Simple.o
 *fill*         0x0801c89a        0x2 
 .rodata.Str_GRABBER_OSD44
                0x0801c89c        0xe build/VX_OSD_Simple.o
 *fill*         0x0801c8aa        0x2 
 .rodata.Str_GRABBER_OSD45
                0x0801c8ac        0xe build/VX_OSD_Simple.o
 *fill*         0x0801c8ba        0x2 
 .rodata.Str_GRABBER_OSD46
                0x0801c8bc        0xe build/VX_OSD_Simple.o
 *fill*         0x0801c8ca        0x2 
 .rodata.Str_GRABBER_OSD47
                0x0801c8cc        0xe build/VX_OSD_Simple.o
 *fill*         0x0801c8da        0x2 
 .rodata.Str_GRABBER_OSD50
                0x0801c8dc       0x10 build/VX_OSD_Simple.o
 .rodata.Str_GRABBER_OSD51
                0x0801c8ec       0x10 build/VX_OSD_Simple.o
 .rodata.Str_GRABBER_OSD52
                0x0801c8fc       0x10 build/VX_OSD_Simple.o
 .rodata.Str_GRABBER_OSD53
                0x0801c90c       0x10 build/VX_OSD_Simple.o
 .rodata.Str_GRABBER_OSD54
                0x0801c91c       0x10 build/VX_OSD_Simple.o
 .rodata.Str_GRABBER_OSD55
                0x0801c92c       0x10 build/VX_OSD_Simple.o
 .rodata.Str_GRABBER_OSD56
                0x0801c93c       0x10 build/VX_OSD_Simple.o
 .rodata.Str_GRABBER_OSD57
                0x0801c94c       0x10 build/VX_OSD_Simple.o
 .rodata.Str_GRABBER_OSD60
                0x0801c95c       0x12 build/VX_OSD_Simple.o
 *fill*         0x0801c96e        0x2 
 .rodata.Str_GRABBER_OSD61
                0x0801c970       0x12 build/VX_OSD_Simple.o
 *fill*         0x0801c982        0x2 
 .rodata.Str_GRABBER_OSD62
                0x0801c984       0x12 build/VX_OSD_Simple.o
 *fill*         0x0801c996        0x2 
 .rodata.Str_GRABBER_OSD63
                0x0801c998       0x12 build/VX_OSD_Simple.o
 *fill*         0x0801c9aa        0x2 
 .rodata.Str_GRABBER_OSD64
                0x0801c9ac       0x12 build/VX_OSD_Simple.o
 *fill*         0x0801c9be        0x2 
 .rodata.Str_GRABBER_OSD65
                0x0801c9c0       0x12 build/VX_OSD_Simple.o
 *fill*         0x0801c9d2        0x2 
 .rodata.Str_GRABBER_OSD66
                0x0801c9d4       0x12 build/VX_OSD_Simple.o
 *fill*         0x0801c9e6        0x2 
 .rodata.Str_GRABBER_OSD67
                0x0801c9e8       0x12 build/VX_OSD_Simple.o
 *fill*         0x0801c9fa        0x2 
 .rodata.Str_GRABBER_OSD70
                0x0801c9fc       0x14 build/VX_OSD_Simple.o
 .rodata.Str_GRABBER_OSD71
                0x0801ca10       0x14 build/VX_OSD_Simple.o
 .rodata.Str_GRABBER_OSD72
                0x0801ca24       0x14 build/VX_OSD_Simple.o
 .rodata.Str_GRABBER_OSD73
                0x0801ca38       0x14 build/VX_OSD_Simple.o
 .rodata.Str_GRABBER_OSD74
                0x0801ca4c       0x14 build/VX_OSD_Simple.o
 .rodata.Str_GRABBER_OSD75
                0x0801ca60       0x14 build/VX_OSD_Simple.o
 .rodata.Str_GRABBER_OSD76
                0x0801ca74       0x14 build/VX_OSD_Simple.o
 .rodata.Str_GRABBER_OSD77
                0x0801ca88       0x14 build/VX_OSD_Simple.o
 .rodata.Str_GrabberLiner
                0x0801ca9c        0xe build/VX_OSD_Simple.o
 *fill*         0x0801caaa        0x2 
 .rodata.Str_GrabberLinerSet
                0x0801caac        0xc build/VX_OSD_Simple.o
 .rodata.Str_Hue
                0x0801cab8        0x4 build/VX_OSD_Simple.o
 .rodata.Str_Input
                0x0801cabc       0x15 build/VX_OSD_Simple.o
 *fill*         0x0801cad1        0x3 
 .rodata.Str_JUMP
                0x0801cad4        0x5 build/VX_OSD_Simple.o
 *fill*         0x0801cad9        0x3 
 .rodata.Str_Luminance
                0x0801cadc        0xa build/VX_OSD_Simple.o
 *fill*         0x0801cae6        0x2 
 .rodata.Str_Menu_Clr
                0x0801cae8       0x15 build/VX_OSD_Simple.o
 *fill*         0x0801cafd        0x3 
 .rodata.Str_Menu_Cursor
                0x0801cb00       0x11 build/VX_OSD_Simple.o
 *fill*         0x0801cb11        0x3 
 .rodata.Str_Mirror
                0x0801cb14        0x7 build/VX_OSD_Simple.o
 *fill*         0x0801cb1b        0x1 
 .rodata.Str_NO
                0x0801cb1c       0x15 build/VX_OSD_Simple.o
 *fill*         0x0801cb31        0x3 
 .rodata.Str_OSD_COC
                0x0801cb34        0x4 build/VX_OSD_Simple.o
 .rodata.Str_OSD_COC2
                0x0801cb38       0x22 build/VX_OSD_Simple.o
 *fill*         0x0801cb5a        0x2 
 .rodata.Str_OSD_COC_CLR
                0x0801cb5c       0x22 build/VX_OSD_Simple.o
 *fill*         0x0801cb7e        0x2 
 .rodata.Str_OSD_JUMP
                0x0801cb80        0x3 build/VX_OSD_Simple.o
 *fill*         0x0801cb83        0x1 
 .rodata.Str_OSD_LOCK
                0x0801cb84        0x9 build/VX_OSD_Simple.o
 *fill*         0x0801cb8d        0x3 
 .rodata.Str_OSD_LOCK2
                0x0801cb90       0x15 build/VX_OSD_Simple.o
 *fill*         0x0801cba5        0x3 
 .rodata.Str_OSD_MIRROR
                0x0801cba8        0x2 build/VX_OSD_Simple.o
 *fill*         0x0801cbaa        0x2 
 .rodata.Str_OSD_SEQ
                0x0801cbac        0x3 build/VX_OSD_Simple.o
 *fill*         0x0801cbaf        0x1 
 .rodata.Str_OSD_SPEAKER
                0x0801cbb0        0x3 build/VX_OSD_Simple.o
 *fill*         0x0801cbb3        0x1 
 .rodata.Str_OSD_SPEAKER_MUTE
                0x0801cbb4        0x3 build/VX_OSD_Simple.o
 *fill*         0x0801cbb7        0x1 
 .rodata.Str_OSD_TRI_CAMC
                0x0801cbb8        0x2 build/VX_OSD_Simple.o
                0x0801cbb8                Str_OSD_TRI_CAMC
 *fill*         0x0801cbba        0x2 
 .rodata.Str_OSD_TRI_CAMD
                0x0801cbbc        0x2 build/VX_OSD_Simple.o
                0x0801cbbc                Str_OSD_TRI_CAMD
 *fill*         0x0801cbbe        0x2 
 .rodata.Str_OSD_TRI_CAMR
                0x0801cbc0        0x2 build/VX_OSD_Simple.o
                0x0801cbc0                Str_OSD_TRI_CAMR
 *fill*         0x0801cbc2        0x2 
 .rodata.Str_OSD_TRI_CLR
                0x0801cbc4        0x2 build/VX_OSD_Simple.o
                0x0801cbc4                Str_OSD_TRI_CLR
 *fill*         0x0801cbc6        0x2 
 .rodata.Str_OSD_TRI_LEFT
                0x0801cbc8        0x2 build/VX_OSD_Simple.o
                0x0801cbc8                Str_OSD_TRI_LEFT
 *fill*         0x0801cbca        0x2 
 .rodata.Str_OSD_TRI_RIGHT
                0x0801cbcc        0x2 build/VX_OSD_Simple.o
                0x0801cbcc                Str_OSD_TRI_RIGHT
 *fill*         0x0801cbce        0x2 
 .rodata.Str_OSD_UNLOCK
                0x0801cbd0       0x15 build/VX_OSD_Simple.o
 *fill*         0x0801cbe5        0x3 
 .rodata.Str_PRIORITY
                0x0801cbe8        0x9 build/VX_OSD_Simple.o
 *fill*         0x0801cbf1        0x3 
 .rodata.Str_Picture
                0x0801cbf4       0x15 build/VX_OSD_Simple.o
 *fill*         0x0801cc09        0x3 
 .rodata.Str_Position
                0x0801cc0c        0x9 build/VX_OSD_Simple.o
 *fill*         0x0801cc15        0x3 
 .rodata.Str_RECALL
                0x0801cc18        0x7 build/VX_OSD_Simple.o
 *fill*         0x0801cc1f        0x1 
 .rodata.Str_RESET
                0x0801cc20        0x4 build/VX_OSD_Simple.o
 .rodata.Str_Return
                0x0801cc24       0x15 build/VX_OSD_Simple.o
 *fill*         0x0801cc39        0x3 
 .rodata.Str_SEQ_Time_step
                0x0801cc3c        0xe build/VX_OSD_Simple.o
 *fill*         0x0801cc4a        0x2 
 .rodata.Str_Saturation
                0x0801cc4c        0xb build/VX_OSD_Simple.o
 *fill*         0x0801cc57        0x1 
 .rodata.Str_Setting
                0x0801cc58        0x8 build/VX_OSD_Simple.o
 .rodata.Str_Sharpness
                0x0801cc60        0xa build/VX_OSD_Simple.o
 *fill*         0x0801cc6a        0x2 
 .rodata.Str_TPMS_NUM0
                0x0801cc6c        0x3 build/VX_OSD_Simple.o
 *fill*         0x0801cc6f        0x1 
 .rodata.Str_TPMS_NUM1
                0x0801cc70        0x3 build/VX_OSD_Simple.o
 *fill*         0x0801cc73        0x1 
 .rodata.Str_TPMS_NUM2
                0x0801cc74        0x3 build/VX_OSD_Simple.o
 *fill*         0x0801cc77        0x1 
 .rodata.Str_TPMS_NUM3
                0x0801cc78        0x3 build/VX_OSD_Simple.o
 *fill*         0x0801cc7b        0x1 
 .rodata.Str_TPMS_NUM4
                0x0801cc7c        0x3 build/VX_OSD_Simple.o
 *fill*         0x0801cc7f        0x1 
 .rodata.Str_TPMS_NUM5
                0x0801cc80        0x3 build/VX_OSD_Simple.o
 *fill*         0x0801cc83        0x1 
 .rodata.Str_TPMS_OSD0
                0x0801cc84       0x15 build/VX_OSD_Simple.o
 *fill*         0x0801cc99        0x3 
 .rodata.Str_TPMS_OSD1
                0x0801cc9c       0x15 build/VX_OSD_Simple.o
 *fill*         0x0801ccb1        0x3 
 .rodata.Str_TPMS_OSD2
                0x0801ccb4       0x15 build/VX_OSD_Simple.o
 *fill*         0x0801ccc9        0x3 
 .rodata.Str_TPMS_OSD3
                0x0801cccc       0x15 build/VX_OSD_Simple.o
 *fill*         0x0801cce1        0x3 
 .rodata.Str_TPMS_OSD4
                0x0801cce4       0x15 build/VX_OSD_Simple.o
 *fill*         0x0801ccf9        0x3 
 .rodata.Str_TPMS_OSD5
                0x0801ccfc       0x15 build/VX_OSD_Simple.o
 *fill*         0x0801cd11        0x3 
 .rodata.Str_TPMS_OSD6
                0x0801cd14       0x15 build/VX_OSD_Simple.o
 *fill*         0x0801cd29        0x3 
 .rodata.Str_TPMS_OSD7
                0x0801cd2c       0x15 build/VX_OSD_Simple.o
 *fill*         0x0801cd41        0x3 
 .rodata.Str_Trigger_Delay
                0x0801cd44        0xe build/VX_OSD_Simple.o
 *fill*         0x0801cd52        0x2 
 .rodata.Str_Trigger_Set
                0x0801cd54        0xc build/VX_OSD_Simple.o
 .rodata.Str_Triple_Screen_Type
                0x0801cd60        0xe build/VX_OSD_Simple.o
 *fill*         0x0801cd6e        0x2 
 .rodata.Str_Ulti
                0x0801cd70       0x15 build/VX_OSD_Simple.o
 *fill*         0x0801cd85        0x3 
 .rodata.Str_Video
                0x0801cd88       0x15 build/VX_OSD_Simple.o
 *fill*         0x0801cd9d        0x3 
 .rodata.Str_VolumeBAR
                0x0801cda0       0x15 build/VX_OSD_Simple.o
 *fill*         0x0801cdb5        0x3 
 .rodata.Str_VolumeDEC
                0x0801cdb8        0x2 build/VX_OSD_Simple.o
 *fill*         0x0801cdba        0x2 
 .rodata.Str_VolumeINC
                0x0801cdbc        0x2 build/VX_OSD_Simple.o
 *fill*         0x0801cdbe        0x2 
 .rodata.Str_VolumeTXT
                0x0801cdc0       0x15 build/VX_OSD_Simple.o
 *fill*         0x0801cdd5        0x3 
 .rodata.Str_VolumeTXTArrow
                0x0801cdd8       0x15 build/VX_OSD_Simple.o
 *fill*         0x0801cded        0x3 
 .rodata.Str_Width
                0x0801cdf0        0x6 build/VX_OSD_Simple.o
 *fill*         0x0801cdf6        0x2 
 .rodata.aLineMode1080PMode12Lin1
                0x0801cdf8        0x7 build/VX_OSD_Simple.o
                0x0801cdf8                aLineMode1080PMode12Lin1
 *fill*         0x0801cdff        0x1 
 .rodata.aLineMode1080PMode14Lin1
                0x0801ce00        0x7 build/VX_OSD_Simple.o
                0x0801ce00                aLineMode1080PMode14Lin1
 *fill*         0x0801ce07        0x1 
 .rodata.aLineMode1080PMode14Lin2
                0x0801ce08        0x7 build/VX_OSD_Simple.o
                0x0801ce08                aLineMode1080PMode14Lin2
 *fill*         0x0801ce0f        0x1 
 .rodata.aLineMode1080PMode1Lin1
                0x0801ce10        0x7 build/VX_OSD_Simple.o
                0x0801ce10                aLineMode1080PMode1Lin1
 *fill*         0x0801ce17        0x1 
 .rodata.aLineMode1080PMode1Lin2
                0x0801ce18        0x7 build/VX_OSD_Simple.o
                0x0801ce18                aLineMode1080PMode1Lin2
 *fill*         0x0801ce1f        0x1 
 .rodata.aLineMode1080PMode8Lin1
                0x0801ce20        0x7 build/VX_OSD_Simple.o
                0x0801ce20                aLineMode1080PMode8Lin1
 *fill*         0x0801ce27        0x1 
 .rodata.aLineMode1080PMode8Lin2
                0x0801ce28        0x7 build/VX_OSD_Simple.o
                0x0801ce28                aLineMode1080PMode8Lin2
 *fill*         0x0801ce2f        0x1 
 .rodata.aLineMode1080PMode9Lin1
                0x0801ce30        0x7 build/VX_OSD_Simple.o
                0x0801ce30                aLineMode1080PMode9Lin1
 *fill*         0x0801ce37        0x1 
 .rodata.aLineMode1080PMode9Lin2
                0x0801ce38        0x7 build/VX_OSD_Simple.o
                0x0801ce38                aLineMode1080PMode9Lin2
 *fill*         0x0801ce3f        0x1 
 .rodata.aLineMode720PMode12Lin1
                0x0801ce40        0x7 build/VX_OSD_Simple.o
                0x0801ce40                aLineMode720PMode12Lin1
 *fill*         0x0801ce47        0x1 
 .rodata.aLineMode720PMode14Lin1
                0x0801ce48        0x7 build/VX_OSD_Simple.o
                0x0801ce48                aLineMode720PMode14Lin1
 *fill*         0x0801ce4f        0x1 
 .rodata.aLineMode720PMode14Lin2
                0x0801ce50        0x7 build/VX_OSD_Simple.o
                0x0801ce50                aLineMode720PMode14Lin2
 *fill*         0x0801ce57        0x1 
 .rodata.aLineMode720PMode1Lin1
                0x0801ce58        0x7 build/VX_OSD_Simple.o
                0x0801ce58                aLineMode720PMode1Lin1
 *fill*         0x0801ce5f        0x1 
 .rodata.aLineMode720PMode1Lin2
                0x0801ce60        0x7 build/VX_OSD_Simple.o
                0x0801ce60                aLineMode720PMode1Lin2
 *fill*         0x0801ce67        0x1 
 .rodata.aLineMode720PMode8Lin1
                0x0801ce68        0x7 build/VX_OSD_Simple.o
                0x0801ce68                aLineMode720PMode8Lin1
 *fill*         0x0801ce6f        0x1 
 .rodata.aLineMode720PMode8Lin2
                0x0801ce70        0x7 build/VX_OSD_Simple.o
                0x0801ce70                aLineMode720PMode8Lin2
 *fill*         0x0801ce77        0x1 
 .rodata.aLineMode720PMode9Lin1
                0x0801ce78        0x7 build/VX_OSD_Simple.o
                0x0801ce78                aLineMode720PMode9Lin1
 *fill*         0x0801ce7f        0x1 
 .rodata.aLineMode720PMode9Lin2
                0x0801ce80        0x7 build/VX_OSD_Simple.o
                0x0801ce80                aLineMode720PMode9Lin2
 *fill*         0x0801ce87        0x1 
 .rodata.aLineMode800x480Mode10Lin1
                0x0801ce88        0x7 build/VX_OSD_Simple.o
                0x0801ce88                aLineMode800x480Mode10Lin1
 *fill*         0x0801ce8f        0x1 
 .rodata.aLineMode800x480Mode10Lin2
                0x0801ce90        0x7 build/VX_OSD_Simple.o
                0x0801ce90                aLineMode800x480Mode10Lin2
 *fill*         0x0801ce97        0x1 
 .rodata.aLineMode800x480Mode12Lin1
                0x0801ce98        0x7 build/VX_OSD_Simple.o
                0x0801ce98                aLineMode800x480Mode12Lin1
 *fill*         0x0801ce9f        0x1 
 .rodata.aLineMode800x480Mode14Lin1
                0x0801cea0        0x7 build/VX_OSD_Simple.o
                0x0801cea0                aLineMode800x480Mode14Lin1
 *fill*         0x0801cea7        0x1 
 .rodata.aLineMode800x480Mode14Lin2
                0x0801cea8        0x7 build/VX_OSD_Simple.o
                0x0801cea8                aLineMode800x480Mode14Lin2
 *fill*         0x0801ceaf        0x1 
 .rodata.aLineMode800x480Mode1Lin1
                0x0801ceb0        0x7 build/VX_OSD_Simple.o
                0x0801ceb0                aLineMode800x480Mode1Lin1
 *fill*         0x0801ceb7        0x1 
 .rodata.aLineMode800x480Mode1Lin2
                0x0801ceb8        0x7 build/VX_OSD_Simple.o
                0x0801ceb8                aLineMode800x480Mode1Lin2
 *fill*         0x0801cebf        0x1 
 .rodata.aLineMode800x480Mode8Lin1
                0x0801cec0        0x7 build/VX_OSD_Simple.o
                0x0801cec0                aLineMode800x480Mode8Lin1
 *fill*         0x0801cec7        0x1 
 .rodata.aLineMode800x480Mode8Lin2
                0x0801cec8        0x7 build/VX_OSD_Simple.o
                0x0801cec8                aLineMode800x480Mode8Lin2
 *fill*         0x0801cecf        0x1 
 .rodata.aLineMode800x480Mode9Lin1
                0x0801ced0        0x7 build/VX_OSD_Simple.o
                0x0801ced0                aLineMode800x480Mode9Lin1
 *fill*         0x0801ced7        0x1 
 .rodata.aLineMode800x480Mode9Lin2
                0x0801ced8        0x7 build/VX_OSD_Simple.o
                0x0801ced8                aLineMode800x480Mode9Lin2
 *fill*         0x0801cedf        0x1 
 .rodata.aLineModeReg
                0x0801cee0        0x7 build/VX_OSD_Simple.o
                0x0801cee0                aLineModeReg
 *fill*         0x0801cee7        0x1 
 .rodata.VS4210_SetInModeOutMode.str1.4
                0x0801cee8       0x3d build/VS4210.o
 *fill*         0x0801cf25        0x3 
 .rodata.VS4210_SetMutiWindows.str1.4
                0x0801cf28       0x2b build/VS4210.o
 *fill*         0x0801cf53        0x1 
 .rodata.Set_VidRes.str1.4
                0x0801cf54       0xbd build/TP2802.o
 *fill*         0x0801d011        0x3 
 .rodata.ManualAGC.str1.4
                0x0801d014       0x1b build/TP2802.o
 *fill*         0x0801d02f        0x1 
 .rodata.SetCGain.str1.4
                0x0801d030        0x9 build/TP2802.o
 *fill*         0x0801d039        0x3 
 .rodata.SETChannelReset.str1.4
                0x0801d03c       0x19 build/TP2802.o
 *fill*         0x0801d055        0x3 
 .rodata.EQ_Detect.str1.4
                0x0801d058      0x2cf build/TP2802.o
 *fill*         0x0801d327        0x1 
 .rodata.Init_TP280x_CHx_RegSet.str1.4
                0x0801d328       0xe0 build/TP2802.o
 .rodata.Init_TP280x_RegSet.str1.4
                0x0801d408       0x40 build/TP2802.o
 .rodata.Get_2824cIrq.str1.4
                0x0801d448       0x5c build/TP2802.o
 .rodata.SetCOCCom.str1.4
                0x0801d4a4       0x2a build/TP2802.o
 *fill*         0x0801d4ce        0x2 
 .rodata.TVI_BOX_Set.str1.4
                0x0801d4d0       0x12 build/TP2802.o
 *fill*         0x0801d4e2        0x2 
 .rodata.REG_F6
                0x0801d4e4        0x4 build/TP2802.o
                0x0801d4e4                REG_F6
 .rodata.SYS_AND
                0x0801d4e8        0x5 build/TP2802.o
                0x0801d4e8                SYS_AND
 *fill*         0x0801d4ed        0x3 
 .rodata.SYS_MODE
                0x0801d4f0        0x5 build/TP2802.o
                0x0801d4f0                SYS_MODE
 *fill*         0x0801d4f5        0x3 
 .rodata.TP2802_FORMAT_DataSet
                0x0801d4f8       0xe4 build/TP2802.o
                0x0801d4f8                TP2802_FORMAT_DataSet
 .rodata.TP2823_DataSet
                0x0801d5dc       0x16 build/TP2802.o
                0x0801d5dc                TP2823_DataSet
 *fill*         0x0801d5f2        0x2 
 .rodata.TP2824C_AHD_FHD_PTZ_DataSet
                0x0801d5f4       0x60 build/TP2802.o
                0x0801d5f4                TP2824C_AHD_FHD_PTZ_DataSet
 .rodata.TP2824C_CVBS_PTZ_DataSet
                0x0801d654       0x44 build/TP2802.o
                0x0801d654                TP2824C_CVBS_PTZ_DataSet
 .rodata.TP2824C_CVIHD_PTZ_DataSet
                0x0801d698       0x44 build/TP2802.o
                0x0801d698                TP2824C_CVIHD_PTZ_DataSet
 .rodata.TP2824C_DataSet
                0x0801d6dc       0x1e build/TP2802.o
                0x0801d6dc                TP2824C_DataSet
 *fill*         0x0801d6fa        0x2 
 .rodata.TP2824C_HDA_DataSet
                0x0801d6fc       0x4e build/TP2802.o
                0x0801d6fc                TP2824C_HDA_DataSet
 *fill*         0x0801d74a        0x2 
 .rodata.TP2824C_HDC_DataSet
                0x0801d74c       0x64 build/TP2802.o
                0x0801d74c                TP2824C_HDC_DataSet
 .rodata.TP2824C_MODE_DataSet
                0x0801d7b0       0x64 build/TP2802.o
                0x0801d7b0                TP2824C_MODE_DataSet
 .rodata.TP2824C_TVI_FHD_PTZ_DataSet
                0x0801d814       0x4c build/TP2802.o
                0x0801d814                TP2824C_TVI_FHD_PTZ_DataSet
 .rodata.TP2826_DataSet
                0x0801d860       0x18 build/TP2802.o
                0x0801d860                TP2826_DataSet
 .rodata.TP2826_HDA_DataSet
                0x0801d878       0x3c build/TP2802.o
                0x0801d878                TP2826_HDA_DataSet
 .rodata.TP2826_HDC_DataSet
                0x0801d8b4       0x64 build/TP2802.o
                0x0801d8b4                TP2826_HDC_DataSet
 .rodata.TP2826_MODE_DataSet
                0x0801d918       0x64 build/TP2802.o
                0x0801d918                TP2826_MODE_DataSet
 .rodata.TP2833_DataSet
                0x0801d97c       0x14 build/TP2802.o
                0x0801d97c                TP2833_DataSet
 .rodata.TP2833_HDA_DataSet
                0x0801d990       0x28 build/TP2802.o
                0x0801d990                TP2833_HDA_DataSet
 .rodata.TP2833_MODE_DataSet
                0x0801d9b8       0x46 build/TP2802.o
                0x0801d9b8                TP2833_MODE_DataSet
 *fill*         0x0801d9fe        0x2 
 .rodata.TP2834_Audio_DataSet
                0x0801da00       0x24 build/TP2802.o
                0x0801da00                TP2834_Audio_DataSet
 .rodata.TP2834_DataSet
                0x0801da24       0x10 build/TP2802.o
                0x0801da24                TP2834_DataSet
 .rodata.TP2834_MODE_DataSet
                0x0801da34       0x41 build/TP2802.o
                0x0801da34                TP2834_MODE_DataSet
 *fill*         0x0801da75        0x3 
 .rodata.TP2853C_DataSet
                0x0801da78       0x1c build/TP2802.o
                0x0801da78                TP2853C_DataSet
 .rodata.TP2853C_HDA_DataSet
                0x0801da94       0x32 build/TP2802.o
                0x0801da94                TP2853C_HDA_DataSet
 *fill*         0x0801dac6        0x2 
 .rodata.TP2853C_HDC_DataSet
                0x0801dac8       0x41 build/TP2802.o
                0x0801dac8                TP2853C_HDC_DataSet
 *fill*         0x0801db09        0x3 
 .rodata.TP2853C_MODE_DataSet
                0x0801db0c       0x5a build/TP2802.o
                0x0801db0c                TP2853C_MODE_DataSet
 *fill*         0x0801db66        0x2 
 .rodata.Prompt.str1.4
                0x0801db68       0x69 build/monitor.o
 *fill*         0x0801dbd1        0x3 
 .rodata.MonIncDecI2C.str1.4
                0x0801dbd4       0x90 build/monitor.o
 .rodata.MonHelp.str1.4
                0x0801dc64      0x30f build/monitor.o
                                0x313 (size before relaxing)
 *fill*         0x0801df73        0x1 
 .rodata.Monitor.str1.4
                0x0801df74      0x581 build/monitor.o
                                0x585 (size before relaxing)
 *fill*         0x0801e4f5        0x3 
 .rodata.GraphicsPrint.str1.4
                0x0801e4f8        0x5 build/Printf.o
 *fill*         0x0801e4fd        0x3 
 .rodata.str1.4
                0x0801e500       0x38 build/Printf.o
 .rodata._PrintColor
                0x0801e538       0x20 build/Printf.o
 .rodata.MCUTimerActiveTimerEvent.str1.4
                0x0801e558       0x37 build/SysTimer.o
 *fill*         0x0801e58f        0x1 
 .rodata.UserInterfaceTimerEventProc.str1.4
                0x0801e590       0x8e build/SysTimer.o
                                 0x92 (size before relaxing)
 *fill*         0x0801e61e        0x2 
 .rodata.ShowWorkingTimer.str1.4
                0x0801e620       0xf1 build/SysTimer.o
 *fill*         0x0801e711        0x3 
 .rodata.SysTimerEventProc.str1.4
                0x0801e714      0x19e build/SysTimer.o
 *fill*         0x0801e8b2        0x2 
 .rodata.ResetOSDValue.str1.4
                0x0801e8b4       0x29 build/etc_eep.o
 *fill*         0x0801e8dd        0x3 
 .rodata.ClearBasicEE.str1.4
                0x0801e8e0       0x12 build/etc_eep.o
 *fill*         0x0801e8f2        0x2 
 .rodata.BOX_SELECT_CHANNEL.str1.4
                0x0801e8f4       0x34 build/keyremo.o
 .rodata.BOX_SET_CHANNEL.str1.4
                0x0801e928       0x28 build/keyremo.o
 .rodata.TouchSliderSetSelectMode.str1.4
                0x0801e950       0x28 build/keyremo.o
 .rodata.TouchSetSelectMode.str1.4
                0x0801e978       0x19 build/keyremo.o
 *fill*         0x0801e991        0x3 
 .rodata.TouchResetSelectMode.str1.4
                0x0801e994       0x1e build/keyremo.o
 *fill*         0x0801e9b2        0x2 
 .rodata.SetSelectCAMRD.str1.4
                0x0801e9b4       0xcf build/keyremo.o
                                 0xde (size before relaxing)
 *fill*         0x0801ea83        0x1 
 .rodata.SEQMode.str1.4
                0x0801ea84       0x17 build/keyremo.o
 *fill*         0x0801ea9b        0x1 
 .rodata.CheckKeyIn.str1.4
                0x0801ea9c      0x18d build/keyremo.o
 *fill*         0x0801ec29        0x3 
 .rodata.CheckCAMDInputVideo.str1.4
                0x0801ec2c       0x1d build/keyremo.o
 *fill*         0x0801ec49        0x3 
 .rodata.SetNowMode.str1.4
                0x0801ec4c       0x53 build/keyremo.o
 *fill*         0x0801ec9f        0x1 
 .rodata.CheckTrigger.str1.4
                0x0801eca0       0xdc build/keyremo.o
 .rodata.TriggerHandler.str1.4
                0x0801ed7c       0x50 build/keyremo.o
 .rodata.CheckTouchScreen.str1.4
                0x0801edcc       0x6e build/keyremo.o
 *fill*         0x0801ee3a        0x2 
 .rodata.COMMAND_OSD.str1.4
                0x0801ee3c       0x73 build/keyremo.o
                                 0x77 (size before relaxing)
 *fill*         0x0801eeaf        0x1 
 .rodata.AUDIO_SELECT_MUTE.str1.4
                0x0801eeb0       0x19 build/audio.o
 *fill*         0x0801eec9        0x3 
 .rodata.UserDefineFont1
                0x0801eecc      0x5c8 build/exosd.o
                0x0801eecc                UserDefineFont1
 .rodata.Touch_Screen_Handler.str1.4
                0x0801f494       0x46 build/GT911.o
 *fill*         0x0801f4da        0x2 
 .rodata.SET_VX8812_SD_Video_Out.str1.4
                0x0801f4dc       0x35 build/VX8812.o
 *fill*         0x0801f511        0x3 
 .rodata._global_impure_ptr
                0x0801f514        0x4 c:/program files (x86)/gnu tools arm embedded/9 2019-q4-major/bin/../lib/gcc/arm-none-eabi/9.2.1/../../../../arm-none-eabi/lib/thumb/v7-m/nofp\libc_nano.a(lib_a-impure.o)
                0x0801f514                _global_impure_ptr
 .rodata.__sf_fake_stderr
                0x0801f518       0x20 c:/program files (x86)/gnu tools arm embedded/9 2019-q4-major/bin/../lib/gcc/arm-none-eabi/9.2.1/../../../../arm-none-eabi/lib/thumb/v7-m/nofp\libc_nano.a(lib_a-findfp.o)
                0x0801f518                __sf_fake_stderr
 .rodata.__sf_fake_stdin
                0x0801f538       0x20 c:/program files (x86)/gnu tools arm embedded/9 2019-q4-major/bin/../lib/gcc/arm-none-eabi/9.2.1/../../../../arm-none-eabi/lib/thumb/v7-m/nofp\libc_nano.a(lib_a-findfp.o)
                0x0801f538                __sf_fake_stdin
 .rodata.__sf_fake_stdout
                0x0801f558       0x20 c:/program files (x86)/gnu tools arm embedded/9 2019-q4-major/bin/../lib/gcc/arm-none-eabi/9.2.1/../../../../arm-none-eabi/lib/thumb/v7-m/nofp\libc_nano.a(lib_a-findfp.o)
                0x0801f558                __sf_fake_stdout
 .rodata._vfprintf_r.str1.1
                0x0801f578       0x11 c:/program files (x86)/gnu tools arm embedded/9 2019-q4-major/bin/../lib/gcc/arm-none-eabi/9.2.1/../../../../arm-none-eabi/lib/thumb/v7-m/nofp\libc_nano.a(lib_a-nano-vfprintf.o)
 .rodata._printf_i.str1.1
                0x0801f589       0x22 c:/program files (x86)/gnu tools arm embedded/9 2019-q4-major/bin/../lib/gcc/arm-none-eabi/9.2.1/../../../../arm-none-eabi/lib/thumb/v7-m/nofp\libc_nano.a(lib_a-nano-vfprintf_i.o)
                0x0801f5ac                . = ALIGN (0x4)
 *fill*         0x0801f5ab        0x1 

.rel.dyn        0x0801f5ac        0x0
 .rel.iplt      0x0801f5ac        0x0 c:/program files (x86)/gnu tools arm embedded/9 2019-q4-major/bin/../lib/gcc/arm-none-eabi/9.2.1/thumb/v7-m/nofp/crtbegin.o

.ARM.extab
 *(.ARM.extab* .gnu.linkonce.armextab.*)

.ARM            0x0801f5ac        0x0
                0x0801f5ac                __exidx_start = .
 *(.ARM.exidx*)
                0x0801f5ac                __exidx_end = .

.preinit_array  0x0801f5ac        0x0
                0x0801f5ac                PROVIDE (__preinit_array_start = .)
 *(.preinit_array*)
                0x0801f5ac                PROVIDE (__preinit_array_end = .)

.init_array     0x0801f5ac        0x4
                0x0801f5ac                PROVIDE (__init_array_start = .)
 *(SORT_BY_NAME(.init_array.*))
 *(.init_array*)
 .init_array    0x0801f5ac        0x4 c:/program files (x86)/gnu tools arm embedded/9 2019-q4-major/bin/../lib/gcc/arm-none-eabi/9.2.1/thumb/v7-m/nofp/crtbegin.o
                0x0801f5b0                PROVIDE (__init_array_end = .)

.fini_array     0x0801f5b0        0x4
                [!provide]                PROVIDE (__fini_array_start = .)
 *(SORT_BY_NAME(.fini_array.*))
 *(.fini_array*)
 .fini_array    0x0801f5b0        0x4 c:/program files (x86)/gnu tools arm embedded/9 2019-q4-major/bin/../lib/gcc/arm-none-eabi/9.2.1/thumb/v7-m/nofp/crtbegin.o
                [!provide]                PROVIDE (__fini_array_end = .)
                0x0801f5b4                _sidata = LOADADDR (.data)

.data           0x20000000      0x9fc load address 0x0801f5b4
                0x20000000                . = ALIGN (0x4)
                0x20000000                _sdata = .
 *(.data)
 *(.data*)
 .data.BOOT_ISSUE
                0x20000000        0x1 build/main.o
                0x20000000                BOOT_ISSUE
 .data.OSDStateFlg
                0x20000001        0x1 build/main.o
                0x20000001                OSDStateFlg
 .data.PWMLevel
                0x20000002        0x1 build/main.o
                0x20000002                PWMLevel
 .data.PowerFlag
                0x20000003        0x1 build/main.o
                0x20000003                PowerFlag
 .data.PreSelectModeType
                0x20000004        0x1 build/main.o
                0x20000004                PreSelectModeType
 .data.VS4210_ADDR
                0x20000005        0x1 build/main.o
                0x20000005                VS4210_ADDR
 .data.VS8812_ADDR
                0x20000006        0x1 build/main.o
                0x20000006                VS8812_ADDR
 .data.bytDistanceGaugePosition
                0x20000007        0x1 build/main.o
                0x20000007                bytDistanceGaugePosition
 .data.bytDistanceGaugeWidth
                0x20000008        0x1 build/main.o
                0x20000008                bytDistanceGaugeWidth
 .data.bytGarbberLinerMode
                0x20000009        0x1 build/main.o
                0x20000009                bytGarbberLinerMode
 .data.bytGarbberLinerPosition
                0x2000000a        0x1 build/main.o
                0x2000000a                bytGarbberLinerPosition
 .data.bytGarbberLinerWidth
                0x2000000b        0x1 build/main.o
                0x2000000b                bytGarbberLinerWidth
 .data.bytSetGarbberLinerPosition
                0x2000000c        0x4 build/main.o
                0x2000000c                bytSetGarbberLinerPosition
 .data.bytTripleScreenType
                0x20000010        0x1 build/main.o
                0x20000010                bytTripleScreenType
 *fill*         0x20000011        0x3 
 .data.iBackLightLevel
                0x20000014        0x4 build/main.o
                0x20000014                iBackLightLevel
 .data.uwTickFreq
                0x20000018        0x1 build/stm32f1xx_hal.o
                0x20000018                uwTickFreq
 *fill*         0x20000019        0x3 
 .data.uwTickPrio
                0x2000001c        0x4 build/stm32f1xx_hal.o
                0x2000001c                uwTickPrio
 .data.SystemCoreClock
                0x20000020        0x4 build/system_stm32f1xx.o
                0x20000020                SystemCoreClock
 .data.AudioVolBarRange
                0x20000024        0xc build/VX_OSD_Simple.o
                0x20000024                AudioVolBarRange
 .data.AudioVolRange
                0x20000030        0xc build/VX_OSD_Simple.o
                0x20000030                AudioVolRange
 .data.BacklightRange
                0x2000003c        0xc build/VX_OSD_Simple.o
                0x2000003c                BacklightRange
 .data.BrightnessRange
                0x20000048        0xc build/VX_OSD_Simple.o
                0x20000048                BrightnessRange
 .data.ContrastRange
                0x20000054        0xc build/VX_OSD_Simple.o
                0x20000054                ContrastRange
 .data.Distance_Gauge_Menu
                0x20000060       0x90 build/VX_OSD_Simple.o
                0x20000060                Distance_Gauge_Menu
 .data.GrabberLinerWinSize1
                0x200000f0        0xc build/VX_OSD_Simple.o
                0x200000f0                GrabberLinerWinSize1
 .data.GrabberLinerWinSize2
                0x200000fc        0xc build/VX_OSD_Simple.o
                0x200000fc                GrabberLinerWinSize2
 .data.HueRange
                0x20000108        0xc build/VX_OSD_Simple.o
                0x20000108                HueRange
 .data.Input_Menu
                0x20000114       0xa8 build/VX_OSD_Simple.o
                0x20000114                Input_Menu
 .data.Mirror_Menu
                0x200001bc       0x90 build/VX_OSD_Simple.o
                0x200001bc                Mirror_Menu
 .data.OSD_CAM_C_VLOSS_CLR
                0x2000024c        0xb build/VX_OSD_Simple.o
                0x2000024c                OSD_CAM_C_VLOSS_CLR
 *fill*         0x20000257        0x1 
 .data.Picture_Menu
                0x20000258       0xa8 build/VX_OSD_Simple.o
                0x20000258                Picture_Menu
 .data.Reset_Menu
                0x20000300       0x30 build/VX_OSD_Simple.o
                0x20000300                Reset_Menu
 .data.SaturationRange
                0x20000330        0xc build/VX_OSD_Simple.o
                0x20000330                SaturationRange
 .data.SharpnessRange
                0x2000033c        0xc build/VX_OSD_Simple.o
                0x2000033c                SharpnessRange
 .data.Str_GAUGE_OSD
                0x20000348       0x20 build/VX_OSD_Simple.o
 .data.Str_GAUGE_Width1
                0x20000368       0x20 build/VX_OSD_Simple.o
 .data.Str_GAUGE_Width2
                0x20000388       0x20 build/VX_OSD_Simple.o
 .data.Str_GAUGE_Width3
                0x200003a8       0x20 build/VX_OSD_Simple.o
 .data.Str_GAUGE_Width4
                0x200003c8       0x20 build/VX_OSD_Simple.o
 .data.Str_GAUGE_Width5
                0x200003e8       0x20 build/VX_OSD_Simple.o
 .data.Str_GAUGE_Width6
                0x20000408       0x20 build/VX_OSD_Simple.o
 .data.Str_GAUGE_Width7
                0x20000428       0x20 build/VX_OSD_Simple.o
 .data.Str_GAUGE_Width8
                0x20000448       0x20 build/VX_OSD_Simple.o
 .data.Str_GAUGE_Width9
                0x20000468       0x20 build/VX_OSD_Simple.o
 .data.Str_GRABBER_OSD1
                0x20000488       0x20 build/VX_OSD_Simple.o
 .data.Str_GRABBER_OSD2
                0x200004a8       0x20 build/VX_OSD_Simple.o
 .data.Str_GRABBER_OSD3
                0x200004c8       0x20 build/VX_OSD_Simple.o
 .data.Str_GRABBER_OSD4
                0x200004e8       0x20 build/VX_OSD_Simple.o
 .data.Str_GRABBER_OSD5
                0x20000508       0x20 build/VX_OSD_Simple.o
 .data.Str_GRABBER_OSD6
                0x20000528       0x20 build/VX_OSD_Simple.o
 .data.Str_GRABBER_OSD7
                0x20000548       0x20 build/VX_OSD_Simple.o
 .data.Title_Menu
                0x20000568       0x78 build/VX_OSD_Simple.o
                0x20000568                Title_Menu
 .data.Trigger_Delay_Menu
                0x200005e0       0x90 build/VX_OSD_Simple.o
                0x200005e0                Trigger_Delay_Menu
 .data.Trigger_Set_Menu
                0x20000670       0x90 build/VX_OSD_Simple.o
                0x20000670                Trigger_Set_Menu
 .data.Ulti_Menu
                0x20000700       0x60 build/VX_OSD_Simple.o
                0x20000700                Ulti_Menu
 .data.Video_Menu
                0x20000760       0x78 build/VX_OSD_Simple.o
                0x20000760                Video_Menu
 .data.PreOuputModeflg
                0x200007d8        0x1 build/VS4210.o
 .data.PreVXIS_OuputSize
                0x200007d9        0x1 build/VS4210.o
 *fill*         0x200007da        0x2 
 .data.PreaMapWindowIndex
                0x200007dc        0x4 build/VS4210.o
 .data.aOpenWindowflgChange
                0x200007e0        0x4 build/VS4210.o
 .data.gaOpenWindowflg
                0x200007e4        0x4 build/VS4210.o
 .data.gbVXIS_OuputModeflg
                0x200007e8        0x1 build/VS4210.o
                0x200007e8                gbVXIS_OuputModeflg
 .data.gu8PreAudioMode
                0x200007e9        0x1 build/VS4210.o
 .data.gvideofftmp
                0x200007ea        0x1 build/VS4210.o
 .data.u8DrawBoxFlg
                0x200007eb        0x1 build/VS4210.o
                0x200007eb                u8DrawBoxFlg
 .data.u8PreDrawBoxColor
                0x200007ec        0x1 build/VS4210.o
 .data.u8PreDrawOSDFlg
                0x200007ed        0x1 build/VS4210.o
 .data.u8gDrawOSDFlg
                0x200007ee        0x1 build/VS4210.o
                0x200007ee                u8gDrawOSDFlg
 *fill*         0x200007ef        0x1 
 .data.COCSelectModeType
                0x200007f0        0x4 build/TP2802.o
                0x200007f0                COCSelectModeType
 .data.PreCOCSelectModeType
                0x200007f4        0x4 build/TP2802.o
                0x200007f4                PreCOCSelectModeType
 .data.newInRes
                0x200007f8        0x4 build/TP2802.o
                0x200007f8                newInRes
 .data.AccessEnable
                0x200007fc        0x4 build/monitor.o
                0x200007fc                AccessEnable
 .data.Monitor_I2C
                0x20000800        0x1 build/monitor.o
                0x20000800                Monitor_I2C
 *fill*         0x20000801        0x3 
 .data.Hex      0x20000804       0x11 build/Printf.o
                0x20000804                Hex
 .data.Encoder_flag
                0x20000815        0x1 build/keyremo.o
                0x20000815                Encoder_flag
 *fill*         0x20000816        0x2 
 .data.JumpTable
                0x20000818        0xf build/keyremo.o
                0x20000818                JumpTable
 *fill*         0x20000827        0x1 
 .data.LeftTable
                0x20000828        0x7 build/keyremo.o
                0x20000828                LeftTable
 *fill*         0x2000082f        0x1 
 .data.LeftTable10
                0x20000830        0x7 build/keyremo.o
                0x20000830                LeftTable10
 *fill*         0x20000837        0x1 
 .data.LeftTable9
                0x20000838        0x7 build/keyremo.o
                0x20000838                LeftTable9
 *fill*         0x2000083f        0x1 
 .data.MainSetSelectMode
                0x20000840        0xe build/keyremo.o
                0x20000840                MainSetSelectMode
 *fill*         0x2000084e        0x2 
 .data.MainTouchSetSelectMode
                0x20000850       0xd0 build/keyremo.o
                0x20000850                MainTouchSetSelectMode
 .data.RearTable
                0x20000920        0x5 build/keyremo.o
                0x20000920                RearTable
 *fill*         0x20000925        0x3 
 .data.RearTable10
                0x20000928        0x5 build/keyremo.o
                0x20000928                RearTable10
 *fill*         0x2000092d        0x3 
 .data.RearTable9
                0x20000930        0x5 build/keyremo.o
                0x20000930                RearTable9
 *fill*         0x20000935        0x3 
 .data.RightTable
                0x20000938        0x7 build/keyremo.o
                0x20000938                RightTable
 *fill*         0x2000093f        0x1 
 .data.RightTable10
                0x20000940        0x7 build/keyremo.o
                0x20000940                RightTable10
 *fill*         0x20000947        0x1 
 .data.RightTable9
                0x20000948        0x7 build/keyremo.o
                0x20000948                RightTable9
 *fill*         0x2000094f        0x1 
 .data.SEQTable
                0x20000950        0x5 build/keyremo.o
                0x20000950                SEQTable
 *fill*         0x20000955        0x3 
 .data.TriggerC_Table
                0x20000958        0x7 build/keyremo.o
                0x20000958                TriggerC_Table
 *fill*         0x2000095f        0x1 
 .data.TriggerC_Table10
                0x20000960        0x7 build/keyremo.o
                0x20000960                TriggerC_Table10
 *fill*         0x20000967        0x1 
 .data.TriggerC_Table9
                0x20000968        0x7 build/keyremo.o
                0x20000968                TriggerC_Table9
 .data.AudioVol
                0x2000096f        0x1 build/audio.o
                0x2000096f                AudioVol
 .data.UserRange
                0x20000970        0xc build/audio.o
                0x20000970                UserRange
 .data.UserRangeBacklight
                0x2000097c        0xc build/audio.o
                0x2000097c                UserRangeBacklight
 .data.TP_ACTION
                0x20000988        0x1 build/GT911.o
                0x20000988                TP_ACTION
 *fill*         0x20000989        0x3 
 .data.lcddev   0x2000098c        0xc build/GT911.o
                0x2000098c                lcddev
 .data._impure_ptr
                0x20000998        0x4 c:/program files (x86)/gnu tools arm embedded/9 2019-q4-major/bin/../lib/gcc/arm-none-eabi/9.2.1/../../../../arm-none-eabi/lib/thumb/v7-m/nofp\libc_nano.a(lib_a-impure.o)
                0x20000998                _impure_ptr
 .data.impure_data
                0x2000099c       0x60 c:/program files (x86)/gnu tools arm embedded/9 2019-q4-major/bin/../lib/gcc/arm-none-eabi/9.2.1/../../../../arm-none-eabi/lib/thumb/v7-m/nofp\libc_nano.a(lib_a-impure.o)
                0x200009fc                . = ALIGN (0x4)
                0x200009fc                _edata = .

.igot.plt       0x200009fc        0x0 load address 0x0801ffb0
 .igot.plt      0x200009fc        0x0 c:/program files (x86)/gnu tools arm embedded/9 2019-q4-major/bin/../lib/gcc/arm-none-eabi/9.2.1/thumb/v7-m/nofp/crtbegin.o
                0x200009fc                . = ALIGN (0x4)

.bss            0x200009fc      0x4ac load address 0x0801ffb0
                0x200009fc                _sbss = .
                0x200009fc                __bss_start__ = _sbss
 *(.bss)
 .bss           0x200009fc       0x1c c:/program files (x86)/gnu tools arm embedded/9 2019-q4-major/bin/../lib/gcc/arm-none-eabi/9.2.1/thumb/v7-m/nofp/crtbegin.o
 *(.bss*)
 .bss.AutoDayNightDelay
                0x20000a18        0x1 build/main.o
                0x20000a18                AutoDayNightDelay
 *fill*         0x20000a19        0x3 
 .bss.BAT_ADC   0x20000a1c        0x4 build/main.o
                0x20000a1c                BAT_ADC
 .bss.BAT_StartupVOLT
                0x20000a20        0x4 build/main.o
                0x20000a20                BAT_StartupVOLT
 .bss.BAT_VOLTAGE
                0x20000a24        0x4 build/main.o
                0x20000a24                BAT_VOLTAGE
 .bss.BOX_ISSUE
                0x20000a28        0x1 build/main.o
                0x20000a28                BOX_ISSUE
 .bss.CURRENT_CH
                0x20000a29        0x1 build/main.o
                0x20000a29                CURRENT_CH
 .bss.DayNightLevel
                0x20000a2a        0x1 build/main.o
                0x20000a2a                DayNightLevel
 *fill*         0x20000a2b        0x1 
 .bss.IR_4BYTE  0x20000a2c        0x4 build/main.o
 .bss.IR_END_Flg
                0x20000a30        0x1 build/main.o
 .bss.IR_IRQFlg
                0x20000a31        0x1 build/main.o
 .bss.IR_IRQ_Index
                0x20000a32        0x1 build/main.o
 *fill*         0x20000a33        0x1 
 .bss.IR_PlusTimeVal
                0x20000a34        0x2 build/main.o
 .bss.IR_ShiftCount
                0x20000a36        0x1 build/main.o
 .bss.IR_StartFlg
                0x20000a37        0x1 build/main.o
 .bss.LCD_PWR_FLAG
                0x20000a38        0x1 build/main.o
                0x20000a38                LCD_PWR_FLAG
 *fill*         0x20000a39        0x1 
 .bss.LightSensor_ADC
                0x20000a3a        0x2 build/main.o
                0x20000a3a                LightSensor_ADC
 .bss.OSDSecCount
                0x20000a3c        0x1 build/main.o
 *fill*         0x20000a3d        0x3 
 .bss.OSD_MIRROR
                0x20000a40        0x4 build/main.o
                0x20000a40                OSD_MIRROR
 .bss.OSD_SPEAKER
                0x20000a44        0x4 build/main.o
                0x20000a44                OSD_SPEAKER
 .bss.PWR_OFF_TO_ON
                0x20000a48        0x1 build/main.o
                0x20000a48                PWR_OFF_TO_ON
 .bss.PreIR_IRQ_Index
                0x20000a49        0x1 build/main.o
 .bss.REV_ERROR
                0x20000a4a        0x1 build/main.o
                0x20000a4a                REV_ERROR
 .bss.RUN_DIMMER
                0x20000a4b        0x1 build/main.o
                0x20000a4b                RUN_DIMMER
 .bss.Rx2_data  0x20000a4c        0x2 build/main.o
 *fill*         0x20000a4e        0x2 
 .bss.Rx_data   0x20000a50        0x2 build/main.o
 .bss.bytAutoSleeping
                0x20000a52        0x1 build/main.o
                0x20000a52                bytAutoSleeping
 .bss.bytPowerDownMode
                0x20000a53        0x1 build/main.o
                0x20000a53                bytPowerDownMode
 .bss.bytSelectCAMRD
                0x20000a54        0x1 build/main.o
                0x20000a54                bytSelectCAMRD
 .bss.bytStandByMode
                0x20000a55        0x1 build/main.o
                0x20000a55                bytStandByMode
 .bss.bytStandByModeToTriggerMode
                0x20000a56        0x1 build/main.o
                0x20000a56                bytStandByModeToTriggerMode
 .bss.half_scaler
                0x20000a57        0x1 build/main.o
                0x20000a57                half_scaler
 .bss.keytic    0x20000a58        0x1 build/main.o
                0x20000a58                keytic
 *fill*         0x20000a59        0x3 
 .bss.tim3count
                0x20000a5c        0x4 build/main.o
 .bss.tptic     0x20000a60        0x1 build/main.o
                0x20000a60                tptic
 *fill*         0x20000a61        0x1 
 .bss.u16Vendor
                0x20000a62        0x2 build/main.o
 .bss.u8IRCheckcode
                0x20000a64        0x1 build/main.o
 .bss.u8IRcode  0x20000a65        0x1 build/main.o
 .bss.DisplayedOSD
                0x20000a66        0x1 build/VX_OSD.o
                0x20000a66                DisplayedOSD
 *fill*         0x20000a67        0x1 
 .bss.OSDItemValue
                0x20000a68        0x4 build/VX_OSD_Simple.o
 .bss.SEQIndex  0x20000a6c        0x1 build/VX_OSD_Simple.o
                0x20000a6c                SEQIndex
 .bss.bytCOCAdjust
                0x20000a6d        0x1 build/VX_OSD_Simple.o
                0x20000a6d                bytCOCAdjust
 .bss.bytGaugeAdjust
                0x20000a6e        0x1 build/VX_OSD_Simple.o
                0x20000a6e                bytGaugeAdjust
 .bss.bytGrabberAdjust
                0x20000a6f        0x1 build/VX_OSD_Simple.o
                0x20000a6f                bytGrabberAdjust
 .bss.ptcOSDbar
                0x20000a70        0x4 build/VX_OSD_Simple.o
 .bss.PreVXIS_FULLOuputModeflg
                0x20000a74        0x1 build/VS4210.o
 .bss.ResetCamMirror
                0x20000a75        0x1 build/VS4210.o
                0x20000a75                ResetCamMirror
 .bss.bytVideoInput
                0x20000a76        0x1 build/VS4210.o
                0x20000a76                bytVideoInput
 *fill*         0x20000a77        0x1 
 .bss.gabVXIS_Input_mirrorH
                0x20000a78        0x4 build/VS4210.o
                0x20000a78                gabVXIS_Input_mirrorH
 .bss.gu8AudioMode
                0x20000a7c        0x1 build/VS4210.o
                0x20000a7c                gu8AudioMode
 .bss.u8DrawBoxColor
                0x20000a7d        0x1 build/VS4210.o
                0x20000a7d                u8DrawBoxColor
 *fill*         0x20000a7e        0x2 
 .bss.Flisheye_CAM
                0x20000a80        0x4 build/TP2802.o
                0x20000a80                Flisheye_CAM
 .bss.Flisheye_COC
                0x20000a84        0x1 build/TP2802.o
                0x20000a84                Flisheye_COC
 *fill*         0x20000a85        0x3 
 .bss.Flisheye_VLOSS_Count
                0x20000a88       0x10 build/TP2802.o
                0x20000a88                Flisheye_VLOSS_Count
 .bss.QuadBoxId
                0x20000a98        0x1 build/TP2802.o
                0x20000a98                QuadBoxId
 .bss.QuadBoxMode
                0x20000a99        0x1 build/TP2802.o
                0x20000a99                QuadBoxMode
 .bss.VideoChangeFlag
                0x20000a9a        0x1 build/TP2802.o
                0x20000a9a                VideoChangeFlag
 .bss.Monitor_flag
                0x20000a9b        0x1 build/monitor.o
                0x20000a9b                Monitor_flag
 .bss.RS2_in    0x20000a9c        0x1 build/monitor.o
                0x20000a9c                RS2_in
 .bss.RS_in     0x20000a9d        0x1 build/monitor.o
                0x20000a9d                RS_in
 .bss.RS_out    0x20000a9e        0x1 build/monitor.o
                0x20000a9e                RS_out
 .bss.argc      0x20000a9f        0x1 build/monitor.o
                0x20000a9f                argc
 .bss.comment.8679
                0x20000aa0        0x1 build/monitor.o
 .bss.incnt.8680
                0x20000aa1        0x1 build/monitor.o
 .bss.last_argc.8681
                0x20000aa2        0x1 build/monitor.o
 .bss.PSW_Flag  0x20000aa3        0x1 build/SysTimer.o
                0x20000aa3                PSW_Flag
 .bss.day       0x20000aa4        0x1 build/SysTimer.o
                0x20000aa4                day
 *fill*         0x20000aa5        0x3 
 .bss.g_bNotifyTimer0Int
                0x20000aa8        0x4 build/SysTimer.o
                0x20000aa8                g_bNotifyTimer0Int
 .bss.g_usTimerCounter
                0x20000aac        0x4 build/SysTimer.o
                0x20000aac                g_usTimerCounter
 .bss.hour      0x20000ab0        0x1 build/SysTimer.o
                0x20000ab0                hour
 .bss.minute    0x20000ab1        0x1 build/SysTimer.o
                0x20000ab1                minute
 .bss.second    0x20000ab2        0x1 build/SysTimer.o
                0x20000ab2                second
 *fill*         0x20000ab3        0x1 
 .bss.standby_count
                0x20000ab4        0x4 build/SysTimer.o
                0x20000ab4                standby_count
 .bss.tic02     0x20000ab8        0x1 build/SysTimer.o
                0x20000ab8                tic02
 *fill*         0x20000ab9        0x3 
 .bss.tic03     0x20000abc        0x4 build/SysTimer.o
                0x20000abc                tic03
 .bss.tic04     0x20000ac0        0x4 build/SysTimer.o
                0x20000ac0                tic04
 .bss.bytResetOSDValue
                0x20000ac4        0x1 build/etc_eep.o
                0x20000ac4                bytResetOSDValue
 .bss.BOX_Set_flag
                0x20000ac5        0x1 build/keyremo.o
                0x20000ac5                BOX_Set_flag
 *fill*         0x20000ac6        0x2 
 .bss.BT.9271   0x20000ac8        0x5 build/keyremo.o
 .bss.CPON.9269
                0x20000acd        0x1 build/keyremo.o
 .bss.Disp_Input
                0x20000ace        0x1 build/keyremo.o
                0x20000ace                Disp_Input
 .bss.MenuTouchFlag
                0x20000acf        0x1 build/keyremo.o
                0x20000acf                MenuTouchFlag
 .bss.MenuTouchMode
                0x20000ad0        0x1 build/keyremo.o
                0x20000ad0                MenuTouchMode
 .bss.OSD_LOCKF
                0x20000ad1        0x1 build/keyremo.o
                0x20000ad1                OSD_LOCKF
 *fill*         0x20000ad2        0x2 
 .bss.OnChangingValue
                0x20000ad4        0x4 build/keyremo.o
                0x20000ad4                OnChangingValue
 .bss.OneTouchCursorPosition
                0x20000ad8        0x4 build/keyremo.o
                0x20000ad8                OneTouchCursorPosition
 .bss.OneTouchPosition
                0x20000adc        0x4 build/keyremo.o
                0x20000adc                OneTouchPosition
 .bss.POT.9267  0x20000ae0        0x1 build/keyremo.o
 .bss.POTF.9268
                0x20000ae1        0x1 build/keyremo.o
 .bss.PPON.9270
                0x20000ae2        0x1 build/keyremo.o
 .bss.PT.9266   0x20000ae3        0x1 build/keyremo.o
 .bss.SEQFlag   0x20000ae4        0x1 build/keyremo.o
                0x20000ae4                SEQFlag
 .bss.TouchPreSelectModeType
                0x20000ae5        0x1 build/keyremo.o
                0x20000ae5                TouchPreSelectModeType
 .bss.TouchResetSelectModeFlag
                0x20000ae6        0x1 build/keyremo.o
                0x20000ae6                TouchResetSelectModeFlag
 .bss.TriggerFlag
                0x20000ae7        0x1 build/keyremo.o
                0x20000ae7                TriggerFlag
 .bss.TriggerStatus
                0x20000ae8        0x1 build/keyremo.o
                0x20000ae8                TriggerStatus
 .bss.bytTriggerTest
                0x20000ae9        0x1 build/keyremo.o
                0x20000ae9                bytTriggerTest
 *fill*         0x20000aea        0x2 
 .bss.updn_reg  0x20000aec        0x4 build/keyremo.o
                0x20000aec                updn_reg
 .bss.TP_PRES_DOWN
                0x20000af0        0x1 build/GT911.o
                0x20000af0                TP_PRES_DOWN
 .bss.slider_event
                0x20000af1        0x1 build/GT911.o
                0x20000af1                slider_event
 *fill*         0x20000af2        0x2 
 .bss.tp_dev    0x20000af4       0x3c build/GT911.o
                0x20000af4                tp_dev
 .bss.__malloc_free_list
                0x20000b30        0x4 c:/program files (x86)/gnu tools arm embedded/9 2019-q4-major/bin/../lib/gcc/arm-none-eabi/9.2.1/../../../../arm-none-eabi/lib/thumb/v7-m/nofp\libc_nano.a(lib_a-nano-mallocr.o)
                0x20000b30                __malloc_free_list
 .bss.__malloc_sbrk_start
                0x20000b34        0x4 c:/program files (x86)/gnu tools arm embedded/9 2019-q4-major/bin/../lib/gcc/arm-none-eabi/9.2.1/../../../../arm-none-eabi/lib/thumb/v7-m/nofp\libc_nano.a(lib_a-nano-mallocr.o)
                0x20000b34                __malloc_sbrk_start
 .bss.heap_end.4144
                0x20000b38        0x4 c:/program files (x86)/gnu tools arm embedded/9 2019-q4-major/bin/../lib/gcc/arm-none-eabi/9.2.1/../../../../arm-none-eabi/lib/thumb/v7-m/nofp\libnosys.a(sbrk.o)
 *(COMMON)
 COMMON         0x20000b3c      0x14f build/main.o
                0x20000b3c                Priority
                0x20000b3d                CAMR_M
                0x20000b3e                CAMC_M
                0x20000b40                htim3
                0x20000b80                bytGarbberLiner
                0x20000b84                hadc1
                0x20000bb4                huart1
                0x20000bf4                MenuTouchSel
                0x20000bf5                SelectModeType
                0x20000bf6                DebugLevel
                0x20000bf7                CAMD_M
                0x20000bf8                CAMB_M
                0x20000bfc                htim2
                0x20000c3c                huart2
                0x20000c7c                CAMA_M
                0x20000c7d                ManVidRes
                0x20000c80                pVS4210_JointKind1
                0x20000c8a                TimeStep
 *fill*         0x20000c8b        0x1 
 COMMON         0x20000c8c        0x4 build/stm32f1xx_hal.o
                0x20000c8c                uwTick
 COMMON         0x20000c90        0x1 build/VX_swi2c.o
                0x20000c90                gskipsleepflg
 *fill*         0x20000c91        0x3 
 COMMON         0x20000c94       0x1c build/VX_OSD_Simple.o
                0x20000c94                MenuChild
                0x20000c98                BarRange
                0x20000c9c                MenuTitle
                0x20000ca0                MenuStack
 COMMON         0x20000cb0       0x11 build/VS4210.o
                0x20000cb0                gaHDMI_MapWindowIndex
                0x20000cb4                gWindowNum
                0x20000cb5                g4210VinIndex
                0x20000cb8                bSignal
                0x20000cbc                gbVXIS_InputMode
                0x20000cc0                gbVXIS_OuputSize
 *fill*         0x20000cc1        0x3 
 COMMON         0x20000cc4       0xb3 build/TP2802.o
                0x20000cc4                COCRX4
                0x20000cd0                CurCH
                0x20000cd4                std
                0x20000cd8                AHDcmd2
                0x20000cd9                TVI_Chksum
                0x20000cda                presetNum
                0x20000cdb                ManVidResRx
                0x20000cdc                flag_AUDIO
                0x20000ce0                COCRX2
                0x20000cec                PTZ_buf
                0x20000cfc                state
                0x20000d00                egain
                0x20000d10                flag_MEGA
                0x20000d14                crc
                0x20000d18                tpRxD
                0x20000d32                AHDcmd4
                0x20000d33                flag_LOCKED
                0x20000d34                mode
                0x20000d38                sywd
                0x20000d3c                flag_CVBS
                0x20000d40                TVII2CAddress
                0x20000d44                ptztxflag
                0x20000d48                TVI_Command
                0x20000d4c                COCRX1
                0x20000d58                COCRX3
                0x20000d64                revision
                0x20000d65                PtzTxChNum
                0x20000d68                count
                0x20000d6c                PTZ_pelco
                0x20000d6e                AHDcmd1
                0x20000d6f                AHDcmd3
                0x20000d70                VideoSave
                0x20000d74                TVI_speed
                0x20000d75                CurRes
                0x20000d76                chip
 *fill*         0x20000d77        0x1 
 COMMON         0x20000d78       0x9c build/monitor.o
                0x20000d78                argv
                0x20000d94                monstr
                0x20000db2                MonIndex
                0x20000db4                RS_buf
                0x20000dd4                DVR_buf
                0x20000df4                RS2_buf
                0x20000e12                MonWdata
                0x20000e13                MonRdata
 COMMON         0x20000e14       0x60 build/SysTimer.o
                0x20000e14                g_stTimerEvent
                0x20000e64                BatteryVoltage
                0x20000e68                CameraVolt
                0x20000e6c                g_stPowerInfo
                0x20000e70                BatteryBTH
 COMMON         0x20000e74       0x24 build/keyremo.o
                0x20000e74                coc_cursor
                0x20000e75                cur_osdwin
                0x20000e78                KeyReady
                0x20000e7c                NowModeState
                0x20000e7d                TouchP
                0x20000e80                CAM_PTZ_RUN_flag
                0x20000e84                cursor_change
                0x20000e88                RepeatKey
                0x20000e8c                TriggerMode
                0x20000e8d                cursor_item
                0x20000e8e                title_item
                0x20000e8f                Key
                0x20000e90                lock_keycnt
                0x20000e91                OSDMenuLevel
                0x20000e94                ChangeKey
 COMMON         0x20000e98        0x9 c:/program files (x86)/gnu tools arm embedded/9 2019-q4-major/bin/../lib/gcc/arm-none-eabi/9.2.1/../../../../arm-none-eabi/lib/thumb/v7-m/nofp\libc_nano.a(lib_a-lock.o)
                0x20000e98                __lock___atexit_recursive_mutex
                0x20000e99                __lock___arc4random_mutex
                0x20000e9a                __lock___env_recursive_mutex
                0x20000e9b                __lock___sinit_recursive_mutex
                0x20000e9c                __lock___malloc_recursive_mutex
                0x20000e9d                __lock___at_quick_exit_mutex
                0x20000e9e                __lock___dd_hash_mutex
                0x20000e9f                __lock___tz_mutex
                0x20000ea0                __lock___sfp_recursive_mutex
 *fill*         0x20000ea1        0x3 
 COMMON         0x20000ea4        0x4 c:/program files (x86)/gnu tools arm embedded/9 2019-q4-major/bin/../lib/gcc/arm-none-eabi/9.2.1/../../../../arm-none-eabi/lib/thumb/v7-m/nofp\libc_nano.a(lib_a-reent.o)
                0x20000ea4                errno
                0x20000ea8                . = ALIGN (0x4)
                0x20000ea8                _ebss = .
                0x20000ea8                __bss_end__ = _ebss

._user_heap_stack
                0x20000ea8      0x600 load address 0x0801ffb0
                0x20000ea8                . = ALIGN (0x8)
                0x20000ea8                PROVIDE (end = .)
                [!provide]                PROVIDE (_end = .)
                0x200010a8                . = (. + _Min_Heap_Size)
 *fill*         0x20000ea8      0x200 
                0x200014a8                . = (. + _Min_Stack_Size)
 *fill*         0x200010a8      0x400 
                0x200014a8                . = ALIGN (0x8)

/DISCARD/
 libc.a(*)
 libm.a(*)
 libgcc.a(*)

.ARM.attributes
                0x00000000       0x29
 *(.ARM.attributes)
 .ARM.attributes
                0x00000000       0x1d c:/program files (x86)/gnu tools arm embedded/9 2019-q4-major/bin/../lib/gcc/arm-none-eabi/9.2.1/thumb/v7-m/nofp/crti.o
 .ARM.attributes
                0x0000001d       0x2d c:/program files (x86)/gnu tools arm embedded/9 2019-q4-major/bin/../lib/gcc/arm-none-eabi/9.2.1/thumb/v7-m/nofp/crtbegin.o
 .ARM.attributes
                0x0000004a       0x2d build/main.o
 .ARM.attributes
                0x00000077       0x2d build/stm32f1xx_it.o
 .ARM.attributes
                0x000000a4       0x2d build/stm32f1xx_hal_msp.o
 .ARM.attributes
                0x000000d1       0x2d build/stm32f1xx_hal_tim.o
 .ARM.attributes
                0x000000fe       0x2d build/stm32f1xx_hal_tim_ex.o
 .ARM.attributes
                0x0000012b       0x2d build/stm32f1xx_hal_uart.o
 .ARM.attributes
                0x00000158       0x2d build/stm32f1xx_hal.o
 .ARM.attributes
                0x00000185       0x2d build/stm32f1xx_hal_rcc.o
 .ARM.attributes
                0x000001b2       0x2d build/stm32f1xx_hal_rcc_ex.o
 .ARM.attributes
                0x000001df       0x2d build/stm32f1xx_hal_gpio.o
 .ARM.attributes
                0x0000020c       0x2d build/stm32f1xx_hal_dma.o
 .ARM.attributes
                0x00000239       0x2d build/stm32f1xx_hal_cortex.o
 .ARM.attributes
                0x00000266       0x2d build/stm32f1xx_hal_adc.o
 .ARM.attributes
                0x00000293       0x2d build/system_stm32f1xx.o
 .ARM.attributes
                0x000002c0       0x2d build/VX_swi2c.o
 .ARM.attributes
                0x000002ed       0x33 build/VS4210_param_Mode88.o
 .ARM.attributes
                0x00000320       0x33 build/VS4210_param_Modex26.o
 .ARM.attributes
                0x00000353       0x2d build/VX_OSD.o
 .ARM.attributes
                0x00000380       0x2d build/VX_OSD_Simple.o
 .ARM.attributes
                0x000003ad       0x2d build/VS4210.o
 .ARM.attributes
                0x000003da       0x2d build/TP2802.o
 .ARM.attributes
                0x00000407       0x2d build/monitor.o
 .ARM.attributes
                0x00000434       0x2d build/Printf.o
 .ARM.attributes
                0x00000461       0x2d build/SysTimer.o
 .ARM.attributes
                0x0000048e       0x2d build/etc_eep.o
 .ARM.attributes
                0x000004bb       0x2d build/keyremo.o
 .ARM.attributes
                0x000004e8       0x2d build/audio.o
 .ARM.attributes
                0x00000515       0x33 build/exosd.o
 .ARM.attributes
                0x00000548       0x2d build/GT911.o
 .ARM.attributes
                0x00000575       0x2d build/VX8812.o
 .ARM.attributes
                0x000005a2       0x21 build/startup_stm32f103xb.o
 .ARM.attributes
                0x000005c3       0x2d c:/program files (x86)/gnu tools arm embedded/9 2019-q4-major/bin/../lib/gcc/arm-none-eabi/9.2.1/../../../../arm-none-eabi/lib/thumb/v7-m/nofp\libc_nano.a(lib_a-errno.o)
 .ARM.attributes
                0x000005f0       0x2d c:/program files (x86)/gnu tools arm embedded/9 2019-q4-major/bin/../lib/gcc/arm-none-eabi/9.2.1/../../../../arm-none-eabi/lib/thumb/v7-m/nofp\libc_nano.a(lib_a-impure.o)
 .ARM.attributes
                0x0000061d       0x2d c:/program files (x86)/gnu tools arm embedded/9 2019-q4-major/bin/../lib/gcc/arm-none-eabi/9.2.1/../../../../arm-none-eabi/lib/thumb/v7-m/nofp\libc_nano.a(lib_a-init.o)
 .ARM.attributes
                0x0000064a       0x2d c:/program files (x86)/gnu tools arm embedded/9 2019-q4-major/bin/../lib/gcc/arm-none-eabi/9.2.1/../../../../arm-none-eabi/lib/thumb/v7-m/nofp\libc_nano.a(lib_a-memcpy-stub.o)
 .ARM.attributes
                0x00000677       0x2d c:/program files (x86)/gnu tools arm embedded/9 2019-q4-major/bin/../lib/gcc/arm-none-eabi/9.2.1/../../../../arm-none-eabi/lib/thumb/v7-m/nofp\libc_nano.a(lib_a-memset.o)
 .ARM.attributes
                0x000006a4       0x2d c:/program files (x86)/gnu tools arm embedded/9 2019-q4-major/bin/../lib/gcc/arm-none-eabi/9.2.1/../../../../arm-none-eabi/lib/thumb/v7-m/nofp\libc_nano.a(lib_a-printf.o)
 .ARM.attributes
                0x000006d1       0x2d c:/program files (x86)/gnu tools arm embedded/9 2019-q4-major/bin/../lib/gcc/arm-none-eabi/9.2.1/../../../../arm-none-eabi/lib/thumb/v7-m/nofp\libc_nano.a(lib_a-puts.o)
 .ARM.attributes
                0x000006fe       0x2d c:/program files (x86)/gnu tools arm embedded/9 2019-q4-major/bin/../lib/gcc/arm-none-eabi/9.2.1/../../../../arm-none-eabi/lib/thumb/v7-m/nofp\libc_nano.a(lib_a-wbuf.o)
 .ARM.attributes
                0x0000072b       0x2d c:/program files (x86)/gnu tools arm embedded/9 2019-q4-major/bin/../lib/gcc/arm-none-eabi/9.2.1/../../../../arm-none-eabi/lib/thumb/v7-m/nofp\libc_nano.a(lib_a-wsetup.o)
 .ARM.attributes
                0x00000758       0x2d c:/program files (x86)/gnu tools arm embedded/9 2019-q4-major/bin/../lib/gcc/arm-none-eabi/9.2.1/../../../../arm-none-eabi/lib/thumb/v7-m/nofp\libc_nano.a(lib_a-fflush.o)
 .ARM.attributes
                0x00000785       0x2d c:/program files (x86)/gnu tools arm embedded/9 2019-q4-major/bin/../lib/gcc/arm-none-eabi/9.2.1/../../../../arm-none-eabi/lib/thumb/v7-m/nofp\libc_nano.a(lib_a-findfp.o)
 .ARM.attributes
                0x000007b2       0x2d c:/program files (x86)/gnu tools arm embedded/9 2019-q4-major/bin/../lib/gcc/arm-none-eabi/9.2.1/../../../../arm-none-eabi/lib/thumb/v7-m/nofp\libc_nano.a(lib_a-fwalk.o)
 .ARM.attributes
                0x000007df       0x2d c:/program files (x86)/gnu tools arm embedded/9 2019-q4-major/bin/../lib/gcc/arm-none-eabi/9.2.1/../../../../arm-none-eabi/lib/thumb/v7-m/nofp\libc_nano.a(lib_a-lock.o)
 .ARM.attributes
                0x0000080c       0x2d c:/program files (x86)/gnu tools arm embedded/9 2019-q4-major/bin/../lib/gcc/arm-none-eabi/9.2.1/../../../../arm-none-eabi/lib/thumb/v7-m/nofp\libc_nano.a(lib_a-makebuf.o)
 .ARM.attributes
                0x00000839       0x2d c:/program files (x86)/gnu tools arm embedded/9 2019-q4-major/bin/../lib/gcc/arm-none-eabi/9.2.1/../../../../arm-none-eabi/lib/thumb/v7-m/nofp\libc_nano.a(lib_a-nano-freer.o)
 .ARM.attributes
                0x00000866       0x2d c:/program files (x86)/gnu tools arm embedded/9 2019-q4-major/bin/../lib/gcc/arm-none-eabi/9.2.1/../../../../arm-none-eabi/lib/thumb/v7-m/nofp\libc_nano.a(lib_a-nano-mallocr.o)
 .ARM.attributes
                0x00000893       0x2d c:/program files (x86)/gnu tools arm embedded/9 2019-q4-major/bin/../lib/gcc/arm-none-eabi/9.2.1/../../../../arm-none-eabi/lib/thumb/v7-m/nofp\libc_nano.a(lib_a-nano-vfprintf.o)
 .ARM.attributes
                0x000008c0       0x2d c:/program files (x86)/gnu tools arm embedded/9 2019-q4-major/bin/../lib/gcc/arm-none-eabi/9.2.1/../../../../arm-none-eabi/lib/thumb/v7-m/nofp\libc_nano.a(lib_a-nano-vfprintf_i.o)
 .ARM.attributes
                0x000008ed       0x2d c:/program files (x86)/gnu tools arm embedded/9 2019-q4-major/bin/../lib/gcc/arm-none-eabi/9.2.1/../../../../arm-none-eabi/lib/thumb/v7-m/nofp\libc_nano.a(lib_a-sbrkr.o)
 .ARM.attributes
                0x0000091a       0x2d c:/program files (x86)/gnu tools arm embedded/9 2019-q4-major/bin/../lib/gcc/arm-none-eabi/9.2.1/../../../../arm-none-eabi/lib/thumb/v7-m/nofp\libc_nano.a(lib_a-stdio.o)
 .ARM.attributes
                0x00000947       0x2d c:/program files (x86)/gnu tools arm embedded/9 2019-q4-major/bin/../lib/gcc/arm-none-eabi/9.2.1/../../../../arm-none-eabi/lib/thumb/v7-m/nofp\libc_nano.a(lib_a-writer.o)
 .ARM.attributes
                0x00000974       0x2d c:/program files (x86)/gnu tools arm embedded/9 2019-q4-major/bin/../lib/gcc/arm-none-eabi/9.2.1/../../../../arm-none-eabi/lib/thumb/v7-m/nofp\libc_nano.a(lib_a-closer.o)
 .ARM.attributes
                0x000009a1       0x2d c:/program files (x86)/gnu tools arm embedded/9 2019-q4-major/bin/../lib/gcc/arm-none-eabi/9.2.1/../../../../arm-none-eabi/lib/thumb/v7-m/nofp\libc_nano.a(lib_a-fstatr.o)
 .ARM.attributes
                0x000009ce       0x2d c:/program files (x86)/gnu tools arm embedded/9 2019-q4-major/bin/../lib/gcc/arm-none-eabi/9.2.1/../../../../arm-none-eabi/lib/thumb/v7-m/nofp\libc_nano.a(lib_a-isattyr.o)
 .ARM.attributes
                0x000009fb       0x2d c:/program files (x86)/gnu tools arm embedded/9 2019-q4-major/bin/../lib/gcc/arm-none-eabi/9.2.1/../../../../arm-none-eabi/lib/thumb/v7-m/nofp\libc_nano.a(lib_a-lseekr.o)
 .ARM.attributes
                0x00000a28       0x2d c:/program files (x86)/gnu tools arm embedded/9 2019-q4-major/bin/../lib/gcc/arm-none-eabi/9.2.1/../../../../arm-none-eabi/lib/thumb/v7-m/nofp\libc_nano.a(lib_a-memchr-stub.o)
 .ARM.attributes
                0x00000a55       0x2d c:/program files (x86)/gnu tools arm embedded/9 2019-q4-major/bin/../lib/gcc/arm-none-eabi/9.2.1/../../../../arm-none-eabi/lib/thumb/v7-m/nofp\libc_nano.a(lib_a-mlock.o)
 .ARM.attributes
                0x00000a82       0x2d c:/program files (x86)/gnu tools arm embedded/9 2019-q4-major/bin/../lib/gcc/arm-none-eabi/9.2.1/../../../../arm-none-eabi/lib/thumb/v7-m/nofp\libc_nano.a(lib_a-readr.o)
 .ARM.attributes
                0x00000aaf       0x2d c:/program files (x86)/gnu tools arm embedded/9 2019-q4-major/bin/../lib/gcc/arm-none-eabi/9.2.1/../../../../arm-none-eabi/lib/thumb/v7-m/nofp\libc_nano.a(lib_a-reent.o)
 .ARM.attributes
                0x00000adc       0x2d c:/program files (x86)/gnu tools arm embedded/9 2019-q4-major/bin/../lib/gcc/arm-none-eabi/9.2.1/../../../../arm-none-eabi/lib/thumb/v7-m/nofp\libnosys.a(close.o)
 .ARM.attributes
                0x00000b09       0x2d c:/program files (x86)/gnu tools arm embedded/9 2019-q4-major/bin/../lib/gcc/arm-none-eabi/9.2.1/../../../../arm-none-eabi/lib/thumb/v7-m/nofp\libnosys.a(fstat.o)
 .ARM.attributes
                0x00000b36       0x2d c:/program files (x86)/gnu tools arm embedded/9 2019-q4-major/bin/../lib/gcc/arm-none-eabi/9.2.1/../../../../arm-none-eabi/lib/thumb/v7-m/nofp\libnosys.a(isatty.o)
 .ARM.attributes
                0x00000b63       0x2d c:/program files (x86)/gnu tools arm embedded/9 2019-q4-major/bin/../lib/gcc/arm-none-eabi/9.2.1/../../../../arm-none-eabi/lib/thumb/v7-m/nofp\libnosys.a(lseek.o)
 .ARM.attributes
                0x00000b90       0x2d c:/program files (x86)/gnu tools arm embedded/9 2019-q4-major/bin/../lib/gcc/arm-none-eabi/9.2.1/../../../../arm-none-eabi/lib/thumb/v7-m/nofp\libnosys.a(read.o)
 .ARM.attributes
                0x00000bbd       0x2d c:/program files (x86)/gnu tools arm embedded/9 2019-q4-major/bin/../lib/gcc/arm-none-eabi/9.2.1/../../../../arm-none-eabi/lib/thumb/v7-m/nofp\libnosys.a(sbrk.o)
 .ARM.attributes
                0x00000bea       0x33 ./Lib\libsw_i2c0.a(sw_i2c0.o)
 .ARM.attributes
                0x00000c1d       0x33 ./Lib\libsw_i2c1.a(sw_i2c1.o)
 .ARM.attributes
                0x00000c50       0x33 ./Lib\libsw_i2c2.a(sw_i2c2.o)
 .ARM.attributes
                0x00000c83       0x33 ./Lib\libsw_i2c3.a(sw_i2c3.o)
 .ARM.attributes
                0x00000cb6       0x1d c:/program files (x86)/gnu tools arm embedded/9 2019-q4-major/bin/../lib/gcc/arm-none-eabi/9.2.1/thumb/v7-m/nofp/crtn.o
OUTPUT(build/TP2824stm32.elf elf32-littlearm)

.debug_info     0x00000000    0x4c4f9
 .debug_info    0x00000000     0x6c1c build/main.o
 .debug_info    0x00006c1c     0x1481 build/stm32f1xx_it.o
 .debug_info    0x0000809d     0x1de3 build/stm32f1xx_hal_msp.o
 .debug_info    0x00009e80     0x3948 build/stm32f1xx_hal_tim.o
 .debug_info    0x0000d7c8     0x1813 build/stm32f1xx_hal_tim_ex.o
 .debug_info    0x0000efdb     0x1a9a build/stm32f1xx_hal_uart.o
 .debug_info    0x00010a75      0x8c6 build/stm32f1xx_hal.o
 .debug_info    0x0001133b      0xb59 build/stm32f1xx_hal_rcc.o
 .debug_info    0x00011e94      0x533 build/stm32f1xx_hal_rcc_ex.o
 .debug_info    0x000123c7      0x7a8 build/stm32f1xx_hal_gpio.o
 .debug_info    0x00012b6f      0x9a7 build/stm32f1xx_hal_dma.o
 .debug_info    0x00013516      0xee9 build/stm32f1xx_hal_cortex.o
 .debug_info    0x000143ff     0x10eb build/stm32f1xx_hal_adc.o
 .debug_info    0x000154ea      0x4cf build/system_stm32f1xx.o
 .debug_info    0x000159b9     0x1a13 build/VX_swi2c.o
 .debug_info    0x000173cc      0xe0c build/VS4210_param_Mode88.o
 .debug_info    0x000181d8     0x3535 build/VS4210_param_Modex26.o
 .debug_info    0x0001b70d     0x15b4 build/VX_OSD.o
 .debug_info    0x0001ccc1     0x93a6 build/VX_OSD_Simple.o
 .debug_info    0x00026067     0x6952 build/VS4210.o
 .debug_info    0x0002c9b9     0x5575 build/TP2802.o
 .debug_info    0x00031f2e     0x3d22 build/monitor.o
 .debug_info    0x00035c50     0x111e build/Printf.o
 .debug_info    0x00036d6e     0x2d07 build/SysTimer.o
 .debug_info    0x00039a75     0x1a7b build/etc_eep.o
 .debug_info    0x0003b4f0     0x4d0b build/keyremo.o
 .debug_info    0x000401fb     0x1816 build/audio.o
 .debug_info    0x00041a11      0xd3d build/exosd.o
 .debug_info    0x0004274e     0x42f0 build/GT911.o
 .debug_info    0x00046a3e     0x5a99 build/VX8812.o
 .debug_info    0x0004c4d7       0x22 build/startup_stm32f103xb.o

.debug_abbrev   0x00000000     0x57a8
 .debug_abbrev  0x00000000      0x412 build/main.o
 .debug_abbrev  0x00000412      0x278 build/stm32f1xx_it.o
 .debug_abbrev  0x0000068a      0x31c build/stm32f1xx_hal_msp.o
 .debug_abbrev  0x000009a6      0x2c3 build/stm32f1xx_hal_tim.o
 .debug_abbrev  0x00000c69      0x2ab build/stm32f1xx_hal_tim_ex.o
 .debug_abbrev  0x00000f14      0x2ea build/stm32f1xx_hal_uart.o
 .debug_abbrev  0x000011fe      0x22f build/stm32f1xx_hal.o
 .debug_abbrev  0x0000142d      0x2ad build/stm32f1xx_hal_rcc.o
 .debug_abbrev  0x000016da      0x1fb build/stm32f1xx_hal_rcc_ex.o
 .debug_abbrev  0x000018d5      0x24f build/stm32f1xx_hal_gpio.o
 .debug_abbrev  0x00001b24      0x283 build/stm32f1xx_hal_dma.o
 .debug_abbrev  0x00001da7      0x37f build/stm32f1xx_hal_cortex.o
 .debug_abbrev  0x00002126      0x265 build/stm32f1xx_hal_adc.o
 .debug_abbrev  0x0000238b      0x153 build/system_stm32f1xx.o
 .debug_abbrev  0x000024de      0x360 build/VX_swi2c.o
 .debug_abbrev  0x0000283e      0x1ab build/VS4210_param_Mode88.o
 .debug_abbrev  0x000029e9      0x1be build/VS4210_param_Modex26.o
 .debug_abbrev  0x00002ba7      0x2b8 build/VX_OSD.o
 .debug_abbrev  0x00002e5f      0x3fd build/VX_OSD_Simple.o
 .debug_abbrev  0x0000325c      0x400 build/VS4210.o
 .debug_abbrev  0x0000365c      0x3dc build/TP2802.o
 .debug_abbrev  0x00003a38      0x449 build/monitor.o
 .debug_abbrev  0x00003e81      0x349 build/Printf.o
 .debug_abbrev  0x000041ca      0x3e7 build/SysTimer.o
 .debug_abbrev  0x000045b1      0x308 build/etc_eep.o
 .debug_abbrev  0x000048b9      0x3ca build/keyremo.o
 .debug_abbrev  0x00004c83      0x2e5 build/audio.o
 .debug_abbrev  0x00004f68      0x1e1 build/exosd.o
 .debug_abbrev  0x00005149      0x39f build/GT911.o
 .debug_abbrev  0x000054e8      0x2ae build/VX8812.o
 .debug_abbrev  0x00005796       0x12 build/startup_stm32f103xb.o

.debug_loc      0x00000000    0x1ca24
 .debug_loc     0x00000000      0xd8c build/main.o
 .debug_loc     0x00000d8c       0xa0 build/stm32f1xx_it.o
 .debug_loc     0x00000e2c      0x3cb build/stm32f1xx_hal_msp.o
 .debug_loc     0x000011f7     0x4619 build/stm32f1xx_hal_tim.o
 .debug_loc     0x00005810     0x15ad build/stm32f1xx_hal_tim_ex.o
 .debug_loc     0x00006dbd     0x1d1b build/stm32f1xx_hal_uart.o
 .debug_loc     0x00008ad8      0x1bb build/stm32f1xx_hal.o
 .debug_loc     0x00008c93      0x7c0 build/stm32f1xx_hal_rcc.o
 .debug_loc     0x00009453      0x40a build/stm32f1xx_hal_rcc_ex.o
 .debug_loc     0x0000985d      0x50e build/stm32f1xx_hal_gpio.o
 .debug_loc     0x00009d6b      0x901 build/stm32f1xx_hal_dma.o
 .debug_loc     0x0000a66c      0x7af build/stm32f1xx_hal_cortex.o
 .debug_loc     0x0000ae1b      0xdf1 build/stm32f1xx_hal_adc.o
 .debug_loc     0x0000bc0c       0xff build/system_stm32f1xx.o
 .debug_loc     0x0000bd0b      0xd8e build/VX_swi2c.o
 .debug_loc     0x0000ca99      0x7c2 build/VX_OSD.o
 .debug_loc     0x0000d25b     0x3764 build/VX_OSD_Simple.o
 .debug_loc     0x000109bf     0x65cf build/VS4210.o
 .debug_loc     0x00016f8e     0x24f8 build/TP2802.o
 .debug_loc     0x00019486      0x7ea build/monitor.o
 .debug_loc     0x00019c70      0x74d build/Printf.o
 .debug_loc     0x0001a3bd      0x7c0 build/SysTimer.o
 .debug_loc     0x0001ab7d      0x1ca build/etc_eep.o
 .debug_loc     0x0001ad47     0x122e build/keyremo.o
 .debug_loc     0x0001bf75      0x25e build/audio.o
 .debug_loc     0x0001c1d3      0x80c build/GT911.o
 .debug_loc     0x0001c9df       0x45 build/VX8812.o

.debug_aranges  0x00000000     0x1790
 .debug_aranges
                0x00000000      0x108 build/main.o
 .debug_aranges
                0x00000108       0x80 build/stm32f1xx_it.o
 .debug_aranges
                0x00000188       0x68 build/stm32f1xx_hal_msp.o
 .debug_aranges
                0x000001f0      0x3a8 build/stm32f1xx_hal_tim.o
 .debug_aranges
                0x00000598      0x150 build/stm32f1xx_hal_tim_ex.o
 .debug_aranges
                0x000006e8      0x1d0 build/stm32f1xx_hal_uart.o
 .debug_aranges
                0x000008b8       0xe0 build/stm32f1xx_hal.o
 .debug_aranges
                0x00000998       0x90 build/stm32f1xx_hal_rcc.o
 .debug_aranges
                0x00000a28       0x30 build/stm32f1xx_hal_rcc_ex.o
 .debug_aranges
                0x00000a58       0x58 build/stm32f1xx_hal_gpio.o
 .debug_aranges
                0x00000ab0       0x80 build/stm32f1xx_hal_dma.o
 .debug_aranges
                0x00000b30       0x90 build/stm32f1xx_hal_cortex.o
 .debug_aranges
                0x00000bc0       0xf0 build/stm32f1xx_hal_adc.o
 .debug_aranges
                0x00000cb0       0x28 build/system_stm32f1xx.o
 .debug_aranges
                0x00000cd8       0xf0 build/VX_swi2c.o
 .debug_aranges
                0x00000dc8       0x18 build/VS4210_param_Mode88.o
 .debug_aranges
                0x00000de0       0x18 build/VS4210_param_Modex26.o
 .debug_aranges
                0x00000df8       0x78 build/VX_OSD.o
 .debug_aranges
                0x00000e70      0x198 build/VX_OSD_Simple.o
 .debug_aranges
                0x00001008      0x250 build/VS4210.o
 .debug_aranges
                0x00001258      0x138 build/TP2802.o
 .debug_aranges
                0x00001390       0xc8 build/monitor.o
 .debug_aranges
                0x00001458       0x40 build/Printf.o
 .debug_aranges
                0x00001498       0xa0 build/SysTimer.o
 .debug_aranges
                0x00001538       0x60 build/etc_eep.o
 .debug_aranges
                0x00001598      0x100 build/keyremo.o
 .debug_aranges
                0x00001698       0x38 build/audio.o
 .debug_aranges
                0x000016d0       0x18 build/exosd.o
 .debug_aranges
                0x000016e8       0x40 build/GT911.o
 .debug_aranges
                0x00001728       0x40 build/VX8812.o
 .debug_aranges
                0x00001768       0x28 build/startup_stm32f103xb.o

.debug_ranges   0x00000000     0x16b8
 .debug_ranges  0x00000000       0xf8 build/main.o
 .debug_ranges  0x000000f8       0x70 build/stm32f1xx_it.o
 .debug_ranges  0x00000168       0x58 build/stm32f1xx_hal_msp.o
 .debug_ranges  0x000001c0      0x398 build/stm32f1xx_hal_tim.o
 .debug_ranges  0x00000558      0x140 build/stm32f1xx_hal_tim_ex.o
 .debug_ranges  0x00000698      0x1c0 build/stm32f1xx_hal_uart.o
 .debug_ranges  0x00000858       0xd0 build/stm32f1xx_hal.o
 .debug_ranges  0x00000928       0xa0 build/stm32f1xx_hal_rcc.o
 .debug_ranges  0x000009c8       0x38 build/stm32f1xx_hal_rcc_ex.o
 .debug_ranges  0x00000a00       0x48 build/stm32f1xx_hal_gpio.o
 .debug_ranges  0x00000a48       0x70 build/stm32f1xx_hal_dma.o
 .debug_ranges  0x00000ab8       0xe0 build/stm32f1xx_hal_cortex.o
 .debug_ranges  0x00000b98       0xe0 build/stm32f1xx_hal_adc.o
 .debug_ranges  0x00000c78       0x18 build/system_stm32f1xx.o
 .debug_ranges  0x00000c90       0xe0 build/VX_swi2c.o
 .debug_ranges  0x00000d70       0x68 build/VX_OSD.o
 .debug_ranges  0x00000dd8      0x188 build/VX_OSD_Simple.o
 .debug_ranges  0x00000f60      0x240 build/VS4210.o
 .debug_ranges  0x000011a0      0x1b8 build/TP2802.o
 .debug_ranges  0x00001358       0xb8 build/monitor.o
 .debug_ranges  0x00001410       0x30 build/Printf.o
 .debug_ranges  0x00001440       0x90 build/SysTimer.o
 .debug_ranges  0x000014d0       0x50 build/etc_eep.o
 .debug_ranges  0x00001520       0xf0 build/keyremo.o
 .debug_ranges  0x00001610       0x28 build/audio.o
 .debug_ranges  0x00001638       0x30 build/GT911.o
 .debug_ranges  0x00001668       0x30 build/VX8812.o
 .debug_ranges  0x00001698       0x20 build/startup_stm32f103xb.o

.debug_line     0x00000000    0x1eb29
 .debug_line    0x00000000     0x2aab build/main.o
 .debug_line    0x00002aab      0x416 build/stm32f1xx_it.o
 .debug_line    0x00002ec1      0x5cd build/stm32f1xx_hal_msp.o
 .debug_line    0x0000348e     0x366b build/stm32f1xx_hal_tim.o
 .debug_line    0x00006af9     0x11d9 build/stm32f1xx_hal_tim_ex.o
 .debug_line    0x00007cd2     0x1be7 build/stm32f1xx_hal_uart.o
 .debug_line    0x000098b9      0x524 build/stm32f1xx_hal.o
 .debug_line    0x00009ddd      0xc45 build/stm32f1xx_hal_rcc.o
 .debug_line    0x0000aa22      0x4d2 build/stm32f1xx_hal_rcc_ex.o
 .debug_line    0x0000aef4      0x62b build/stm32f1xx_hal_gpio.o
 .debug_line    0x0000b51f      0xa9d build/stm32f1xx_hal_dma.o
 .debug_line    0x0000bfbc      0x67e build/stm32f1xx_hal_cortex.o
 .debug_line    0x0000c63a      0xec8 build/stm32f1xx_hal_adc.o
 .debug_line    0x0000d502      0x2ce build/system_stm32f1xx.o
 .debug_line    0x0000d7d0      0x786 build/VX_swi2c.o
 .debug_line    0x0000df56      0x13c build/VS4210_param_Mode88.o
 .debug_line    0x0000e092      0x13d build/VS4210_param_Modex26.o
 .debug_line    0x0000e1cf      0x428 build/VX_OSD.o
 .debug_line    0x0000e5f7     0x3521 build/VX_OSD_Simple.o
 .debug_line    0x00011b18     0x3756 build/VS4210.o
 .debug_line    0x0001526e     0x2b27 build/TP2802.o
 .debug_line    0x00017d95     0x12eb build/monitor.o
 .debug_line    0x00019080      0x585 build/Printf.o
 .debug_line    0x00019605      0xc6c build/SysTimer.o
 .debug_line    0x0001a271      0x580 build/etc_eep.o
 .debug_line    0x0001a7f1     0x264c build/keyremo.o
 .debug_line    0x0001ce3d      0x481 build/audio.o
 .debug_line    0x0001d2be      0x243 build/exosd.o
 .debug_line    0x0001d501     0x10c2 build/GT911.o
 .debug_line    0x0001e5c3      0x4f4 build/VX8812.o
 .debug_line    0x0001eab7       0x72 build/startup_stm32f103xb.o

.debug_str      0x00000000    0x101de
 .debug_str     0x00000000     0x937c build/main.o
                               0x9590 (size before relaxing)
 .debug_str     0x0000937c      0x134 build/stm32f1xx_it.o
                                0xcdf (size before relaxing)
 .debug_str     0x000094b0      0x11a build/stm32f1xx_hal_msp.o
                               0x11a1 (size before relaxing)
 .debug_str     0x000095ca      0xc90 build/stm32f1xx_hal_tim.o
                               0x14ef (size before relaxing)
 .debug_str     0x0000a25a      0x4d5 build/stm32f1xx_hal_tim_ex.o
                                0xd07 (size before relaxing)
 .debug_str     0x0000a72f      0x518 build/stm32f1xx_hal_uart.o
                                0xc37 (size before relaxing)
 .debug_str     0x0000ac47      0x25c build/stm32f1xx_hal.o
                                0x84b (size before relaxing)
 .debug_str     0x0000aea3      0x1ad build/stm32f1xx_hal_rcc.o
                                0x6a0 (size before relaxing)
 .debug_str     0x0000b050      0x128 build/stm32f1xx_hal_rcc_ex.o
                                0x47f (size before relaxing)
 .debug_str     0x0000b178       0xd9 build/stm32f1xx_hal_gpio.o
                                0x4be (size before relaxing)
 .debug_str     0x0000b251      0x1f6 build/stm32f1xx_hal_dma.o
                                0x6bb (size before relaxing)
 .debug_str     0x0000b447      0x391 build/stm32f1xx_hal_cortex.o
                                0x96d (size before relaxing)
 .debug_str     0x0000b7d8      0x2f0 build/stm32f1xx_hal_adc.o
                                0x96f (size before relaxing)
 .debug_str     0x0000bac8       0x4a build/system_stm32f1xx.o
                                0x32d (size before relaxing)
 .debug_str     0x0000bb12      0x258 build/VX_swi2c.o
                               0x14c6 (size before relaxing)
 .debug_str     0x0000bd6a       0x1d build/VS4210_param_Mode88.o
                               0x14e6 (size before relaxing)
 .debug_str     0x0000bd87       0x1e build/VS4210_param_Modex26.o
                               0x6ac5 (size before relaxing)
 .debug_str     0x0000bda5      0x149 build/VX_OSD.o
                               0x124b (size before relaxing)
 .debug_str     0x0000beee     0x22ae build/VX_OSD_Simple.o
                               0x43fc (size before relaxing)
 .debug_str     0x0000e19c      0x8c0 build/VS4210.o
                               0x86f7 (size before relaxing)
 .debug_str     0x0000ea5c      0x70e build/TP2802.o
                               0x241a (size before relaxing)
 .debug_str     0x0000f16a      0x1e7 build/monitor.o
                               0x1a21 (size before relaxing)
 .debug_str     0x0000f351       0x77 build/Printf.o
                               0x1310 (size before relaxing)
 .debug_str     0x0000f3c8      0x714 build/SysTimer.o
                               0x279f (size before relaxing)
 .debug_str     0x0000fadc       0x63 build/etc_eep.o
                               0x163c (size before relaxing)
 .debug_str     0x0000fb3f      0x4ab build/keyremo.o
                               0x2a23 (size before relaxing)
 .debug_str     0x0000ffea       0x25 build/audio.o
                               0x1c51 (size before relaxing)
 .debug_str     0x0001000f        0xf build/exosd.o
                               0x1178 (size before relaxing)
 .debug_str     0x0001001e       0xfc build/GT911.o
                               0x7aa6 (size before relaxing)
 .debug_str     0x0001011a       0xa0 build/VX8812.o
                               0x6aeb (size before relaxing)
 .debug_str     0x000101ba       0x24 build/startup_stm32f103xb.o
                                 0x38 (size before relaxing)

.comment        0x00000000       0xf8
 .comment       0x00000000       0x79 build/main.o
                                 0x7a (size before relaxing)
 .comment       0x00000079       0x7a build/stm32f1xx_it.o
 .comment       0x00000079       0x7a build/stm32f1xx_hal_msp.o
 .comment       0x00000079       0x7a build/stm32f1xx_hal_tim.o
 .comment       0x00000079       0x7a build/stm32f1xx_hal_tim_ex.o
 .comment       0x00000079       0x7a build/stm32f1xx_hal_uart.o
 .comment       0x00000079       0x7a build/stm32f1xx_hal.o
 .comment       0x00000079       0x7a build/stm32f1xx_hal_rcc.o
 .comment       0x00000079       0x7a build/stm32f1xx_hal_rcc_ex.o
 .comment       0x00000079       0x7a build/stm32f1xx_hal_gpio.o
 .comment       0x00000079       0x7a build/stm32f1xx_hal_dma.o
 .comment       0x00000079       0x7a build/stm32f1xx_hal_cortex.o
 .comment       0x00000079       0x7a build/stm32f1xx_hal_adc.o
 .comment       0x00000079       0x7a build/system_stm32f1xx.o
 .comment       0x00000079       0x7a build/VX_swi2c.o
 .comment       0x00000079       0x7a build/VS4210_param_Mode88.o
 .comment       0x00000079       0x7a build/VS4210_param_Modex26.o
 .comment       0x00000079       0x7a build/VX_OSD.o
 .comment       0x00000079       0x7a build/VX_OSD_Simple.o
 .comment       0x00000079       0x7a build/VS4210.o
 .comment       0x00000079       0x7a build/TP2802.o
 .comment       0x00000079       0x7a build/monitor.o
 .comment       0x00000079       0x7a build/Printf.o
 .comment       0x00000079       0x7a build/SysTimer.o
 .comment       0x00000079       0x7a build/etc_eep.o
 .comment       0x00000079       0x7a build/keyremo.o
 .comment       0x00000079       0x7a build/audio.o
 .comment       0x00000079       0x7a build/exosd.o
 .comment       0x00000079       0x7a build/GT911.o
 .comment       0x00000079       0x7a build/VX8812.o
 .comment       0x00000079       0x7f ./Lib\libsw_i2c0.a(sw_i2c0.o)
                                 0x80 (size before relaxing)
 .comment       0x000000f8       0x80 ./Lib\libsw_i2c1.a(sw_i2c1.o)
 .comment       0x000000f8       0x80 ./Lib\libsw_i2c2.a(sw_i2c2.o)
 .comment       0x000000f8       0x80 ./Lib\libsw_i2c3.a(sw_i2c3.o)

.debug_frame    0x00000000     0x51d0
 .debug_frame   0x00000000      0x3a4 build/main.o
 .debug_frame   0x000003a4      0x11c build/stm32f1xx_it.o
 .debug_frame   0x000004c0      0x12c build/stm32f1xx_hal_msp.o
 .debug_frame   0x000005ec      0xbe8 build/stm32f1xx_hal_tim.o
 .debug_frame   0x000011d4      0x430 build/stm32f1xx_hal_tim_ex.o
 .debug_frame   0x00001604      0x574 build/stm32f1xx_hal_uart.o
 .debug_frame   0x00001b78      0x1e0 build/stm32f1xx_hal.o
 .debug_frame   0x00001d58      0x1c0 build/stm32f1xx_hal_rcc.o
 .debug_frame   0x00001f18       0x6c build/stm32f1xx_hal_rcc_ex.o
 .debug_frame   0x00001f84      0x104 build/stm32f1xx_hal_gpio.o
 .debug_frame   0x00002088      0x168 build/stm32f1xx_hal_dma.o
 .debug_frame   0x000021f0      0x13c build/stm32f1xx_hal_cortex.o
 .debug_frame   0x0000232c      0x31c build/stm32f1xx_hal_adc.o
 .debug_frame   0x00002648       0x30 build/system_stm32f1xx.o
 .debug_frame   0x00002678      0x314 build/VX_swi2c.o
 .debug_frame   0x0000298c      0x164 build/VX_OSD.o
 .debug_frame   0x00002af0      0x63c build/VX_OSD_Simple.o
 .debug_frame   0x0000312c      0x80c build/VS4210.o
 .debug_frame   0x00003938      0x47c build/TP2802.o
 .debug_frame   0x00003db4      0x1f4 build/monitor.o
 .debug_frame   0x00003fa8      0x110 build/Printf.o
 .debug_frame   0x000040b8      0x19c build/SysTimer.o
 .debug_frame   0x00004254      0x110 build/etc_eep.o
 .debug_frame   0x00004364      0x340 build/keyremo.o
 .debug_frame   0x000046a4       0x88 build/audio.o
 .debug_frame   0x0000472c       0xe0 build/GT911.o
 .debug_frame   0x0000480c       0x6c build/VX8812.o
 .debug_frame   0x00004878       0x20 c:/program files (x86)/gnu tools arm embedded/9 2019-q4-major/bin/../lib/gcc/arm-none-eabi/9.2.1/../../../../arm-none-eabi/lib/thumb/v7-m/nofp\libc_nano.a(lib_a-errno.o)
 .debug_frame   0x00004898       0x2c c:/program files (x86)/gnu tools arm embedded/9 2019-q4-major/bin/../lib/gcc/arm-none-eabi/9.2.1/../../../../arm-none-eabi/lib/thumb/v7-m/nofp\libc_nano.a(lib_a-init.o)
 .debug_frame   0x000048c4       0x28 c:/program files (x86)/gnu tools arm embedded/9 2019-q4-major/bin/../lib/gcc/arm-none-eabi/9.2.1/../../../../arm-none-eabi/lib/thumb/v7-m/nofp\libc_nano.a(lib_a-memcpy-stub.o)
 .debug_frame   0x000048ec       0x20 c:/program files (x86)/gnu tools arm embedded/9 2019-q4-major/bin/../lib/gcc/arm-none-eabi/9.2.1/../../../../arm-none-eabi/lib/thumb/v7-m/nofp\libc_nano.a(lib_a-memset.o)
 .debug_frame   0x0000490c       0x74 c:/program files (x86)/gnu tools arm embedded/9 2019-q4-major/bin/../lib/gcc/arm-none-eabi/9.2.1/../../../../arm-none-eabi/lib/thumb/v7-m/nofp\libc_nano.a(lib_a-printf.o)
 .debug_frame   0x00004980       0x3c c:/program files (x86)/gnu tools arm embedded/9 2019-q4-major/bin/../lib/gcc/arm-none-eabi/9.2.1/../../../../arm-none-eabi/lib/thumb/v7-m/nofp\libc_nano.a(lib_a-puts.o)
 .debug_frame   0x000049bc       0x40 c:/program files (x86)/gnu tools arm embedded/9 2019-q4-major/bin/../lib/gcc/arm-none-eabi/9.2.1/../../../../arm-none-eabi/lib/thumb/v7-m/nofp\libc_nano.a(lib_a-wbuf.o)
 .debug_frame   0x000049fc       0x2c c:/program files (x86)/gnu tools arm embedded/9 2019-q4-major/bin/../lib/gcc/arm-none-eabi/9.2.1/../../../../arm-none-eabi/lib/thumb/v7-m/nofp\libc_nano.a(lib_a-wsetup.o)
 .debug_frame   0x00004a28       0x5c c:/program files (x86)/gnu tools arm embedded/9 2019-q4-major/bin/../lib/gcc/arm-none-eabi/9.2.1/../../../../arm-none-eabi/lib/thumb/v7-m/nofp\libc_nano.a(lib_a-fflush.o)
 .debug_frame   0x00004a84      0x14c c:/program files (x86)/gnu tools arm embedded/9 2019-q4-major/bin/../lib/gcc/arm-none-eabi/9.2.1/../../../../arm-none-eabi/lib/thumb/v7-m/nofp\libc_nano.a(lib_a-findfp.o)
 .debug_frame   0x00004bd0       0x54 c:/program files (x86)/gnu tools arm embedded/9 2019-q4-major/bin/../lib/gcc/arm-none-eabi/9.2.1/../../../../arm-none-eabi/lib/thumb/v7-m/nofp\libc_nano.a(lib_a-fwalk.o)
 .debug_frame   0x00004c24       0xb0 c:/program files (x86)/gnu tools arm embedded/9 2019-q4-major/bin/../lib/gcc/arm-none-eabi/9.2.1/../../../../arm-none-eabi/lib/thumb/v7-m/nofp\libc_nano.a(lib_a-lock.o)
 .debug_frame   0x00004cd4       0x58 c:/program files (x86)/gnu tools arm embedded/9 2019-q4-major/bin/../lib/gcc/arm-none-eabi/9.2.1/../../../../arm-none-eabi/lib/thumb/v7-m/nofp\libc_nano.a(lib_a-makebuf.o)
 .debug_frame   0x00004d2c       0x38 c:/program files (x86)/gnu tools arm embedded/9 2019-q4-major/bin/../lib/gcc/arm-none-eabi/9.2.1/../../../../arm-none-eabi/lib/thumb/v7-m/nofp\libc_nano.a(lib_a-nano-freer.o)
 .debug_frame   0x00004d64       0x30 c:/program files (x86)/gnu tools arm embedded/9 2019-q4-major/bin/../lib/gcc/arm-none-eabi/9.2.1/../../../../arm-none-eabi/lib/thumb/v7-m/nofp\libc_nano.a(lib_a-nano-mallocr.o)
 .debug_frame   0x00004d94       0xac c:/program files (x86)/gnu tools arm embedded/9 2019-q4-major/bin/../lib/gcc/arm-none-eabi/9.2.1/../../../../arm-none-eabi/lib/thumb/v7-m/nofp\libc_nano.a(lib_a-nano-vfprintf.o)
 .debug_frame   0x00004e40       0x60 c:/program files (x86)/gnu tools arm embedded/9 2019-q4-major/bin/../lib/gcc/arm-none-eabi/9.2.1/../../../../arm-none-eabi/lib/thumb/v7-m/nofp\libc_nano.a(lib_a-nano-vfprintf_i.o)
 .debug_frame   0x00004ea0       0x2c c:/program files (x86)/gnu tools arm embedded/9 2019-q4-major/bin/../lib/gcc/arm-none-eabi/9.2.1/../../../../arm-none-eabi/lib/thumb/v7-m/nofp\libc_nano.a(lib_a-sbrkr.o)
 .debug_frame   0x00004ecc       0x88 c:/program files (x86)/gnu tools arm embedded/9 2019-q4-major/bin/../lib/gcc/arm-none-eabi/9.2.1/../../../../arm-none-eabi/lib/thumb/v7-m/nofp\libc_nano.a(lib_a-stdio.o)
 .debug_frame   0x00004f54       0x2c c:/program files (x86)/gnu tools arm embedded/9 2019-q4-major/bin/../lib/gcc/arm-none-eabi/9.2.1/../../../../arm-none-eabi/lib/thumb/v7-m/nofp\libc_nano.a(lib_a-writer.o)
 .debug_frame   0x00004f80       0x2c c:/program files (x86)/gnu tools arm embedded/9 2019-q4-major/bin/../lib/gcc/arm-none-eabi/9.2.1/../../../../arm-none-eabi/lib/thumb/v7-m/nofp\libc_nano.a(lib_a-closer.o)
 .debug_frame   0x00004fac       0x2c c:/program files (x86)/gnu tools arm embedded/9 2019-q4-major/bin/../lib/gcc/arm-none-eabi/9.2.1/../../../../arm-none-eabi/lib/thumb/v7-m/nofp\libc_nano.a(lib_a-fstatr.o)
 .debug_frame   0x00004fd8       0x2c c:/program files (x86)/gnu tools arm embedded/9 2019-q4-major/bin/../lib/gcc/arm-none-eabi/9.2.1/../../../../arm-none-eabi/lib/thumb/v7-m/nofp\libc_nano.a(lib_a-isattyr.o)
 .debug_frame   0x00005004       0x2c c:/program files (x86)/gnu tools arm embedded/9 2019-q4-major/bin/../lib/gcc/arm-none-eabi/9.2.1/../../../../arm-none-eabi/lib/thumb/v7-m/nofp\libc_nano.a(lib_a-lseekr.o)
 .debug_frame   0x00005030       0x28 c:/program files (x86)/gnu tools arm embedded/9 2019-q4-major/bin/../lib/gcc/arm-none-eabi/9.2.1/../../../../arm-none-eabi/lib/thumb/v7-m/nofp\libc_nano.a(lib_a-memchr-stub.o)
 .debug_frame   0x00005058       0x30 c:/program files (x86)/gnu tools arm embedded/9 2019-q4-major/bin/../lib/gcc/arm-none-eabi/9.2.1/../../../../arm-none-eabi/lib/thumb/v7-m/nofp\libc_nano.a(lib_a-mlock.o)
 .debug_frame   0x00005088       0x2c c:/program files (x86)/gnu tools arm embedded/9 2019-q4-major/bin/../lib/gcc/arm-none-eabi/9.2.1/../../../../arm-none-eabi/lib/thumb/v7-m/nofp\libc_nano.a(lib_a-readr.o)
 .debug_frame   0x000050b4       0x5c c:/program files (x86)/gnu tools arm embedded/9 2019-q4-major/bin/../lib/gcc/arm-none-eabi/9.2.1/../../../../arm-none-eabi/lib/thumb/v7-m/nofp\libc_nano.a(lib_a-reent.o)
 .debug_frame   0x00005110       0x20 c:/program files (x86)/gnu tools arm embedded/9 2019-q4-major/bin/../lib/gcc/arm-none-eabi/9.2.1/../../../../arm-none-eabi/lib/thumb/v7-m/nofp\libnosys.a(close.o)
 .debug_frame   0x00005130       0x20 c:/program files (x86)/gnu tools arm embedded/9 2019-q4-major/bin/../lib/gcc/arm-none-eabi/9.2.1/../../../../arm-none-eabi/lib/thumb/v7-m/nofp\libnosys.a(fstat.o)
 .debug_frame   0x00005150       0x20 c:/program files (x86)/gnu tools arm embedded/9 2019-q4-major/bin/../lib/gcc/arm-none-eabi/9.2.1/../../../../arm-none-eabi/lib/thumb/v7-m/nofp\libnosys.a(isatty.o)
 .debug_frame   0x00005170       0x20 c:/program files (x86)/gnu tools arm embedded/9 2019-q4-major/bin/../lib/gcc/arm-none-eabi/9.2.1/../../../../arm-none-eabi/lib/thumb/v7-m/nofp\libnosys.a(lseek.o)
 .debug_frame   0x00005190       0x20 c:/program files (x86)/gnu tools arm embedded/9 2019-q4-major/bin/../lib/gcc/arm-none-eabi/9.2.1/../../../../arm-none-eabi/lib/thumb/v7-m/nofp\libnosys.a(read.o)
 .debug_frame   0x000051b0       0x20 c:/program files (x86)/gnu tools arm embedded/9 2019-q4-major/bin/../lib/gcc/arm-none-eabi/9.2.1/../../../../arm-none-eabi/lib/thumb/v7-m/nofp\libnosys.a(sbrk.o)

.stab           0x00000000       0x84
 .stab          0x00000000       0x24 c:/program files (x86)/gnu tools arm embedded/9 2019-q4-major/bin/../lib/gcc/arm-none-eabi/9.2.1/../../../../arm-none-eabi/lib/thumb/v7-m/nofp\libnosys.a(close.o)
 .stab          0x00000024       0x18 c:/program files (x86)/gnu tools arm embedded/9 2019-q4-major/bin/../lib/gcc/arm-none-eabi/9.2.1/../../../../arm-none-eabi/lib/thumb/v7-m/nofp\libnosys.a(fstat.o)
                                 0x24 (size before relaxing)
 .stab          0x0000003c       0x18 c:/program files (x86)/gnu tools arm embedded/9 2019-q4-major/bin/../lib/gcc/arm-none-eabi/9.2.1/../../../../arm-none-eabi/lib/thumb/v7-m/nofp\libnosys.a(isatty.o)
                                 0x24 (size before relaxing)
 .stab          0x00000054       0x18 c:/program files (x86)/gnu tools arm embedded/9 2019-q4-major/bin/../lib/gcc/arm-none-eabi/9.2.1/../../../../arm-none-eabi/lib/thumb/v7-m/nofp\libnosys.a(lseek.o)
                                 0x24 (size before relaxing)
 .stab          0x0000006c       0x18 c:/program files (x86)/gnu tools arm embedded/9 2019-q4-major/bin/../lib/gcc/arm-none-eabi/9.2.1/../../../../arm-none-eabi/lib/thumb/v7-m/nofp\libnosys.a(read.o)
                                 0x24 (size before relaxing)

.stabstr        0x00000000      0x117
 .stabstr       0x00000000      0x117 c:/program files (x86)/gnu tools arm embedded/9 2019-q4-major/bin/../lib/gcc/arm-none-eabi/9.2.1/../../../../arm-none-eabi/lib/thumb/v7-m/nofp\libnosys.a(close.o)

Cross Reference Table

Symbol                                            File
ADC1_2_IRQHandler                                 build/startup_stm32f103xb.o
ADC_ConversionStop_Disable                        build/stm32f1xx_hal_adc.o
                                                  build/stm32f1xx_hal_adc_ex.o
ADC_DMAConvCplt                                   build/stm32f1xx_hal_adc.o
                                                  build/stm32f1xx_hal_adc_ex.o
ADC_DMAError                                      build/stm32f1xx_hal_adc.o
                                                  build/stm32f1xx_hal_adc_ex.o
ADC_DMAHalfConvCplt                               build/stm32f1xx_hal_adc.o
                                                  build/stm32f1xx_hal_adc_ex.o
ADC_Enable                                        build/stm32f1xx_hal_adc.o
                                                  build/stm32f1xx_hal_adc_ex.o
AHBPrescTable                                     build/system_stm32f1xx.o
                                                  build/stm32f1xx_hal_rcc.o
AHDBitsReverse                                    build/TP2802.o
AHDcmd1                                           build/TP2802.o
AHDcmd2                                           build/TP2802.o
AHDcmd3                                           build/TP2802.o
AHDcmd4                                           build/TP2802.o
APBPrescTable                                     build/system_stm32f1xx.o
                                                  build/stm32f1xx_hal_rcc.o
AUDIO_SELECT                                      build/audio.o
                                                  build/main.o
AUDIO_SELECT_MUTE                                 build/audio.o
                                                  build/main.o
AccessEnable                                      build/monitor.o
                                                  build/main.o
ActionRemo                                        build/keyremo.o
AdjustAutoDayNight                                build/main.o
                                                  build/SysTimer.o
Asc1Bin                                           build/monitor.o
Asc2Bin                                           build/monitor.o
Ascii                                             build/TD5300.o
AsciiToData                                       build/TD5300.o
AudioMute                                         build/audio.o
                                                  build/keyremo.o
                                                  build/SysTimer.o
                                                  build/main.o
AudioVol                                          build/audio.o
                                                  build/keyremo.o
                                                  build/etc_eep.o
                                                  build/VX_OSD_Simple.o
                                                  build/main.o
AudioVolBarRange                                  build/VX_OSD_Simple.o
AudioVolRange                                     build/VX_OSD_Simple.o
                                                  build/audio.o
AutoDayNightDelay                                 build/main.o
BAT_ADC                                           build/main.o
                                                  build/SysTimer.o
                                                  build/VX_swi2c.o
BAT_StartupVOLT                                   build/main.o
                                                  build/SysTimer.o
                                                  build/VX_OSD_Simple.o
BAT_VOLTAGE                                       build/main.o
                                                  build/SysTimer.o
                                                  build/VX_OSD_Simple.o
                                                  build/VX_swi2c.o
BOOT_ISSUE                                        build/main.o
                                                  build/keyremo.o
                                                  build/SysTimer.o
BOX_ISSUE                                         build/main.o
                                                  build/SysTimer.o
                                                  build/TP2802.o
BOX_SELECT_CHANNEL                                build/keyremo.o
BOX_SET_CHANNEL                                   build/keyremo.o
BOX_Set_flag                                      build/keyremo.o
BackLightOFF                                      build/main.o
                                                  build/keyremo.o
                                                  build/etc_eep.o
BackLightON                                       build/main.o
                                                  build/keyremo.o
                                                  build/SysTimer.o
                                                  build/TP2802.o
BacklightRange                                    build/VX_OSD_Simple.o
BarRange                                          build/VX_OSD_Simple.o
BatteryBTH                                        build/SysTimer.o
BatteryVoltage                                    build/SysTimer.o
BookMarkState                                     build/keyremo.o
Boot_Trigger_Function                             build/TP2802.o
                                                  build/keyremo.o
BrightnessRange                                   build/VX_OSD_Simple.o
BusFault_Handler                                  build/stm32f1xx_it.o
CAMA_M                                            build/main.o
                                                  build/GT911.o
                                                  build/keyremo.o
                                                  build/VX_OSD_Simple.o
CAMB_M                                            build/main.o
                                                  build/GT911.o
                                                  build/keyremo.o
                                                  build/VX_OSD_Simple.o
CAMC_M                                            build/main.o
                                                  build/GT911.o
                                                  build/keyremo.o
                                                  build/VS4210.o
                                                  build/VX_OSD_Simple.o
CAMD_M                                            build/main.o
                                                  build/VS4210.o
                                                  build/VX_OSD_Simple.o
CAMR_M                                            build/main.o
                                                  build/GT911.o
                                                  build/keyremo.o
                                                  build/VX_OSD_Simple.o
CAM_PTZ_RUN_flag                                  build/keyremo.o
CAN1_RX1_IRQHandler                               build/startup_stm32f103xb.o
CAN1_SCE_IRQHandler                               build/startup_stm32f103xb.o
CLRGrabberMessage                                 build/VX_OSD_Simple.o
                                                  build/keyremo.o
COCRX1                                            build/TP2802.o
COCRX2                                            build/TP2802.o
COCRX3                                            build/TP2802.o
COCRX4                                            build/TP2802.o
COCSelectModeType                                 build/TP2802.o
                                                  build/keyremo.o
COMMAND_OSD                                       build/keyremo.o
                                                  build/monitor.o
CURRENT_CH                                        build/main.o
                                                  build/TP2802.o
                                                  build/VS4210.o
                                                  build/VX_OSD_Simple.o
CameraVolt                                        build/SysTimer.o
ChangeKey                                         build/keyremo.o
                                                  build/main.o
ChangeVideoData                                   build/VX_OSD_Simple.o
ChangeVol                                         build/audio.o
                                                  build/keyremo.o
CheckCAMDInputVideo                               build/keyremo.o
                                                  build/etc_eep.o
CheckGarbberLiner                                 build/keyremo.o
CheckKeyIn                                        build/keyremo.o
                                                  build/SysTimer.o
                                                  build/main.o
CheckTouchScreen                                  build/keyremo.o
                                                  build/GT911.o
                                                  build/VX_OSD_Simple.o
CheckTrigger                                      build/keyremo.o
                                                  build/TP2802.o
                                                  build/main.o
Check_Data                                        build/TD5300.o
Check_Tire_Data                                   build/TD5300.o
ClearBasicEE                                      build/etc_eep.o
                                                  build/main.o
ClearCursor                                       build/VX_OSD_Simple.o
ClearDisplayedOSD                                 build/VX_OSD.o
                                                  build/VX_OSD_Simple.o
CloseOSDINFO                                      build/VX_OSD_Simple.o
                                                  build/SysTimer.o
CloseOSDMenu                                      build/VX_OSD_Simple.o
                                                  build/GT911.o
                                                  build/keyremo.o
                                                  build/etc_eep.o
                                                  build/SysTimer.o
                                                  build/TP2802.o
                                                  build/main.o
ContrastRange                                     build/VX_OSD_Simple.o
ConvertData                                       build/TP2802.o
CurCH                                             build/TP2802.o
CurRes                                            build/TP2802.o
DEBUG_MESSAGE                                     build/Printf.o
                                                  build/SysTimer.o
DMA1_Channel1_IRQHandler                          build/startup_stm32f103xb.o
DMA1_Channel2_IRQHandler                          build/startup_stm32f103xb.o
DMA1_Channel3_IRQHandler                          build/startup_stm32f103xb.o
DMA1_Channel4_IRQHandler                          build/startup_stm32f103xb.o
DMA1_Channel5_IRQHandler                          build/startup_stm32f103xb.o
DMA1_Channel6_IRQHandler                          build/startup_stm32f103xb.o
DMA1_Channel7_IRQHandler                          build/startup_stm32f103xb.o
DVR_buf                                           build/monitor.o
DataToAscii                                       build/TD5300.o
DayNightLevel                                     build/main.o
                                                  build/etc_eep.o
                                                  build/SysTimer.o
                                                  build/VX_OSD_Simple.o
DebugLevel                                        build/main.o
DebugMon_Handler                                  build/stm32f1xx_it.o
Default_Handler                                   build/startup_stm32f103xb.o
Det_HLock                                         build/TP2802.o
Det_VidRes                                        build/TP2802.o
Det_VideoLoss                                     build/TP2802.o
Device_Mask                                       build/TD5300.o
Disp_Input                                        build/keyremo.o
                                                  build/VX_OSD_Simple.o
                                                  build/main.o
DisplayCursor                                     build/VX_OSD_Simple.o
                                                  build/keyremo.o
DisplayOSDMenuOneItem                             build/VX_OSD_Simple.o
DisplayVol                                        build/VX_OSD_Simple.o
                                                  build/keyremo.o
DisplayVolumebar                                  build/VX_OSD_Simple.o
Display_TPMS_info                                 build/TD5300.o
DisplayedOSD                                      build/VX_OSD.o
                                                  build/VX_OSD_Simple.o
Distance_Gauge_Menu                               build/VX_OSD_Simple.o
DoAction                                          build/VX_OSD_Simple.o
DoPrint                                           build/Printf.o
DrawMenulist                                      build/VX_OSD_Simple.o
Draw_CAR                                          build/TD5300.o
EEPRead                                           ./Lib\libsw_i2c1.a(sw_i2c1.o)
                                                  build/VX_swi2c.o
EEPWrite                                          ./Lib\libsw_i2c1.a(sw_i2c1.o)
                                                  build/VX_swi2c.o
EQ_Detect                                         build/TP2802.o
                                                  build/keyremo.o
                                                  build/SysTimer.o
                                                  build/main.o
EXTI0_IRQHandler                                  build/stm32f1xx_it.o
EXTI15_10_IRQHandler                              build/startup_stm32f103xb.o
EXTI1_IRQHandler                                  build/startup_stm32f103xb.o
EXTI2_IRQHandler                                  build/startup_stm32f103xb.o
EXTI3_IRQHandler                                  build/startup_stm32f103xb.o
EXTI4_IRQHandler                                  build/startup_stm32f103xb.o
EXTI9_5_IRQHandler                                build/startup_stm32f103xb.o
Encoder_flag                                      build/keyremo.o
                                                  build/SysTimer.o
Error_Handler                                     build/main.o
FLASH_IRQHandler                                  build/startup_stm32f103xb.o
FLASH_PageErase                                   build/stm32f1xx_hal_flash_ex.o
                                                  build/stm32f1xx_hal_flash.o
FLASH_WaitForLastOperation                        build/stm32f1xx_hal_flash.o
                                                  build/stm32f1xx_hal_flash_ex.o
Flisheye_CAM                                      build/TP2802.o
                                                  build/GT911.o
                                                  build/keyremo.o
                                                  build/etc_eep.o
                                                  build/SysTimer.o
                                                  build/monitor.o
                                                  build/VX_OSD_Simple.o
                                                  build/main.o
Flisheye_COC                                      build/TP2802.o
                                                  build/GT911.o
                                                  build/VX_OSD_Simple.o
Flisheye_VLOSS_Count                              build/TP2802.o
GET_ALC122                                        build/VX_swi2c.o
                                                  build/monitor.o
GET_LTC2451                                       build/VX_swi2c.o
                                                  build/SysTimer.o
                                                  build/monitor.o
                                                  build/main.o
GET_PCA9554PW                                     build/VX_swi2c.o
                                                  build/keyremo.o
GET_nGT911                                        build/VX_swi2c.o
                                                  build/GT911.o
                                                  build/monitor.o
GT9147_CFG_TBL                                    build/GT911.o
GT9147_Init                                       build/GT911.o
GT9147_Scan                                       build/GT911.o
GT9147_Send_Cfg                                   build/GT911.o
GT9147_TPX_TBL                                    build/GT911.o
GetAudioVolEE                                     build/etc_eep.o
                                                  build/main.o
GetBackLightLevel                                 build/VX_OSD_Simple.o
                                                  build/etc_eep.o
                                                  build/TP2802.o
                                                  build/main.o
GetData                                           build/TD5300.o
GetDebugLevelEE                                   build/etc_eep.o
GetDisplayedOSD                                   build/VX_OSD.o
                                                  build/GT911.o
                                                  build/keyremo.o
                                                  build/SysTimer.o
                                                  build/TP2802.o
                                                  build/VX_OSD_Simple.o
GetFWRevEE                                        build/etc_eep.o
                                                  build/keyremo.o
                                                  build/main.o
GetItemValue                                      build/VX_OSD_Simple.o
                                                  build/GT911.o
                                                  build/keyremo.o
                                                  build/SysTimer.o
GetKey                                            build/keyremo.o
GetOSDMenu                                        build/VX_OSD_Simple.o
GetOSDStep                                        build/VX_OSD_Simple.o
                                                  build/main.o
GetPCAudioVolEE                                   build/etc_eep.o
GetRS232_CMD                                      build/main.o
GetTireDatawhole                                  build/TD5300.o
Get_2824cIrq                                      build/TP2802.o
                                                  build/keyremo.o
                                                  build/SysTimer.o
                                                  build/VX_OSD_Simple.o
                                                  build/main.o
Get_Relay_Data                                    build/TD5300.o
Get_Tire_Data                                     build/TD5300.o
GrabberLinerWinSize1                              build/VX_OSD_Simple.o
GrabberLinerWinSize2                              build/VX_OSD_Simple.o
GrabberModeTrigger                                build/VX_OSD_Simple.o
                                                  build/keyremo.o
GraphicsPrint                                     build/Printf.o
                                                  build/VX8812.o
                                                  build/GT911.o
                                                  build/keyremo.o
                                                  build/SysTimer.o
                                                  build/TP2802.o
                                                  build/VS4210.o
                                                  build/VX_OSD_Simple.o
HAL_ADCEx_Calibration_Start                       build/stm32f1xx_hal_adc_ex.o
HAL_ADCEx_InjectedConfigChannel                   build/stm32f1xx_hal_adc_ex.o
HAL_ADCEx_InjectedConvCpltCallback                build/stm32f1xx_hal_adc_ex.o
                                                  build/stm32f1xx_hal_adc.o
HAL_ADCEx_InjectedGetValue                        build/stm32f1xx_hal_adc_ex.o
HAL_ADCEx_InjectedPollForConversion               build/stm32f1xx_hal_adc_ex.o
HAL_ADCEx_InjectedStart                           build/stm32f1xx_hal_adc_ex.o
HAL_ADCEx_InjectedStart_IT                        build/stm32f1xx_hal_adc_ex.o
HAL_ADCEx_InjectedStop                            build/stm32f1xx_hal_adc_ex.o
HAL_ADCEx_InjectedStop_IT                         build/stm32f1xx_hal_adc_ex.o
HAL_ADCEx_MultiModeConfigChannel                  build/stm32f1xx_hal_adc_ex.o
HAL_ADCEx_MultiModeGetValue                       build/stm32f1xx_hal_adc_ex.o
HAL_ADCEx_MultiModeStart_DMA                      build/stm32f1xx_hal_adc_ex.o
HAL_ADCEx_MultiModeStop_DMA                       build/stm32f1xx_hal_adc_ex.o
HAL_ADC_AnalogWDGConfig                           build/stm32f1xx_hal_adc.o
HAL_ADC_ConfigChannel                             build/stm32f1xx_hal_adc.o
                                                  build/main.o
HAL_ADC_ConvCpltCallback                          build/stm32f1xx_hal_adc.o
HAL_ADC_ConvHalfCpltCallback                      build/stm32f1xx_hal_adc.o
HAL_ADC_DeInit                                    build/stm32f1xx_hal_adc.o
HAL_ADC_ErrorCallback                             build/stm32f1xx_hal_adc.o
HAL_ADC_GetError                                  build/stm32f1xx_hal_adc.o
HAL_ADC_GetState                                  build/stm32f1xx_hal_adc.o
                                                  build/SysTimer.o
HAL_ADC_GetValue                                  build/stm32f1xx_hal_adc.o
                                                  build/SysTimer.o
HAL_ADC_IRQHandler                                build/stm32f1xx_hal_adc.o
HAL_ADC_Init                                      build/stm32f1xx_hal_adc.o
                                                  build/main.o
HAL_ADC_LevelOutOfWindowCallback                  build/stm32f1xx_hal_adc.o
HAL_ADC_MspDeInit                                 build/stm32f1xx_hal_msp.o
HAL_ADC_MspInit                                   build/stm32f1xx_hal_msp.o
                                                  build/main.o
HAL_ADC_PollForConversion                         build/stm32f1xx_hal_adc.o
                                                  build/SysTimer.o
HAL_ADC_PollForEvent                              build/stm32f1xx_hal_adc.o
HAL_ADC_Start                                     build/stm32f1xx_hal_adc.o
                                                  build/SysTimer.o
HAL_ADC_Start_DMA                                 build/stm32f1xx_hal_adc.o
HAL_ADC_Start_IT                                  build/stm32f1xx_hal_adc.o
HAL_ADC_Stop                                      build/stm32f1xx_hal_adc.o
HAL_ADC_Stop_DMA                                  build/stm32f1xx_hal_adc.o
HAL_ADC_Stop_IT                                   build/stm32f1xx_hal_adc.o
HAL_DBGMCU_DisableDBGSleepMode                    build/stm32f1xx_hal.o
HAL_DBGMCU_DisableDBGStandbyMode                  build/stm32f1xx_hal.o
HAL_DBGMCU_DisableDBGStopMode                     build/stm32f1xx_hal.o
HAL_DBGMCU_EnableDBGSleepMode                     build/stm32f1xx_hal.o
HAL_DBGMCU_EnableDBGStandbyMode                   build/stm32f1xx_hal.o
HAL_DBGMCU_EnableDBGStopMode                      build/stm32f1xx_hal.o
HAL_DMA_Abort                                     build/stm32f1xx_hal_dma.o
                                                  build/stm32f1xx_hal_adc_ex.o
                                                  build/stm32f1xx_hal_adc.o
                                                  build/stm32f1xx_hal_uart.o
HAL_DMA_Abort_IT                                  build/stm32f1xx_hal_dma.o
                                                  build/stm32f1xx_hal_uart.o
                                                  build/stm32f1xx_hal_tim_ex.o
                                                  build/stm32f1xx_hal_tim.o
HAL_DMA_DeInit                                    build/stm32f1xx_hal_dma.o
HAL_DMA_GetError                                  build/stm32f1xx_hal_dma.o
                                                  build/stm32f1xx_hal_uart.o
HAL_DMA_GetState                                  build/stm32f1xx_hal_dma.o
HAL_DMA_IRQHandler                                build/stm32f1xx_hal_dma.o
HAL_DMA_Init                                      build/stm32f1xx_hal_dma.o
HAL_DMA_PollForTransfer                           build/stm32f1xx_hal_dma.o
HAL_DMA_RegisterCallback                          build/stm32f1xx_hal_dma.o
HAL_DMA_Start                                     build/stm32f1xx_hal_dma.o
HAL_DMA_Start_IT                                  build/stm32f1xx_hal_dma.o
                                                  build/stm32f1xx_hal_adc_ex.o
                                                  build/stm32f1xx_hal_adc.o
                                                  build/stm32f1xx_hal_uart.o
                                                  build/stm32f1xx_hal_tim_ex.o
                                                  build/stm32f1xx_hal_tim.o
HAL_DMA_UnRegisterCallback                        build/stm32f1xx_hal_dma.o
HAL_DeInit                                        build/stm32f1xx_hal.o
HAL_Delay                                         build/stm32f1xx_hal.o
                                                  build/VX_swi2c.o
HAL_EXTI_ClearConfigLine                          build/stm32f1xx_hal_exti.o
HAL_EXTI_ClearPending                             build/stm32f1xx_hal_exti.o
HAL_EXTI_GenerateSWI                              build/stm32f1xx_hal_exti.o
HAL_EXTI_GetConfigLine                            build/stm32f1xx_hal_exti.o
HAL_EXTI_GetHandle                                build/stm32f1xx_hal_exti.o
HAL_EXTI_GetPending                               build/stm32f1xx_hal_exti.o
HAL_EXTI_IRQHandler                               build/stm32f1xx_hal_exti.o
HAL_EXTI_RegisterCallback                         build/stm32f1xx_hal_exti.o
HAL_EXTI_SetConfigLine                            build/stm32f1xx_hal_exti.o
HAL_FLASHEx_Erase                                 build/stm32f1xx_hal_flash_ex.o
HAL_FLASHEx_Erase_IT                              build/stm32f1xx_hal_flash_ex.o
HAL_FLASHEx_OBErase                               build/stm32f1xx_hal_flash_ex.o
HAL_FLASHEx_OBGetConfig                           build/stm32f1xx_hal_flash_ex.o
HAL_FLASHEx_OBGetUserData                         build/stm32f1xx_hal_flash_ex.o
HAL_FLASHEx_OBProgram                             build/stm32f1xx_hal_flash_ex.o
HAL_FLASH_EndOfOperationCallback                  build/stm32f1xx_hal_flash.o
HAL_FLASH_GetError                                build/stm32f1xx_hal_flash.o
HAL_FLASH_IRQHandler                              build/stm32f1xx_hal_flash.o
HAL_FLASH_Lock                                    build/stm32f1xx_hal_flash.o
HAL_FLASH_OB_Launch                               build/stm32f1xx_hal_flash.o
HAL_FLASH_OB_Lock                                 build/stm32f1xx_hal_flash.o
HAL_FLASH_OB_Unlock                               build/stm32f1xx_hal_flash.o
HAL_FLASH_OperationErrorCallback                  build/stm32f1xx_hal_flash.o
HAL_FLASH_Program                                 build/stm32f1xx_hal_flash.o
HAL_FLASH_Program_IT                              build/stm32f1xx_hal_flash.o
HAL_FLASH_Unlock                                  build/stm32f1xx_hal_flash.o
HAL_GPIOEx_ConfigEventout                         build/stm32f1xx_hal_gpio_ex.o
HAL_GPIOEx_DisableEventout                        build/stm32f1xx_hal_gpio_ex.o
HAL_GPIOEx_EnableEventout                         build/stm32f1xx_hal_gpio_ex.o
HAL_GPIO_DeInit                                   build/stm32f1xx_hal_gpio.o
                                                  build/stm32f1xx_hal_msp.o
HAL_GPIO_EXTI_Callback                            build/main.o
HAL_GPIO_EXTI_IRQHandler                          build/stm32f1xx_hal_gpio.o
                                                  build/stm32f1xx_it.o
HAL_GPIO_Init                                     build/stm32f1xx_hal_gpio.o
                                                  ./Lib\libsw_i2c3.a(sw_i2c3.o)
                                                  ./Lib\libsw_i2c2.a(sw_i2c2.o)
                                                  ./Lib\libsw_i2c1.a(sw_i2c1.o)
                                                  ./Lib\libsw_i2c0.a(sw_i2c0.o)
                                                  build/GT911.o
                                                  build/stm32f1xx_hal_rcc.o
                                                  build/stm32f1xx_hal_msp.o
                                                  build/main.o
HAL_GPIO_LockPin                                  build/stm32f1xx_hal_gpio.o
HAL_GPIO_ReadPin                                  build/stm32f1xx_hal_gpio.o
HAL_GPIO_TogglePin                                build/stm32f1xx_hal_gpio.o
HAL_GPIO_WritePin                                 build/stm32f1xx_hal_gpio.o
                                                  build/GT911.o
                                                  build/audio.o
                                                  build/keyremo.o
                                                  build/SysTimer.o
                                                  build/monitor.o
                                                  build/main.o
HAL_GetDEVID                                      build/stm32f1xx_hal.o
HAL_GetHalVersion                                 build/stm32f1xx_hal.o
HAL_GetREVID                                      build/stm32f1xx_hal.o
HAL_GetTick                                       build/stm32f1xx_hal.o
                                                  build/stm32f1xx_hal_adc_ex.o
                                                  build/stm32f1xx_hal_adc.o
                                                  build/stm32f1xx_hal_flash.o
                                                  build/stm32f1xx_hal_dma.o
                                                  build/stm32f1xx_hal_rcc_ex.o
                                                  build/stm32f1xx_hal_rcc.o
                                                  build/stm32f1xx_hal_uart.o
HAL_GetTickFreq                                   build/stm32f1xx_hal.o
HAL_GetTickPrio                                   build/stm32f1xx_hal.o
HAL_GetUIDw0                                      build/stm32f1xx_hal.o
HAL_GetUIDw1                                      build/stm32f1xx_hal.o
HAL_GetUIDw2                                      build/stm32f1xx_hal.o
HAL_HalfDuplex_EnableReceiver                     build/stm32f1xx_hal_uart.o
HAL_HalfDuplex_EnableTransmitter                  build/stm32f1xx_hal_uart.o
HAL_HalfDuplex_Init                               build/stm32f1xx_hal_uart.o
HAL_IncTick                                       build/stm32f1xx_hal.o
                                                  build/stm32f1xx_it.o
HAL_Init                                          build/stm32f1xx_hal.o
                                                  build/main.o
HAL_InitTick                                      build/stm32f1xx_hal.o
                                                  build/stm32f1xx_hal_rcc.o
HAL_LIN_Init                                      build/stm32f1xx_hal_uart.o
HAL_LIN_SendBreak                                 build/stm32f1xx_hal_uart.o
HAL_MspDeInit                                     build/stm32f1xx_hal.o
HAL_MspInit                                       build/stm32f1xx_hal_msp.o
HAL_MultiProcessor_EnterMuteMode                  build/stm32f1xx_hal_uart.o
HAL_MultiProcessor_ExitMuteMode                   build/stm32f1xx_hal_uart.o
HAL_MultiProcessor_Init                           build/stm32f1xx_hal_uart.o
HAL_NVIC_ClearPendingIRQ                          build/stm32f1xx_hal_cortex.o
HAL_NVIC_DisableIRQ                               build/stm32f1xx_hal_cortex.o
                                                  build/stm32f1xx_hal_msp.o
HAL_NVIC_EnableIRQ                                build/stm32f1xx_hal_cortex.o
                                                  build/stm32f1xx_hal_msp.o
                                                  build/main.o
HAL_NVIC_GetActive                                build/stm32f1xx_hal_cortex.o
HAL_NVIC_GetPendingIRQ                            build/stm32f1xx_hal_cortex.o
HAL_NVIC_GetPriority                              build/stm32f1xx_hal_cortex.o
HAL_NVIC_GetPriorityGrouping                      build/stm32f1xx_hal_cortex.o
HAL_NVIC_SetPendingIRQ                            build/stm32f1xx_hal_cortex.o
HAL_NVIC_SetPriority                              build/stm32f1xx_hal_cortex.o
                                                  build/stm32f1xx_hal.o
                                                  build/stm32f1xx_hal_msp.o
                                                  build/main.o
HAL_NVIC_SetPriorityGrouping                      build/stm32f1xx_hal_cortex.o
                                                  build/stm32f1xx_hal.o
HAL_NVIC_SystemReset                              build/stm32f1xx_hal_cortex.o
                                                  build/stm32f1xx_hal_flash.o
HAL_PWR_ConfigPVD                                 build/stm32f1xx_hal_pwr.o
HAL_PWR_DeInit                                    build/stm32f1xx_hal_pwr.o
HAL_PWR_DisableBkUpAccess                         build/stm32f1xx_hal_pwr.o
HAL_PWR_DisablePVD                                build/stm32f1xx_hal_pwr.o
HAL_PWR_DisableSEVOnPend                          build/stm32f1xx_hal_pwr.o
HAL_PWR_DisableSleepOnExit                        build/stm32f1xx_hal_pwr.o
HAL_PWR_DisableWakeUpPin                          build/stm32f1xx_hal_pwr.o
HAL_PWR_EnableBkUpAccess                          build/stm32f1xx_hal_pwr.o
HAL_PWR_EnablePVD                                 build/stm32f1xx_hal_pwr.o
HAL_PWR_EnableSEVOnPend                           build/stm32f1xx_hal_pwr.o
HAL_PWR_EnableSleepOnExit                         build/stm32f1xx_hal_pwr.o
HAL_PWR_EnableWakeUpPin                           build/stm32f1xx_hal_pwr.o
HAL_PWR_EnterSLEEPMode                            build/stm32f1xx_hal_pwr.o
HAL_PWR_EnterSTANDBYMode                          build/stm32f1xx_hal_pwr.o
HAL_PWR_EnterSTOPMode                             build/stm32f1xx_hal_pwr.o
HAL_PWR_PVDCallback                               build/stm32f1xx_hal_pwr.o
HAL_PWR_PVD_IRQHandler                            build/stm32f1xx_hal_pwr.o
HAL_RCCEx_GetPeriphCLKConfig                      build/stm32f1xx_hal_rcc_ex.o
HAL_RCCEx_GetPeriphCLKFreq                        build/stm32f1xx_hal_rcc_ex.o
                                                  build/stm32f1xx_hal_adc_ex.o
                                                  build/stm32f1xx_hal_adc.o
HAL_RCCEx_PeriphCLKConfig                         build/stm32f1xx_hal_rcc_ex.o
HAL_RCC_CSSCallback                               build/stm32f1xx_hal_rcc.o
HAL_RCC_ClockConfig                               build/stm32f1xx_hal_rcc.o
                                                  build/main.o
HAL_RCC_DeInit                                    build/stm32f1xx_hal_rcc.o
HAL_RCC_DisableCSS                                build/stm32f1xx_hal_rcc.o
HAL_RCC_EnableCSS                                 build/stm32f1xx_hal_rcc.o
HAL_RCC_GetClockConfig                            build/stm32f1xx_hal_rcc.o
HAL_RCC_GetHCLKFreq                               build/stm32f1xx_hal_rcc.o
HAL_RCC_GetOscConfig                              build/stm32f1xx_hal_rcc.o
HAL_RCC_GetPCLK1Freq                              build/stm32f1xx_hal_rcc.o
                                                  build/stm32f1xx_hal_uart.o
HAL_RCC_GetPCLK2Freq                              build/stm32f1xx_hal_rcc.o
                                                  build/stm32f1xx_hal_rcc_ex.o
                                                  build/stm32f1xx_hal_uart.o
HAL_RCC_GetSysClockFreq                           build/stm32f1xx_hal_rcc.o
HAL_RCC_MCOConfig                                 build/stm32f1xx_hal_rcc.o
HAL_RCC_NMI_IRQHandler                            build/stm32f1xx_hal_rcc.o
HAL_RCC_OscConfig                                 build/stm32f1xx_hal_rcc.o
                                                  build/main.o
HAL_ResumeTick                                    build/stm32f1xx_hal.o
HAL_SYSTICK_CLKSourceConfig                       build/stm32f1xx_hal_cortex.o
HAL_SYSTICK_Callback                              build/stm32f1xx_hal_cortex.o
HAL_SYSTICK_Config                                build/stm32f1xx_hal_cortex.o
                                                  build/stm32f1xx_hal.o
HAL_SYSTICK_IRQHandler                            build/stm32f1xx_hal_cortex.o
HAL_SetTickFreq                                   build/stm32f1xx_hal.o
HAL_SuspendTick                                   build/stm32f1xx_hal.o
HAL_TIMEx_BreakCallback                           build/stm32f1xx_hal_tim_ex.o
                                                  build/stm32f1xx_hal_tim.o
HAL_TIMEx_CommutCallback                          build/stm32f1xx_hal_tim_ex.o
                                                  build/stm32f1xx_hal_tim.o
HAL_TIMEx_CommutHalfCpltCallback                  build/stm32f1xx_hal_tim_ex.o
HAL_TIMEx_ConfigBreakDeadTime                     build/stm32f1xx_hal_tim_ex.o
HAL_TIMEx_ConfigCommutEvent                       build/stm32f1xx_hal_tim_ex.o
HAL_TIMEx_ConfigCommutEvent_DMA                   build/stm32f1xx_hal_tim_ex.o
HAL_TIMEx_ConfigCommutEvent_IT                    build/stm32f1xx_hal_tim_ex.o
HAL_TIMEx_HallSensor_DeInit                       build/stm32f1xx_hal_tim_ex.o
HAL_TIMEx_HallSensor_GetState                     build/stm32f1xx_hal_tim_ex.o
HAL_TIMEx_HallSensor_Init                         build/stm32f1xx_hal_tim_ex.o
HAL_TIMEx_HallSensor_MspDeInit                    build/stm32f1xx_hal_tim_ex.o
HAL_TIMEx_HallSensor_MspInit                      build/stm32f1xx_hal_tim_ex.o
HAL_TIMEx_HallSensor_Start                        build/stm32f1xx_hal_tim_ex.o
HAL_TIMEx_HallSensor_Start_DMA                    build/stm32f1xx_hal_tim_ex.o
HAL_TIMEx_HallSensor_Start_IT                     build/stm32f1xx_hal_tim_ex.o
HAL_TIMEx_HallSensor_Stop                         build/stm32f1xx_hal_tim_ex.o
HAL_TIMEx_HallSensor_Stop_DMA                     build/stm32f1xx_hal_tim_ex.o
HAL_TIMEx_HallSensor_Stop_IT                      build/stm32f1xx_hal_tim_ex.o
HAL_TIMEx_MasterConfigSynchronization             build/stm32f1xx_hal_tim_ex.o
                                                  build/main.o
HAL_TIMEx_OCN_Start                               build/stm32f1xx_hal_tim_ex.o
HAL_TIMEx_OCN_Start_DMA                           build/stm32f1xx_hal_tim_ex.o
HAL_TIMEx_OCN_Start_IT                            build/stm32f1xx_hal_tim_ex.o
HAL_TIMEx_OCN_Stop                                build/stm32f1xx_hal_tim_ex.o
HAL_TIMEx_OCN_Stop_DMA                            build/stm32f1xx_hal_tim_ex.o
HAL_TIMEx_OCN_Stop_IT                             build/stm32f1xx_hal_tim_ex.o
HAL_TIMEx_OnePulseN_Start                         build/stm32f1xx_hal_tim_ex.o
HAL_TIMEx_OnePulseN_Start_IT                      build/stm32f1xx_hal_tim_ex.o
HAL_TIMEx_OnePulseN_Stop                          build/stm32f1xx_hal_tim_ex.o
HAL_TIMEx_OnePulseN_Stop_IT                       build/stm32f1xx_hal_tim_ex.o
HAL_TIMEx_PWMN_Start                              build/stm32f1xx_hal_tim_ex.o
HAL_TIMEx_PWMN_Start_DMA                          build/stm32f1xx_hal_tim_ex.o
HAL_TIMEx_PWMN_Start_IT                           build/stm32f1xx_hal_tim_ex.o
HAL_TIMEx_PWMN_Stop                               build/stm32f1xx_hal_tim_ex.o
HAL_TIMEx_PWMN_Stop_DMA                           build/stm32f1xx_hal_tim_ex.o
HAL_TIMEx_PWMN_Stop_IT                            build/stm32f1xx_hal_tim_ex.o
HAL_TIMEx_RemapConfig                             build/stm32f1xx_hal_tim_ex.o
HAL_TIM_Base_DeInit                               build/stm32f1xx_hal_tim.o
HAL_TIM_Base_GetState                             build/stm32f1xx_hal_tim.o
HAL_TIM_Base_Init                                 build/stm32f1xx_hal_tim.o
                                                  build/main.o
HAL_TIM_Base_MspDeInit                            build/stm32f1xx_hal_msp.o
HAL_TIM_Base_MspInit                              build/stm32f1xx_hal_msp.o
HAL_TIM_Base_Start                                build/stm32f1xx_hal_tim.o
HAL_TIM_Base_Start_DMA                            build/stm32f1xx_hal_tim.o
HAL_TIM_Base_Start_IT                             build/stm32f1xx_hal_tim.o
                                                  build/main.o
HAL_TIM_Base_Stop                                 build/stm32f1xx_hal_tim.o
HAL_TIM_Base_Stop_DMA                             build/stm32f1xx_hal_tim.o
HAL_TIM_Base_Stop_IT                              build/stm32f1xx_hal_tim.o
HAL_TIM_ConfigClockSource                         build/stm32f1xx_hal_tim.o
                                                  build/main.o
HAL_TIM_ConfigOCrefClear                          build/stm32f1xx_hal_tim.o
HAL_TIM_ConfigTI1Input                            build/stm32f1xx_hal_tim.o
HAL_TIM_DMABurst_ReadStart                        build/stm32f1xx_hal_tim.o
HAL_TIM_DMABurst_ReadStop                         build/stm32f1xx_hal_tim.o
HAL_TIM_DMABurst_WriteStart                       build/stm32f1xx_hal_tim.o
HAL_TIM_DMABurst_WriteStop                        build/stm32f1xx_hal_tim.o
HAL_TIM_Encoder_DeInit                            build/stm32f1xx_hal_tim.o
HAL_TIM_Encoder_GetState                          build/stm32f1xx_hal_tim.o
HAL_TIM_Encoder_Init                              build/stm32f1xx_hal_tim.o
HAL_TIM_Encoder_MspDeInit                         build/stm32f1xx_hal_tim.o
HAL_TIM_Encoder_MspInit                           build/stm32f1xx_hal_tim.o
HAL_TIM_Encoder_Start                             build/stm32f1xx_hal_tim.o
HAL_TIM_Encoder_Start_DMA                         build/stm32f1xx_hal_tim.o
HAL_TIM_Encoder_Start_IT                          build/stm32f1xx_hal_tim.o
HAL_TIM_Encoder_Stop                              build/stm32f1xx_hal_tim.o
HAL_TIM_Encoder_Stop_DMA                          build/stm32f1xx_hal_tim.o
HAL_TIM_Encoder_Stop_IT                           build/stm32f1xx_hal_tim.o
HAL_TIM_ErrorCallback                             build/stm32f1xx_hal_tim.o
HAL_TIM_GenerateEvent                             build/stm32f1xx_hal_tim.o
HAL_TIM_IC_CaptureCallback                        build/stm32f1xx_hal_tim.o
HAL_TIM_IC_CaptureHalfCpltCallback                build/stm32f1xx_hal_tim.o
HAL_TIM_IC_ConfigChannel                          build/stm32f1xx_hal_tim.o
HAL_TIM_IC_DeInit                                 build/stm32f1xx_hal_tim.o
HAL_TIM_IC_GetState                               build/stm32f1xx_hal_tim.o
HAL_TIM_IC_Init                                   build/stm32f1xx_hal_tim.o
HAL_TIM_IC_MspDeInit                              build/stm32f1xx_hal_tim.o
HAL_TIM_IC_MspInit                                build/stm32f1xx_hal_tim.o
HAL_TIM_IC_Start                                  build/stm32f1xx_hal_tim.o
HAL_TIM_IC_Start_DMA                              build/stm32f1xx_hal_tim.o
HAL_TIM_IC_Start_IT                               build/stm32f1xx_hal_tim.o
HAL_TIM_IC_Stop                                   build/stm32f1xx_hal_tim.o
HAL_TIM_IC_Stop_DMA                               build/stm32f1xx_hal_tim.o
HAL_TIM_IC_Stop_IT                                build/stm32f1xx_hal_tim.o
HAL_TIM_IRQHandler                                build/stm32f1xx_hal_tim.o
                                                  build/stm32f1xx_it.o
HAL_TIM_MspPostInit                               build/stm32f1xx_hal_msp.o
                                                  build/main.o
HAL_TIM_OC_ConfigChannel                          build/stm32f1xx_hal_tim.o
HAL_TIM_OC_DeInit                                 build/stm32f1xx_hal_tim.o
HAL_TIM_OC_DelayElapsedCallback                   build/stm32f1xx_hal_tim.o
HAL_TIM_OC_GetState                               build/stm32f1xx_hal_tim.o
HAL_TIM_OC_Init                                   build/stm32f1xx_hal_tim.o
HAL_TIM_OC_MspDeInit                              build/stm32f1xx_hal_tim.o
HAL_TIM_OC_MspInit                                build/stm32f1xx_hal_tim.o
HAL_TIM_OC_Start                                  build/stm32f1xx_hal_tim.o
HAL_TIM_OC_Start_DMA                              build/stm32f1xx_hal_tim.o
HAL_TIM_OC_Start_IT                               build/stm32f1xx_hal_tim.o
HAL_TIM_OC_Stop                                   build/stm32f1xx_hal_tim.o
HAL_TIM_OC_Stop_DMA                               build/stm32f1xx_hal_tim.o
HAL_TIM_OC_Stop_IT                                build/stm32f1xx_hal_tim.o
HAL_TIM_OnePulse_ConfigChannel                    build/stm32f1xx_hal_tim.o
HAL_TIM_OnePulse_DeInit                           build/stm32f1xx_hal_tim.o
HAL_TIM_OnePulse_GetState                         build/stm32f1xx_hal_tim.o
HAL_TIM_OnePulse_Init                             build/stm32f1xx_hal_tim.o
HAL_TIM_OnePulse_MspDeInit                        build/stm32f1xx_hal_tim.o
HAL_TIM_OnePulse_MspInit                          build/stm32f1xx_hal_tim.o
HAL_TIM_OnePulse_Start                            build/stm32f1xx_hal_tim.o
HAL_TIM_OnePulse_Start_IT                         build/stm32f1xx_hal_tim.o
HAL_TIM_OnePulse_Stop                             build/stm32f1xx_hal_tim.o
HAL_TIM_OnePulse_Stop_IT                          build/stm32f1xx_hal_tim.o
HAL_TIM_PWM_ConfigChannel                         build/stm32f1xx_hal_tim.o
                                                  build/main.o
HAL_TIM_PWM_DeInit                                build/stm32f1xx_hal_tim.o
HAL_TIM_PWM_GetState                              build/stm32f1xx_hal_tim.o
HAL_TIM_PWM_Init                                  build/stm32f1xx_hal_tim.o
                                                  build/main.o
HAL_TIM_PWM_MspDeInit                             build/stm32f1xx_hal_msp.o
HAL_TIM_PWM_MspInit                               build/stm32f1xx_hal_msp.o
HAL_TIM_PWM_PulseFinishedCallback                 build/stm32f1xx_hal_tim.o
HAL_TIM_PWM_PulseFinishedHalfCpltCallback         build/stm32f1xx_hal_tim.o
HAL_TIM_PWM_Start                                 build/stm32f1xx_hal_tim.o
                                                  build/main.o
HAL_TIM_PWM_Start_DMA                             build/stm32f1xx_hal_tim.o
HAL_TIM_PWM_Start_IT                              build/stm32f1xx_hal_tim.o
HAL_TIM_PWM_Stop                                  build/stm32f1xx_hal_tim.o
HAL_TIM_PWM_Stop_DMA                              build/stm32f1xx_hal_tim.o
HAL_TIM_PWM_Stop_IT                               build/stm32f1xx_hal_tim.o
HAL_TIM_PeriodElapsedCallback                     build/main.o
HAL_TIM_PeriodElapsedHalfCpltCallback             build/stm32f1xx_hal_tim.o
HAL_TIM_ReadCapturedValue                         build/stm32f1xx_hal_tim.o
HAL_TIM_SlaveConfigSynchro                        build/stm32f1xx_hal_tim.o
HAL_TIM_SlaveConfigSynchro_IT                     build/stm32f1xx_hal_tim.o
HAL_TIM_TriggerCallback                           build/stm32f1xx_hal_tim.o
HAL_TIM_TriggerHalfCpltCallback                   build/stm32f1xx_hal_tim.o
HAL_UART_Abort                                    build/stm32f1xx_hal_uart.o
HAL_UART_AbortCpltCallback                        build/stm32f1xx_hal_uart.o
HAL_UART_AbortReceive                             build/stm32f1xx_hal_uart.o
HAL_UART_AbortReceiveCpltCallback                 build/stm32f1xx_hal_uart.o
HAL_UART_AbortReceive_IT                          build/stm32f1xx_hal_uart.o
HAL_UART_AbortTransmit                            build/stm32f1xx_hal_uart.o
HAL_UART_AbortTransmitCpltCallback                build/stm32f1xx_hal_uart.o
HAL_UART_AbortTransmit_IT                         build/stm32f1xx_hal_uart.o
HAL_UART_Abort_IT                                 build/stm32f1xx_hal_uart.o
HAL_UART_DMAPause                                 build/stm32f1xx_hal_uart.o
HAL_UART_DMAResume                                build/stm32f1xx_hal_uart.o
HAL_UART_DMAStop                                  build/stm32f1xx_hal_uart.o
HAL_UART_DeInit                                   build/stm32f1xx_hal_uart.o
HAL_UART_ErrorCallback                            build/stm32f1xx_hal_uart.o
HAL_UART_GetError                                 build/stm32f1xx_hal_uart.o
HAL_UART_GetState                                 build/stm32f1xx_hal_uart.o
HAL_UART_IRQHandler                               build/stm32f1xx_hal_uart.o
                                                  build/stm32f1xx_it.o
HAL_UART_Init                                     build/stm32f1xx_hal_uart.o
                                                  build/main.o
HAL_UART_MspDeInit                                build/stm32f1xx_hal_msp.o
HAL_UART_MspInit                                  build/stm32f1xx_hal_msp.o
HAL_UART_Receive                                  build/stm32f1xx_hal_uart.o
HAL_UART_Receive_DMA                              build/stm32f1xx_hal_uart.o
HAL_UART_Receive_IT                               build/stm32f1xx_hal_uart.o
                                                  build/main.o
HAL_UART_RxCpltCallback                           build/main.o
HAL_UART_RxHalfCpltCallback                       build/stm32f1xx_hal_uart.o
HAL_UART_Transmit                                 build/stm32f1xx_hal_uart.o
                                                  build/main.o
HAL_UART_Transmit_DMA                             build/stm32f1xx_hal_uart.o
HAL_UART_Transmit_IT                              build/stm32f1xx_hal_uart.o
HAL_UART_TxCpltCallback                           build/stm32f1xx_hal_uart.o
HAL_UART_TxHalfCpltCallback                       build/stm32f1xx_hal_uart.o
HDA_SetData                                       build/TP2802.o
HDC_SetData                                       build/TP2802.o
HDMITX_ReadI2C_Byte                               build/VX_swi2c.o
HDMITX_ReadI2C_ByteN                              build/VX_swi2c.o
HDMITX_SetI2C_Byte                                build/VX_swi2c.o
HDMITX_WriteI2C_Byte                              build/VX_swi2c.o
HardFault_Handler                                 build/stm32f1xx_it.o
Hex                                               build/Printf.o
                                                  build/TD5300.o
HueRange                                          build/VX_OSD_Simple.o
I2C0_Read                                         ./Lib\libsw_i2c0.a(sw_i2c0.o)
                                                  build/VX_swi2c.o
I2C0_Write                                        ./Lib\libsw_i2c0.a(sw_i2c0.o)
                                                  build/VX_swi2c.o
I2C0_WriteNByte                                   ./Lib\libsw_i2c0.a(sw_i2c0.o)
I2C0_nRead                                        ./Lib\libsw_i2c0.a(sw_i2c0.o)
I2C1_ER_IRQHandler                                build/startup_stm32f103xb.o
I2C1_EV_IRQHandler                                build/startup_stm32f103xb.o
I2C2_ER_IRQHandler                                build/startup_stm32f103xb.o
I2C2_EV_IRQHandler                                build/startup_stm32f103xb.o
I2C3_Read                                         ./Lib\libsw_i2c3.a(sw_i2c3.o)
I2C3_Write                                        ./Lib\libsw_i2c3.a(sw_i2c3.o)
I2C3_WriteNByte                                   ./Lib\libsw_i2c3.a(sw_i2c3.o)
                                                  build/VX_swi2c.o
I2C3_nRead                                        ./Lib\libsw_i2c3.a(sw_i2c3.o)
I2C4_nRead                                        ./Lib\libsw_i2c3.a(sw_i2c3.o)
                                                  build/VX_swi2c.o
I2CDeviceSet1                                     build/TP2802.o
I2CDeviceSet2                                     build/TP2802.o
I2CMultiAttribute                                 build/VX_swi2c.o
                                                  build/VX_OSD.o
I2CMultiWrite                                     build/VX_swi2c.o
                                                  build/VX_OSD.o
I2CReStart                                        ./Lib\libsw_i2c2.a(sw_i2c2.o)
I2CReStart2                                       ./Lib\libsw_i2c1.a(sw_i2c1.o)
I2CReStart3                                       ./Lib\libsw_i2c3.a(sw_i2c3.o)
I2CReadData                                       ./Lib\libsw_i2c2.a(sw_i2c2.o)
I2CReadData2                                      ./Lib\libsw_i2c1.a(sw_i2c1.o)
I2CReadData3                                      ./Lib\libsw_i2c2.a(sw_i2c2.o)
I2CReadData5                                      ./Lib\libsw_i2c3.a(sw_i2c3.o)
I2CStart                                          ./Lib\libsw_i2c2.a(sw_i2c2.o)
I2CStart2                                         ./Lib\libsw_i2c1.a(sw_i2c1.o)
I2CStart3                                         ./Lib\libsw_i2c3.a(sw_i2c3.o)
I2CStop                                           ./Lib\libsw_i2c2.a(sw_i2c2.o)
I2CStop2                                          ./Lib\libsw_i2c1.a(sw_i2c1.o)
I2CStop3                                          ./Lib\libsw_i2c3.a(sw_i2c3.o)
I2CWriteData                                      ./Lib\libsw_i2c2.a(sw_i2c2.o)
I2CWriteData2                                     ./Lib\libsw_i2c1.a(sw_i2c1.o)
I2CWriteData3                                     ./Lib\libsw_i2c2.a(sw_i2c2.o)
I2CWriteData4                                     ./Lib\libsw_i2c2.a(sw_i2c2.o)
I2CWriteData5                                     ./Lib\libsw_i2c3.a(sw_i2c3.o)
I2CWriteData6                                     ./Lib\libsw_i2c3.a(sw_i2c3.o)
I2Cdelay                                          ./Lib\libsw_i2c2.a(sw_i2c2.o)
I2Cdelay2                                         ./Lib\libsw_i2c1.a(sw_i2c1.o)
I2Cdelay3                                         ./Lib\libsw_i2c3.a(sw_i2c3.o)
INPUT_VIDEO_CHECK                                 build/TP2802.o
Init_TP280x_CHx_RegSet                            build/TP2802.o
Init_TP280x_RegSet                                build/TP2802.o
                                                  build/monitor.o
                                                  build/main.o
Init_TPMS_OSD                                     build/TD5300.o
InitialTimerEvent                                 build/main.o
Input                                             build/TD5300.o
Input_Menu                                        build/VX_OSD_Simple.o
JumpTable                                         build/keyremo.o
Key                                               build/keyremo.o
                                                  build/main.o
KeyBuffer                                         build/keyremo.o
KeyReady                                          build/keyremo.o
                                                  build/main.o
LCDPowerOFF                                       build/main.o
                                                  build/keyremo.o
                                                  build/SysTimer.o
LCDPowerON                                        build/main.o
                                                  build/SysTimer.o
                                                  build/monitor.o
LCD_PWR_FLAG                                      build/main.o
                                                  build/GT911.o
LeftTable                                         build/keyremo.o
LeftTable10                                       build/keyremo.o
LeftTable9                                        build/keyremo.o
LightSensor_ADC                                   build/main.o
                                                  build/SysTimer.o
LoadEEPROM                                        build/main.o
                                                  build/etc_eep.o
LoadVideoData                                     build/VX_OSD_Simple.o
                                                  build/etc_eep.o
                                                  build/main.o
LockKeyState                                      build/keyremo.o
MCUTimerActiveTimerEvent                          build/SysTimer.o
                                                  build/GT911.o
                                                  build/keyremo.o
                                                  build/etc_eep.o
                                                  build/TP2802.o
                                                  build/VS4210.o
                                                  build/VX_OSD_Simple.o
                                                  build/main.o
MCUTimerCancelTimerEvent                          build/SysTimer.o
                                                  build/GT911.o
                                                  build/keyremo.o
                                                  build/TP2802.o
                                                  build/VS4210.o
                                                  build/VX_OSD_Simple.o
                                                  build/main.o
MCUTimerCheckEventValid                           build/SysTimer.o
MCUTimerCheckTimerEvent                           build/SysTimer.o
MCUTimerClrEventValid                             build/SysTimer.o
MCUTimerDelayXms                                  build/SysTimer.o
                                                  build/keyremo.o
                                                  build/main.o
MCUTimerEventProc                                 build/SysTimer.o
MCUTimerGetEventID                                build/SysTimer.o
MCUTimerGetEventTime                              build/SysTimer.o
MCUTimerGetTimerCounter                           build/SysTimer.o
MCUTimerInitialTimerEvent                         build/SysTimer.o
                                                  build/main.o
MCUTimerReactiveTimerEvent                        build/SysTimer.o
                                                  build/monitor.o
MainSetSelectMode                                 build/keyremo.o
MainTouchSetSelectMode                            build/keyremo.o
ManVidRes                                         build/main.o
ManVidResRx                                       build/TP2802.o
ManualAGC                                         build/TP2802.o
Mapping1                                          build/VX_OSD_Simple.o
                                                  build/audio.o
MemManage_Handler                                 build/stm32f1xx_it.o
MenuChild                                         build/VX_OSD_Simple.o
MenuStack                                         build/VX_OSD_Simple.o
MenuTitle                                         build/VX_OSD_Simple.o
MenuTouchFlag                                     build/keyremo.o
                                                  build/GT911.o
                                                  build/VX_OSD_Simple.o
MenuTouchMode                                     build/keyremo.o
                                                  build/GT911.o
                                                  build/VX_OSD_Simple.o
MenuTouchSel                                      build/main.o
                                                  build/GT911.o
                                                  build/etc_eep.o
                                                  build/VX_OSD_Simple.o
Mirror_Menu                                       build/VX_OSD_Simple.o
Mode0S_800x480_param                              build/VX_OSD_Simple.o
Mode0_1080P_param                                 build/VX_OSD_Simple.o
Mode0_720P_param                                  build/VX_OSD_Simple.o
Mode0_800x480_param                               build/VX_OSD_Simple.o
Mode10S_w0_800x480_param                          build/VX_OSD_Simple.o
Mode10S_w1_800x480_param                          build/VX_OSD_Simple.o
Mode10S_w2_800x480_param                          build/VX_OSD_Simple.o
Mode10_w0_1080P_param                             build/VX_OSD_Simple.o
Mode10_w0_720P_param                              build/VX_OSD_Simple.o
Mode10_w0_800x480_param                           build/VX_OSD_Simple.o
Mode10_w1_1080P_param                             build/VX_OSD_Simple.o
Mode10_w1_720P_param                              build/VX_OSD_Simple.o
Mode10_w1_800x480_param                           build/VX_OSD_Simple.o
Mode10_w2_1080P_param                             build/VX_OSD_Simple.o
Mode10_w2_720P_param                              build/VX_OSD_Simple.o
Mode10_w2_800x480_param                           build/VX_OSD_Simple.o
Mode12S_w0_800x480_param                          build/VX_OSD_Simple.o
Mode12S_w1_800x480_param                          build/VX_OSD_Simple.o
Mode12_w0_1080P_param                             build/VX_OSD_Simple.o
Mode12_w0_720P_param                              build/VX_OSD_Simple.o
Mode12_w0_800x480_param                           build/VX_OSD_Simple.o
Mode12_w1_1080P_param                             build/VX_OSD_Simple.o
Mode12_w1_720P_param                              build/VX_OSD_Simple.o
Mode12_w1_800x480_param                           build/VX_OSD_Simple.o
Mode14_w0_1080P_param                             build/VX_OSD_Simple.o
Mode14_w0_720P_param                              build/VX_OSD_Simple.o
Mode14_w0_800x480_param                           build/VX_OSD_Simple.o
Mode14_w1_1080P_param                             build/VX_OSD_Simple.o
Mode14_w1_720P_param                              build/VX_OSD_Simple.o
Mode14_w1_800x480_param                           build/VX_OSD_Simple.o
Mode14_w2_1080P_param                             build/VX_OSD_Simple.o
Mode14_w2_720P_param                              build/VX_OSD_Simple.o
Mode14_w2_800x480_param                           build/VX_OSD_Simple.o
Mode1S_w0_800x480_param                           build/VX_OSD_Simple.o
Mode1S_w1_800x480_param                           build/VX_OSD_Simple.o
Mode1S_w2_800x480_param                           build/VX_OSD_Simple.o
Mode1S_w3_800x480_param                           build/VX_OSD_Simple.o
Mode1_w0_1080P_param                              build/VX_OSD_Simple.o
Mode1_w0_720P_param                               build/VX_OSD_Simple.o
Mode1_w0_800x480_param                            build/VX_OSD_Simple.o
Mode1_w1_1080P_param                              build/VX_OSD_Simple.o
Mode1_w1_720P_param                               build/VX_OSD_Simple.o
Mode1_w1_800x480_param                            build/VX_OSD_Simple.o
Mode1_w2_1080P_param                              build/VX_OSD_Simple.o
Mode1_w2_720P_param                               build/VX_OSD_Simple.o
Mode1_w2_800x480_param                            build/VX_OSD_Simple.o
Mode1_w3_1080P_param                              build/VX_OSD_Simple.o
Mode1_w3_720P_param                               build/VX_OSD_Simple.o
Mode1_w3_800x480_param                            build/VX_OSD_Simple.o
Mode2_w0_1080P_param                              build/VX_OSD_Simple.o
Mode2_w0_720P_param                               build/VX_OSD_Simple.o
Mode2_w0_800x480_param                            build/VX_OSD_Simple.o
Mode2_w1_1080P_param                              build/VX_OSD_Simple.o
Mode2_w1_720P_param                               build/VX_OSD_Simple.o
Mode2_w1_800x480_param                            build/VX_OSD_Simple.o
Mode2_w2_1080P_param                              build/VX_OSD_Simple.o
Mode2_w2_720P_param                               build/VX_OSD_Simple.o
Mode2_w2_800x480_param                            build/VX_OSD_Simple.o
Mode2_w3_1080P_param                              build/VX_OSD_Simple.o
Mode2_w3_720P_param                               build/VX_OSD_Simple.o
Mode2_w3_800x480_param                            build/VX_OSD_Simple.o
Mode8S_w0_800x480_param                           build/VX_OSD_Simple.o
Mode8S_w1_800x480_param                           build/VX_OSD_Simple.o
Mode8S_w2_800x480_param                           build/VX_OSD_Simple.o
Mode8_w0_1080P_param                              build/VX_OSD_Simple.o
Mode8_w0_720P_param                               build/VX_OSD_Simple.o
Mode8_w0_800x480_param                            build/VX_OSD_Simple.o
Mode8_w1_1080P_param                              build/VX_OSD_Simple.o
Mode8_w1_720P_param                               build/VX_OSD_Simple.o
Mode8_w1_800x480_param                            build/VX_OSD_Simple.o
Mode8_w2_1080P_param                              build/VX_OSD_Simple.o
Mode8_w2_720P_param                               build/VX_OSD_Simple.o
Mode8_w2_800x480_param                            build/VX_OSD_Simple.o
Mode9S_w0_800x480_param                           build/VX_OSD_Simple.o
Mode9S_w1_800x480_param                           build/VX_OSD_Simple.o
Mode9S_w2_800x480_param                           build/VX_OSD_Simple.o
Mode9_w0_1080P_param                              build/VX_OSD_Simple.o
Mode9_w0_720P_param                               build/VX_OSD_Simple.o
Mode9_w0_800x480_param                            build/VX_OSD_Simple.o
Mode9_w1_1080P_param                              build/VX_OSD_Simple.o
Mode9_w1_720P_param                               build/VX_OSD_Simple.o
Mode9_w1_800x480_param                            build/VX_OSD_Simple.o
Mode9_w2_1080P_param                              build/VX_OSD_Simple.o
Mode9_w2_720P_param                               build/VX_OSD_Simple.o
Mode9_w2_800x480_param                            build/VX_OSD_Simple.o
MonAddress                                        build/monitor.o
MonDumpI2C                                        build/monitor.o
MonGetCommand                                     build/monitor.o
MonHelp                                           build/monitor.o
MonIncDecI2C                                      build/monitor.o
MonIndex                                          build/monitor.o
MonNewDumpI2C                                     build/monitor.o
MonNewReadI2C                                     build/monitor.o
MonNewWriteI2C                                    build/monitor.o
MonRdata                                          build/monitor.o
MonReadI2C                                        build/monitor.o
MonTxDump                                         build/monitor.o
MonWdata                                          build/monitor.o
MonWriteBit                                       build/monitor.o
MonWriteI2C                                       build/monitor.o
Mon_tx                                            build/monitor.o
Monitor                                           build/monitor.o
                                                  build/main.o
Monitor_I2C                                       build/monitor.o
Monitor_flag                                      build/monitor.o
                                                  build/SysTimer.o
                                                  build/Printf.o
                                                  build/main.o
NMI_Handler                                       build/stm32f1xx_it.o
NowModeState                                      build/keyremo.o
                                                  build/etc_eep.o
                                                  build/SysTimer.o
                                                  build/VS4210.o
                                                  build/VX_OSD_Simple.o
                                                  build/main.o
OSDCursorMove                                     build/VX_OSD_Simple.o
                                                  build/keyremo.o
OSDMenuLevel                                      build/keyremo.o
                                                  build/VX_OSD_Simple.o
OSDSelect                                         build/VX_OSD_Simple.o
                                                  build/keyremo.o
OSDStateFlg                                       build/main.o
                                                  build/keyremo.o
OSDValueUpDn                                      build/VX_OSD_Simple.o
                                                  build/keyremo.o
OSD_CAM_C_VLOSS_CLR                               build/VX_OSD_Simple.o
OSD_Clear                                         build/VX_OSD_Simple.o
                                                  build/VS4210.o
OSD_Clear_234                                     build/VX_OSD_Simple.o
                                                  build/VS4210.o
OSD_Clear_34                                      build/VX_OSD_Simple.o
                                                  build/VS4210.o
OSD_Clear_4                                       build/VX_OSD_Simple.o
                                                  build/VS4210.o
OSD_Clear_All                                     build/VX_OSD_Simple.o
                                                  build/VS4210.o
OSD_DAY                                           build/VX_OSD_Simple.o
OSD_Diapley                                       build/VX_OSD_Simple.o
OSD_LOCKF                                         build/keyremo.o
                                                  build/etc_eep.o
                                                  build/VX_OSD_Simple.o
                                                  build/main.o
OSD_MIRROR                                        build/main.o
                                                  build/VS4210.o
                                                  build/VX_OSD_Simple.o
OSD_SPEAKER                                       build/main.o
                                                  build/VX_OSD_Simple.o
OnChangingValue                                   build/keyremo.o
                                                  build/GT911.o
                                                  build/VX_OSD_Simple.o
OneTouchCursorPosition                            build/keyremo.o
                                                  build/GT911.o
OneTouchPosition                                  build/keyremo.o
                                                  build/VX_OSD_Simple.o
OpenOSDMenu                                       build/VX_OSD_Simple.o
                                                  build/keyremo.o
OsdDumpAttribute                                  build/VX_OSD.o
                                                  build/VX_OSD_Simple.o
OsdDumpAttributeHS                                build/VX_OSD.o
                                                  build/VX_OSD_Simple.o
OsdDumpString                                     build/VX_OSD.o
                                                  build/VX_OSD_Simple.o
PCAudioVol                                        build/audio.o
PSW_Flag                                          build/SysTimer.o
PTZ_buf                                           build/TP2802.o
PTZ_pelco                                         build/TP2802.o
PVD_IRQHandler                                    build/startup_stm32f103xb.o
PWMLevel                                          build/main.o
PWR_OFF_TO_ON                                     build/main.o
                                                  build/keyremo.o
PanelBrightnessRange                              build/VX_OSD_Simple.o
PendSV_Handler                                    build/stm32f1xx_it.o
Picture_Menu                                      build/VX_OSD_Simple.o
PowerFlag                                         build/main.o
                                                  build/audio.o
                                                  build/keyremo.o
                                                  build/SysTimer.o
PowerLED                                          build/SysTimer.o
                                                  build/keyremo.o
                                                  build/main.o
PreCOCSelectModeType                              build/TP2802.o
                                                  build/keyremo.o
PreSelectModeType                                 build/main.o
                                                  build/keyremo.o
                                                  build/etc_eep.o
Printf                                            build/Printf.o
                                                  build/audio.o
                                                  build/keyremo.o
                                                  build/etc_eep.o
                                                  build/SysTimer.o
                                                  build/monitor.o
                                                  build/TP2802.o
                                                  build/VX_OSD_Simple.o
                                                  build/main.o
Priority                                          build/main.o
                                                  build/keyremo.o
                                                  build/etc_eep.o
                                                  build/VX_OSD_Simple.o
Prompt                                            build/monitor.o
PtzTxChNum                                        build/TP2802.o
                                                  build/monitor.o
Puts                                              build/Printf.o
QuadBoxId                                         build/TP2802.o
                                                  build/keyremo.o
                                                  build/monitor.o
QuadBoxMode                                       build/TP2802.o
                                                  build/keyremo.o
RCC_IRQHandler                                    build/startup_stm32f103xb.o
REG_F6                                            build/TP2802.o
REG_F7                                            build/TP2802.o
REG_FA                                            build/TP2802.o
RELEASE_TR_JUMP_Flag                              build/keyremo.o
REV_ERROR                                         build/main.o
                                                  build/etc_eep.o
RS2_Xbusy                                         build/monitor.o
RS2_buf                                           build/monitor.o
                                                  build/main.o
RS2_in                                            build/monitor.o
                                                  build/main.o
RS2_out                                           build/monitor.o
RS2_tx                                            build/main.o
                                                  build/SysTimer.o
RS_Xbusy                                          build/monitor.o
RS_buf                                            build/monitor.o
                                                  build/main.o
RS_in                                             build/monitor.o
                                                  build/main.o
RS_out                                            build/monitor.o
RS_ready                                          build/monitor.o
                                                  build/main.o
RS_rx                                             build/monitor.o
RS_tx                                             build/monitor.o
                                                  build/SysTimer.o
                                                  build/Printf.o
RTC_Alarm_IRQHandler                              build/startup_stm32f103xb.o
RTC_IRQHandler                                    build/startup_stm32f103xb.o
RUN_DIMMER                                        build/main.o
                                                  build/keyremo.o
                                                  build/etc_eep.o
                                                  build/SysTimer.o
                                                  build/VX_OSD_Simple.o
ReadEEP                                           build/VX_swi2c.o
                                                  build/TD5300.o
                                                  build/keyremo.o
                                                  build/etc_eep.o
                                                  build/monitor.o
                                                  build/TP2802.o
                                                  build/VX_OSD_Simple.o
                                                  build/main.o
ReadGain                                          build/TP2802.o
ReadI2C                                           ./Lib\libsw_i2c2.a(sw_i2c2.o)
                                                  build/VX_swi2c.o
ReadI2C2                                          ./Lib\libsw_i2c1.a(sw_i2c1.o)
ReadI2C3                                          ./Lib\libsw_i2c2.a(sw_i2c2.o)
                                                  build/VX_swi2c.o
ReadI2C4                                          ./Lib\libsw_i2c2.a(sw_i2c2.o)
                                                  build/VX_swi2c.o
Read_RX                                           build/TD5300.o
RearTable                                         build/keyremo.o
RearTable10                                       build/keyremo.o
RearTable9                                        build/keyremo.o
RemoChnDn_DnKey                                   build/keyremo.o
RemoChnUp_UpKey                                   build/keyremo.o
RemoMenu_MenuKey                                  build/keyremo.o
RemoVolDn_LeftKey                                 build/keyremo.o
RemoVolUp_RightKey                                build/keyremo.o
RepeatKey                                         build/keyremo.o
                                                  build/main.o
ResetCamMirror                                    build/VS4210.o
ResetOSDValue                                     build/etc_eep.o
                                                  build/VX_OSD_Simple.o
Reset_Handler                                     build/startup_stm32f103xb.o
Reset_Menu                                        build/VX_OSD_Simple.o
Reset_OSD_SPEAKER                                 build/VX_OSD_Simple.o
                                                  build/main.o
RightTable                                        build/keyremo.o
RightTable10                                      build/keyremo.o
RightTable9                                       build/keyremo.o
SB_Press_Error_Flag                               build/TD5300.o
SB_Temper_Error_Flag                              build/TD5300.o
SB_Work_Error_Flag                                build/TD5300.o
SB_Work_Flag                                      build/TD5300.o
SB_Work_Flag_F                                    build/TD5300.o
SEQFlag                                           build/keyremo.o
                                                  build/etc_eep.o
                                                  build/SysTimer.o
                                                  build/VX_OSD_Simple.o
                                                  build/main.o
SEQIndex                                          build/VX_OSD_Simple.o
                                                  build/keyremo.o
SEQMode                                           build/keyremo.o
                                                  build/SysTimer.o
SEQTable                                          build/keyremo.o
SEQTime                                           build/VX_OSD_Simple.o
SETChannelReset                                   build/TP2802.o
                                                  build/keyremo.o
                                                  build/etc_eep.o
SETTW8812OFF                                      build/main.o
                                                  build/SysTimer.o
SETTW8812ON                                       build/main.o
                                                  build/SysTimer.o
SET_ALC122                                        build/VX_swi2c.o
                                                  build/audio.o
                                                  build/monitor.o
SET_CROSS_LINE                                    build/VX_OSD_Simple.o
SET_LTC2451                                       build/VX_swi2c.o
SET_PCA9554PW                                     build/VX_swi2c.o
SET_VX8812_SD_Video_Out                           build/VX8812.o
                                                  build/SysTimer.o
                                                  build/main.o
SET_nGT911                                        build/VX_swi2c.o
                                                  build/GT911.o
                                                  build/monitor.o
SHOWOSDINFO                                       build/VX_OSD_Simple.o
                                                  build/main.o
SPI1_IRQHandler                                   build/startup_stm32f103xb.o
SPI2_IRQHandler                                   build/startup_stm32f103xb.o
SVC_Handler                                       build/stm32f1xx_it.o
SW_I2C0_Init                                      ./Lib\libsw_i2c0.a(sw_i2c0.o)
                                                  build/main.o
SW_I2C1Read                                       ./Lib\libsw_i2c1.a(sw_i2c1.o)
                                                  build/VX_swi2c.o
SW_I2C1Write                                      ./Lib\libsw_i2c1.a(sw_i2c1.o)
                                                  build/VX_swi2c.o
SW_I2C1WriteNByte                                 ./Lib\libsw_i2c1.a(sw_i2c1.o)
                                                  build/VX_swi2c.o
SW_I2C1_Init                                      ./Lib\libsw_i2c1.a(sw_i2c1.o)
                                                  build/main.o
SW_I2C1nRead                                      ./Lib\libsw_i2c1.a(sw_i2c1.o)
SW_I2C2Read                                       ./Lib\libsw_i2c2.a(sw_i2c2.o)
                                                  build/VX_swi2c.o
SW_I2C2Write                                      ./Lib\libsw_i2c2.a(sw_i2c2.o)
                                                  build/VX_swi2c.o
SW_I2C2WriteNByte                                 ./Lib\libsw_i2c2.a(sw_i2c2.o)
SW_I2C2_Init                                      ./Lib\libsw_i2c2.a(sw_i2c2.o)
                                                  build/main.o
SW_I2C2nRead                                      ./Lib\libsw_i2c2.a(sw_i2c2.o)
                                                  build/VX_swi2c.o
SW_I2C3_Init                                      ./Lib\libsw_i2c3.a(sw_i2c3.o)
                                                  build/main.o
SYS_AND                                           build/TP2802.o
SYS_MODE                                          build/TP2802.o
SaturationRange                                   build/VX_OSD_Simple.o
SaveFWRevEE                                       build/etc_eep.o
                                                  build/main.o
Scan_Channels                                     build/TP2802.o
SelectModeType                                    build/main.o
                                                  build/GT911.o
                                                  build/keyremo.o
                                                  build/etc_eep.o
                                                  build/TP2802.o
                                                  build/VS4210.o
                                                  build/VX_OSD_Simple.o
SetAudioVolEE                                     build/etc_eep.o
                                                  build/audio.o
SetCGain                                          build/TP2802.o
SetCOCCom                                         build/TP2802.o
                                                  build/keyremo.o
                                                  build/SysTimer.o
                                                  build/monitor.o
                                                  build/VX_OSD_Simple.o
SetDisplayedOSD                                   build/VX_OSD.o
                                                  build/VX_OSD_Simple.o
SetGarbberLinerMode                               build/VX_OSD_Simple.o
                                                  build/keyremo.o
                                                  build/SysTimer.o
SetItemValue                                      build/VX_OSD_Simple.o
SetJumpMode                                       build/keyremo.o
SetLeftSource                                     build/keyremo.o
SetNowMode                                        build/keyremo.o
                                                  build/GT911.o
                                                  build/etc_eep.o
                                                  build/SysTimer.o
                                                  build/monitor.o
                                                  build/VX_OSD_Simple.o
                                                  build/main.o
SetOSDStep                                        build/VX_OSD_Simple.o
SetOsdPosition                                    build/VX_OSD.o
                                                  build/VX_OSD_Simple.o
SetOsdSize                                        build/VX_OSD.o
                                                  build/VX_OSD_Simple.o
SetOsdStartAddress                                build/VX_OSD.o
                                                  build/VX_OSD_Simple.o
SetPCAudioVolEE                                   build/etc_eep.o
SetRearSource                                     build/keyremo.o
SetRegPage                                        build/TP2802.o
SetRightSource                                    build/keyremo.o
SetSelectCAMRD                                    build/keyremo.o
                                                  build/SysTimer.o
SetSelectMode                                     build/keyremo.o
SetTP2824CHVloss                                  build/TP2802.o
SetTriggerCSource                                 build/keyremo.o
SetTriggerDSource                                 build/keyremo.o
Set_HDA                                           build/TP2802.o
Set_HDC                                           build/TP2802.o
Set_PLL_StartUp                                   build/TP2802.o
Set_ResWithAutoDet                                build/TP2802.o
Set_VidRes                                        build/TP2802.o
SharpnessRange                                    build/VX_OSD_Simple.o
ShowCOCOSD                                        build/VX_OSD_Simple.o
                                                  build/keyremo.o
ShowCOCOSD2                                       build/VX_OSD_Simple.o
ShowGaugeOSD                                      build/VX_OSD_Simple.o
                                                  build/keyremo.o
ShowGrabberLinerOSD                               build/VX_OSD_Simple.o
                                                  build/keyremo.o
ShowJUMPOSD                                       build/VX_OSD_Simple.o
                                                  build/SysTimer.o
                                                  build/TP2802.o
                                                  build/VS4210.o
                                                  build/main.o
ShowOSDLOCK                                       build/VX_OSD_Simple.o
                                                  build/GT911.o
                                                  build/keyremo.o
ShowOSDVersion                                    build/VX_OSD_Simple.o
                                                  build/keyremo.o
ShowTPMSOSD                                       build/VX_OSD_Simple.o
                                                  build/keyremo.o
ShowTRIGOSD                                       build/VX_OSD_Simple.o
                                                  build/keyremo.o
                                                  build/SysTimer.o
ShowWorkingTimer                                  build/SysTimer.o
Str_OSD_Channel_CAMD                              build/VX_OSD_Simple.o
Str_OSD_TRI_CAMC                                  build/VX_OSD_Simple.o
Str_OSD_TRI_CAMD                                  build/VX_OSD_Simple.o
Str_OSD_TRI_CAMR                                  build/VX_OSD_Simple.o
Str_OSD_TRI_CLR                                   build/VX_OSD_Simple.o
Str_OSD_TRI_LEFT                                  build/VX_OSD_Simple.o
Str_OSD_TRI_RIGHT                                 build/VX_OSD_Simple.o
SwapBit                                           build/TP2802.o
SysTick_Handler                                   build/stm32f1xx_it.o
SysTimerEventProc                                 build/SysTimer.o
SysTimerHandler                                   build/SysTimer.o
                                                  build/main.o
SystemClock_Config                                build/main.o
SystemCoreClock                                   build/system_stm32f1xx.o
                                                  build/stm32f1xx_hal_adc_ex.o
                                                  build/stm32f1xx_hal_adc.o
                                                  build/stm32f1xx_hal_rcc.o
                                                  build/stm32f1xx_hal.o
SystemCoreClockUpdate                             build/system_stm32f1xx.o
SystemInit                                        build/system_stm32f1xx.o
                                                  build/startup_stm32f103xb.o
TAMPER_IRQHandler                                 build/startup_stm32f103xb.o
TIM1_BRK_IRQHandler                               build/startup_stm32f103xb.o
TIM1_CC_IRQHandler                                build/startup_stm32f103xb.o
TIM1_TRG_COM_IRQHandler                           build/startup_stm32f103xb.o
TIM1_UP_IRQHandler                                build/startup_stm32f103xb.o
TIM2_IRQHandler                                   build/startup_stm32f103xb.o
TIM3_IRQHandler                                   build/stm32f1xx_it.o
TIM4_IRQHandler                                   build/startup_stm32f103xb.o
TIMEx_DMACommutationCplt                          build/stm32f1xx_hal_tim_ex.o
                                                  build/stm32f1xx_hal_tim.o
TIMEx_DMACommutationHalfCplt                      build/stm32f1xx_hal_tim_ex.o
                                                  build/stm32f1xx_hal_tim.o
TIM_Base_SetConfig                                build/stm32f1xx_hal_tim.o
                                                  build/stm32f1xx_hal_tim_ex.o
TIM_CCxChannelCmd                                 build/stm32f1xx_hal_tim.o
                                                  build/stm32f1xx_hal_tim_ex.o
TIM_DMACaptureCplt                                build/stm32f1xx_hal_tim.o
                                                  build/stm32f1xx_hal_tim_ex.o
TIM_DMACaptureHalfCplt                            build/stm32f1xx_hal_tim.o
                                                  build/stm32f1xx_hal_tim_ex.o
TIM_DMADelayPulseCplt                             build/stm32f1xx_hal_tim.o
                                                  build/stm32f1xx_hal_tim_ex.o
TIM_DMADelayPulseHalfCplt                         build/stm32f1xx_hal_tim.o
                                                  build/stm32f1xx_hal_tim_ex.o
TIM_DMAError                                      build/stm32f1xx_hal_tim.o
                                                  build/stm32f1xx_hal_tim_ex.o
TIM_ETR_SetConfig                                 build/stm32f1xx_hal_tim.o
TIM_OC2_SetConfig                                 build/stm32f1xx_hal_tim.o
                                                  build/stm32f1xx_hal_tim_ex.o
TIM_TI1_SetConfig                                 build/stm32f1xx_hal_tim.o
                                                  build/stm32f1xx_hal_tim_ex.o
TOUCH_ADDR_OFFSET                                 build/GT911.o
                                                  build/VX_OSD_Simple.o
TP2802D_DataSet                                   build/TP2802.o
TP2802_FORMAT_DataSet                             build/TP2802.o
TP2822_DataSet                                    build/TP2802.o
TP2823_DataSet                                    build/TP2802.o
TP2823_MODE_DataSet                               build/TP2802.o
TP2824C_AHD_FHD_PTZ_DataSet                       build/TP2802.o
TP2824C_CVBS_PTZ_DataSet                          build/TP2802.o
TP2824C_CVIHD_PTZ_DataSet                         build/TP2802.o
TP2824C_DataSet                                   build/TP2802.o
TP2824C_DataSetRD                                 build/TP2802.o
TP2824C_HDA_DataSet                               build/TP2802.o
TP2824C_HDC_DataSet                               build/TP2802.o
TP2824C_MODE_DataSet                              build/TP2802.o
TP2824C_TVI_FHD_PTZ_DataSet                       build/TP2802.o
TP2826_DataSet                                    build/TP2802.o
TP2826_HDA_DataSet                                build/TP2802.o
TP2826_HDC_DataSet                                build/TP2802.o
TP2826_MODE_DataSet                               build/TP2802.o
TP2833_DataSet                                    build/TP2802.o
TP2833_HDA_DataSet                                build/TP2802.o
TP2833_MODE_DataSet                               build/TP2802.o
TP2834_Audio_DataSet                              build/TP2802.o
TP2834_Audio_DataSetRD                            build/TP2802.o
TP2834_DataSet                                    build/TP2802.o
TP2834_MODE_DataSet                               build/TP2802.o
TP2853C_DataSet                                   build/TP2802.o
TP2853C_HDA_DataSet                               build/TP2802.o
TP2853C_HDC_DataSet                               build/TP2802.o
TP2853C_MODE_DataSet                              build/TP2802.o
TPMS_Change_Mode                                  build/TD5300.o
TPMS_Count                                        build/TD5300.o
TPMS_Cursor                                       build/TD5300.o
TPMS_Default_Setting                              build/TD5300.o
TPMS_Flag                                         build/TD5300.o
TPMS_Keyin_Mode                                   build/TD5300.o
TPMS_LED                                          build/TD5300.o
TPMS_OSD                                          build/TD5300.o
TPMS_P                                            build/TD5300.o
TPMS_Pop_Flag                                     build/TD5300.o
TPMS_Read_eeprom                                  build/TD5300.o
TPMS_Ready                                        build/TD5300.o
TPMS_Relay_Battery                                build/TD5300.o
TPMS_Reset_Flag                                   build/TD5300.o
TPMS_Setting_Mode                                 build/TD5300.o
TPMS_Start                                        build/TD5300.o
TPMS_Write_eeprom                                 build/TD5300.o
TPMS_redraw                                       build/TD5300.o
TPMS_val                                          build/TD5300.o
TP_ACTION                                         build/GT911.o
                                                  build/SysTimer.o
TP_CATH_PRES                                      build/GT911.o
TP_PRES_DOWN                                      build/GT911.o
                                                  build/main.o
TR_JUMP_Flag                                      build/keyremo.o
TR_JUMP_HOLD                                      build/keyremo.o
TVICommandToAHData                                build/TP2802.o
TVII2CAddress                                     build/TP2802.o
                                                  build/VX_swi2c.o
TVI_BOX_Set                                       build/TP2802.o
                                                  build/SysTimer.o
TVI_Chksum                                        build/TP2802.o
TVI_Command                                       build/TP2802.o
TVI_speed                                         build/TP2802.o
Time5ms                                           build/keyremo.o
TimeStep                                          build/main.o
                                                  build/keyremo.o
                                                  build/SysTimer.o
                                                  build/VX_OSD_Simple.o
Title_Menu                                        build/VX_OSD_Simple.o
TouchDisplayCursor                                build/VX_OSD_Simple.o
                                                  build/GT911.o
                                                  build/keyremo.o
TouchP                                            build/keyremo.o
                                                  build/main.o
TouchPreSelectModeType                            build/keyremo.o
TouchResetSelectMode                              build/keyremo.o
                                                  build/GT911.o
TouchResetSelectModeFlag                          build/keyremo.o
TouchSetSelectMode                                build/keyremo.o
                                                  build/GT911.o
TouchSliderSetSelectMode                          build/keyremo.o
                                                  build/GT911.o
Touch_Screen_Handler                              build/GT911.o
                                                  build/SysTimer.o
TriggerC_Table                                    build/keyremo.o
TriggerC_Table10                                  build/keyremo.o
TriggerC_Table9                                   build/keyremo.o
TriggerFlag                                       build/keyremo.o
                                                  build/GT911.o
                                                  build/audio.o
                                                  build/SysTimer.o
                                                  build/monitor.o
                                                  build/VS4210.o
                                                  build/VX_OSD_Simple.o
                                                  build/main.o
TriggerHandler                                    build/keyremo.o
                                                  build/TP2802.o
                                                  build/main.o
TriggerMode                                       build/keyremo.o
TriggerStatus                                     build/keyremo.o
                                                  build/SysTimer.o
                                                  build/TP2802.o
                                                  build/VX_OSD_Simple.o
                                                  build/main.o
Trigger_Delay_Menu                                build/VX_OSD_Simple.o
Trigger_Set_Menu                                  build/VX_OSD_Simple.o
USART1_IRQHandler                                 build/stm32f1xx_it.o
USART2_IRQHandler                                 build/stm32f1xx_it.o
USART3_IRQHandler                                 build/startup_stm32f103xb.o
USBWakeUp_IRQHandler                              build/startup_stm32f103xb.o
USB_HP_CAN1_TX_IRQHandler                         build/startup_stm32f103xb.o
USB_LP_CAN1_RX0_IRQHandler                        build/startup_stm32f103xb.o
Ulti_Menu                                         build/VX_OSD_Simple.o
UsageFault_Handler                                build/stm32f1xx_it.o
UserDefineFont1                                   build/exosd.o
                                                  build/main.o
UserInterfaceTimerEventProc                       build/SysTimer.o
UserRange                                         build/audio.o
                                                  build/VX_OSD_Simple.o
UserRangeBacklight                                build/audio.o
                                                  build/VX_OSD_Simple.o
VS4210_ADDR                                       build/main.o
                                                  build/VX_OSD.o
                                                  build/VX_swi2c.o
VS4210_Addr_88param                               build/VS4210_param_Mode88.o
                                                  build/VS4210.o
VS4210_Addr_param                                 build/VS4210_param_Modex26.o
                                                  build/VS4210.o
VS4210_CLRCamMirror                               build/VS4210.o
VS4210_CloseAllWindows                            build/VS4210.o
VS4210_CloseWindowsX                              build/VS4210.o
VS4210_Line_Clear                                 build/VS4210.o
VS4210_Line_Draw                                  build/VS4210.o
                                                  build/VX_OSD_Simple.o
VS4210_No_Signal_Init                             build/VS4210.o
VS4210_OpenWindowsX                               build/VS4210.o
VS4210_PowerDown                                  build/VS4210.o
VS4210_PowerResume                                build/VS4210.o
VS4210_ResetCamMirror                             build/VS4210.o
                                                  build/GT911.o
                                                  build/VX_OSD_Simple.o
VS4210_Rx_NoSignal                                build/VS4210.o
                                                  build/keyremo.o
                                                  build/TP2802.o
VS4210_SetCamMirror                               build/VS4210.o
VS4210_SetInModeOutMode                           build/VS4210.o
                                                  build/TP2802.o
VS4210_SetMutiWindows                             build/VS4210.o
                                                  build/main.o
VS4210_StartInit                                  build/VS4210.o
VS4210_SwitchChannel                              build/VS4210.o
                                                  build/monitor.o
VS4210_bt656_1080P_1080P_mode0_w0_88param         build/VS4210_param_Mode88.o
                                                  build/VS4210.o
VS4210_bt656_1080P_1080P_mode0_w0_mirrorH_88param build/VS4210_param_Mode88.o
                                                  build/VS4210.o
VS4210_bt656_1080P_1080P_mode10_w0_mirrorH_param  build/VS4210_param_Modex26.o
                                                  build/VS4210.o
VS4210_bt656_1080P_1080P_mode10_w0_param          build/VS4210_param_Modex26.o
                                                  build/VS4210.o
VS4210_bt656_1080P_1080P_mode10_w1_mirrorH_param  build/VS4210_param_Modex26.o
                                                  build/VS4210.o
VS4210_bt656_1080P_1080P_mode10_w1_param          build/VS4210_param_Modex26.o
                                                  build/VS4210.o
VS4210_bt656_1080P_1080P_mode10_w2_mirrorH_param  build/VS4210_param_Modex26.o
                                                  build/VS4210.o
VS4210_bt656_1080P_1080P_mode10_w2_param          build/VS4210_param_Modex26.o
                                                  build/VS4210.o
VS4210_bt656_1080P_1080P_mode12_w0_mirrorH_param  build/VS4210_param_Modex26.o
                                                  build/VS4210.o
VS4210_bt656_1080P_1080P_mode12_w0_param          build/VS4210_param_Modex26.o
                                                  build/VS4210.o
VS4210_bt656_1080P_1080P_mode12_w1_mirrorH_param  build/VS4210_param_Modex26.o
                                                  build/VS4210.o
VS4210_bt656_1080P_1080P_mode12_w1_param          build/VS4210_param_Modex26.o
                                                  build/VS4210.o
VS4210_bt656_1080P_1080P_mode14_w0_mirrorH_param  build/VS4210_param_Modex26.o
                                                  build/VS4210.o
VS4210_bt656_1080P_1080P_mode14_w0_param          build/VS4210_param_Modex26.o
                                                  build/VS4210.o
VS4210_bt656_1080P_1080P_mode14_w1_mirrorH_param  build/VS4210_param_Modex26.o
                                                  build/VS4210.o
VS4210_bt656_1080P_1080P_mode14_w1_param          build/VS4210_param_Modex26.o
                                                  build/VS4210.o
VS4210_bt656_1080P_1080P_mode14_w2_mirrorH_param  build/VS4210_param_Modex26.o
                                                  build/VS4210.o
VS4210_bt656_1080P_1080P_mode14_w2_param          build/VS4210_param_Modex26.o
                                                  build/VS4210.o
VS4210_bt656_1080P_1080P_mode1_w0_mirrorH_param   build/VS4210_param_Modex26.o
                                                  build/VS4210.o
VS4210_bt656_1080P_1080P_mode1_w0_param           build/VS4210_param_Modex26.o
                                                  build/VS4210.o
VS4210_bt656_1080P_1080P_mode1_w1_mirrorH_param   build/VS4210_param_Modex26.o
                                                  build/VS4210.o
VS4210_bt656_1080P_1080P_mode1_w1_param           build/VS4210_param_Modex26.o
                                                  build/VS4210.o
VS4210_bt656_1080P_1080P_mode1_w2_mirrorH_param   build/VS4210_param_Modex26.o
                                                  build/VS4210.o
VS4210_bt656_1080P_1080P_mode1_w2_param           build/VS4210_param_Modex26.o
                                                  build/VS4210.o
VS4210_bt656_1080P_1080P_mode1_w3_mirrorH_param   build/VS4210_param_Modex26.o
                                                  build/VS4210.o
VS4210_bt656_1080P_1080P_mode1_w3_param           build/VS4210_param_Modex26.o
                                                  build/VS4210.o
VS4210_bt656_1080P_1080P_mode2_w0_mirrorH_param   build/VS4210_param_Modex26.o
                                                  build/VS4210.o
VS4210_bt656_1080P_1080P_mode2_w0_param           build/VS4210_param_Modex26.o
                                                  build/VS4210.o
VS4210_bt656_1080P_1080P_mode2_w1_mirrorH_param   build/VS4210_param_Modex26.o
                                                  build/VS4210.o
VS4210_bt656_1080P_1080P_mode2_w1_param           build/VS4210_param_Modex26.o
                                                  build/VS4210.o
VS4210_bt656_1080P_1080P_mode2_w2_mirrorH_param   build/VS4210_param_Modex26.o
                                                  build/VS4210.o
VS4210_bt656_1080P_1080P_mode2_w2_param           build/VS4210_param_Modex26.o
                                                  build/VS4210.o
VS4210_bt656_1080P_1080P_mode2_w3_mirrorH_param   build/VS4210_param_Modex26.o
                                                  build/VS4210.o
VS4210_bt656_1080P_1080P_mode2_w3_param           build/VS4210_param_Modex26.o
                                                  build/VS4210.o
VS4210_bt656_1080P_1080P_mode8_w0_mirrorH_param   build/VS4210_param_Modex26.o
                                                  build/VS4210.o
VS4210_bt656_1080P_1080P_mode8_w0_param           build/VS4210_param_Modex26.o
                                                  build/VS4210.o
VS4210_bt656_1080P_1080P_mode8_w1_mirrorH_param   build/VS4210_param_Modex26.o
                                                  build/VS4210.o
VS4210_bt656_1080P_1080P_mode8_w1_param           build/VS4210_param_Modex26.o
                                                  build/VS4210.o
VS4210_bt656_1080P_1080P_mode8_w2_mirrorH_param   build/VS4210_param_Modex26.o
                                                  build/VS4210.o
VS4210_bt656_1080P_1080P_mode8_w2_param           build/VS4210_param_Modex26.o
                                                  build/VS4210.o
VS4210_bt656_1080P_1080P_mode9_w0_mirrorH_param   build/VS4210_param_Modex26.o
                                                  build/VS4210.o
VS4210_bt656_1080P_1080P_mode9_w0_param           build/VS4210_param_Modex26.o
                                                  build/VS4210.o
VS4210_bt656_1080P_1080P_mode9_w1_mirrorH_param   build/VS4210_param_Modex26.o
                                                  build/VS4210.o
VS4210_bt656_1080P_1080P_mode9_w1_param           build/VS4210_param_Modex26.o
                                                  build/VS4210.o
VS4210_bt656_1080P_1080P_mode9_w2_mirrorH_param   build/VS4210_param_Modex26.o
                                                  build/VS4210.o
VS4210_bt656_1080P_1080P_mode9_w2_param           build/VS4210_param_Modex26.o
                                                  build/VS4210.o
VS4210_bt656_1080P_720P_mode0_w0_88param          build/VS4210_param_Mode88.o
                                                  build/VS4210.o
VS4210_bt656_1080P_720P_mode0_w0_mirrorH_88param  build/VS4210_param_Mode88.o
                                                  build/VS4210.o
VS4210_bt656_1080P_720P_mode10_w0_mirrorH_param   build/VS4210_param_Modex26.o
                                                  build/VS4210.o
VS4210_bt656_1080P_720P_mode10_w0_param           build/VS4210_param_Modex26.o
                                                  build/VS4210.o
VS4210_bt656_1080P_720P_mode10_w1_mirrorH_param   build/VS4210_param_Modex26.o
                                                  build/VS4210.o
VS4210_bt656_1080P_720P_mode10_w1_param           build/VS4210_param_Modex26.o
                                                  build/VS4210.o
VS4210_bt656_1080P_720P_mode10_w2_mirrorH_param   build/VS4210_param_Modex26.o
                                                  build/VS4210.o
VS4210_bt656_1080P_720P_mode10_w2_param           build/VS4210_param_Modex26.o
                                                  build/VS4210.o
VS4210_bt656_1080P_720P_mode12_w0_mirrorH_param   build/VS4210_param_Modex26.o
                                                  build/VS4210.o
VS4210_bt656_1080P_720P_mode12_w0_param           build/VS4210_param_Modex26.o
                                                  build/VS4210.o
VS4210_bt656_1080P_720P_mode12_w1_mirrorH_param   build/VS4210_param_Modex26.o
                                                  build/VS4210.o
VS4210_bt656_1080P_720P_mode12_w1_param           build/VS4210_param_Modex26.o
                                                  build/VS4210.o
VS4210_bt656_1080P_720P_mode14_w0_mirrorH_param   build/VS4210_param_Modex26.o
                                                  build/VS4210.o
VS4210_bt656_1080P_720P_mode14_w0_param           build/VS4210_param_Modex26.o
                                                  build/VS4210.o
VS4210_bt656_1080P_720P_mode14_w1_mirrorH_param   build/VS4210_param_Modex26.o
                                                  build/VS4210.o
VS4210_bt656_1080P_720P_mode14_w1_param           build/VS4210_param_Modex26.o
                                                  build/VS4210.o
VS4210_bt656_1080P_720P_mode14_w2_mirrorH_param   build/VS4210_param_Modex26.o
                                                  build/VS4210.o
VS4210_bt656_1080P_720P_mode14_w2_param           build/VS4210_param_Modex26.o
                                                  build/VS4210.o
VS4210_bt656_1080P_720P_mode1_w0_mirrorH_param    build/VS4210_param_Modex26.o
                                                  build/VS4210.o
VS4210_bt656_1080P_720P_mode1_w0_param            build/VS4210_param_Modex26.o
                                                  build/VS4210.o
VS4210_bt656_1080P_720P_mode1_w1_mirrorH_param    build/VS4210_param_Modex26.o
                                                  build/VS4210.o
VS4210_bt656_1080P_720P_mode1_w1_param            build/VS4210_param_Modex26.o
                                                  build/VS4210.o
VS4210_bt656_1080P_720P_mode1_w2_mirrorH_param    build/VS4210_param_Modex26.o
                                                  build/VS4210.o
VS4210_bt656_1080P_720P_mode1_w2_param            build/VS4210_param_Modex26.o
                                                  build/VS4210.o
VS4210_bt656_1080P_720P_mode1_w3_mirrorH_param    build/VS4210_param_Modex26.o
                                                  build/VS4210.o
VS4210_bt656_1080P_720P_mode1_w3_param            build/VS4210_param_Modex26.o
                                                  build/VS4210.o
VS4210_bt656_1080P_720P_mode2_w0_mirrorH_param    build/VS4210_param_Modex26.o
                                                  build/VS4210.o
VS4210_bt656_1080P_720P_mode2_w0_param            build/VS4210_param_Modex26.o
                                                  build/VS4210.o
VS4210_bt656_1080P_720P_mode2_w1_mirrorH_param    build/VS4210_param_Modex26.o
                                                  build/VS4210.o
VS4210_bt656_1080P_720P_mode2_w1_param            build/VS4210_param_Modex26.o
                                                  build/VS4210.o
VS4210_bt656_1080P_720P_mode2_w2_mirrorH_param    build/VS4210_param_Modex26.o
                                                  build/VS4210.o
VS4210_bt656_1080P_720P_mode2_w2_param            build/VS4210_param_Modex26.o
                                                  build/VS4210.o
VS4210_bt656_1080P_720P_mode2_w3_mirrorH_param    build/VS4210_param_Modex26.o
                                                  build/VS4210.o
VS4210_bt656_1080P_720P_mode2_w3_param            build/VS4210_param_Modex26.o
                                                  build/VS4210.o
VS4210_bt656_1080P_720P_mode8_w0_mirrorH_param    build/VS4210_param_Modex26.o
                                                  build/VS4210.o
VS4210_bt656_1080P_720P_mode8_w0_param            build/VS4210_param_Modex26.o
                                                  build/VS4210.o
VS4210_bt656_1080P_720P_mode8_w1_mirrorH_param    build/VS4210_param_Modex26.o
                                                  build/VS4210.o
VS4210_bt656_1080P_720P_mode8_w1_param            build/VS4210_param_Modex26.o
                                                  build/VS4210.o
VS4210_bt656_1080P_720P_mode8_w2_mirrorH_param    build/VS4210_param_Modex26.o
                                                  build/VS4210.o
VS4210_bt656_1080P_720P_mode8_w2_param            build/VS4210_param_Modex26.o
                                                  build/VS4210.o
VS4210_bt656_1080P_720P_mode9_w0_mirrorH_param    build/VS4210_param_Modex26.o
                                                  build/VS4210.o
VS4210_bt656_1080P_720P_mode9_w0_param            build/VS4210_param_Modex26.o
                                                  build/VS4210.o
VS4210_bt656_1080P_720P_mode9_w1_mirrorH_param    build/VS4210_param_Modex26.o
                                                  build/VS4210.o
VS4210_bt656_1080P_720P_mode9_w1_param            build/VS4210_param_Modex26.o
                                                  build/VS4210.o
VS4210_bt656_1080P_720P_mode9_w2_mirrorH_param    build/VS4210_param_Modex26.o
                                                  build/VS4210.o
VS4210_bt656_1080P_720P_mode9_w2_param            build/VS4210_param_Modex26.o
                                                  build/VS4210.o
VS4210_bt656_1080P_800x480_mode0_w0_88param       build/VS4210_param_Mode88.o
                                                  build/VS4210.o
VS4210_bt656_1080P_800x480_mode0_w0_mirrorH_88param build/VS4210_param_Mode88.o
                                                  build/VS4210.o
VS4210_bt656_1080P_800x480_mode10_w0_mirrorH_param build/VS4210_param_Modex26.o
                                                  build/VS4210.o
VS4210_bt656_1080P_800x480_mode10_w0_param        build/VS4210_param_Modex26.o
                                                  build/VS4210.o
VS4210_bt656_1080P_800x480_mode10_w1_mirrorH_param build/VS4210_param_Modex26.o
                                                  build/VS4210.o
VS4210_bt656_1080P_800x480_mode10_w1_param        build/VS4210_param_Modex26.o
                                                  build/VS4210.o
VS4210_bt656_1080P_800x480_mode10_w2_mirrorH_param build/VS4210_param_Modex26.o
                                                  build/VS4210.o
VS4210_bt656_1080P_800x480_mode10_w2_param        build/VS4210_param_Modex26.o
                                                  build/VS4210.o
VS4210_bt656_1080P_800x480_mode12_w0_mirrorH_param build/VS4210_param_Modex26.o
                                                  build/VS4210.o
VS4210_bt656_1080P_800x480_mode12_w0_param        build/VS4210_param_Modex26.o
                                                  build/VS4210.o
VS4210_bt656_1080P_800x480_mode12_w1_mirrorH_param build/VS4210_param_Modex26.o
                                                  build/VS4210.o
VS4210_bt656_1080P_800x480_mode12_w1_param        build/VS4210_param_Modex26.o
                                                  build/VS4210.o
VS4210_bt656_1080P_800x480_mode14_w0_mirrorH_param build/VS4210_param_Modex26.o
                                                  build/VS4210.o
VS4210_bt656_1080P_800x480_mode14_w0_param        build/VS4210_param_Modex26.o
                                                  build/VS4210.o
VS4210_bt656_1080P_800x480_mode14_w1_mirrorH_param build/VS4210_param_Modex26.o
                                                  build/VS4210.o
VS4210_bt656_1080P_800x480_mode14_w1_param        build/VS4210_param_Modex26.o
                                                  build/VS4210.o
VS4210_bt656_1080P_800x480_mode14_w2_mirrorH_param build/VS4210_param_Modex26.o
                                                  build/VS4210.o
VS4210_bt656_1080P_800x480_mode14_w2_param        build/VS4210_param_Modex26.o
                                                  build/VS4210.o
VS4210_bt656_1080P_800x480_mode1_w0_mirrorH_param build/VS4210_param_Modex26.o
                                                  build/VS4210.o
VS4210_bt656_1080P_800x480_mode1_w0_param         build/VS4210_param_Modex26.o
                                                  build/VS4210.o
VS4210_bt656_1080P_800x480_mode1_w1_mirrorH_param build/VS4210_param_Modex26.o
                                                  build/VS4210.o
VS4210_bt656_1080P_800x480_mode1_w1_param         build/VS4210_param_Modex26.o
                                                  build/VS4210.o
VS4210_bt656_1080P_800x480_mode1_w2_mirrorH_param build/VS4210_param_Modex26.o
                                                  build/VS4210.o
VS4210_bt656_1080P_800x480_mode1_w2_param         build/VS4210_param_Modex26.o
                                                  build/VS4210.o
VS4210_bt656_1080P_800x480_mode1_w3_mirrorH_param build/VS4210_param_Modex26.o
                                                  build/VS4210.o
VS4210_bt656_1080P_800x480_mode1_w3_param         build/VS4210_param_Modex26.o
                                                  build/VS4210.o
VS4210_bt656_1080P_800x480_mode2_w0_mirrorH_param build/VS4210_param_Modex26.o
                                                  build/VS4210.o
VS4210_bt656_1080P_800x480_mode2_w0_param         build/VS4210_param_Modex26.o
                                                  build/VS4210.o
VS4210_bt656_1080P_800x480_mode2_w1_mirrorH_param build/VS4210_param_Modex26.o
                                                  build/VS4210.o
VS4210_bt656_1080P_800x480_mode2_w1_param         build/VS4210_param_Modex26.o
                                                  build/VS4210.o
VS4210_bt656_1080P_800x480_mode2_w2_mirrorH_param build/VS4210_param_Modex26.o
                                                  build/VS4210.o
VS4210_bt656_1080P_800x480_mode2_w2_param         build/VS4210_param_Modex26.o
                                                  build/VS4210.o
VS4210_bt656_1080P_800x480_mode2_w3_mirrorH_param build/VS4210_param_Modex26.o
                                                  build/VS4210.o
VS4210_bt656_1080P_800x480_mode2_w3_param         build/VS4210_param_Modex26.o
                                                  build/VS4210.o
VS4210_bt656_1080P_800x480_mode8_w0_mirrorH_param build/VS4210_param_Modex26.o
                                                  build/VS4210.o
VS4210_bt656_1080P_800x480_mode8_w0_param         build/VS4210_param_Modex26.o
                                                  build/VS4210.o
VS4210_bt656_1080P_800x480_mode8_w1_mirrorH_param build/VS4210_param_Modex26.o
                                                  build/VS4210.o
VS4210_bt656_1080P_800x480_mode8_w1_param         build/VS4210_param_Modex26.o
                                                  build/VS4210.o
VS4210_bt656_1080P_800x480_mode8_w2_mirrorH_param build/VS4210_param_Modex26.o
                                                  build/VS4210.o
VS4210_bt656_1080P_800x480_mode8_w2_param         build/VS4210_param_Modex26.o
                                                  build/VS4210.o
VS4210_bt656_1080P_800x480_mode9_w0_mirrorH_param build/VS4210_param_Modex26.o
                                                  build/VS4210.o
VS4210_bt656_1080P_800x480_mode9_w0_param         build/VS4210_param_Modex26.o
                                                  build/VS4210.o
VS4210_bt656_1080P_800x480_mode9_w1_mirrorH_param build/VS4210_param_Modex26.o
                                                  build/VS4210.o
VS4210_bt656_1080P_800x480_mode9_w1_param         build/VS4210_param_Modex26.o
                                                  build/VS4210.o
VS4210_bt656_1080P_800x480_mode9_w2_mirrorH_param build/VS4210_param_Modex26.o
                                                  build/VS4210.o
VS4210_bt656_1080P_800x480_mode9_w2_param         build/VS4210_param_Modex26.o
                                                  build/VS4210.o
VS4210_bt656_720P_1080P_mode0_w0_88param          build/VS4210_param_Mode88.o
                                                  build/VS4210.o
VS4210_bt656_720P_1080P_mode0_w0_mirrorH_88param  build/VS4210_param_Mode88.o
                                                  build/VS4210.o
VS4210_bt656_720P_1080P_mode10_w0_mirrorH_param   build/VS4210_param_Modex26.o
                                                  build/VS4210.o
VS4210_bt656_720P_1080P_mode10_w0_param           build/VS4210_param_Modex26.o
                                                  build/VS4210.o
VS4210_bt656_720P_1080P_mode10_w1_mirrorH_param   build/VS4210_param_Modex26.o
                                                  build/VS4210.o
VS4210_bt656_720P_1080P_mode10_w1_param           build/VS4210_param_Modex26.o
                                                  build/VS4210.o
VS4210_bt656_720P_1080P_mode10_w2_mirrorH_param   build/VS4210_param_Modex26.o
                                                  build/VS4210.o
VS4210_bt656_720P_1080P_mode10_w2_param           build/VS4210_param_Modex26.o
                                                  build/VS4210.o
VS4210_bt656_720P_1080P_mode12_w0_mirrorH_param   build/VS4210_param_Modex26.o
                                                  build/VS4210.o
VS4210_bt656_720P_1080P_mode12_w0_param           build/VS4210_param_Modex26.o
                                                  build/VS4210.o
VS4210_bt656_720P_1080P_mode12_w1_mirrorH_param   build/VS4210_param_Modex26.o
                                                  build/VS4210.o
VS4210_bt656_720P_1080P_mode12_w1_param           build/VS4210_param_Modex26.o
                                                  build/VS4210.o
VS4210_bt656_720P_1080P_mode14_w0_mirrorH_param   build/VS4210_param_Modex26.o
                                                  build/VS4210.o
VS4210_bt656_720P_1080P_mode14_w0_param           build/VS4210_param_Modex26.o
                                                  build/VS4210.o
VS4210_bt656_720P_1080P_mode14_w1_mirrorH_param   build/VS4210_param_Modex26.o
                                                  build/VS4210.o
VS4210_bt656_720P_1080P_mode14_w1_param           build/VS4210_param_Modex26.o
                                                  build/VS4210.o
VS4210_bt656_720P_1080P_mode14_w2_mirrorH_param   build/VS4210_param_Modex26.o
                                                  build/VS4210.o
VS4210_bt656_720P_1080P_mode14_w2_param           build/VS4210_param_Modex26.o
                                                  build/VS4210.o
VS4210_bt656_720P_1080P_mode1_w0_mirrorH_param    build/VS4210_param_Modex26.o
                                                  build/VS4210.o
VS4210_bt656_720P_1080P_mode1_w0_param            build/VS4210_param_Modex26.o
                                                  build/VS4210.o
VS4210_bt656_720P_1080P_mode1_w1_mirrorH_param    build/VS4210_param_Modex26.o
                                                  build/VS4210.o
VS4210_bt656_720P_1080P_mode1_w1_param            build/VS4210_param_Modex26.o
                                                  build/VS4210.o
VS4210_bt656_720P_1080P_mode1_w2_mirrorH_param    build/VS4210_param_Modex26.o
                                                  build/VS4210.o
VS4210_bt656_720P_1080P_mode1_w2_param            build/VS4210_param_Modex26.o
                                                  build/VS4210.o
VS4210_bt656_720P_1080P_mode1_w3_mirrorH_param    build/VS4210_param_Modex26.o
                                                  build/VS4210.o
VS4210_bt656_720P_1080P_mode1_w3_param            build/VS4210_param_Modex26.o
                                                  build/VS4210.o
VS4210_bt656_720P_1080P_mode2_w0_mirrorH_param    build/VS4210_param_Modex26.o
                                                  build/VS4210.o
VS4210_bt656_720P_1080P_mode2_w0_param            build/VS4210_param_Modex26.o
                                                  build/VS4210.o
VS4210_bt656_720P_1080P_mode2_w1_mirrorH_param    build/VS4210_param_Modex26.o
                                                  build/VS4210.o
VS4210_bt656_720P_1080P_mode2_w1_param            build/VS4210_param_Modex26.o
                                                  build/VS4210.o
VS4210_bt656_720P_1080P_mode2_w2_mirrorH_param    build/VS4210_param_Modex26.o
                                                  build/VS4210.o
VS4210_bt656_720P_1080P_mode2_w2_param            build/VS4210_param_Modex26.o
                                                  build/VS4210.o
VS4210_bt656_720P_1080P_mode2_w3_mirrorH_param    build/VS4210_param_Modex26.o
                                                  build/VS4210.o
VS4210_bt656_720P_1080P_mode2_w3_param            build/VS4210_param_Modex26.o
                                                  build/VS4210.o
VS4210_bt656_720P_1080P_mode8_w0_mirrorH_param    build/VS4210_param_Modex26.o
                                                  build/VS4210.o
VS4210_bt656_720P_1080P_mode8_w0_param            build/VS4210_param_Modex26.o
                                                  build/VS4210.o
VS4210_bt656_720P_1080P_mode8_w1_mirrorH_param    build/VS4210_param_Modex26.o
                                                  build/VS4210.o
VS4210_bt656_720P_1080P_mode8_w1_param            build/VS4210_param_Modex26.o
                                                  build/VS4210.o
VS4210_bt656_720P_1080P_mode8_w2_mirrorH_param    build/VS4210_param_Modex26.o
                                                  build/VS4210.o
VS4210_bt656_720P_1080P_mode8_w2_param            build/VS4210_param_Modex26.o
                                                  build/VS4210.o
VS4210_bt656_720P_1080P_mode9_w0_mirrorH_param    build/VS4210_param_Modex26.o
                                                  build/VS4210.o
VS4210_bt656_720P_1080P_mode9_w0_param            build/VS4210_param_Modex26.o
                                                  build/VS4210.o
VS4210_bt656_720P_1080P_mode9_w1_mirrorH_param    build/VS4210_param_Modex26.o
                                                  build/VS4210.o
VS4210_bt656_720P_1080P_mode9_w1_param            build/VS4210_param_Modex26.o
                                                  build/VS4210.o
VS4210_bt656_720P_1080P_mode9_w2_mirrorH_param    build/VS4210_param_Modex26.o
                                                  build/VS4210.o
VS4210_bt656_720P_1080P_mode9_w2_param            build/VS4210_param_Modex26.o
                                                  build/VS4210.o
VS4210_bt656_720P_720P_mode0_w0_88param           build/VS4210_param_Mode88.o
                                                  build/VS4210.o
VS4210_bt656_720P_720P_mode0_w0_mirrorH_88param   build/VS4210_param_Mode88.o
                                                  build/VS4210.o
VS4210_bt656_720P_720P_mode10_w0_mirrorH_param    build/VS4210_param_Modex26.o
                                                  build/VS4210.o
VS4210_bt656_720P_720P_mode10_w0_param            build/VS4210_param_Modex26.o
                                                  build/VS4210.o
VS4210_bt656_720P_720P_mode10_w1_mirrorH_param    build/VS4210_param_Modex26.o
                                                  build/VS4210.o
VS4210_bt656_720P_720P_mode10_w1_param            build/VS4210_param_Modex26.o
                                                  build/VS4210.o
VS4210_bt656_720P_720P_mode10_w2_mirrorH_param    build/VS4210_param_Modex26.o
                                                  build/VS4210.o
VS4210_bt656_720P_720P_mode10_w2_param            build/VS4210_param_Modex26.o
                                                  build/VS4210.o
VS4210_bt656_720P_720P_mode12_w0_mirrorH_param    build/VS4210_param_Modex26.o
                                                  build/VS4210.o
VS4210_bt656_720P_720P_mode12_w0_param            build/VS4210_param_Modex26.o
                                                  build/VS4210.o
VS4210_bt656_720P_720P_mode12_w1_mirrorH_param    build/VS4210_param_Modex26.o
                                                  build/VS4210.o
VS4210_bt656_720P_720P_mode12_w1_param            build/VS4210_param_Modex26.o
                                                  build/VS4210.o
VS4210_bt656_720P_720P_mode14_w0_mirrorH_param    build/VS4210_param_Modex26.o
                                                  build/VS4210.o
VS4210_bt656_720P_720P_mode14_w0_param            build/VS4210_param_Modex26.o
                                                  build/VS4210.o
VS4210_bt656_720P_720P_mode14_w1_mirrorH_param    build/VS4210_param_Modex26.o
                                                  build/VS4210.o
VS4210_bt656_720P_720P_mode14_w1_param            build/VS4210_param_Modex26.o
                                                  build/VS4210.o
VS4210_bt656_720P_720P_mode14_w2_mirrorH_param    build/VS4210_param_Modex26.o
                                                  build/VS4210.o
VS4210_bt656_720P_720P_mode14_w2_param            build/VS4210_param_Modex26.o
                                                  build/VS4210.o
VS4210_bt656_720P_720P_mode1_w0_mirrorH_param     build/VS4210_param_Modex26.o
                                                  build/VS4210.o
VS4210_bt656_720P_720P_mode1_w0_param             build/VS4210_param_Modex26.o
                                                  build/VS4210.o
VS4210_bt656_720P_720P_mode1_w1_mirrorH_param     build/VS4210_param_Modex26.o
                                                  build/VS4210.o
VS4210_bt656_720P_720P_mode1_w1_param             build/VS4210_param_Modex26.o
                                                  build/VS4210.o
VS4210_bt656_720P_720P_mode1_w2_mirrorH_param     build/VS4210_param_Modex26.o
                                                  build/VS4210.o
VS4210_bt656_720P_720P_mode1_w2_param             build/VS4210_param_Modex26.o
                                                  build/VS4210.o
VS4210_bt656_720P_720P_mode1_w3_mirrorH_param     build/VS4210_param_Modex26.o
                                                  build/VS4210.o
VS4210_bt656_720P_720P_mode1_w3_param             build/VS4210_param_Modex26.o
                                                  build/VS4210.o
VS4210_bt656_720P_720P_mode2_w0_mirrorH_param     build/VS4210_param_Modex26.o
                                                  build/VS4210.o
VS4210_bt656_720P_720P_mode2_w0_param             build/VS4210_param_Modex26.o
                                                  build/VS4210.o
VS4210_bt656_720P_720P_mode2_w1_mirrorH_param     build/VS4210_param_Modex26.o
                                                  build/VS4210.o
VS4210_bt656_720P_720P_mode2_w1_param             build/VS4210_param_Modex26.o
                                                  build/VS4210.o
VS4210_bt656_720P_720P_mode2_w2_mirrorH_param     build/VS4210_param_Modex26.o
                                                  build/VS4210.o
VS4210_bt656_720P_720P_mode2_w2_param             build/VS4210_param_Modex26.o
                                                  build/VS4210.o
VS4210_bt656_720P_720P_mode2_w3_mirrorH_param     build/VS4210_param_Modex26.o
                                                  build/VS4210.o
VS4210_bt656_720P_720P_mode2_w3_param             build/VS4210_param_Modex26.o
                                                  build/VS4210.o
VS4210_bt656_720P_720P_mode8_w0_mirrorH_param     build/VS4210_param_Modex26.o
                                                  build/VS4210.o
VS4210_bt656_720P_720P_mode8_w0_param             build/VS4210_param_Modex26.o
                                                  build/VS4210.o
VS4210_bt656_720P_720P_mode8_w1_mirrorH_param     build/VS4210_param_Modex26.o
                                                  build/VS4210.o
VS4210_bt656_720P_720P_mode8_w1_param             build/VS4210_param_Modex26.o
                                                  build/VS4210.o
VS4210_bt656_720P_720P_mode8_w2_mirrorH_param     build/VS4210_param_Modex26.o
                                                  build/VS4210.o
VS4210_bt656_720P_720P_mode8_w2_param             build/VS4210_param_Modex26.o
                                                  build/VS4210.o
VS4210_bt656_720P_720P_mode9_w0_mirrorH_param     build/VS4210_param_Modex26.o
                                                  build/VS4210.o
VS4210_bt656_720P_720P_mode9_w0_param             build/VS4210_param_Modex26.o
                                                  build/VS4210.o
VS4210_bt656_720P_720P_mode9_w1_mirrorH_param     build/VS4210_param_Modex26.o
                                                  build/VS4210.o
VS4210_bt656_720P_720P_mode9_w1_param             build/VS4210_param_Modex26.o
                                                  build/VS4210.o
VS4210_bt656_720P_720P_mode9_w2_mirrorH_param     build/VS4210_param_Modex26.o
                                                  build/VS4210.o
VS4210_bt656_720P_720P_mode9_w2_param             build/VS4210_param_Modex26.o
                                                  build/VS4210.o
VS4210_bt656_720P_800x480_mode0_w0_88param        build/VS4210_param_Mode88.o
                                                  build/VS4210.o
VS4210_bt656_720P_800x480_mode0_w0_mirrorH_88param build/VS4210_param_Mode88.o
                                                  build/VS4210.o
VS4210_bt656_720P_800x480_mode10_w0_mirrorH_param build/VS4210_param_Modex26.o
                                                  build/VS4210.o
VS4210_bt656_720P_800x480_mode10_w0_param         build/VS4210_param_Modex26.o
                                                  build/VS4210.o
VS4210_bt656_720P_800x480_mode10_w1_mirrorH_param build/VS4210_param_Modex26.o
                                                  build/VS4210.o
VS4210_bt656_720P_800x480_mode10_w1_param         build/VS4210_param_Modex26.o
                                                  build/VS4210.o
VS4210_bt656_720P_800x480_mode10_w2_mirrorH_param build/VS4210_param_Modex26.o
                                                  build/VS4210.o
VS4210_bt656_720P_800x480_mode10_w2_param         build/VS4210_param_Modex26.o
                                                  build/VS4210.o
VS4210_bt656_720P_800x480_mode12_w0_mirrorH_param build/VS4210_param_Modex26.o
                                                  build/VS4210.o
VS4210_bt656_720P_800x480_mode12_w0_param         build/VS4210_param_Modex26.o
                                                  build/VS4210.o
VS4210_bt656_720P_800x480_mode12_w1_mirrorH_param build/VS4210_param_Modex26.o
                                                  build/VS4210.o
VS4210_bt656_720P_800x480_mode12_w1_param         build/VS4210_param_Modex26.o
                                                  build/VS4210.o
VS4210_bt656_720P_800x480_mode14_w0_mirrorH_param build/VS4210_param_Modex26.o
                                                  build/VS4210.o
VS4210_bt656_720P_800x480_mode14_w0_param         build/VS4210_param_Modex26.o
                                                  build/VS4210.o
VS4210_bt656_720P_800x480_mode14_w1_mirrorH_param build/VS4210_param_Modex26.o
                                                  build/VS4210.o
VS4210_bt656_720P_800x480_mode14_w1_param         build/VS4210_param_Modex26.o
                                                  build/VS4210.o
VS4210_bt656_720P_800x480_mode14_w2_mirrorH_param build/VS4210_param_Modex26.o
                                                  build/VS4210.o
VS4210_bt656_720P_800x480_mode14_w2_param         build/VS4210_param_Modex26.o
                                                  build/VS4210.o
VS4210_bt656_720P_800x480_mode1_w0_mirrorH_param  build/VS4210_param_Modex26.o
                                                  build/VS4210.o
VS4210_bt656_720P_800x480_mode1_w0_param          build/VS4210_param_Modex26.o
                                                  build/VS4210.o
VS4210_bt656_720P_800x480_mode1_w1_mirrorH_param  build/VS4210_param_Modex26.o
                                                  build/VS4210.o
VS4210_bt656_720P_800x480_mode1_w1_param          build/VS4210_param_Modex26.o
                                                  build/VS4210.o
VS4210_bt656_720P_800x480_mode1_w2_mirrorH_param  build/VS4210_param_Modex26.o
                                                  build/VS4210.o
VS4210_bt656_720P_800x480_mode1_w2_param          build/VS4210_param_Modex26.o
                                                  build/VS4210.o
VS4210_bt656_720P_800x480_mode1_w3_mirrorH_param  build/VS4210_param_Modex26.o
                                                  build/VS4210.o
VS4210_bt656_720P_800x480_mode1_w3_param          build/VS4210_param_Modex26.o
                                                  build/VS4210.o
VS4210_bt656_720P_800x480_mode2_w0_mirrorH_param  build/VS4210_param_Modex26.o
                                                  build/VS4210.o
VS4210_bt656_720P_800x480_mode2_w0_param          build/VS4210_param_Modex26.o
                                                  build/VS4210.o
VS4210_bt656_720P_800x480_mode2_w1_mirrorH_param  build/VS4210_param_Modex26.o
                                                  build/VS4210.o
VS4210_bt656_720P_800x480_mode2_w1_param          build/VS4210_param_Modex26.o
                                                  build/VS4210.o
VS4210_bt656_720P_800x480_mode2_w2_mirrorH_param  build/VS4210_param_Modex26.o
                                                  build/VS4210.o
VS4210_bt656_720P_800x480_mode2_w2_param          build/VS4210_param_Modex26.o
                                                  build/VS4210.o
VS4210_bt656_720P_800x480_mode2_w3_mirrorH_param  build/VS4210_param_Modex26.o
                                                  build/VS4210.o
VS4210_bt656_720P_800x480_mode2_w3_param          build/VS4210_param_Modex26.o
                                                  build/VS4210.o
VS4210_bt656_720P_800x480_mode8_w0_mirrorH_param  build/VS4210_param_Modex26.o
                                                  build/VS4210.o
VS4210_bt656_720P_800x480_mode8_w0_param          build/VS4210_param_Modex26.o
                                                  build/VS4210.o
VS4210_bt656_720P_800x480_mode8_w1_mirrorH_param  build/VS4210_param_Modex26.o
                                                  build/VS4210.o
VS4210_bt656_720P_800x480_mode8_w1_param          build/VS4210_param_Modex26.o
                                                  build/VS4210.o
VS4210_bt656_720P_800x480_mode8_w2_mirrorH_param  build/VS4210_param_Modex26.o
                                                  build/VS4210.o
VS4210_bt656_720P_800x480_mode8_w2_param          build/VS4210_param_Modex26.o
                                                  build/VS4210.o
VS4210_bt656_720P_800x480_mode9_w0_mirrorH_param  build/VS4210_param_Modex26.o
                                                  build/VS4210.o
VS4210_bt656_720P_800x480_mode9_w0_param          build/VS4210_param_Modex26.o
                                                  build/VS4210.o
VS4210_bt656_720P_800x480_mode9_w1_mirrorH_param  build/VS4210_param_Modex26.o
                                                  build/VS4210.o
VS4210_bt656_720P_800x480_mode9_w1_param          build/VS4210_param_Modex26.o
                                                  build/VS4210.o
VS4210_bt656_720P_800x480_mode9_w2_mirrorH_param  build/VS4210_param_Modex26.o
                                                  build/VS4210.o
VS4210_bt656_720P_800x480_mode9_w2_param          build/VS4210_param_Modex26.o
                                                  build/VS4210.o
VS4210_bt656_NTSC_1080P_mode0_w0_88param          build/VS4210_param_Mode88.o
                                                  build/VS4210.o
VS4210_bt656_NTSC_1080P_mode0_w0_mirrorH_88param  build/VS4210_param_Mode88.o
                                                  build/VS4210.o
VS4210_bt656_NTSC_1080P_mode10_w0_mirrorH_param   build/VS4210_param_Modex26.o
                                                  build/VS4210.o
VS4210_bt656_NTSC_1080P_mode10_w0_param           build/VS4210_param_Modex26.o
                                                  build/VS4210.o
VS4210_bt656_NTSC_1080P_mode10_w1_mirrorH_param   build/VS4210_param_Modex26.o
                                                  build/VS4210.o
VS4210_bt656_NTSC_1080P_mode10_w1_param           build/VS4210_param_Modex26.o
                                                  build/VS4210.o
VS4210_bt656_NTSC_1080P_mode10_w2_mirrorH_param   build/VS4210_param_Modex26.o
                                                  build/VS4210.o
VS4210_bt656_NTSC_1080P_mode10_w2_param           build/VS4210_param_Modex26.o
                                                  build/VS4210.o
VS4210_bt656_NTSC_1080P_mode12_w0_mirrorH_param   build/VS4210_param_Modex26.o
                                                  build/VS4210.o
VS4210_bt656_NTSC_1080P_mode12_w0_param           build/VS4210_param_Modex26.o
                                                  build/VS4210.o
VS4210_bt656_NTSC_1080P_mode12_w1_mirrorH_param   build/VS4210_param_Modex26.o
                                                  build/VS4210.o
VS4210_bt656_NTSC_1080P_mode12_w1_param           build/VS4210_param_Modex26.o
                                                  build/VS4210.o
VS4210_bt656_NTSC_1080P_mode14_w0_mirrorH_param   build/VS4210_param_Modex26.o
                                                  build/VS4210.o
VS4210_bt656_NTSC_1080P_mode14_w0_param           build/VS4210_param_Modex26.o
                                                  build/VS4210.o
VS4210_bt656_NTSC_1080P_mode14_w1_mirrorH_param   build/VS4210_param_Modex26.o
                                                  build/VS4210.o
VS4210_bt656_NTSC_1080P_mode14_w1_param           build/VS4210_param_Modex26.o
                                                  build/VS4210.o
VS4210_bt656_NTSC_1080P_mode14_w2_mirrorH_param   build/VS4210_param_Modex26.o
                                                  build/VS4210.o
VS4210_bt656_NTSC_1080P_mode14_w2_param           build/VS4210_param_Modex26.o
                                                  build/VS4210.o
VS4210_bt656_NTSC_1080P_mode1_w0_mirrorH_param    build/VS4210_param_Modex26.o
                                                  build/VS4210.o
VS4210_bt656_NTSC_1080P_mode1_w0_param            build/VS4210_param_Modex26.o
                                                  build/VS4210.o
VS4210_bt656_NTSC_1080P_mode1_w1_mirrorH_param    build/VS4210_param_Modex26.o
                                                  build/VS4210.o
VS4210_bt656_NTSC_1080P_mode1_w1_param            build/VS4210_param_Modex26.o
                                                  build/VS4210.o
VS4210_bt656_NTSC_1080P_mode1_w2_mirrorH_param    build/VS4210_param_Modex26.o
                                                  build/VS4210.o
VS4210_bt656_NTSC_1080P_mode1_w2_param            build/VS4210_param_Modex26.o
                                                  build/VS4210.o
VS4210_bt656_NTSC_1080P_mode1_w3_mirrorH_param    build/VS4210_param_Modex26.o
                                                  build/VS4210.o
VS4210_bt656_NTSC_1080P_mode1_w3_param            build/VS4210_param_Modex26.o
                                                  build/VS4210.o
VS4210_bt656_NTSC_1080P_mode2_w0_mirrorH_param    build/VS4210_param_Modex26.o
                                                  build/VS4210.o
VS4210_bt656_NTSC_1080P_mode2_w0_param            build/VS4210_param_Modex26.o
                                                  build/VS4210.o
VS4210_bt656_NTSC_1080P_mode2_w1_mirrorH_param    build/VS4210_param_Modex26.o
                                                  build/VS4210.o
VS4210_bt656_NTSC_1080P_mode2_w1_param            build/VS4210_param_Modex26.o
                                                  build/VS4210.o
VS4210_bt656_NTSC_1080P_mode2_w2_mirrorH_param    build/VS4210_param_Modex26.o
                                                  build/VS4210.o
VS4210_bt656_NTSC_1080P_mode2_w2_param            build/VS4210_param_Modex26.o
                                                  build/VS4210.o
VS4210_bt656_NTSC_1080P_mode2_w3_mirrorH_param    build/VS4210_param_Modex26.o
                                                  build/VS4210.o
VS4210_bt656_NTSC_1080P_mode2_w3_param            build/VS4210_param_Modex26.o
                                                  build/VS4210.o
VS4210_bt656_NTSC_1080P_mode8_w0_mirrorH_param    build/VS4210_param_Modex26.o
                                                  build/VS4210.o
VS4210_bt656_NTSC_1080P_mode8_w0_param            build/VS4210_param_Modex26.o
                                                  build/VS4210.o
VS4210_bt656_NTSC_1080P_mode8_w1_mirrorH_param    build/VS4210_param_Modex26.o
                                                  build/VS4210.o
VS4210_bt656_NTSC_1080P_mode8_w1_param            build/VS4210_param_Modex26.o
                                                  build/VS4210.o
VS4210_bt656_NTSC_1080P_mode8_w2_mirrorH_param    build/VS4210_param_Modex26.o
                                                  build/VS4210.o
VS4210_bt656_NTSC_1080P_mode8_w2_param            build/VS4210_param_Modex26.o
                                                  build/VS4210.o
VS4210_bt656_NTSC_1080P_mode9_w0_mirrorH_param    build/VS4210_param_Modex26.o
                                                  build/VS4210.o
VS4210_bt656_NTSC_1080P_mode9_w0_param            build/VS4210_param_Modex26.o
                                                  build/VS4210.o
VS4210_bt656_NTSC_1080P_mode9_w1_mirrorH_param    build/VS4210_param_Modex26.o
                                                  build/VS4210.o
VS4210_bt656_NTSC_1080P_mode9_w1_param            build/VS4210_param_Modex26.o
                                                  build/VS4210.o
VS4210_bt656_NTSC_1080P_mode9_w2_mirrorH_param    build/VS4210_param_Modex26.o
                                                  build/VS4210.o
VS4210_bt656_NTSC_1080P_mode9_w2_param            build/VS4210_param_Modex26.o
                                                  build/VS4210.o
VS4210_bt656_NTSC_720P_mode0_w0_88param           build/VS4210_param_Mode88.o
                                                  build/VS4210.o
VS4210_bt656_NTSC_720P_mode0_w0_mirrorH_88param   build/VS4210_param_Mode88.o
                                                  build/VS4210.o
VS4210_bt656_NTSC_720P_mode10_w0_mirrorH_param    build/VS4210_param_Modex26.o
                                                  build/VS4210.o
VS4210_bt656_NTSC_720P_mode10_w0_param            build/VS4210_param_Modex26.o
                                                  build/VS4210.o
VS4210_bt656_NTSC_720P_mode10_w1_mirrorH_param    build/VS4210_param_Modex26.o
                                                  build/VS4210.o
VS4210_bt656_NTSC_720P_mode10_w1_param            build/VS4210_param_Modex26.o
                                                  build/VS4210.o
VS4210_bt656_NTSC_720P_mode10_w2_mirrorH_param    build/VS4210_param_Modex26.o
                                                  build/VS4210.o
VS4210_bt656_NTSC_720P_mode10_w2_param            build/VS4210_param_Modex26.o
                                                  build/VS4210.o
VS4210_bt656_NTSC_720P_mode12_w0_mirrorH_param    build/VS4210_param_Modex26.o
                                                  build/VS4210.o
VS4210_bt656_NTSC_720P_mode12_w0_param            build/VS4210_param_Modex26.o
                                                  build/VS4210.o
VS4210_bt656_NTSC_720P_mode12_w1_mirrorH_param    build/VS4210_param_Modex26.o
                                                  build/VS4210.o
VS4210_bt656_NTSC_720P_mode12_w1_param            build/VS4210_param_Modex26.o
                                                  build/VS4210.o
VS4210_bt656_NTSC_720P_mode14_w0_mirrorH_param    build/VS4210_param_Modex26.o
                                                  build/VS4210.o
VS4210_bt656_NTSC_720P_mode14_w0_param            build/VS4210_param_Modex26.o
                                                  build/VS4210.o
VS4210_bt656_NTSC_720P_mode14_w1_mirrorH_param    build/VS4210_param_Modex26.o
                                                  build/VS4210.o
VS4210_bt656_NTSC_720P_mode14_w1_param            build/VS4210_param_Modex26.o
                                                  build/VS4210.o
VS4210_bt656_NTSC_720P_mode14_w2_mirrorH_param    build/VS4210_param_Modex26.o
                                                  build/VS4210.o
VS4210_bt656_NTSC_720P_mode14_w2_param            build/VS4210_param_Modex26.o
                                                  build/VS4210.o
VS4210_bt656_NTSC_720P_mode1_w0_mirrorH_param     build/VS4210_param_Modex26.o
                                                  build/VS4210.o
VS4210_bt656_NTSC_720P_mode1_w0_param             build/VS4210_param_Modex26.o
                                                  build/VS4210.o
VS4210_bt656_NTSC_720P_mode1_w1_mirrorH_param     build/VS4210_param_Modex26.o
                                                  build/VS4210.o
VS4210_bt656_NTSC_720P_mode1_w1_param             build/VS4210_param_Modex26.o
                                                  build/VS4210.o
VS4210_bt656_NTSC_720P_mode1_w2_mirrorH_param     build/VS4210_param_Modex26.o
                                                  build/VS4210.o
VS4210_bt656_NTSC_720P_mode1_w2_param             build/VS4210_param_Modex26.o
                                                  build/VS4210.o
VS4210_bt656_NTSC_720P_mode1_w3_mirrorH_param     build/VS4210_param_Modex26.o
                                                  build/VS4210.o
VS4210_bt656_NTSC_720P_mode1_w3_param             build/VS4210_param_Modex26.o
                                                  build/VS4210.o
VS4210_bt656_NTSC_720P_mode2_w0_mirrorH_param     build/VS4210_param_Modex26.o
                                                  build/VS4210.o
VS4210_bt656_NTSC_720P_mode2_w0_param             build/VS4210_param_Modex26.o
                                                  build/VS4210.o
VS4210_bt656_NTSC_720P_mode2_w1_mirrorH_param     build/VS4210_param_Modex26.o
                                                  build/VS4210.o
VS4210_bt656_NTSC_720P_mode2_w1_param             build/VS4210_param_Modex26.o
                                                  build/VS4210.o
VS4210_bt656_NTSC_720P_mode2_w2_mirrorH_param     build/VS4210_param_Modex26.o
                                                  build/VS4210.o
VS4210_bt656_NTSC_720P_mode2_w2_param             build/VS4210_param_Modex26.o
                                                  build/VS4210.o
VS4210_bt656_NTSC_720P_mode2_w3_mirrorH_param     build/VS4210_param_Modex26.o
                                                  build/VS4210.o
VS4210_bt656_NTSC_720P_mode2_w3_param             build/VS4210_param_Modex26.o
                                                  build/VS4210.o
VS4210_bt656_NTSC_720P_mode8_w0_mirrorH_param     build/VS4210_param_Modex26.o
                                                  build/VS4210.o
VS4210_bt656_NTSC_720P_mode8_w0_param             build/VS4210_param_Modex26.o
                                                  build/VS4210.o
VS4210_bt656_NTSC_720P_mode8_w1_mirrorH_param     build/VS4210_param_Modex26.o
                                                  build/VS4210.o
VS4210_bt656_NTSC_720P_mode8_w1_param             build/VS4210_param_Modex26.o
                                                  build/VS4210.o
VS4210_bt656_NTSC_720P_mode8_w2_mirrorH_param     build/VS4210_param_Modex26.o
                                                  build/VS4210.o
VS4210_bt656_NTSC_720P_mode8_w2_param             build/VS4210_param_Modex26.o
                                                  build/VS4210.o
VS4210_bt656_NTSC_720P_mode9_w0_mirrorH_param     build/VS4210_param_Modex26.o
                                                  build/VS4210.o
VS4210_bt656_NTSC_720P_mode9_w0_param             build/VS4210_param_Modex26.o
                                                  build/VS4210.o
VS4210_bt656_NTSC_720P_mode9_w1_mirrorH_param     build/VS4210_param_Modex26.o
                                                  build/VS4210.o
VS4210_bt656_NTSC_720P_mode9_w1_param             build/VS4210_param_Modex26.o
                                                  build/VS4210.o
VS4210_bt656_NTSC_720P_mode9_w2_mirrorH_param     build/VS4210_param_Modex26.o
                                                  build/VS4210.o
VS4210_bt656_NTSC_720P_mode9_w2_param             build/VS4210_param_Modex26.o
                                                  build/VS4210.o
VS4210_bt656_NTSC_800x480_mode0_w0_88param        build/VS4210_param_Mode88.o
                                                  build/VS4210.o
VS4210_bt656_NTSC_800x480_mode0_w0_mirrorH_88param build/VS4210_param_Mode88.o
                                                  build/VS4210.o
VS4210_bt656_NTSC_800x480_mode10_w0_mirrorH_param build/VS4210_param_Modex26.o
                                                  build/VS4210.o
VS4210_bt656_NTSC_800x480_mode10_w0_param         build/VS4210_param_Modex26.o
                                                  build/VS4210.o
VS4210_bt656_NTSC_800x480_mode10_w1_mirrorH_param build/VS4210_param_Modex26.o
                                                  build/VS4210.o
VS4210_bt656_NTSC_800x480_mode10_w1_param         build/VS4210_param_Modex26.o
                                                  build/VS4210.o
VS4210_bt656_NTSC_800x480_mode10_w2_mirrorH_param build/VS4210_param_Modex26.o
                                                  build/VS4210.o
VS4210_bt656_NTSC_800x480_mode10_w2_param         build/VS4210_param_Modex26.o
                                                  build/VS4210.o
VS4210_bt656_NTSC_800x480_mode12_w0_mirrorH_param build/VS4210_param_Modex26.o
                                                  build/VS4210.o
VS4210_bt656_NTSC_800x480_mode12_w0_param         build/VS4210_param_Modex26.o
                                                  build/VS4210.o
VS4210_bt656_NTSC_800x480_mode12_w1_mirrorH_param build/VS4210_param_Modex26.o
                                                  build/VS4210.o
VS4210_bt656_NTSC_800x480_mode12_w1_param         build/VS4210_param_Modex26.o
                                                  build/VS4210.o
VS4210_bt656_NTSC_800x480_mode14_w0_mirrorH_param build/VS4210_param_Modex26.o
                                                  build/VS4210.o
VS4210_bt656_NTSC_800x480_mode14_w0_param         build/VS4210_param_Modex26.o
                                                  build/VS4210.o
VS4210_bt656_NTSC_800x480_mode14_w1_mirrorH_param build/VS4210_param_Modex26.o
                                                  build/VS4210.o
VS4210_bt656_NTSC_800x480_mode14_w1_param         build/VS4210_param_Modex26.o
                                                  build/VS4210.o
VS4210_bt656_NTSC_800x480_mode14_w2_mirrorH_param build/VS4210_param_Modex26.o
                                                  build/VS4210.o
VS4210_bt656_NTSC_800x480_mode14_w2_param         build/VS4210_param_Modex26.o
                                                  build/VS4210.o
VS4210_bt656_NTSC_800x480_mode1_w0_mirrorH_param  build/VS4210_param_Modex26.o
                                                  build/VS4210.o
VS4210_bt656_NTSC_800x480_mode1_w0_param          build/VS4210_param_Modex26.o
                                                  build/VS4210.o
VS4210_bt656_NTSC_800x480_mode1_w1_mirrorH_param  build/VS4210_param_Modex26.o
                                                  build/VS4210.o
VS4210_bt656_NTSC_800x480_mode1_w1_param          build/VS4210_param_Modex26.o
                                                  build/VS4210.o
VS4210_bt656_NTSC_800x480_mode1_w2_mirrorH_param  build/VS4210_param_Modex26.o
                                                  build/VS4210.o
VS4210_bt656_NTSC_800x480_mode1_w2_param          build/VS4210_param_Modex26.o
                                                  build/VS4210.o
VS4210_bt656_NTSC_800x480_mode1_w3_mirrorH_param  build/VS4210_param_Modex26.o
                                                  build/VS4210.o
VS4210_bt656_NTSC_800x480_mode1_w3_param          build/VS4210_param_Modex26.o
                                                  build/VS4210.o
VS4210_bt656_NTSC_800x480_mode2_w0_mirrorH_param  build/VS4210_param_Modex26.o
                                                  build/VS4210.o
VS4210_bt656_NTSC_800x480_mode2_w0_param          build/VS4210_param_Modex26.o
                                                  build/VS4210.o
VS4210_bt656_NTSC_800x480_mode2_w1_mirrorH_param  build/VS4210_param_Modex26.o
                                                  build/VS4210.o
VS4210_bt656_NTSC_800x480_mode2_w1_param          build/VS4210_param_Modex26.o
                                                  build/VS4210.o
VS4210_bt656_NTSC_800x480_mode2_w2_mirrorH_param  build/VS4210_param_Modex26.o
                                                  build/VS4210.o
VS4210_bt656_NTSC_800x480_mode2_w2_param          build/VS4210_param_Modex26.o
                                                  build/VS4210.o
VS4210_bt656_NTSC_800x480_mode2_w3_mirrorH_param  build/VS4210_param_Modex26.o
                                                  build/VS4210.o
VS4210_bt656_NTSC_800x480_mode2_w3_param          build/VS4210_param_Modex26.o
                                                  build/VS4210.o
VS4210_bt656_NTSC_800x480_mode8_w0_mirrorH_param  build/VS4210_param_Modex26.o
                                                  build/VS4210.o
VS4210_bt656_NTSC_800x480_mode8_w0_param          build/VS4210_param_Modex26.o
                                                  build/VS4210.o
VS4210_bt656_NTSC_800x480_mode8_w1_mirrorH_param  build/VS4210_param_Modex26.o
                                                  build/VS4210.o
VS4210_bt656_NTSC_800x480_mode8_w1_param          build/VS4210_param_Modex26.o
                                                  build/VS4210.o
VS4210_bt656_NTSC_800x480_mode8_w2_mirrorH_param  build/VS4210_param_Modex26.o
                                                  build/VS4210.o
VS4210_bt656_NTSC_800x480_mode8_w2_param          build/VS4210_param_Modex26.o
                                                  build/VS4210.o
VS4210_bt656_NTSC_800x480_mode9_w0_mirrorH_param  build/VS4210_param_Modex26.o
                                                  build/VS4210.o
VS4210_bt656_NTSC_800x480_mode9_w0_param          build/VS4210_param_Modex26.o
                                                  build/VS4210.o
VS4210_bt656_NTSC_800x480_mode9_w1_mirrorH_param  build/VS4210_param_Modex26.o
                                                  build/VS4210.o
VS4210_bt656_NTSC_800x480_mode9_w1_param          build/VS4210_param_Modex26.o
                                                  build/VS4210.o
VS4210_bt656_NTSC_800x480_mode9_w2_mirrorH_param  build/VS4210_param_Modex26.o
                                                  build/VS4210.o
VS4210_bt656_NTSC_800x480_mode9_w2_param          build/VS4210_param_Modex26.o
                                                  build/VS4210.o
VS4210_bt656_PAL_1080P_mode0_w0_88param           build/VS4210_param_Mode88.o
                                                  build/VS4210.o
VS4210_bt656_PAL_1080P_mode0_w0_mirrorH_88param   build/VS4210_param_Mode88.o
                                                  build/VS4210.o
VS4210_bt656_PAL_1080P_mode10_w0_mirrorH_param    build/VS4210_param_Modex26.o
                                                  build/VS4210.o
VS4210_bt656_PAL_1080P_mode10_w0_param            build/VS4210_param_Modex26.o
                                                  build/VS4210.o
VS4210_bt656_PAL_1080P_mode10_w1_mirrorH_param    build/VS4210_param_Modex26.o
                                                  build/VS4210.o
VS4210_bt656_PAL_1080P_mode10_w1_param            build/VS4210_param_Modex26.o
                                                  build/VS4210.o
VS4210_bt656_PAL_1080P_mode10_w2_mirrorH_param    build/VS4210_param_Modex26.o
                                                  build/VS4210.o
VS4210_bt656_PAL_1080P_mode10_w2_param            build/VS4210_param_Modex26.o
                                                  build/VS4210.o
VS4210_bt656_PAL_1080P_mode12_w0_mirrorH_param    build/VS4210_param_Modex26.o
                                                  build/VS4210.o
VS4210_bt656_PAL_1080P_mode12_w0_param            build/VS4210_param_Modex26.o
                                                  build/VS4210.o
VS4210_bt656_PAL_1080P_mode12_w1_mirrorH_param    build/VS4210_param_Modex26.o
                                                  build/VS4210.o
VS4210_bt656_PAL_1080P_mode12_w1_param            build/VS4210_param_Modex26.o
                                                  build/VS4210.o
VS4210_bt656_PAL_1080P_mode14_w0_mirrorH_param    build/VS4210_param_Modex26.o
                                                  build/VS4210.o
VS4210_bt656_PAL_1080P_mode14_w0_param            build/VS4210_param_Modex26.o
                                                  build/VS4210.o
VS4210_bt656_PAL_1080P_mode14_w1_mirrorH_param    build/VS4210_param_Modex26.o
                                                  build/VS4210.o
VS4210_bt656_PAL_1080P_mode14_w1_param            build/VS4210_param_Modex26.o
                                                  build/VS4210.o
VS4210_bt656_PAL_1080P_mode14_w2_mirrorH_param    build/VS4210_param_Modex26.o
                                                  build/VS4210.o
VS4210_bt656_PAL_1080P_mode14_w2_param            build/VS4210_param_Modex26.o
                                                  build/VS4210.o
VS4210_bt656_PAL_1080P_mode1_w0_mirrorH_param     build/VS4210_param_Modex26.o
                                                  build/VS4210.o
VS4210_bt656_PAL_1080P_mode1_w0_param             build/VS4210_param_Modex26.o
                                                  build/VS4210.o
VS4210_bt656_PAL_1080P_mode1_w1_mirrorH_param     build/VS4210_param_Modex26.o
                                                  build/VS4210.o
VS4210_bt656_PAL_1080P_mode1_w1_param             build/VS4210_param_Modex26.o
                                                  build/VS4210.o
VS4210_bt656_PAL_1080P_mode1_w2_mirrorH_param     build/VS4210_param_Modex26.o
                                                  build/VS4210.o
VS4210_bt656_PAL_1080P_mode1_w2_param             build/VS4210_param_Modex26.o
                                                  build/VS4210.o
VS4210_bt656_PAL_1080P_mode1_w3_mirrorH_param     build/VS4210_param_Modex26.o
                                                  build/VS4210.o
VS4210_bt656_PAL_1080P_mode1_w3_param             build/VS4210_param_Modex26.o
                                                  build/VS4210.o
VS4210_bt656_PAL_1080P_mode2_w0_mirrorH_param     build/VS4210_param_Modex26.o
                                                  build/VS4210.o
VS4210_bt656_PAL_1080P_mode2_w0_param             build/VS4210_param_Modex26.o
                                                  build/VS4210.o
VS4210_bt656_PAL_1080P_mode2_w1_mirrorH_param     build/VS4210_param_Modex26.o
                                                  build/VS4210.o
VS4210_bt656_PAL_1080P_mode2_w1_param             build/VS4210_param_Modex26.o
                                                  build/VS4210.o
VS4210_bt656_PAL_1080P_mode2_w2_mirrorH_param     build/VS4210_param_Modex26.o
                                                  build/VS4210.o
VS4210_bt656_PAL_1080P_mode2_w2_param             build/VS4210_param_Modex26.o
                                                  build/VS4210.o
VS4210_bt656_PAL_1080P_mode2_w3_mirrorH_param     build/VS4210_param_Modex26.o
                                                  build/VS4210.o
VS4210_bt656_PAL_1080P_mode2_w3_param             build/VS4210_param_Modex26.o
                                                  build/VS4210.o
VS4210_bt656_PAL_1080P_mode8_w0_mirrorH_param     build/VS4210_param_Modex26.o
                                                  build/VS4210.o
VS4210_bt656_PAL_1080P_mode8_w0_param             build/VS4210_param_Modex26.o
                                                  build/VS4210.o
VS4210_bt656_PAL_1080P_mode8_w1_mirrorH_param     build/VS4210_param_Modex26.o
                                                  build/VS4210.o
VS4210_bt656_PAL_1080P_mode8_w1_param             build/VS4210_param_Modex26.o
                                                  build/VS4210.o
VS4210_bt656_PAL_1080P_mode8_w2_mirrorH_param     build/VS4210_param_Modex26.o
                                                  build/VS4210.o
VS4210_bt656_PAL_1080P_mode8_w2_param             build/VS4210_param_Modex26.o
                                                  build/VS4210.o
VS4210_bt656_PAL_1080P_mode9_w0_mirrorH_param     build/VS4210_param_Modex26.o
                                                  build/VS4210.o
VS4210_bt656_PAL_1080P_mode9_w0_param             build/VS4210_param_Modex26.o
                                                  build/VS4210.o
VS4210_bt656_PAL_1080P_mode9_w1_mirrorH_param     build/VS4210_param_Modex26.o
                                                  build/VS4210.o
VS4210_bt656_PAL_1080P_mode9_w1_param             build/VS4210_param_Modex26.o
                                                  build/VS4210.o
VS4210_bt656_PAL_1080P_mode9_w2_mirrorH_param     build/VS4210_param_Modex26.o
                                                  build/VS4210.o
VS4210_bt656_PAL_1080P_mode9_w2_param             build/VS4210_param_Modex26.o
                                                  build/VS4210.o
VS4210_bt656_PAL_720P_mode0_w0_88param            build/VS4210_param_Mode88.o
                                                  build/VS4210.o
VS4210_bt656_PAL_720P_mode0_w0_mirrorH_88param    build/VS4210_param_Mode88.o
                                                  build/VS4210.o
VS4210_bt656_PAL_720P_mode10_w0_mirrorH_param     build/VS4210_param_Modex26.o
                                                  build/VS4210.o
VS4210_bt656_PAL_720P_mode10_w0_param             build/VS4210_param_Modex26.o
                                                  build/VS4210.o
VS4210_bt656_PAL_720P_mode10_w1_mirrorH_param     build/VS4210_param_Modex26.o
                                                  build/VS4210.o
VS4210_bt656_PAL_720P_mode10_w1_param             build/VS4210_param_Modex26.o
                                                  build/VS4210.o
VS4210_bt656_PAL_720P_mode10_w2_mirrorH_param     build/VS4210_param_Modex26.o
                                                  build/VS4210.o
VS4210_bt656_PAL_720P_mode10_w2_param             build/VS4210_param_Modex26.o
                                                  build/VS4210.o
VS4210_bt656_PAL_720P_mode12_w0_mirrorH_param     build/VS4210_param_Modex26.o
                                                  build/VS4210.o
VS4210_bt656_PAL_720P_mode12_w0_param             build/VS4210_param_Modex26.o
                                                  build/VS4210.o
VS4210_bt656_PAL_720P_mode12_w1_mirrorH_param     build/VS4210_param_Modex26.o
                                                  build/VS4210.o
VS4210_bt656_PAL_720P_mode12_w1_param             build/VS4210_param_Modex26.o
                                                  build/VS4210.o
VS4210_bt656_PAL_720P_mode14_w0_mirrorH_param     build/VS4210_param_Modex26.o
                                                  build/VS4210.o
VS4210_bt656_PAL_720P_mode14_w0_param             build/VS4210_param_Modex26.o
                                                  build/VS4210.o
VS4210_bt656_PAL_720P_mode14_w1_mirrorH_param     build/VS4210_param_Modex26.o
                                                  build/VS4210.o
VS4210_bt656_PAL_720P_mode14_w1_param             build/VS4210_param_Modex26.o
                                                  build/VS4210.o
VS4210_bt656_PAL_720P_mode14_w2_mirrorH_param     build/VS4210_param_Modex26.o
                                                  build/VS4210.o
VS4210_bt656_PAL_720P_mode14_w2_param             build/VS4210_param_Modex26.o
                                                  build/VS4210.o
VS4210_bt656_PAL_720P_mode1_w0_mirrorH_param      build/VS4210_param_Modex26.o
                                                  build/VS4210.o
VS4210_bt656_PAL_720P_mode1_w0_param              build/VS4210_param_Modex26.o
                                                  build/VS4210.o
VS4210_bt656_PAL_720P_mode1_w1_mirrorH_param      build/VS4210_param_Modex26.o
                                                  build/VS4210.o
VS4210_bt656_PAL_720P_mode1_w1_param              build/VS4210_param_Modex26.o
                                                  build/VS4210.o
VS4210_bt656_PAL_720P_mode1_w2_mirrorH_param      build/VS4210_param_Modex26.o
                                                  build/VS4210.o
VS4210_bt656_PAL_720P_mode1_w2_param              build/VS4210_param_Modex26.o
                                                  build/VS4210.o
VS4210_bt656_PAL_720P_mode1_w3_mirrorH_param      build/VS4210_param_Modex26.o
                                                  build/VS4210.o
VS4210_bt656_PAL_720P_mode1_w3_param              build/VS4210_param_Modex26.o
                                                  build/VS4210.o
VS4210_bt656_PAL_720P_mode2_w0_mirrorH_param      build/VS4210_param_Modex26.o
                                                  build/VS4210.o
VS4210_bt656_PAL_720P_mode2_w0_param              build/VS4210_param_Modex26.o
                                                  build/VS4210.o
VS4210_bt656_PAL_720P_mode2_w1_mirrorH_param      build/VS4210_param_Modex26.o
                                                  build/VS4210.o
VS4210_bt656_PAL_720P_mode2_w1_param              build/VS4210_param_Modex26.o
                                                  build/VS4210.o
VS4210_bt656_PAL_720P_mode2_w2_mirrorH_param      build/VS4210_param_Modex26.o
                                                  build/VS4210.o
VS4210_bt656_PAL_720P_mode2_w2_param              build/VS4210_param_Modex26.o
                                                  build/VS4210.o
VS4210_bt656_PAL_720P_mode2_w3_mirrorH_param      build/VS4210_param_Modex26.o
                                                  build/VS4210.o
VS4210_bt656_PAL_720P_mode2_w3_param              build/VS4210_param_Modex26.o
                                                  build/VS4210.o
VS4210_bt656_PAL_720P_mode8_w0_mirrorH_param      build/VS4210_param_Modex26.o
                                                  build/VS4210.o
VS4210_bt656_PAL_720P_mode8_w0_param              build/VS4210_param_Modex26.o
                                                  build/VS4210.o
VS4210_bt656_PAL_720P_mode8_w1_mirrorH_param      build/VS4210_param_Modex26.o
                                                  build/VS4210.o
VS4210_bt656_PAL_720P_mode8_w1_param              build/VS4210_param_Modex26.o
                                                  build/VS4210.o
VS4210_bt656_PAL_720P_mode8_w2_mirrorH_param      build/VS4210_param_Modex26.o
                                                  build/VS4210.o
VS4210_bt656_PAL_720P_mode8_w2_param              build/VS4210_param_Modex26.o
                                                  build/VS4210.o
VS4210_bt656_PAL_720P_mode9_w0_mirrorH_param      build/VS4210_param_Modex26.o
                                                  build/VS4210.o
VS4210_bt656_PAL_720P_mode9_w0_param              build/VS4210_param_Modex26.o
                                                  build/VS4210.o
VS4210_bt656_PAL_720P_mode9_w1_mirrorH_param      build/VS4210_param_Modex26.o
                                                  build/VS4210.o
VS4210_bt656_PAL_720P_mode9_w1_param              build/VS4210_param_Modex26.o
                                                  build/VS4210.o
VS4210_bt656_PAL_720P_mode9_w2_mirrorH_param      build/VS4210_param_Modex26.o
                                                  build/VS4210.o
VS4210_bt656_PAL_720P_mode9_w2_param              build/VS4210_param_Modex26.o
                                                  build/VS4210.o
VS4210_bt656_PAL_800x480_mode0_w0_88param         build/VS4210_param_Mode88.o
                                                  build/VS4210.o
VS4210_bt656_PAL_800x480_mode0_w0_mirrorH_88param build/VS4210_param_Mode88.o
                                                  build/VS4210.o
VS4210_bt656_PAL_800x480_mode10_w0_mirrorH_param  build/VS4210_param_Modex26.o
                                                  build/VS4210.o
VS4210_bt656_PAL_800x480_mode10_w0_param          build/VS4210_param_Modex26.o
                                                  build/VS4210.o
VS4210_bt656_PAL_800x480_mode10_w1_mirrorH_param  build/VS4210_param_Modex26.o
                                                  build/VS4210.o
VS4210_bt656_PAL_800x480_mode10_w1_param          build/VS4210_param_Modex26.o
                                                  build/VS4210.o
VS4210_bt656_PAL_800x480_mode10_w2_mirrorH_param  build/VS4210_param_Modex26.o
                                                  build/VS4210.o
VS4210_bt656_PAL_800x480_mode10_w2_param          build/VS4210_param_Modex26.o
                                                  build/VS4210.o
VS4210_bt656_PAL_800x480_mode12_w0_mirrorH_param  build/VS4210_param_Modex26.o
                                                  build/VS4210.o
VS4210_bt656_PAL_800x480_mode12_w0_param          build/VS4210_param_Modex26.o
                                                  build/VS4210.o
VS4210_bt656_PAL_800x480_mode12_w1_mirrorH_param  build/VS4210_param_Modex26.o
                                                  build/VS4210.o
VS4210_bt656_PAL_800x480_mode12_w1_param          build/VS4210_param_Modex26.o
                                                  build/VS4210.o
VS4210_bt656_PAL_800x480_mode14_w0_mirrorH_param  build/VS4210_param_Modex26.o
                                                  build/VS4210.o
VS4210_bt656_PAL_800x480_mode14_w0_param          build/VS4210_param_Modex26.o
                                                  build/VS4210.o
VS4210_bt656_PAL_800x480_mode14_w1_mirrorH_param  build/VS4210_param_Modex26.o
                                                  build/VS4210.o
VS4210_bt656_PAL_800x480_mode14_w1_param          build/VS4210_param_Modex26.o
                                                  build/VS4210.o
VS4210_bt656_PAL_800x480_mode14_w2_mirrorH_param  build/VS4210_param_Modex26.o
                                                  build/VS4210.o
VS4210_bt656_PAL_800x480_mode14_w2_param          build/VS4210_param_Modex26.o
                                                  build/VS4210.o
VS4210_bt656_PAL_800x480_mode1_w0_mirrorH_param   build/VS4210_param_Modex26.o
                                                  build/VS4210.o
VS4210_bt656_PAL_800x480_mode1_w0_param           build/VS4210_param_Modex26.o
                                                  build/VS4210.o
VS4210_bt656_PAL_800x480_mode1_w1_mirrorH_param   build/VS4210_param_Modex26.o
                                                  build/VS4210.o
VS4210_bt656_PAL_800x480_mode1_w1_param           build/VS4210_param_Modex26.o
                                                  build/VS4210.o
VS4210_bt656_PAL_800x480_mode1_w2_mirrorH_param   build/VS4210_param_Modex26.o
                                                  build/VS4210.o
VS4210_bt656_PAL_800x480_mode1_w2_param           build/VS4210_param_Modex26.o
                                                  build/VS4210.o
VS4210_bt656_PAL_800x480_mode1_w3_mirrorH_param   build/VS4210_param_Modex26.o
                                                  build/VS4210.o
VS4210_bt656_PAL_800x480_mode1_w3_param           build/VS4210_param_Modex26.o
                                                  build/VS4210.o
VS4210_bt656_PAL_800x480_mode2_w0_mirrorH_param   build/VS4210_param_Modex26.o
                                                  build/VS4210.o
VS4210_bt656_PAL_800x480_mode2_w0_param           build/VS4210_param_Modex26.o
                                                  build/VS4210.o
VS4210_bt656_PAL_800x480_mode2_w1_mirrorH_param   build/VS4210_param_Modex26.o
                                                  build/VS4210.o
VS4210_bt656_PAL_800x480_mode2_w1_param           build/VS4210_param_Modex26.o
                                                  build/VS4210.o
VS4210_bt656_PAL_800x480_mode2_w2_mirrorH_param   build/VS4210_param_Modex26.o
                                                  build/VS4210.o
VS4210_bt656_PAL_800x480_mode2_w2_param           build/VS4210_param_Modex26.o
                                                  build/VS4210.o
VS4210_bt656_PAL_800x480_mode2_w3_mirrorH_param   build/VS4210_param_Modex26.o
                                                  build/VS4210.o
VS4210_bt656_PAL_800x480_mode2_w3_param           build/VS4210_param_Modex26.o
                                                  build/VS4210.o
VS4210_bt656_PAL_800x480_mode8_w0_mirrorH_param   build/VS4210_param_Modex26.o
                                                  build/VS4210.o
VS4210_bt656_PAL_800x480_mode8_w0_param           build/VS4210_param_Modex26.o
                                                  build/VS4210.o
VS4210_bt656_PAL_800x480_mode8_w1_mirrorH_param   build/VS4210_param_Modex26.o
                                                  build/VS4210.o
VS4210_bt656_PAL_800x480_mode8_w1_param           build/VS4210_param_Modex26.o
                                                  build/VS4210.o
VS4210_bt656_PAL_800x480_mode8_w2_mirrorH_param   build/VS4210_param_Modex26.o
                                                  build/VS4210.o
VS4210_bt656_PAL_800x480_mode8_w2_param           build/VS4210_param_Modex26.o
                                                  build/VS4210.o
VS4210_bt656_PAL_800x480_mode9_w0_mirrorH_param   build/VS4210_param_Modex26.o
                                                  build/VS4210.o
VS4210_bt656_PAL_800x480_mode9_w0_param           build/VS4210_param_Modex26.o
                                                  build/VS4210.o
VS4210_bt656_PAL_800x480_mode9_w1_mirrorH_param   build/VS4210_param_Modex26.o
                                                  build/VS4210.o
VS4210_bt656_PAL_800x480_mode9_w1_param           build/VS4210_param_Modex26.o
                                                  build/VS4210.o
VS4210_bt656_PAL_800x480_mode9_w2_mirrorH_param   build/VS4210_param_Modex26.o
                                                  build/VS4210.o
VS4210_bt656_PAL_800x480_mode9_w2_param           build/VS4210_param_Modex26.o
                                                  build/VS4210.o
VS4210_ch0_NoSignal_Rst                           build/VS4210.o
VS4210_clearAllsignal                             build/VS4210.o
VS4210_displayoff                                 build/VS4210.o
VS4210_displayon                                  build/VS4210.o
VS4210_init_Input_MODE88                          build/VS4210.o
VS4210_init_mode                                  build/VS4210.o
VS8812Read                                        build/VX_swi2c.o
                                                  build/monitor.o
VS8812Write                                       build/VX_swi2c.o
                                                  build/VX8812.o
                                                  build/monitor.o
                                                  build/main.o
VS8812_ADDR                                       build/main.o
                                                  build/VX_swi2c.o
VX8812_BlueScreen                                 build/VX8812.o
VXISI2CRead                                       build/VX_swi2c.o
                                                  build/monitor.o
                                                  build/VS4210.o
                                                  build/VX_OSD_Simple.o
                                                  build/VX_OSD.o
                                                  build/main.o
VXISI2CWrite                                      build/VX_swi2c.o
                                                  build/monitor.o
                                                  build/VS4210.o
                                                  build/VX_OSD_Simple.o
                                                  build/VX_OSD.o
                                                  build/main.o
VXIS_fSetContentOsdOnOff                          build/VX_OSD.o
                                                  build/VX_OSD_Simple.o
VXIS_fSetOsdOnOff                                 build/VX_OSD.o
                                                  build/VX_OSD_Simple.o
VXIS_fShowInOutMode                               build/VX_OSD_Simple.o
                                                  build/VS4210.o
VXIS_fShowInOutMode0OSD                           build/VX_OSD_Simple.o
                                                  build/VS4210.o
VXIS_fVX8812_Set_HDMI_in_OutCCIR656_NTSC          build/VX8812.o
VXIS_fVX8812_Set_HDMI_in_OutCCIR656_PAL           build/VX8812.o
VXIS_fVX8812_Set_HDMI_in_SD_Video_Out             build/VX8812.o
VXOSD_UseFont_init                                build/VX_OSD_Simple.o
                                                  build/main.o
VideoChangeFlag                                   build/TP2802.o
                                                  build/monitor.o
VideoSave                                         build/TP2802.o
                                                  build/keyremo.o
                                                  build/main.o
Video_Menu                                        build/VX_OSD_Simple.o
WDT_Echo_Count                                    build/SysTimer.o
WWDG_IRQHandler                                   build/startup_stm32f103xb.o
WaitPowerOn                                       build/main.o
WriteEEP                                          build/VX_swi2c.o
                                                  build/TD5300.o
                                                  build/keyremo.o
                                                  build/etc_eep.o
                                                  build/monitor.o
                                                  build/TP2802.o
                                                  build/VX_OSD_Simple.o
                                                  build/main.o
WriteI2C                                          ./Lib\libsw_i2c2.a(sw_i2c2.o)
                                                  build/VX_swi2c.o
WriteI2C3                                         ./Lib\libsw_i2c2.a(sw_i2c2.o)
                                                  build/VX_swi2c.o
__bss_end__                                       c:/program files (x86)/gnu tools arm embedded/9 2019-q4-major/bin/../lib/gcc/arm-none-eabi/9.2.1/../../../../arm-none-eabi/lib/thumb/v7-m/nofp/crt0.o
__bss_start__                                     c:/program files (x86)/gnu tools arm embedded/9 2019-q4-major/bin/../lib/gcc/arm-none-eabi/9.2.1/../../../../arm-none-eabi/lib/thumb/v7-m/nofp/crt0.o
__call_exitprocs                                  c:/program files (x86)/gnu tools arm embedded/9 2019-q4-major/bin/../lib/gcc/arm-none-eabi/9.2.1/../../../../arm-none-eabi/lib/thumb/v7-m/nofp\libc_nano.a(lib_a-exit.o)
__deregister_frame_info                           c:/program files (x86)/gnu tools arm embedded/9 2019-q4-major/bin/../lib/gcc/arm-none-eabi/9.2.1/thumb/v7-m/nofp/crtbegin.o
__dso_handle                                      c:/program files (x86)/gnu tools arm embedded/9 2019-q4-major/bin/../lib/gcc/arm-none-eabi/9.2.1/thumb/v7-m/nofp/crtbegin.o
__errno                                           c:/program files (x86)/gnu tools arm embedded/9 2019-q4-major/bin/../lib/gcc/arm-none-eabi/9.2.1/../../../../arm-none-eabi/lib/thumb/v7-m/nofp\libc_nano.a(lib_a-errno.o)
                                                  build/main.o
__fp_lock_all                                     c:/program files (x86)/gnu tools arm embedded/9 2019-q4-major/bin/../lib/gcc/arm-none-eabi/9.2.1/../../../../arm-none-eabi/lib/thumb/v7-m/nofp\libc_nano.a(lib_a-findfp.o)
__fp_unlock_all                                   c:/program files (x86)/gnu tools arm embedded/9 2019-q4-major/bin/../lib/gcc/arm-none-eabi/9.2.1/../../../../arm-none-eabi/lib/thumb/v7-m/nofp\libc_nano.a(lib_a-findfp.o)
__init_array_end                                  c:/program files (x86)/gnu tools arm embedded/9 2019-q4-major/bin/../lib/gcc/arm-none-eabi/9.2.1/../../../../arm-none-eabi/lib/thumb/v7-m/nofp\libc_nano.a(lib_a-init.o)
__init_array_start                                c:/program files (x86)/gnu tools arm embedded/9 2019-q4-major/bin/../lib/gcc/arm-none-eabi/9.2.1/../../../../arm-none-eabi/lib/thumb/v7-m/nofp\libc_nano.a(lib_a-init.o)
__libc_fini_array                                 c:/program files (x86)/gnu tools arm embedded/9 2019-q4-major/bin/../lib/gcc/arm-none-eabi/9.2.1/../../../../arm-none-eabi/lib/thumb/v7-m/nofp/crt0.o
__libc_init_array                                 c:/program files (x86)/gnu tools arm embedded/9 2019-q4-major/bin/../lib/gcc/arm-none-eabi/9.2.1/../../../../arm-none-eabi/lib/thumb/v7-m/nofp\libc_nano.a(lib_a-init.o)
                                                  build/startup_stm32f103xb.o
                                                  c:/program files (x86)/gnu tools arm embedded/9 2019-q4-major/bin/../lib/gcc/arm-none-eabi/9.2.1/../../../../arm-none-eabi/lib/thumb/v7-m/nofp/crt0.o
__lock___arc4random_mutex                         c:/program files (x86)/gnu tools arm embedded/9 2019-q4-major/bin/../lib/gcc/arm-none-eabi/9.2.1/../../../../arm-none-eabi/lib/thumb/v7-m/nofp\libc_nano.a(lib_a-lock.o)
__lock___at_quick_exit_mutex                      c:/program files (x86)/gnu tools arm embedded/9 2019-q4-major/bin/../lib/gcc/arm-none-eabi/9.2.1/../../../../arm-none-eabi/lib/thumb/v7-m/nofp\libc_nano.a(lib_a-lock.o)
__lock___atexit_recursive_mutex                   c:/program files (x86)/gnu tools arm embedded/9 2019-q4-major/bin/../lib/gcc/arm-none-eabi/9.2.1/../../../../arm-none-eabi/lib/thumb/v7-m/nofp\libc_nano.a(lib_a-lock.o)
__lock___dd_hash_mutex                            c:/program files (x86)/gnu tools arm embedded/9 2019-q4-major/bin/../lib/gcc/arm-none-eabi/9.2.1/../../../../arm-none-eabi/lib/thumb/v7-m/nofp\libc_nano.a(lib_a-lock.o)
__lock___env_recursive_mutex                      c:/program files (x86)/gnu tools arm embedded/9 2019-q4-major/bin/../lib/gcc/arm-none-eabi/9.2.1/../../../../arm-none-eabi/lib/thumb/v7-m/nofp\libc_nano.a(lib_a-lock.o)
__lock___malloc_recursive_mutex                   c:/program files (x86)/gnu tools arm embedded/9 2019-q4-major/bin/../lib/gcc/arm-none-eabi/9.2.1/../../../../arm-none-eabi/lib/thumb/v7-m/nofp\libc_nano.a(lib_a-lock.o)
                                                  c:/program files (x86)/gnu tools arm embedded/9 2019-q4-major/bin/../lib/gcc/arm-none-eabi/9.2.1/../../../../arm-none-eabi/lib/thumb/v7-m/nofp\libc_nano.a(lib_a-mlock.o)
__lock___sfp_recursive_mutex                      c:/program files (x86)/gnu tools arm embedded/9 2019-q4-major/bin/../lib/gcc/arm-none-eabi/9.2.1/../../../../arm-none-eabi/lib/thumb/v7-m/nofp\libc_nano.a(lib_a-lock.o)
                                                  c:/program files (x86)/gnu tools arm embedded/9 2019-q4-major/bin/../lib/gcc/arm-none-eabi/9.2.1/../../../../arm-none-eabi/lib/thumb/v7-m/nofp\libc_nano.a(lib_a-findfp.o)
__lock___sinit_recursive_mutex                    c:/program files (x86)/gnu tools arm embedded/9 2019-q4-major/bin/../lib/gcc/arm-none-eabi/9.2.1/../../../../arm-none-eabi/lib/thumb/v7-m/nofp\libc_nano.a(lib_a-lock.o)
                                                  c:/program files (x86)/gnu tools arm embedded/9 2019-q4-major/bin/../lib/gcc/arm-none-eabi/9.2.1/../../../../arm-none-eabi/lib/thumb/v7-m/nofp\libc_nano.a(lib_a-findfp.o)
__lock___tz_mutex                                 c:/program files (x86)/gnu tools arm embedded/9 2019-q4-major/bin/../lib/gcc/arm-none-eabi/9.2.1/../../../../arm-none-eabi/lib/thumb/v7-m/nofp\libc_nano.a(lib_a-lock.o)
__malloc_free_list                                c:/program files (x86)/gnu tools arm embedded/9 2019-q4-major/bin/../lib/gcc/arm-none-eabi/9.2.1/../../../../arm-none-eabi/lib/thumb/v7-m/nofp\libc_nano.a(lib_a-nano-mallocr.o)
                                                  c:/program files (x86)/gnu tools arm embedded/9 2019-q4-major/bin/../lib/gcc/arm-none-eabi/9.2.1/../../../../arm-none-eabi/lib/thumb/v7-m/nofp\libc_nano.a(lib_a-nano-freer.o)
__malloc_lock                                     c:/program files (x86)/gnu tools arm embedded/9 2019-q4-major/bin/../lib/gcc/arm-none-eabi/9.2.1/../../../../arm-none-eabi/lib/thumb/v7-m/nofp\libc_nano.a(lib_a-mlock.o)
                                                  c:/program files (x86)/gnu tools arm embedded/9 2019-q4-major/bin/../lib/gcc/arm-none-eabi/9.2.1/../../../../arm-none-eabi/lib/thumb/v7-m/nofp\libc_nano.a(lib_a-nano-mallocr.o)
                                                  c:/program files (x86)/gnu tools arm embedded/9 2019-q4-major/bin/../lib/gcc/arm-none-eabi/9.2.1/../../../../arm-none-eabi/lib/thumb/v7-m/nofp\libc_nano.a(lib_a-nano-freer.o)
__malloc_sbrk_start                               c:/program files (x86)/gnu tools arm embedded/9 2019-q4-major/bin/../lib/gcc/arm-none-eabi/9.2.1/../../../../arm-none-eabi/lib/thumb/v7-m/nofp\libc_nano.a(lib_a-nano-mallocr.o)
__malloc_unlock                                   c:/program files (x86)/gnu tools arm embedded/9 2019-q4-major/bin/../lib/gcc/arm-none-eabi/9.2.1/../../../../arm-none-eabi/lib/thumb/v7-m/nofp\libc_nano.a(lib_a-mlock.o)
                                                  c:/program files (x86)/gnu tools arm embedded/9 2019-q4-major/bin/../lib/gcc/arm-none-eabi/9.2.1/../../../../arm-none-eabi/lib/thumb/v7-m/nofp\libc_nano.a(lib_a-nano-mallocr.o)
                                                  c:/program files (x86)/gnu tools arm embedded/9 2019-q4-major/bin/../lib/gcc/arm-none-eabi/9.2.1/../../../../arm-none-eabi/lib/thumb/v7-m/nofp\libc_nano.a(lib_a-nano-freer.o)
__preinit_array_end                               c:/program files (x86)/gnu tools arm embedded/9 2019-q4-major/bin/../lib/gcc/arm-none-eabi/9.2.1/../../../../arm-none-eabi/lib/thumb/v7-m/nofp\libc_nano.a(lib_a-init.o)
__preinit_array_start                             c:/program files (x86)/gnu tools arm embedded/9 2019-q4-major/bin/../lib/gcc/arm-none-eabi/9.2.1/../../../../arm-none-eabi/lib/thumb/v7-m/nofp\libc_nano.a(lib_a-init.o)
__register_frame_info                             c:/program files (x86)/gnu tools arm embedded/9 2019-q4-major/bin/../lib/gcc/arm-none-eabi/9.2.1/thumb/v7-m/nofp/crtbegin.o
__retarget_lock_acquire                           c:/program files (x86)/gnu tools arm embedded/9 2019-q4-major/bin/../lib/gcc/arm-none-eabi/9.2.1/../../../../arm-none-eabi/lib/thumb/v7-m/nofp\libc_nano.a(lib_a-lock.o)
__retarget_lock_acquire_recursive                 c:/program files (x86)/gnu tools arm embedded/9 2019-q4-major/bin/../lib/gcc/arm-none-eabi/9.2.1/../../../../arm-none-eabi/lib/thumb/v7-m/nofp\libc_nano.a(lib_a-lock.o)
                                                  c:/program files (x86)/gnu tools arm embedded/9 2019-q4-major/bin/../lib/gcc/arm-none-eabi/9.2.1/../../../../arm-none-eabi/lib/thumb/v7-m/nofp\libc_nano.a(lib_a-mlock.o)
                                                  c:/program files (x86)/gnu tools arm embedded/9 2019-q4-major/bin/../lib/gcc/arm-none-eabi/9.2.1/../../../../arm-none-eabi/lib/thumb/v7-m/nofp\libc_nano.a(lib_a-nano-vfprintf.o)
                                                  c:/program files (x86)/gnu tools arm embedded/9 2019-q4-major/bin/../lib/gcc/arm-none-eabi/9.2.1/../../../../arm-none-eabi/lib/thumb/v7-m/nofp\libc_nano.a(lib_a-findfp.o)
                                                  c:/program files (x86)/gnu tools arm embedded/9 2019-q4-major/bin/../lib/gcc/arm-none-eabi/9.2.1/../../../../arm-none-eabi/lib/thumb/v7-m/nofp\libc_nano.a(lib_a-fflush.o)
                                                  c:/program files (x86)/gnu tools arm embedded/9 2019-q4-major/bin/../lib/gcc/arm-none-eabi/9.2.1/../../../../arm-none-eabi/lib/thumb/v7-m/nofp\libc_nano.a(lib_a-puts.o)
__retarget_lock_close                             c:/program files (x86)/gnu tools arm embedded/9 2019-q4-major/bin/../lib/gcc/arm-none-eabi/9.2.1/../../../../arm-none-eabi/lib/thumb/v7-m/nofp\libc_nano.a(lib_a-lock.o)
__retarget_lock_close_recursive                   c:/program files (x86)/gnu tools arm embedded/9 2019-q4-major/bin/../lib/gcc/arm-none-eabi/9.2.1/../../../../arm-none-eabi/lib/thumb/v7-m/nofp\libc_nano.a(lib_a-lock.o)
__retarget_lock_init                              c:/program files (x86)/gnu tools arm embedded/9 2019-q4-major/bin/../lib/gcc/arm-none-eabi/9.2.1/../../../../arm-none-eabi/lib/thumb/v7-m/nofp\libc_nano.a(lib_a-lock.o)
__retarget_lock_init_recursive                    c:/program files (x86)/gnu tools arm embedded/9 2019-q4-major/bin/../lib/gcc/arm-none-eabi/9.2.1/../../../../arm-none-eabi/lib/thumb/v7-m/nofp\libc_nano.a(lib_a-lock.o)
                                                  c:/program files (x86)/gnu tools arm embedded/9 2019-q4-major/bin/../lib/gcc/arm-none-eabi/9.2.1/../../../../arm-none-eabi/lib/thumb/v7-m/nofp\libc_nano.a(lib_a-findfp.o)
__retarget_lock_release                           c:/program files (x86)/gnu tools arm embedded/9 2019-q4-major/bin/../lib/gcc/arm-none-eabi/9.2.1/../../../../arm-none-eabi/lib/thumb/v7-m/nofp\libc_nano.a(lib_a-lock.o)
__retarget_lock_release_recursive                 c:/program files (x86)/gnu tools arm embedded/9 2019-q4-major/bin/../lib/gcc/arm-none-eabi/9.2.1/../../../../arm-none-eabi/lib/thumb/v7-m/nofp\libc_nano.a(lib_a-lock.o)
                                                  c:/program files (x86)/gnu tools arm embedded/9 2019-q4-major/bin/../lib/gcc/arm-none-eabi/9.2.1/../../../../arm-none-eabi/lib/thumb/v7-m/nofp\libc_nano.a(lib_a-mlock.o)
                                                  c:/program files (x86)/gnu tools arm embedded/9 2019-q4-major/bin/../lib/gcc/arm-none-eabi/9.2.1/../../../../arm-none-eabi/lib/thumb/v7-m/nofp\libc_nano.a(lib_a-nano-vfprintf.o)
                                                  c:/program files (x86)/gnu tools arm embedded/9 2019-q4-major/bin/../lib/gcc/arm-none-eabi/9.2.1/../../../../arm-none-eabi/lib/thumb/v7-m/nofp\libc_nano.a(lib_a-findfp.o)
                                                  c:/program files (x86)/gnu tools arm embedded/9 2019-q4-major/bin/../lib/gcc/arm-none-eabi/9.2.1/../../../../arm-none-eabi/lib/thumb/v7-m/nofp\libc_nano.a(lib_a-fflush.o)
                                                  c:/program files (x86)/gnu tools arm embedded/9 2019-q4-major/bin/../lib/gcc/arm-none-eabi/9.2.1/../../../../arm-none-eabi/lib/thumb/v7-m/nofp\libc_nano.a(lib_a-puts.o)
__retarget_lock_try_acquire                       c:/program files (x86)/gnu tools arm embedded/9 2019-q4-major/bin/../lib/gcc/arm-none-eabi/9.2.1/../../../../arm-none-eabi/lib/thumb/v7-m/nofp\libc_nano.a(lib_a-lock.o)
__retarget_lock_try_acquire_recursive             c:/program files (x86)/gnu tools arm embedded/9 2019-q4-major/bin/../lib/gcc/arm-none-eabi/9.2.1/../../../../arm-none-eabi/lib/thumb/v7-m/nofp\libc_nano.a(lib_a-lock.o)
__sclose                                          c:/program files (x86)/gnu tools arm embedded/9 2019-q4-major/bin/../lib/gcc/arm-none-eabi/9.2.1/../../../../arm-none-eabi/lib/thumb/v7-m/nofp\libc_nano.a(lib_a-stdio.o)
                                                  c:/program files (x86)/gnu tools arm embedded/9 2019-q4-major/bin/../lib/gcc/arm-none-eabi/9.2.1/../../../../arm-none-eabi/lib/thumb/v7-m/nofp\libc_nano.a(lib_a-findfp.o)
__seofread                                        c:/program files (x86)/gnu tools arm embedded/9 2019-q4-major/bin/../lib/gcc/arm-none-eabi/9.2.1/../../../../arm-none-eabi/lib/thumb/v7-m/nofp\libc_nano.a(lib_a-stdio.o)
__sf_fake_stderr                                  c:/program files (x86)/gnu tools arm embedded/9 2019-q4-major/bin/../lib/gcc/arm-none-eabi/9.2.1/../../../../arm-none-eabi/lib/thumb/v7-m/nofp\libc_nano.a(lib_a-findfp.o)
                                                  c:/program files (x86)/gnu tools arm embedded/9 2019-q4-major/bin/../lib/gcc/arm-none-eabi/9.2.1/../../../../arm-none-eabi/lib/thumb/v7-m/nofp\libc_nano.a(lib_a-nano-vfprintf.o)
                                                  c:/program files (x86)/gnu tools arm embedded/9 2019-q4-major/bin/../lib/gcc/arm-none-eabi/9.2.1/../../../../arm-none-eabi/lib/thumb/v7-m/nofp\libc_nano.a(lib_a-fflush.o)
                                                  c:/program files (x86)/gnu tools arm embedded/9 2019-q4-major/bin/../lib/gcc/arm-none-eabi/9.2.1/../../../../arm-none-eabi/lib/thumb/v7-m/nofp\libc_nano.a(lib_a-wsetup.o)
                                                  c:/program files (x86)/gnu tools arm embedded/9 2019-q4-major/bin/../lib/gcc/arm-none-eabi/9.2.1/../../../../arm-none-eabi/lib/thumb/v7-m/nofp\libc_nano.a(lib_a-wbuf.o)
                                                  c:/program files (x86)/gnu tools arm embedded/9 2019-q4-major/bin/../lib/gcc/arm-none-eabi/9.2.1/../../../../arm-none-eabi/lib/thumb/v7-m/nofp\libc_nano.a(lib_a-puts.o)
                                                  c:/program files (x86)/gnu tools arm embedded/9 2019-q4-major/bin/../lib/gcc/arm-none-eabi/9.2.1/../../../../arm-none-eabi/lib/thumb/v7-m/nofp\libc_nano.a(lib_a-impure.o)
__sf_fake_stdin                                   c:/program files (x86)/gnu tools arm embedded/9 2019-q4-major/bin/../lib/gcc/arm-none-eabi/9.2.1/../../../../arm-none-eabi/lib/thumb/v7-m/nofp\libc_nano.a(lib_a-findfp.o)
                                                  c:/program files (x86)/gnu tools arm embedded/9 2019-q4-major/bin/../lib/gcc/arm-none-eabi/9.2.1/../../../../arm-none-eabi/lib/thumb/v7-m/nofp\libc_nano.a(lib_a-nano-vfprintf.o)
                                                  c:/program files (x86)/gnu tools arm embedded/9 2019-q4-major/bin/../lib/gcc/arm-none-eabi/9.2.1/../../../../arm-none-eabi/lib/thumb/v7-m/nofp\libc_nano.a(lib_a-fflush.o)
                                                  c:/program files (x86)/gnu tools arm embedded/9 2019-q4-major/bin/../lib/gcc/arm-none-eabi/9.2.1/../../../../arm-none-eabi/lib/thumb/v7-m/nofp\libc_nano.a(lib_a-wsetup.o)
                                                  c:/program files (x86)/gnu tools arm embedded/9 2019-q4-major/bin/../lib/gcc/arm-none-eabi/9.2.1/../../../../arm-none-eabi/lib/thumb/v7-m/nofp\libc_nano.a(lib_a-wbuf.o)
                                                  c:/program files (x86)/gnu tools arm embedded/9 2019-q4-major/bin/../lib/gcc/arm-none-eabi/9.2.1/../../../../arm-none-eabi/lib/thumb/v7-m/nofp\libc_nano.a(lib_a-puts.o)
                                                  c:/program files (x86)/gnu tools arm embedded/9 2019-q4-major/bin/../lib/gcc/arm-none-eabi/9.2.1/../../../../arm-none-eabi/lib/thumb/v7-m/nofp\libc_nano.a(lib_a-impure.o)
__sf_fake_stdout                                  c:/program files (x86)/gnu tools arm embedded/9 2019-q4-major/bin/../lib/gcc/arm-none-eabi/9.2.1/../../../../arm-none-eabi/lib/thumb/v7-m/nofp\libc_nano.a(lib_a-findfp.o)
                                                  c:/program files (x86)/gnu tools arm embedded/9 2019-q4-major/bin/../lib/gcc/arm-none-eabi/9.2.1/../../../../arm-none-eabi/lib/thumb/v7-m/nofp\libc_nano.a(lib_a-nano-vfprintf.o)
                                                  c:/program files (x86)/gnu tools arm embedded/9 2019-q4-major/bin/../lib/gcc/arm-none-eabi/9.2.1/../../../../arm-none-eabi/lib/thumb/v7-m/nofp\libc_nano.a(lib_a-fflush.o)
                                                  c:/program files (x86)/gnu tools arm embedded/9 2019-q4-major/bin/../lib/gcc/arm-none-eabi/9.2.1/../../../../arm-none-eabi/lib/thumb/v7-m/nofp\libc_nano.a(lib_a-wsetup.o)
                                                  c:/program files (x86)/gnu tools arm embedded/9 2019-q4-major/bin/../lib/gcc/arm-none-eabi/9.2.1/../../../../arm-none-eabi/lib/thumb/v7-m/nofp\libc_nano.a(lib_a-wbuf.o)
                                                  c:/program files (x86)/gnu tools arm embedded/9 2019-q4-major/bin/../lib/gcc/arm-none-eabi/9.2.1/../../../../arm-none-eabi/lib/thumb/v7-m/nofp\libc_nano.a(lib_a-puts.o)
                                                  c:/program files (x86)/gnu tools arm embedded/9 2019-q4-major/bin/../lib/gcc/arm-none-eabi/9.2.1/../../../../arm-none-eabi/lib/thumb/v7-m/nofp\libc_nano.a(lib_a-impure.o)
__sflush_r                                        c:/program files (x86)/gnu tools arm embedded/9 2019-q4-major/bin/../lib/gcc/arm-none-eabi/9.2.1/../../../../arm-none-eabi/lib/thumb/v7-m/nofp\libc_nano.a(lib_a-fflush.o)
__sfmoreglue                                      c:/program files (x86)/gnu tools arm embedded/9 2019-q4-major/bin/../lib/gcc/arm-none-eabi/9.2.1/../../../../arm-none-eabi/lib/thumb/v7-m/nofp\libc_nano.a(lib_a-findfp.o)
__sfp                                             c:/program files (x86)/gnu tools arm embedded/9 2019-q4-major/bin/../lib/gcc/arm-none-eabi/9.2.1/../../../../arm-none-eabi/lib/thumb/v7-m/nofp\libc_nano.a(lib_a-findfp.o)
__sfp_lock_acquire                                c:/program files (x86)/gnu tools arm embedded/9 2019-q4-major/bin/../lib/gcc/arm-none-eabi/9.2.1/../../../../arm-none-eabi/lib/thumb/v7-m/nofp\libc_nano.a(lib_a-findfp.o)
__sfp_lock_release                                c:/program files (x86)/gnu tools arm embedded/9 2019-q4-major/bin/../lib/gcc/arm-none-eabi/9.2.1/../../../../arm-none-eabi/lib/thumb/v7-m/nofp\libc_nano.a(lib_a-findfp.o)
__sfputs_r                                        c:/program files (x86)/gnu tools arm embedded/9 2019-q4-major/bin/../lib/gcc/arm-none-eabi/9.2.1/../../../../arm-none-eabi/lib/thumb/v7-m/nofp\libc_nano.a(lib_a-nano-vfprintf.o)
__sfvwrite_r                                      c:/program files (x86)/gnu tools arm embedded/9 2019-q4-major/bin/../lib/gcc/arm-none-eabi/9.2.1/../../../../arm-none-eabi/lib/thumb/v7-m/nofp\libc_nano.a(lib_a-fvwrite.o)
                                                  c:/program files (x86)/gnu tools arm embedded/9 2019-q4-major/bin/../lib/gcc/arm-none-eabi/9.2.1/../../../../arm-none-eabi/lib/thumb/v7-m/nofp\libc_nano.a(lib_a-nano-vfprintf.o)
__sinit                                           c:/program files (x86)/gnu tools arm embedded/9 2019-q4-major/bin/../lib/gcc/arm-none-eabi/9.2.1/../../../../arm-none-eabi/lib/thumb/v7-m/nofp\libc_nano.a(lib_a-findfp.o)
                                                  c:/program files (x86)/gnu tools arm embedded/9 2019-q4-major/bin/../lib/gcc/arm-none-eabi/9.2.1/../../../../arm-none-eabi/lib/thumb/v7-m/nofp\libc_nano.a(lib_a-nano-vfprintf.o)
                                                  c:/program files (x86)/gnu tools arm embedded/9 2019-q4-major/bin/../lib/gcc/arm-none-eabi/9.2.1/../../../../arm-none-eabi/lib/thumb/v7-m/nofp\libc_nano.a(lib_a-fflush.o)
                                                  c:/program files (x86)/gnu tools arm embedded/9 2019-q4-major/bin/../lib/gcc/arm-none-eabi/9.2.1/../../../../arm-none-eabi/lib/thumb/v7-m/nofp\libc_nano.a(lib_a-wsetup.o)
                                                  c:/program files (x86)/gnu tools arm embedded/9 2019-q4-major/bin/../lib/gcc/arm-none-eabi/9.2.1/../../../../arm-none-eabi/lib/thumb/v7-m/nofp\libc_nano.a(lib_a-wbuf.o)
                                                  c:/program files (x86)/gnu tools arm embedded/9 2019-q4-major/bin/../lib/gcc/arm-none-eabi/9.2.1/../../../../arm-none-eabi/lib/thumb/v7-m/nofp\libc_nano.a(lib_a-puts.o)
                                                  c:/program files (x86)/gnu tools arm embedded/9 2019-q4-major/bin/../lib/gcc/arm-none-eabi/9.2.1/../../../../arm-none-eabi/lib/thumb/v7-m/nofp\libc_nano.a(lib_a-printf.o)
__sinit_lock_acquire                              c:/program files (x86)/gnu tools arm embedded/9 2019-q4-major/bin/../lib/gcc/arm-none-eabi/9.2.1/../../../../arm-none-eabi/lib/thumb/v7-m/nofp\libc_nano.a(lib_a-findfp.o)
__sinit_lock_release                              c:/program files (x86)/gnu tools arm embedded/9 2019-q4-major/bin/../lib/gcc/arm-none-eabi/9.2.1/../../../../arm-none-eabi/lib/thumb/v7-m/nofp\libc_nano.a(lib_a-findfp.o)
__smakebuf_r                                      c:/program files (x86)/gnu tools arm embedded/9 2019-q4-major/bin/../lib/gcc/arm-none-eabi/9.2.1/../../../../arm-none-eabi/lib/thumb/v7-m/nofp\libc_nano.a(lib_a-makebuf.o)
                                                  c:/program files (x86)/gnu tools arm embedded/9 2019-q4-major/bin/../lib/gcc/arm-none-eabi/9.2.1/../../../../arm-none-eabi/lib/thumb/v7-m/nofp\libc_nano.a(lib_a-wsetup.o)
__sprint_r                                        c:/program files (x86)/gnu tools arm embedded/9 2019-q4-major/bin/../lib/gcc/arm-none-eabi/9.2.1/../../../../arm-none-eabi/lib/thumb/v7-m/nofp\libc_nano.a(lib_a-nano-vfprintf.o)
__sread                                           c:/program files (x86)/gnu tools arm embedded/9 2019-q4-major/bin/../lib/gcc/arm-none-eabi/9.2.1/../../../../arm-none-eabi/lib/thumb/v7-m/nofp\libc_nano.a(lib_a-stdio.o)
                                                  c:/program files (x86)/gnu tools arm embedded/9 2019-q4-major/bin/../lib/gcc/arm-none-eabi/9.2.1/../../../../arm-none-eabi/lib/thumb/v7-m/nofp\libc_nano.a(lib_a-findfp.o)
__sseek                                           c:/program files (x86)/gnu tools arm embedded/9 2019-q4-major/bin/../lib/gcc/arm-none-eabi/9.2.1/../../../../arm-none-eabi/lib/thumb/v7-m/nofp\libc_nano.a(lib_a-stdio.o)
                                                  c:/program files (x86)/gnu tools arm embedded/9 2019-q4-major/bin/../lib/gcc/arm-none-eabi/9.2.1/../../../../arm-none-eabi/lib/thumb/v7-m/nofp\libc_nano.a(lib_a-findfp.o)
__stack                                           c:/program files (x86)/gnu tools arm embedded/9 2019-q4-major/bin/../lib/gcc/arm-none-eabi/9.2.1/../../../../arm-none-eabi/lib/thumb/v7-m/nofp/crt0.o
__swbuf                                           c:/program files (x86)/gnu tools arm embedded/9 2019-q4-major/bin/../lib/gcc/arm-none-eabi/9.2.1/../../../../arm-none-eabi/lib/thumb/v7-m/nofp\libc_nano.a(lib_a-wbuf.o)
__swbuf_r                                         c:/program files (x86)/gnu tools arm embedded/9 2019-q4-major/bin/../lib/gcc/arm-none-eabi/9.2.1/../../../../arm-none-eabi/lib/thumb/v7-m/nofp\libc_nano.a(lib_a-wbuf.o)
                                                  c:/program files (x86)/gnu tools arm embedded/9 2019-q4-major/bin/../lib/gcc/arm-none-eabi/9.2.1/../../../../arm-none-eabi/lib/thumb/v7-m/nofp\libc_nano.a(lib_a-nano-vfprintf.o)
                                                  c:/program files (x86)/gnu tools arm embedded/9 2019-q4-major/bin/../lib/gcc/arm-none-eabi/9.2.1/../../../../arm-none-eabi/lib/thumb/v7-m/nofp\libc_nano.a(lib_a-puts.o)
__swhatbuf_r                                      c:/program files (x86)/gnu tools arm embedded/9 2019-q4-major/bin/../lib/gcc/arm-none-eabi/9.2.1/../../../../arm-none-eabi/lib/thumb/v7-m/nofp\libc_nano.a(lib_a-makebuf.o)
__swrite                                          c:/program files (x86)/gnu tools arm embedded/9 2019-q4-major/bin/../lib/gcc/arm-none-eabi/9.2.1/../../../../arm-none-eabi/lib/thumb/v7-m/nofp\libc_nano.a(lib_a-stdio.o)
                                                  c:/program files (x86)/gnu tools arm embedded/9 2019-q4-major/bin/../lib/gcc/arm-none-eabi/9.2.1/../../../../arm-none-eabi/lib/thumb/v7-m/nofp\libc_nano.a(lib_a-findfp.o)
__swsetup_r                                       c:/program files (x86)/gnu tools arm embedded/9 2019-q4-major/bin/../lib/gcc/arm-none-eabi/9.2.1/../../../../arm-none-eabi/lib/thumb/v7-m/nofp\libc_nano.a(lib_a-wsetup.o)
                                                  c:/program files (x86)/gnu tools arm embedded/9 2019-q4-major/bin/../lib/gcc/arm-none-eabi/9.2.1/../../../../arm-none-eabi/lib/thumb/v7-m/nofp\libc_nano.a(lib_a-fvwrite.o)
                                                  c:/program files (x86)/gnu tools arm embedded/9 2019-q4-major/bin/../lib/gcc/arm-none-eabi/9.2.1/../../../../arm-none-eabi/lib/thumb/v7-m/nofp\libc_nano.a(lib_a-nano-vfprintf.o)
                                                  c:/program files (x86)/gnu tools arm embedded/9 2019-q4-major/bin/../lib/gcc/arm-none-eabi/9.2.1/../../../../arm-none-eabi/lib/thumb/v7-m/nofp\libc_nano.a(lib_a-wbuf.o)
                                                  c:/program files (x86)/gnu tools arm embedded/9 2019-q4-major/bin/../lib/gcc/arm-none-eabi/9.2.1/../../../../arm-none-eabi/lib/thumb/v7-m/nofp\libc_nano.a(lib_a-puts.o)
_cleanup                                          c:/program files (x86)/gnu tools arm embedded/9 2019-q4-major/bin/../lib/gcc/arm-none-eabi/9.2.1/../../../../arm-none-eabi/lib/thumb/v7-m/nofp\libc_nano.a(lib_a-findfp.o)
_cleanup_r                                        c:/program files (x86)/gnu tools arm embedded/9 2019-q4-major/bin/../lib/gcc/arm-none-eabi/9.2.1/../../../../arm-none-eabi/lib/thumb/v7-m/nofp\libc_nano.a(lib_a-findfp.o)
                                                  c:/program files (x86)/gnu tools arm embedded/9 2019-q4-major/bin/../lib/gcc/arm-none-eabi/9.2.1/../../../../arm-none-eabi/lib/thumb/v7-m/nofp\libc_nano.a(lib_a-makebuf.o)
_close                                            c:/program files (x86)/gnu tools arm embedded/9 2019-q4-major/bin/../lib/gcc/arm-none-eabi/9.2.1/../../../../arm-none-eabi/lib/thumb/v7-m/nofp\libnosys.a(close.o)
                                                  c:/program files (x86)/gnu tools arm embedded/9 2019-q4-major/bin/../lib/gcc/arm-none-eabi/9.2.1/../../../../arm-none-eabi/lib/thumb/v7-m/nofp\libc_nano.a(lib_a-closer.o)
_close_r                                          c:/program files (x86)/gnu tools arm embedded/9 2019-q4-major/bin/../lib/gcc/arm-none-eabi/9.2.1/../../../../arm-none-eabi/lib/thumb/v7-m/nofp\libc_nano.a(lib_a-closer.o)
                                                  c:/program files (x86)/gnu tools arm embedded/9 2019-q4-major/bin/../lib/gcc/arm-none-eabi/9.2.1/../../../../arm-none-eabi/lib/thumb/v7-m/nofp\libc_nano.a(lib_a-stdio.o)
_ctype_                                           c:/program files (x86)/gnu tools arm embedded/9 2019-q4-major/bin/../lib/gcc/arm-none-eabi/9.2.1/../../../../arm-none-eabi/lib/thumb/v7-m/nofp\libc_nano.a(lib_a-ctype_.o)
                                                  c:/program files (x86)/gnu tools arm embedded/9 2019-q4-major/bin/../lib/gcc/arm-none-eabi/9.2.1/../../../../arm-none-eabi/lib/thumb/v7-m/nofp\libc_nano.a(lib_a-strtol.o)
_ebss                                             build/startup_stm32f103xb.o
_edata                                            build/startup_stm32f103xb.o
_estack                                           build/startup_stm32f103xb.o
_exit                                             c:/program files (x86)/gnu tools arm embedded/9 2019-q4-major/bin/../lib/gcc/arm-none-eabi/9.2.1/../../../../arm-none-eabi/lib/thumb/v7-m/nofp\libnosys.a(_exit.o)
                                                  c:/program files (x86)/gnu tools arm embedded/9 2019-q4-major/bin/../lib/gcc/arm-none-eabi/9.2.1/../../../../arm-none-eabi/lib/thumb/v7-m/nofp\libc_nano.a(lib_a-exit.o)
_fflush_r                                         c:/program files (x86)/gnu tools arm embedded/9 2019-q4-major/bin/../lib/gcc/arm-none-eabi/9.2.1/../../../../arm-none-eabi/lib/thumb/v7-m/nofp\libc_nano.a(lib_a-fflush.o)
                                                  c:/program files (x86)/gnu tools arm embedded/9 2019-q4-major/bin/../lib/gcc/arm-none-eabi/9.2.1/../../../../arm-none-eabi/lib/thumb/v7-m/nofp\libc_nano.a(lib_a-fvwrite.o)
                                                  c:/program files (x86)/gnu tools arm embedded/9 2019-q4-major/bin/../lib/gcc/arm-none-eabi/9.2.1/../../../../arm-none-eabi/lib/thumb/v7-m/nofp\libc_nano.a(lib_a-findfp.o)
                                                  c:/program files (x86)/gnu tools arm embedded/9 2019-q4-major/bin/../lib/gcc/arm-none-eabi/9.2.1/../../../../arm-none-eabi/lib/thumb/v7-m/nofp\libc_nano.a(lib_a-wbuf.o)
_fini                                             c:/program files (x86)/gnu tools arm embedded/9 2019-q4-major/bin/../lib/gcc/arm-none-eabi/9.2.1/thumb/v7-m/nofp/crti.o
_free_r                                           c:/program files (x86)/gnu tools arm embedded/9 2019-q4-major/bin/../lib/gcc/arm-none-eabi/9.2.1/../../../../arm-none-eabi/lib/thumb/v7-m/nofp\libc_nano.a(lib_a-nano-freer.o)
                                                  c:/program files (x86)/gnu tools arm embedded/9 2019-q4-major/bin/../lib/gcc/arm-none-eabi/9.2.1/../../../../arm-none-eabi/lib/thumb/v7-m/nofp\libc_nano.a(lib_a-reent.o)
                                                  c:/program files (x86)/gnu tools arm embedded/9 2019-q4-major/bin/../lib/gcc/arm-none-eabi/9.2.1/../../../../arm-none-eabi/lib/thumb/v7-m/nofp\libc_nano.a(lib_a-nano-reallocr.o)
                                                  c:/program files (x86)/gnu tools arm embedded/9 2019-q4-major/bin/../lib/gcc/arm-none-eabi/9.2.1/../../../../arm-none-eabi/lib/thumb/v7-m/nofp\libc_nano.a(lib_a-fvwrite.o)
                                                  c:/program files (x86)/gnu tools arm embedded/9 2019-q4-major/bin/../lib/gcc/arm-none-eabi/9.2.1/../../../../arm-none-eabi/lib/thumb/v7-m/nofp\libc_nano.a(lib_a-fflush.o)
                                                  c:/program files (x86)/gnu tools arm embedded/9 2019-q4-major/bin/../lib/gcc/arm-none-eabi/9.2.1/../../../../arm-none-eabi/lib/thumb/v7-m/nofp\libc_nano.a(lib_a-wsetup.o)
_fstat                                            c:/program files (x86)/gnu tools arm embedded/9 2019-q4-major/bin/../lib/gcc/arm-none-eabi/9.2.1/../../../../arm-none-eabi/lib/thumb/v7-m/nofp\libnosys.a(fstat.o)
                                                  c:/program files (x86)/gnu tools arm embedded/9 2019-q4-major/bin/../lib/gcc/arm-none-eabi/9.2.1/../../../../arm-none-eabi/lib/thumb/v7-m/nofp\libc_nano.a(lib_a-fstatr.o)
_fstat_r                                          c:/program files (x86)/gnu tools arm embedded/9 2019-q4-major/bin/../lib/gcc/arm-none-eabi/9.2.1/../../../../arm-none-eabi/lib/thumb/v7-m/nofp\libc_nano.a(lib_a-fstatr.o)
                                                  c:/program files (x86)/gnu tools arm embedded/9 2019-q4-major/bin/../lib/gcc/arm-none-eabi/9.2.1/../../../../arm-none-eabi/lib/thumb/v7-m/nofp\libc_nano.a(lib_a-makebuf.o)
_fwalk                                            c:/program files (x86)/gnu tools arm embedded/9 2019-q4-major/bin/../lib/gcc/arm-none-eabi/9.2.1/../../../../arm-none-eabi/lib/thumb/v7-m/nofp\libc_nano.a(lib_a-fwalk.o)
                                                  c:/program files (x86)/gnu tools arm embedded/9 2019-q4-major/bin/../lib/gcc/arm-none-eabi/9.2.1/../../../../arm-none-eabi/lib/thumb/v7-m/nofp\libc_nano.a(lib_a-findfp.o)
_fwalk_reent                                      c:/program files (x86)/gnu tools arm embedded/9 2019-q4-major/bin/../lib/gcc/arm-none-eabi/9.2.1/../../../../arm-none-eabi/lib/thumb/v7-m/nofp\libc_nano.a(lib_a-fwalk.o)
                                                  c:/program files (x86)/gnu tools arm embedded/9 2019-q4-major/bin/../lib/gcc/arm-none-eabi/9.2.1/../../../../arm-none-eabi/lib/thumb/v7-m/nofp\libc_nano.a(lib_a-findfp.o)
                                                  c:/program files (x86)/gnu tools arm embedded/9 2019-q4-major/bin/../lib/gcc/arm-none-eabi/9.2.1/../../../../arm-none-eabi/lib/thumb/v7-m/nofp\libc_nano.a(lib_a-fflush.o)
_global_impure_ptr                                c:/program files (x86)/gnu tools arm embedded/9 2019-q4-major/bin/../lib/gcc/arm-none-eabi/9.2.1/../../../../arm-none-eabi/lib/thumb/v7-m/nofp\libc_nano.a(lib_a-impure.o)
                                                  c:/program files (x86)/gnu tools arm embedded/9 2019-q4-major/bin/../lib/gcc/arm-none-eabi/9.2.1/../../../../arm-none-eabi/lib/thumb/v7-m/nofp\libc_nano.a(lib_a-findfp.o)
                                                  c:/program files (x86)/gnu tools arm embedded/9 2019-q4-major/bin/../lib/gcc/arm-none-eabi/9.2.1/../../../../arm-none-eabi/lib/thumb/v7-m/nofp\libc_nano.a(lib_a-fflush.o)
                                                  c:/program files (x86)/gnu tools arm embedded/9 2019-q4-major/bin/../lib/gcc/arm-none-eabi/9.2.1/../../../../arm-none-eabi/lib/thumb/v7-m/nofp\libc_nano.a(lib_a-exit.o)
_impure_ptr                                       c:/program files (x86)/gnu tools arm embedded/9 2019-q4-major/bin/../lib/gcc/arm-none-eabi/9.2.1/../../../../arm-none-eabi/lib/thumb/v7-m/nofp\libc_nano.a(lib_a-impure.o)
                                                  c:/program files (x86)/gnu tools arm embedded/9 2019-q4-major/bin/../lib/gcc/arm-none-eabi/9.2.1/../../../../arm-none-eabi/lib/thumb/v7-m/nofp\libc_nano.a(lib_a-reent.o)
                                                  c:/program files (x86)/gnu tools arm embedded/9 2019-q4-major/bin/../lib/gcc/arm-none-eabi/9.2.1/../../../../arm-none-eabi/lib/thumb/v7-m/nofp\libc_nano.a(lib_a-nano-vfprintf.o)
                                                  c:/program files (x86)/gnu tools arm embedded/9 2019-q4-major/bin/../lib/gcc/arm-none-eabi/9.2.1/../../../../arm-none-eabi/lib/thumb/v7-m/nofp\libc_nano.a(lib_a-findfp.o)
                                                  c:/program files (x86)/gnu tools arm embedded/9 2019-q4-major/bin/../lib/gcc/arm-none-eabi/9.2.1/../../../../arm-none-eabi/lib/thumb/v7-m/nofp\libc_nano.a(lib_a-fflush.o)
                                                  c:/program files (x86)/gnu tools arm embedded/9 2019-q4-major/bin/../lib/gcc/arm-none-eabi/9.2.1/../../../../arm-none-eabi/lib/thumb/v7-m/nofp\libc_nano.a(lib_a-wsetup.o)
                                                  c:/program files (x86)/gnu tools arm embedded/9 2019-q4-major/bin/../lib/gcc/arm-none-eabi/9.2.1/../../../../arm-none-eabi/lib/thumb/v7-m/nofp\libc_nano.a(lib_a-wbuf.o)
                                                  c:/program files (x86)/gnu tools arm embedded/9 2019-q4-major/bin/../lib/gcc/arm-none-eabi/9.2.1/../../../../arm-none-eabi/lib/thumb/v7-m/nofp\libc_nano.a(lib_a-strtol.o)
                                                  c:/program files (x86)/gnu tools arm embedded/9 2019-q4-major/bin/../lib/gcc/arm-none-eabi/9.2.1/../../../../arm-none-eabi/lib/thumb/v7-m/nofp\libc_nano.a(lib_a-puts.o)
                                                  c:/program files (x86)/gnu tools arm embedded/9 2019-q4-major/bin/../lib/gcc/arm-none-eabi/9.2.1/../../../../arm-none-eabi/lib/thumb/v7-m/nofp\libc_nano.a(lib_a-printf.o)
                                                  c:/program files (x86)/gnu tools arm embedded/9 2019-q4-major/bin/../lib/gcc/arm-none-eabi/9.2.1/../../../../arm-none-eabi/lib/thumb/v7-m/nofp\libc_nano.a(lib_a-errno.o)
_init                                             c:/program files (x86)/gnu tools arm embedded/9 2019-q4-major/bin/../lib/gcc/arm-none-eabi/9.2.1/thumb/v7-m/nofp/crti.o
                                                  c:/program files (x86)/gnu tools arm embedded/9 2019-q4-major/bin/../lib/gcc/arm-none-eabi/9.2.1/../../../../arm-none-eabi/lib/thumb/v7-m/nofp\libc_nano.a(lib_a-init.o)
_iprintf_r                                        c:/program files (x86)/gnu tools arm embedded/9 2019-q4-major/bin/../lib/gcc/arm-none-eabi/9.2.1/../../../../arm-none-eabi/lib/thumb/v7-m/nofp\libc_nano.a(lib_a-printf.o)
_isatty                                           c:/program files (x86)/gnu tools arm embedded/9 2019-q4-major/bin/../lib/gcc/arm-none-eabi/9.2.1/../../../../arm-none-eabi/lib/thumb/v7-m/nofp\libnosys.a(isatty.o)
                                                  c:/program files (x86)/gnu tools arm embedded/9 2019-q4-major/bin/../lib/gcc/arm-none-eabi/9.2.1/../../../../arm-none-eabi/lib/thumb/v7-m/nofp\libc_nano.a(lib_a-isattyr.o)
_isatty_r                                         c:/program files (x86)/gnu tools arm embedded/9 2019-q4-major/bin/../lib/gcc/arm-none-eabi/9.2.1/../../../../arm-none-eabi/lib/thumb/v7-m/nofp\libc_nano.a(lib_a-isattyr.o)
                                                  c:/program files (x86)/gnu tools arm embedded/9 2019-q4-major/bin/../lib/gcc/arm-none-eabi/9.2.1/../../../../arm-none-eabi/lib/thumb/v7-m/nofp\libc_nano.a(lib_a-makebuf.o)
_lseek                                            c:/program files (x86)/gnu tools arm embedded/9 2019-q4-major/bin/../lib/gcc/arm-none-eabi/9.2.1/../../../../arm-none-eabi/lib/thumb/v7-m/nofp\libnosys.a(lseek.o)
                                                  c:/program files (x86)/gnu tools arm embedded/9 2019-q4-major/bin/../lib/gcc/arm-none-eabi/9.2.1/../../../../arm-none-eabi/lib/thumb/v7-m/nofp\libc_nano.a(lib_a-lseekr.o)
_lseek_r                                          c:/program files (x86)/gnu tools arm embedded/9 2019-q4-major/bin/../lib/gcc/arm-none-eabi/9.2.1/../../../../arm-none-eabi/lib/thumb/v7-m/nofp\libc_nano.a(lib_a-lseekr.o)
                                                  c:/program files (x86)/gnu tools arm embedded/9 2019-q4-major/bin/../lib/gcc/arm-none-eabi/9.2.1/../../../../arm-none-eabi/lib/thumb/v7-m/nofp\libc_nano.a(lib_a-stdio.o)
_mainCRTStartup                                   c:/program files (x86)/gnu tools arm embedded/9 2019-q4-major/bin/../lib/gcc/arm-none-eabi/9.2.1/../../../../arm-none-eabi/lib/thumb/v7-m/nofp/crt0.o
_malloc_r                                         c:/program files (x86)/gnu tools arm embedded/9 2019-q4-major/bin/../lib/gcc/arm-none-eabi/9.2.1/../../../../arm-none-eabi/lib/thumb/v7-m/nofp\libc_nano.a(lib_a-nano-mallocr.o)
                                                  c:/program files (x86)/gnu tools arm embedded/9 2019-q4-major/bin/../lib/gcc/arm-none-eabi/9.2.1/../../../../arm-none-eabi/lib/thumb/v7-m/nofp\libc_nano.a(lib_a-nano-reallocr.o)
                                                  c:/program files (x86)/gnu tools arm embedded/9 2019-q4-major/bin/../lib/gcc/arm-none-eabi/9.2.1/../../../../arm-none-eabi/lib/thumb/v7-m/nofp\libc_nano.a(lib_a-fvwrite.o)
                                                  c:/program files (x86)/gnu tools arm embedded/9 2019-q4-major/bin/../lib/gcc/arm-none-eabi/9.2.1/../../../../arm-none-eabi/lib/thumb/v7-m/nofp\libc_nano.a(lib_a-makebuf.o)
                                                  c:/program files (x86)/gnu tools arm embedded/9 2019-q4-major/bin/../lib/gcc/arm-none-eabi/9.2.1/../../../../arm-none-eabi/lib/thumb/v7-m/nofp\libc_nano.a(lib_a-findfp.o)
_malloc_usable_size_r                             c:/program files (x86)/gnu tools arm embedded/9 2019-q4-major/bin/../lib/gcc/arm-none-eabi/9.2.1/../../../../arm-none-eabi/lib/thumb/v7-m/nofp\libc_nano.a(lib_a-nano-msizer.o)
                                                  c:/program files (x86)/gnu tools arm embedded/9 2019-q4-major/bin/../lib/gcc/arm-none-eabi/9.2.1/../../../../arm-none-eabi/lib/thumb/v7-m/nofp\libc_nano.a(lib_a-nano-reallocr.o)
_printf_common                                    c:/program files (x86)/gnu tools arm embedded/9 2019-q4-major/bin/../lib/gcc/arm-none-eabi/9.2.1/../../../../arm-none-eabi/lib/thumb/v7-m/nofp\libc_nano.a(lib_a-nano-vfprintf_i.o)
_printf_float                                     c:/program files (x86)/gnu tools arm embedded/9 2019-q4-major/bin/../lib/gcc/arm-none-eabi/9.2.1/../../../../arm-none-eabi/lib/thumb/v7-m/nofp\libc_nano.a(lib_a-nano-vfprintf.o)
_printf_i                                         c:/program files (x86)/gnu tools arm embedded/9 2019-q4-major/bin/../lib/gcc/arm-none-eabi/9.2.1/../../../../arm-none-eabi/lib/thumb/v7-m/nofp\libc_nano.a(lib_a-nano-vfprintf_i.o)
                                                  c:/program files (x86)/gnu tools arm embedded/9 2019-q4-major/bin/../lib/gcc/arm-none-eabi/9.2.1/../../../../arm-none-eabi/lib/thumb/v7-m/nofp\libc_nano.a(lib_a-nano-vfprintf.o)
_printf_r                                         c:/program files (x86)/gnu tools arm embedded/9 2019-q4-major/bin/../lib/gcc/arm-none-eabi/9.2.1/../../../../arm-none-eabi/lib/thumb/v7-m/nofp\libc_nano.a(lib_a-printf.o)
_puts_r                                           c:/program files (x86)/gnu tools arm embedded/9 2019-q4-major/bin/../lib/gcc/arm-none-eabi/9.2.1/../../../../arm-none-eabi/lib/thumb/v7-m/nofp\libc_nano.a(lib_a-puts.o)
_read                                             c:/program files (x86)/gnu tools arm embedded/9 2019-q4-major/bin/../lib/gcc/arm-none-eabi/9.2.1/../../../../arm-none-eabi/lib/thumb/v7-m/nofp\libnosys.a(read.o)
                                                  c:/program files (x86)/gnu tools arm embedded/9 2019-q4-major/bin/../lib/gcc/arm-none-eabi/9.2.1/../../../../arm-none-eabi/lib/thumb/v7-m/nofp\libc_nano.a(lib_a-readr.o)
_read_r                                           c:/program files (x86)/gnu tools arm embedded/9 2019-q4-major/bin/../lib/gcc/arm-none-eabi/9.2.1/../../../../arm-none-eabi/lib/thumb/v7-m/nofp\libc_nano.a(lib_a-readr.o)
                                                  c:/program files (x86)/gnu tools arm embedded/9 2019-q4-major/bin/../lib/gcc/arm-none-eabi/9.2.1/../../../../arm-none-eabi/lib/thumb/v7-m/nofp\libc_nano.a(lib_a-stdio.o)
_realloc_r                                        c:/program files (x86)/gnu tools arm embedded/9 2019-q4-major/bin/../lib/gcc/arm-none-eabi/9.2.1/../../../../arm-none-eabi/lib/thumb/v7-m/nofp\libc_nano.a(lib_a-nano-reallocr.o)
                                                  c:/program files (x86)/gnu tools arm embedded/9 2019-q4-major/bin/../lib/gcc/arm-none-eabi/9.2.1/../../../../arm-none-eabi/lib/thumb/v7-m/nofp\libc_nano.a(lib_a-fvwrite.o)
_reclaim_reent                                    c:/program files (x86)/gnu tools arm embedded/9 2019-q4-major/bin/../lib/gcc/arm-none-eabi/9.2.1/../../../../arm-none-eabi/lib/thumb/v7-m/nofp\libc_nano.a(lib_a-reent.o)
_sbrk                                             c:/program files (x86)/gnu tools arm embedded/9 2019-q4-major/bin/../lib/gcc/arm-none-eabi/9.2.1/../../../../arm-none-eabi/lib/thumb/v7-m/nofp\libnosys.a(sbrk.o)
                                                  c:/program files (x86)/gnu tools arm embedded/9 2019-q4-major/bin/../lib/gcc/arm-none-eabi/9.2.1/../../../../arm-none-eabi/lib/thumb/v7-m/nofp\libc_nano.a(lib_a-sbrkr.o)
_sbrk_r                                           c:/program files (x86)/gnu tools arm embedded/9 2019-q4-major/bin/../lib/gcc/arm-none-eabi/9.2.1/../../../../arm-none-eabi/lib/thumb/v7-m/nofp\libc_nano.a(lib_a-sbrkr.o)
                                                  c:/program files (x86)/gnu tools arm embedded/9 2019-q4-major/bin/../lib/gcc/arm-none-eabi/9.2.1/../../../../arm-none-eabi/lib/thumb/v7-m/nofp\libc_nano.a(lib_a-nano-mallocr.o)
_sbss                                             build/startup_stm32f103xb.o
_sdata                                            build/startup_stm32f103xb.o
_sidata                                           build/startup_stm32f103xb.o
_start                                            c:/program files (x86)/gnu tools arm embedded/9 2019-q4-major/bin/../lib/gcc/arm-none-eabi/9.2.1/../../../../arm-none-eabi/lib/thumb/v7-m/nofp/crt0.o
_strtol_r                                         c:/program files (x86)/gnu tools arm embedded/9 2019-q4-major/bin/../lib/gcc/arm-none-eabi/9.2.1/../../../../arm-none-eabi/lib/thumb/v7-m/nofp\libc_nano.a(lib_a-strtol.o)
_vfiprintf_r                                      c:/program files (x86)/gnu tools arm embedded/9 2019-q4-major/bin/../lib/gcc/arm-none-eabi/9.2.1/../../../../arm-none-eabi/lib/thumb/v7-m/nofp\libc_nano.a(lib_a-nano-vfprintf.o)
_vfprintf_r                                       c:/program files (x86)/gnu tools arm embedded/9 2019-q4-major/bin/../lib/gcc/arm-none-eabi/9.2.1/../../../../arm-none-eabi/lib/thumb/v7-m/nofp\libc_nano.a(lib_a-nano-vfprintf.o)
                                                  c:/program files (x86)/gnu tools arm embedded/9 2019-q4-major/bin/../lib/gcc/arm-none-eabi/9.2.1/../../../../arm-none-eabi/lib/thumb/v7-m/nofp\libc_nano.a(lib_a-printf.o)
_write                                            build/main.o
                                                  c:/program files (x86)/gnu tools arm embedded/9 2019-q4-major/bin/../lib/gcc/arm-none-eabi/9.2.1/../../../../arm-none-eabi/lib/thumb/v7-m/nofp\libc_nano.a(lib_a-writer.o)
_write_r                                          c:/program files (x86)/gnu tools arm embedded/9 2019-q4-major/bin/../lib/gcc/arm-none-eabi/9.2.1/../../../../arm-none-eabi/lib/thumb/v7-m/nofp\libc_nano.a(lib_a-writer.o)
                                                  c:/program files (x86)/gnu tools arm embedded/9 2019-q4-major/bin/../lib/gcc/arm-none-eabi/9.2.1/../../../../arm-none-eabi/lib/thumb/v7-m/nofp\libc_nano.a(lib_a-stdio.o)
a2i                                               build/monitor.o
aLineMode1080PMode12Lin1                          build/VX_OSD_Simple.o
                                                  build/VS4210.o
aLineMode1080PMode14Lin1                          build/VX_OSD_Simple.o
                                                  build/VS4210.o
aLineMode1080PMode14Lin2                          build/VX_OSD_Simple.o
                                                  build/VS4210.o
aLineMode1080PMode1Lin1                           build/VX_OSD_Simple.o
                                                  build/VS4210.o
aLineMode1080PMode1Lin2                           build/VX_OSD_Simple.o
                                                  build/VS4210.o
aLineMode1080PMode2Lin1                           build/VX_OSD_Simple.o
aLineMode1080PMode2Lin2                           build/VX_OSD_Simple.o
aLineMode1080PMode2Lin3                           build/VX_OSD_Simple.o
aLineMode1080PMode8Lin1                           build/VX_OSD_Simple.o
                                                  build/VS4210.o
aLineMode1080PMode8Lin2                           build/VX_OSD_Simple.o
                                                  build/VS4210.o
aLineMode1080PMode9Lin1                           build/VX_OSD_Simple.o
                                                  build/VS4210.o
aLineMode1080PMode9Lin2                           build/VX_OSD_Simple.o
                                                  build/VS4210.o
aLineMode720PMode12Lin1                           build/VX_OSD_Simple.o
                                                  build/VS4210.o
aLineMode720PMode14Lin1                           build/VX_OSD_Simple.o
                                                  build/VS4210.o
aLineMode720PMode14Lin2                           build/VX_OSD_Simple.o
                                                  build/VS4210.o
aLineMode720PMode1Lin1                            build/VX_OSD_Simple.o
                                                  build/VS4210.o
aLineMode720PMode1Lin2                            build/VX_OSD_Simple.o
                                                  build/VS4210.o
aLineMode720PMode2Lin1                            build/VX_OSD_Simple.o
aLineMode720PMode2Lin2                            build/VX_OSD_Simple.o
aLineMode720PMode2Lin3                            build/VX_OSD_Simple.o
aLineMode720PMode8Lin1                            build/VX_OSD_Simple.o
                                                  build/VS4210.o
aLineMode720PMode8Lin2                            build/VX_OSD_Simple.o
                                                  build/VS4210.o
aLineMode720PMode9Lin1                            build/VX_OSD_Simple.o
                                                  build/VS4210.o
aLineMode720PMode9Lin2                            build/VX_OSD_Simple.o
                                                  build/VS4210.o
aLineMode800x480Mode10Lin1                        build/VX_OSD_Simple.o
                                                  build/VS4210.o
aLineMode800x480Mode10Lin2                        build/VX_OSD_Simple.o
                                                  build/VS4210.o
aLineMode800x480Mode12Lin1                        build/VX_OSD_Simple.o
                                                  build/VS4210.o
aLineMode800x480Mode14Lin1                        build/VX_OSD_Simple.o
                                                  build/VS4210.o
aLineMode800x480Mode14Lin2                        build/VX_OSD_Simple.o
                                                  build/VS4210.o
aLineMode800x480Mode1Lin1                         build/VX_OSD_Simple.o
                                                  build/VS4210.o
aLineMode800x480Mode1Lin2                         build/VX_OSD_Simple.o
                                                  build/VS4210.o
aLineMode800x480Mode2Lin1                         build/VX_OSD_Simple.o
aLineMode800x480Mode2Lin2                         build/VX_OSD_Simple.o
aLineMode800x480Mode2Lin3                         build/VX_OSD_Simple.o
aLineMode800x480Mode8Lin1                         build/VX_OSD_Simple.o
                                                  build/VS4210.o
aLineMode800x480Mode8Lin2                         build/VX_OSD_Simple.o
                                                  build/VS4210.o
aLineMode800x480Mode9Lin1                         build/VX_OSD_Simple.o
                                                  build/VS4210.o
aLineMode800x480Mode9Lin2                         build/VX_OSD_Simple.o
                                                  build/VS4210.o
aLineModeReg                                      build/VX_OSD_Simple.o
                                                  build/VS4210.o
argc                                              build/monitor.o
argv                                              build/monitor.o
atexit                                            c:/program files (x86)/gnu tools arm embedded/9 2019-q4-major/bin/../lib/gcc/arm-none-eabi/9.2.1/../../../../arm-none-eabi/lib/thumb/v7-m/nofp/crt0.o
bSignal                                           build/VS4210.o
                                                  build/monitor.o
                                                  build/TP2802.o
                                                  build/VX_OSD_Simple.o
                                                  build/main.o
buf_tpms                                          build/TD5300.o
bytAutoSleeping                                   build/main.o
                                                  build/keyremo.o
                                                  build/SysTimer.o
                                                  build/VX_OSD_Simple.o
bytCOCAdjust                                      build/VX_OSD_Simple.o
                                                  build/keyremo.o
bytDistanceGaugePosition                          build/main.o
                                                  build/etc_eep.o
                                                  build/VX_OSD_Simple.o
bytDistanceGaugeWidth                             build/main.o
                                                  build/etc_eep.o
                                                  build/VX_OSD_Simple.o
bytGarbberLiner                                   build/main.o
                                                  build/keyremo.o
                                                  build/VX_OSD_Simple.o
bytGarbberLinerMode                               build/main.o
                                                  build/SysTimer.o
                                                  build/VX_OSD_Simple.o
bytGarbberLinerPosition                           build/main.o
                                                  build/etc_eep.o
                                                  build/VX_OSD_Simple.o
bytGarbberLinerWidth                              build/main.o
                                                  build/etc_eep.o
                                                  build/VX_OSD_Simple.o
bytGaugeAdjust                                    build/VX_OSD_Simple.o
                                                  build/keyremo.o
bytGrabberAdjust                                  build/VX_OSD_Simple.o
                                                  build/keyremo.o
bytPowerDownMode                                  build/main.o
                                                  build/keyremo.o
bytResetOSDValue                                  build/etc_eep.o
                                                  build/keyremo.o
                                                  build/SysTimer.o
                                                  build/TP2802.o
bytSelectCAMRD                                    build/main.o
                                                  build/keyremo.o
                                                  build/SysTimer.o
                                                  build/TP2802.o
                                                  build/VS4210.o
                                                  build/VX_OSD_Simple.o
bytSetGarbberLinerPosition                        build/main.o
                                                  build/VX_OSD_Simple.o
bytStandByMode                                    build/main.o
                                                  build/keyremo.o
                                                  build/SysTimer.o
bytStandByModeToTriggerMode                       build/main.o
                                                  build/keyremo.o
                                                  build/SysTimer.o
bytTriggerTest                                    build/keyremo.o
                                                  build/monitor.o
bytTripleScreenType                               build/main.o
                                                  build/keyremo.o
                                                  build/VX_OSD_Simple.o
bytVideoInput                                     build/VS4210.o
                                                  build/monitor.o
ch_boot_reset                                     build/TP2802.o
change_keyon                                      build/TD5300.o
chip                                              build/TP2802.o
cleanup_glue                                      c:/program files (x86)/gnu tools arm embedded/9 2019-q4-major/bin/../lib/gcc/arm-none-eabi/9.2.1/../../../../arm-none-eabi/lib/thumb/v7-m/nofp\libc_nano.a(lib_a-reent.o)
coc_cursor                                        build/keyremo.o
                                                  build/VX_OSD_Simple.o
count                                             build/TP2802.o
                                                  build/monitor.o
crc                                               build/TP2802.o
cur_osdwin                                        build/keyremo.o
cursor_change                                     build/keyremo.o
                                                  build/VX_OSD_Simple.o
cursor_item                                       build/keyremo.o
                                                  build/VX_OSD_Simple.o
cursor_p                                          build/TD5300.o
day                                               build/SysTimer.o
                                                  build/monitor.o
delay                                             build/VX_swi2c.o
                                                  build/TP2802.o
delay1ms                                          build/VX_swi2c.o
                                                  ./Lib\libsw_i2c3.a(sw_i2c3.o)
                                                  ./Lib\libsw_i2c0.a(sw_i2c0.o)
delayTX1ms                                        build/VX_swi2c.o
echo                                              build/monitor.o
egain                                             build/TP2802.o
                                                  build/monitor.o
end                                               c:/program files (x86)/gnu tools arm embedded/9 2019-q4-major/bin/../lib/gcc/arm-none-eabi/9.2.1/../../../../arm-none-eabi/lib/thumb/v7-m/nofp\libnosys.a(sbrk.o)
errno                                             c:/program files (x86)/gnu tools arm embedded/9 2019-q4-major/bin/../lib/gcc/arm-none-eabi/9.2.1/../../../../arm-none-eabi/lib/thumb/v7-m/nofp\libc_nano.a(lib_a-reent.o)
                                                  c:/program files (x86)/gnu tools arm embedded/9 2019-q4-major/bin/../lib/gcc/arm-none-eabi/9.2.1/../../../../arm-none-eabi/lib/thumb/v7-m/nofp\libnosys.a(read.o)
                                                  c:/program files (x86)/gnu tools arm embedded/9 2019-q4-major/bin/../lib/gcc/arm-none-eabi/9.2.1/../../../../arm-none-eabi/lib/thumb/v7-m/nofp\libnosys.a(lseek.o)
                                                  c:/program files (x86)/gnu tools arm embedded/9 2019-q4-major/bin/../lib/gcc/arm-none-eabi/9.2.1/../../../../arm-none-eabi/lib/thumb/v7-m/nofp\libnosys.a(isatty.o)
                                                  c:/program files (x86)/gnu tools arm embedded/9 2019-q4-major/bin/../lib/gcc/arm-none-eabi/9.2.1/../../../../arm-none-eabi/lib/thumb/v7-m/nofp\libnosys.a(fstat.o)
                                                  c:/program files (x86)/gnu tools arm embedded/9 2019-q4-major/bin/../lib/gcc/arm-none-eabi/9.2.1/../../../../arm-none-eabi/lib/thumb/v7-m/nofp\libnosys.a(close.o)
                                                  c:/program files (x86)/gnu tools arm embedded/9 2019-q4-major/bin/../lib/gcc/arm-none-eabi/9.2.1/../../../../arm-none-eabi/lib/thumb/v7-m/nofp\libc_nano.a(lib_a-readr.o)
                                                  c:/program files (x86)/gnu tools arm embedded/9 2019-q4-major/bin/../lib/gcc/arm-none-eabi/9.2.1/../../../../arm-none-eabi/lib/thumb/v7-m/nofp\libc_nano.a(lib_a-lseekr.o)
                                                  c:/program files (x86)/gnu tools arm embedded/9 2019-q4-major/bin/../lib/gcc/arm-none-eabi/9.2.1/../../../../arm-none-eabi/lib/thumb/v7-m/nofp\libc_nano.a(lib_a-isattyr.o)
                                                  c:/program files (x86)/gnu tools arm embedded/9 2019-q4-major/bin/../lib/gcc/arm-none-eabi/9.2.1/../../../../arm-none-eabi/lib/thumb/v7-m/nofp\libc_nano.a(lib_a-fstatr.o)
                                                  c:/program files (x86)/gnu tools arm embedded/9 2019-q4-major/bin/../lib/gcc/arm-none-eabi/9.2.1/../../../../arm-none-eabi/lib/thumb/v7-m/nofp\libc_nano.a(lib_a-closer.o)
                                                  c:/program files (x86)/gnu tools arm embedded/9 2019-q4-major/bin/../lib/gcc/arm-none-eabi/9.2.1/../../../../arm-none-eabi/lib/thumb/v7-m/nofp\libc_nano.a(lib_a-writer.o)
                                                  c:/program files (x86)/gnu tools arm embedded/9 2019-q4-major/bin/../lib/gcc/arm-none-eabi/9.2.1/../../../../arm-none-eabi/lib/thumb/v7-m/nofp\libc_nano.a(lib_a-sbrkr.o)
exit                                              c:/program files (x86)/gnu tools arm embedded/9 2019-q4-major/bin/../lib/gcc/arm-none-eabi/9.2.1/../../../../arm-none-eabi/lib/thumb/v7-m/nofp\libc_nano.a(lib_a-exit.o)
                                                  c:/program files (x86)/gnu tools arm embedded/9 2019-q4-major/bin/../lib/gcc/arm-none-eabi/9.2.1/../../../../arm-none-eabi/lib/thumb/v7-m/nofp/crt0.o
fflush                                            c:/program files (x86)/gnu tools arm embedded/9 2019-q4-major/bin/../lib/gcc/arm-none-eabi/9.2.1/../../../../arm-none-eabi/lib/thumb/v7-m/nofp\libc_nano.a(lib_a-fflush.o)
flag_AUDIO                                        build/TP2802.o
flag_CVBS                                         build/TP2802.o
flag_LOCKED                                       build/TP2802.o
flag_MEGA                                         build/TP2802.o
g4210VinIndex                                     build/VS4210.o
gRxLoopFlg                                        build/main.o
gWindowNum                                        build/VS4210.o
g_bNotifyTimer0Int                                build/SysTimer.o
                                                  build/keyremo.o
                                                  build/main.o
g_pfnVectors                                      build/startup_stm32f103xb.o
g_stPowerInfo                                     build/SysTimer.o
g_stTimerEvent                                    build/SysTimer.o
g_usTimerCounter                                  build/SysTimer.o
                                                  build/main.o
gaHDMI_MapWindowIndex                             build/VS4210.o
                                                  build/VX_OSD_Simple.o
gabVXIS_Input_mirrorH                             build/VS4210.o
                                                  build/main.o
gbVXIS_InputMode                                  build/VS4210.o
                                                  build/TP2802.o
                                                  build/main.o
gbVXIS_OuputModeflg                               build/VS4210.o
                                                  build/TP2802.o
                                                  build/VX_OSD_Simple.o
gbVXIS_OuputSize                                  build/VS4210.o
                                                  build/VX_OSD_Simple.o
getch                                             build/TD5300.o
getche                                            build/TD5300.o
gskipsleepflg                                     build/VX_swi2c.o
gu8AudioMode                                      build/VS4210.o
                                                  build/VX_OSD_Simple.o
hadc1                                             build/main.o
                                                  build/SysTimer.o
half_scaler                                       build/main.o
                                                  build/TP2802.o
hardware_init_hook                                c:/program files (x86)/gnu tools arm embedded/9 2019-q4-major/bin/../lib/gcc/arm-none-eabi/9.2.1/../../../../arm-none-eabi/lib/thumb/v7-m/nofp/crt0.o
hour                                              build/SysTimer.o
                                                  build/monitor.o
hs_toupper                                        build/monitor.o
htim2                                             build/main.o
htim3                                             build/main.o
                                                  build/stm32f1xx_it.o
huart1                                            build/main.o
                                                  build/stm32f1xx_it.o
huart2                                            build/main.o
                                                  build/stm32f1xx_it.o
iBackLightLevel                                   build/main.o
                                                  build/VX_OSD_Simple.o
iprintf                                           c:/program files (x86)/gnu tools arm embedded/9 2019-q4-major/bin/../lib/gcc/arm-none-eabi/9.2.1/../../../../arm-none-eabi/lib/thumb/v7-m/nofp\libc_nano.a(lib_a-printf.o)
keytic                                            build/main.o
lcddev                                            build/GT911.o
led_Flag                                          build/SysTimer.o
lock_keycnt                                       build/keyremo.o
loop_flag                                         build/TD5300.o
main                                              build/main.o
                                                  build/startup_stm32f103xb.o
                                                  c:/program files (x86)/gnu tools arm embedded/9 2019-q4-major/bin/../lib/gcc/arm-none-eabi/9.2.1/../../../../arm-none-eabi/lib/thumb/v7-m/nofp/crt0.o
main_init                                         build/main.o
main_loop                                         build/main.o
memchr                                            c:/program files (x86)/gnu tools arm embedded/9 2019-q4-major/bin/../lib/gcc/arm-none-eabi/9.2.1/../../../../arm-none-eabi/lib/thumb/v7-m/nofp\libc_nano.a(lib_a-memchr-stub.o)
                                                  c:/program files (x86)/gnu tools arm embedded/9 2019-q4-major/bin/../lib/gcc/arm-none-eabi/9.2.1/../../../../arm-none-eabi/lib/thumb/v7-m/nofp\libc_nano.a(lib_a-fvwrite.o)
                                                  c:/program files (x86)/gnu tools arm embedded/9 2019-q4-major/bin/../lib/gcc/arm-none-eabi/9.2.1/../../../../arm-none-eabi/lib/thumb/v7-m/nofp\libc_nano.a(lib_a-nano-vfprintf_i.o)
                                                  c:/program files (x86)/gnu tools arm embedded/9 2019-q4-major/bin/../lib/gcc/arm-none-eabi/9.2.1/../../../../arm-none-eabi/lib/thumb/v7-m/nofp\libc_nano.a(lib_a-nano-vfprintf.o)
memcpy                                            c:/program files (x86)/gnu tools arm embedded/9 2019-q4-major/bin/../lib/gcc/arm-none-eabi/9.2.1/../../../../arm-none-eabi/lib/thumb/v7-m/nofp\libc_nano.a(lib_a-memcpy-stub.o)
                                                  c:/program files (x86)/gnu tools arm embedded/9 2019-q4-major/bin/../lib/gcc/arm-none-eabi/9.2.1/../../../../arm-none-eabi/lib/thumb/v7-m/nofp\libc_nano.a(lib_a-nano-reallocr.o)
                                                  c:/program files (x86)/gnu tools arm embedded/9 2019-q4-major/bin/../lib/gcc/arm-none-eabi/9.2.1/../../../../arm-none-eabi/lib/thumb/v7-m/nofp\libc_nano.a(lib_a-fvwrite.o)
                                                  build/VX_swi2c.o
memmove                                           c:/program files (x86)/gnu tools arm embedded/9 2019-q4-major/bin/../lib/gcc/arm-none-eabi/9.2.1/../../../../arm-none-eabi/lib/thumb/v7-m/nofp\libc_nano.a(lib_a-memmove.o)
                                                  c:/program files (x86)/gnu tools arm embedded/9 2019-q4-major/bin/../lib/gcc/arm-none-eabi/9.2.1/../../../../arm-none-eabi/lib/thumb/v7-m/nofp\libc_nano.a(lib_a-fvwrite.o)
memset                                            c:/program files (x86)/gnu tools arm embedded/9 2019-q4-major/bin/../lib/gcc/arm-none-eabi/9.2.1/../../../../arm-none-eabi/lib/thumb/v7-m/nofp\libc_nano.a(lib_a-memset.o)
                                                  c:/program files (x86)/gnu tools arm embedded/9 2019-q4-major/bin/../lib/gcc/arm-none-eabi/9.2.1/../../../../arm-none-eabi/lib/thumb/v7-m/nofp\libc_nano.a(lib_a-findfp.o)
                                                  build/VX_swi2c.o
                                                  c:/program files (x86)/gnu tools arm embedded/9 2019-q4-major/bin/../lib/gcc/arm-none-eabi/9.2.1/../../../../arm-none-eabi/lib/thumb/v7-m/nofp/crt0.o
minute                                            build/SysTimer.o
                                                  build/monitor.o
mode                                              build/TP2802.o
                                                  build/monitor.o
monstr                                            build/monitor.o
month                                             build/SysTimer.o
msleep                                            build/VX_swi2c.o
                                                  ./Lib\libsw_i2c1.a(sw_i2c1.o)
                                                  build/GT911.o
                                                  build/keyremo.o
                                                  build/monitor.o
                                                  build/TP2802.o
                                                  build/VS4210.o
                                                  build/VX_OSD_Simple.o
                                                  build/main.o
newInRes                                          build/TP2802.o
osd_cont_write                                    build/VX_swi2c.o
                                                  build/VX_OSD_Simple.o
pFlash                                            build/stm32f1xx_hal_flash.o
                                                  build/stm32f1xx_hal_flash_ex.o
pVS4210_JointKind1                                build/main.o
                                                  build/VX_OSD_Simple.o
presetNum                                         build/TP2802.o
printf                                            c:/program files (x86)/gnu tools arm embedded/9 2019-q4-major/bin/../lib/gcc/arm-none-eabi/9.2.1/../../../../arm-none-eabi/lib/thumb/v7-m/nofp\libc_nano.a(lib_a-printf.o)
                                                  build/GT911.o
                                                  build/TP2802.o
                                                  build/main.o
ptztxflag                                         build/TP2802.o
putch                                             build/TD5300.o
puts                                              c:/program files (x86)/gnu tools arm embedded/9 2019-q4-major/bin/../lib/gcc/arm-none-eabi/9.2.1/../../../../arm-none-eabi/lib/thumb/v7-m/nofp\libc_nano.a(lib_a-puts.o)
                                                  build/TP2802.o
                                                  build/VX_OSD_Simple.o
                                                  build/main.o
revision                                          build/TP2802.o
sb_data                                           build/TD5300.o
sb_p_data_max                                     build/TD5300.o
sb_tp_data                                        build/TD5300.o
second                                            build/SysTimer.o
                                                  build/monitor.o
setTransParentIndex                               build/VX_OSD.o
                                                  build/VX_OSD_Simple.o
setloopoutmode                                    build/main.o
                                                  build/keyremo.o
slider_event                                      build/GT911.o
                                                  build/SysTimer.o
software_init_hook                                c:/program files (x86)/gnu tools arm embedded/9 2019-q4-major/bin/../lib/gcc/arm-none-eabi/9.2.1/../../../../arm-none-eabi/lib/thumb/v7-m/nofp/crt0.o
standby_count                                     build/SysTimer.o
                                                  build/keyremo.o
                                                  build/main.o
state                                             build/TP2802.o
                                                  build/monitor.o
std                                               build/TP2802.o
                                                  build/monitor.o
strcmp                                            c:/program files (x86)/gnu tools arm embedded/9 2019-q4-major/bin/../lib/gcc/arm-none-eabi/9.2.1/../../../../arm-none-eabi/lib/thumb/v7-m/nofp\libc_nano.a(lib_a-strcmp.o)
                                                  build/GT911.o
stricmp                                           build/monitor.o
strtol                                            c:/program files (x86)/gnu tools arm embedded/9 2019-q4-major/bin/../lib/gcc/arm-none-eabi/9.2.1/../../../../arm-none-eabi/lib/thumb/v7-m/nofp\libc_nano.a(lib_a-strtol.o)
                                                  build/main.o
strtol_l                                          c:/program files (x86)/gnu tools arm embedded/9 2019-q4-major/bin/../lib/gcc/arm-none-eabi/9.2.1/../../../../arm-none-eabi/lib/thumb/v7-m/nofp\libc_nano.a(lib_a-strtol.o)
sywd                                              build/TP2802.o
tic02                                             build/SysTimer.o
                                                  build/main.o
tic03                                             build/SysTimer.o
                                                  build/main.o
tic04                                             build/SysTimer.o
                                                  build/main.o
title_item                                        build/keyremo.o
tp28xx_byte_read                                  build/VX_swi2c.o
                                                  build/monitor.o
                                                  build/TP2802.o
tp28xx_byte_write                                 build/VX_swi2c.o
                                                  build/monitor.o
                                                  build/TP2802.o
tpRxD                                             build/TP2802.o
tp_dev                                            build/GT911.o
tptic                                             build/main.o
u8DrawBoxColor                                    build/VS4210.o
u8DrawBoxFlg                                      build/VS4210.o
u8gDrawOSDFlg                                     build/VS4210.o
                                                  build/VX_OSD_Simple.o
uComOnChipInitial                                 build/main.o
updn_reg                                          build/keyremo.o
                                                  build/main.o
user_pwm_setvalue                                 build/main.o
                                                  build/etc_eep.o
                                                  build/SysTimer.o
                                                  build/monitor.o
                                                  build/TP2802.o
uwTick                                            build/stm32f1xx_hal.o
uwTickFreq                                        build/stm32f1xx_hal.o
uwTickPrio                                        build/stm32f1xx_hal.o
                                                  build/stm32f1xx_hal_rcc.o
val_index                                         build/keyremo.o
val_osdwin                                        build/keyremo.o
vfiprintf                                         c:/program files (x86)/gnu tools arm embedded/9 2019-q4-major/bin/../lib/gcc/arm-none-eabi/9.2.1/../../../../arm-none-eabi/lib/thumb/v7-m/nofp\libc_nano.a(lib_a-nano-vfprintf.o)
vfprintf                                          c:/program files (x86)/gnu tools arm embedded/9 2019-q4-major/bin/../lib/gcc/arm-none-eabi/9.2.1/../../../../arm-none-eabi/lib/thumb/v7-m/nofp\libc_nano.a(lib_a-nano-vfprintf.o)
year1                                             build/SysTimer.o
year2                                             build/SysTimer.o
